CCS PCH C Compiler, Version 5.056, 29513               24-Dec-19 22:35

               Filename:   C:\Users\maisun\Documents\PhD\offline\code\ccs\MAIN_PIC_FM\MAIN_PIC_FM.lst

               ROM used:   55094 bytes (42%)
                           Largest free fragment is 65520
               RAM used:   731 (20%) at main() level
                           817 (23%) worst case
               Stack used: 12 locations (10 in main + 2 for interrupts)
               Stack size: 31

*
00600:  NOP   
00602:  GOTO   D7C8
*
00608:  GOTO   06F2
0060C:  NOP   
0060E:  NOP   
00610:  NOP   
00612:  NOP   
00614:  NOP   
00616:  NOP   
00618:  MOVWF  04
0061A:  MOVFF  FD8,05
0061E:  MOVFF  FE0,06
00622:  MOVLB  0
00624:  MOVFF  FE9,0C
00628:  MOVFF  FEA,07
0062C:  MOVFF  FE1,08
00630:  MOVFF  FE2,09
00634:  MOVFF  FD9,0A
00638:  MOVFF  FDA,0B
0063C:  MOVFF  FF3,12
00640:  MOVFF  FF4,13
00644:  MOVFF  FFA,14
00648:  MOVFF  FF5,15
0064C:  MOVFF  FF6,16
00650:  MOVFF  FF7,17
00654:  MOVFF  FF8,18
00658:  MOVFF  FFB,19
0065C:  MOVFF  00,0E
00660:  MOVFF  01,0F
00664:  MOVFF  02,10
00668:  MOVFF  03,11
0066C:  BTFSS  FF2.5
0066E:  GOTO   0678
00672:  BTFSC  FF2.2
00674:  GOTO   15C6
00678:  BTFSS  F9D.5
0067A:  GOTO   0684
0067E:  BTFSC  F9E.5
00680:  GOTO   1624
00684:  BTFSS  F61.5
00686:  GOTO   0690
0068A:  BTFSC  FA6.5
0068C:  GOTO   169C
00690:  BTFSS  F61.7
00692:  GOTO   069C
00696:  BTFSC  FA6.7
00698:  GOTO   16D4
0069C:  MOVFF  0E,00
006A0:  MOVFF  0F,01
006A4:  MOVFF  10,02
006A8:  MOVFF  11,03
006AC:  MOVFF  0C,FE9
006B0:  MOVFF  07,FEA
006B4:  BSF    07.7
006B6:  MOVFF  08,FE1
006BA:  MOVFF  09,FE2
006BE:  MOVFF  0A,FD9
006C2:  MOVFF  0B,FDA
006C6:  MOVFF  12,FF3
006CA:  MOVFF  13,FF4
006CE:  MOVFF  14,FFA
006D2:  MOVFF  15,FF5
006D6:  MOVFF  16,FF6
006DA:  MOVFF  17,FF7
006DE:  MOVFF  18,FF8
006E2:  MOVFF  19,FFB
006E6:  MOVF   04,W
006E8:  MOVFF  06,FE0
006EC:  MOVFF  05,FD8
006F0:  RETFIE 0
006F2:  MOVLB  0
006F4:  MOVFF  FE9,21
006F8:  MOVFF  FEA,1C
006FC:  MOVFF  FE1,1D
00700:  MOVFF  FE2,1E
00704:  MOVFF  FD9,1F
00708:  MOVFF  FDA,20
0070C:  MOVFF  FF3,27
00710:  MOVFF  FF4,28
00714:  MOVFF  FFA,29
00718:  MOVFF  FF5,2A
0071C:  MOVFF  FF6,2B
00720:  MOVFF  FF7,2C
00724:  MOVFF  FF8,2D
00728:  MOVFF  FFB,2E
0072C:  MOVFF  00,23
00730:  MOVFF  01,24
00734:  MOVFF  02,25
00738:  MOVFF  03,26
0073C:  BTFSS  FA3.5
0073E:  GOTO   0748
00742:  BTFSC  FA4.5
00744:  GOTO   1648
00748:  MOVFF  23,00
0074C:  MOVFF  24,01
00750:  MOVFF  25,02
00754:  MOVFF  26,03
00758:  MOVFF  21,FE9
0075C:  MOVFF  1C,FEA
00760:  BSF    1C.7
00762:  MOVFF  1D,FE1
00766:  MOVFF  1E,FE2
0076A:  MOVFF  1F,FD9
0076E:  MOVFF  20,FDA
00772:  MOVFF  27,FF3
00776:  MOVFF  28,FF4
0077A:  MOVFF  29,FFA
0077E:  MOVFF  2A,FF5
00782:  MOVFF  2B,FF6
00786:  MOVFF  2C,FF7
0078A:  MOVFF  2D,FF8
0078E:  MOVFF  2E,FFB
00792:  RETFIE 1
....................  
.................... #include <MAIN_PIC_FM.h> 
.................... #include <18F67J94.h> 
.................... //////////// Standard Header file for the PIC18F67J94 device //////////////// 
.................... /////////////////////////////////////////////////////////////////////////// 
.................... ////        (C) Copyright 1996, 2014 Custom Computer Services          //// 
.................... //// This source code may only be used by licensed users of the CCS C  //// 
.................... //// compiler.  This source code may only be distributed to other      //// 
.................... //// licensed users of the CCS C compiler.  No other use, reproduction //// 
.................... //// or distribution is permitted without written permission.          //// 
.................... //// Derivative programs created using this software in object code    //// 
.................... //// form are not restricted in any way.                               //// 
.................... /////////////////////////////////////////////////////////////////////////// 
.................... #device PIC18F67J94 
00794:  DATA 0D,0A
00796:  DATA 50,41
00798:  DATA 53,53
0079A:  DATA 45,44
0079C:  DATA 20,44
0079E:  DATA 41,59
007A0:  DATA 53,3A
007A2:  DATA 25,78
007A4:  DATA 0D,0A
007A6:  DATA 00,00
007A8:  DATA 52,45
007AA:  DATA 53,45
007AC:  DATA 52,56
007AE:  DATA 45,20
007B0:  DATA 43,48
007B2:  DATA 45,43
007B4:  DATA 4B,3A
007B6:  DATA 25,78
007B8:  DATA 0D,0A
007BA:  DATA 00,00
007BC:  DATA 4B,69
007BE:  DATA 6C,6C
007C0:  DATA 20,46
007C2:  DATA 4C,41
007C4:  DATA 47,20
007C6:  DATA 4D,41
007C8:  DATA 49,4E
007CA:  DATA 3A,25
007CC:  DATA 78,0D
007CE:  DATA 0A,00
007D0:  DATA 4B,69
007D2:  DATA 6C,6C
007D4:  DATA 20,46
007D6:  DATA 4C,41
007D8:  DATA 47,20
007DA:  DATA 46,41
007DC:  DATA 42,3A
007DE:  DATA 25,78
007E0:  DATA 0D,0A
007E2:  DATA 00,00
007E4:  DATA 41,55
007E6:  DATA 54,4F
007E8:  DATA 20,48
007EA:  DATA 49,47
007EC:  DATA 48,20
007EE:  DATA 53,41
007F0:  DATA 4D,50
007F2:  DATA 4C,49
007F4:  DATA 4E,47
007F6:  DATA 3A,25
007F8:  DATA 78,0D
007FA:  DATA 0A,00
007FC:  DATA 41,55
007FE:  DATA 54,4F
00800:  DATA 20,43
00802:  DATA 41,4D
00804:  DATA 3A,25
00806:  DATA 78,0D
00808:  DATA 0A,00
0080A:  DATA 41,55
0080C:  DATA 54,4F
0080E:  DATA 20,4D
00810:  DATA 42,50
00812:  DATA 3A,25
00814:  DATA 78,0D
00816:  DATA 0A,00
00818:  DATA 41,55
0081A:  DATA 54,4F
0081C:  DATA 20,41
0081E:  DATA 44,43
00820:  DATA 53,3A
00822:  DATA 25,78
00824:  DATA 0D,0A
00826:  DATA 00,00
00828:  DATA 41,4E
0082A:  DATA 54,45
0082C:  DATA 4E,4E
0082E:  DATA 41,20
00830:  DATA 44,45
00832:  DATA 50,4C
00834:  DATA 4F,59
00836:  DATA 3A,25
00838:  DATA 78,0D
0083A:  DATA 0A,00
0083C:  DATA 41,4E
0083E:  DATA 54,45
00840:  DATA 4E,4E
00842:  DATA 41,20
00844:  DATA 44,45
00846:  DATA 50,4C
00848:  DATA 4F,59
0084A:  DATA 20,41
0084C:  DATA 54,54
0084E:  DATA 45,4D
00850:  DATA 50,54
00852:  DATA 3A,25
00854:  DATA 78,0D
00856:  DATA 0A,00
00858:  DATA 55,50
0085A:  DATA 4C,49
0085C:  DATA 4E,4B
0085E:  DATA 20,53
00860:  DATA 55,43
00862:  DATA 43,45
00864:  DATA 53,53
00866:  DATA 3A,25
00868:  DATA 78,0D
0086A:  DATA 0A,0D
0086C:  DATA 0A,00
0086E:  DATA 0D,0A
00870:  DATA 41,44
00872:  DATA 44,20
00874:  DATA 49,4E
00876:  DATA 46,4F
00878:  DATA 20,41
0087A:  DATA 44,44
0087C:  DATA 52,45
0087E:  DATA 53,53
00880:  DATA 3A,25
00882:  DATA 6C,78
00884:  DATA 0D,0A
00886:  DATA 0D,0A
00888:  DATA 00,00
0088A:  DATA 46,4C
0088C:  DATA 41,47
0088E:  DATA 20,44
00890:  DATA 41,54
00892:  DATA 41,20
00894:  DATA 41,44
00896:  DATA 44,52
00898:  DATA 45,53
0089A:  DATA 53,3A
0089C:  DATA 25,78
0089E:  DATA 25,78
008A0:  DATA 25,78
008A2:  DATA 25,78
008A4:  DATA 0D,0A
008A6:  DATA 00,00
008A8:  DATA 52,45
008AA:  DATA 53,45
008AC:  DATA 52,56
008AE:  DATA 41,54
008B0:  DATA 49,4F
008B2:  DATA 4E,20
008B4:  DATA 54,41
008B6:  DATA 42,4C
008B8:  DATA 45,20
008BA:  DATA 41,44
008BC:  DATA 44,52
008BE:  DATA 45,53
008C0:  DATA 53,3A
008C2:  DATA 25,78
008C4:  DATA 25,78
008C6:  DATA 25,78
008C8:  DATA 25,78
008CA:  DATA 0D,0A
008CC:  DATA 00,00
008CE:  DATA 53,41
008D0:  DATA 54,45
008D2:  DATA 4C,4C
008D4:  DATA 49,54
008D6:  DATA 45,20
008D8:  DATA 4C,4F
008DA:  DATA 47,20
008DC:  DATA 41,44
008DE:  DATA 44,52
008E0:  DATA 45,53
008E2:  DATA 53,3A
008E4:  DATA 25,78
008E6:  DATA 25,78
008E8:  DATA 25,78
008EA:  DATA 25,78
008EC:  DATA 0D,0A
008EE:  DATA 00,00
008F0:  DATA 43,41
008F2:  DATA 4D,20
008F4:  DATA 41,44
008F6:  DATA 44,52
008F8:  DATA 45,53
008FA:  DATA 53,3A
008FC:  DATA 25,78
008FE:  DATA 25,78
00900:  DATA 25,78
00902:  DATA 25,78
00904:  DATA 0D,0A
00906:  DATA 00,00
00908:  DATA 46,41
0090A:  DATA 42,20
0090C:  DATA 48,4B
0090E:  DATA 20,41
00910:  DATA 44,44
00912:  DATA 52,45
00914:  DATA 53,53
00916:  DATA 3A,25
00918:  DATA 78,25
0091A:  DATA 78,25
0091C:  DATA 78,25
0091E:  DATA 78,0D
00920:  DATA 0A,00
00922:  DATA 46,41
00924:  DATA 42,20
00926:  DATA 43,57
00928:  DATA 20,41
0092A:  DATA 44,44
0092C:  DATA 52,45
0092E:  DATA 53,53
00930:  DATA 3A,25
00932:  DATA 78,25
00934:  DATA 78,25
00936:  DATA 78,25
00938:  DATA 78,0D
0093A:  DATA 0A,00
0093C:  DATA 41,44
0093E:  DATA 43,53
00940:  DATA 20,53
00942:  DATA 45,4E
00944:  DATA 53,4F
00946:  DATA 52,20
00948:  DATA 41,44
0094A:  DATA 44,52
0094C:  DATA 45,53
0094E:  DATA 53,3A
00950:  DATA 25,78
00952:  DATA 25,78
00954:  DATA 25,78
00956:  DATA 25,78
00958:  DATA 0D,0A
0095A:  DATA 00,00
0095C:  DATA 41,44
0095E:  DATA 43,53
00960:  DATA 20,54
00962:  DATA 4C,45
00964:  DATA 20,41
00966:  DATA 44,44
00968:  DATA 52,45
0096A:  DATA 53,53
0096C:  DATA 3A,25
0096E:  DATA 78,25
00970:  DATA 78,25
00972:  DATA 78,25
00974:  DATA 78,0D
00976:  DATA 0A,00
00978:  DATA 4D,49
0097A:  DATA 53,53
0097C:  DATA 49,4F
0097E:  DATA 4E,20
00980:  DATA 42,4F
00982:  DATA 53,53
00984:  DATA 20,41
00986:  DATA 44,44
00988:  DATA 52,45
0098A:  DATA 53,53
0098C:  DATA 3A,25
0098E:  DATA 78,25
00990:  DATA 78,25
00992:  DATA 78,25
00994:  DATA 78,0D
00996:  DATA 0A,00
00998:  DATA 48,49
0099A:  DATA 47,48
0099C:  DATA 20,53
0099E:  DATA 41,4D
009A0:  DATA 50,20
009A2:  DATA 48,4B
009A4:  DATA 20,41
009A6:  DATA 44,44
009A8:  DATA 45,52
009AA:  DATA 53,53
009AC:  DATA 3A,25
009AE:  DATA 78,25
009B0:  DATA 78,25
009B2:  DATA 78,25
009B4:  DATA 78,0D
009B6:  DATA 0A,00
009B8:  DATA 57,52
009BA:  DATA 49,54
009BC:  DATA 45,20
009BE:  DATA 25,6C
009C0:  DATA 78,20
009C2:  DATA 54,49
009C4:  DATA 4D,45
009C6:  DATA 53,0D
009C8:  DATA 0A,00
009CA:  DATA 0D,0A
009CC:  DATA 50,41
009CE:  DATA 53,53
009D0:  DATA 45,44
009D2:  DATA 20,44
009D4:  DATA 41,59
009D6:  DATA 53,3A
009D8:  DATA 25,6C
009DA:  DATA 78,0D
009DC:  DATA 0A,00
009DE:  DATA 52,45
009E0:  DATA 53,45
009E2:  DATA 52,56
009E4:  DATA 45,20
009E6:  DATA 43,48
009E8:  DATA 45,43
009EA:  DATA 4B,3A
009EC:  DATA 25,78
009EE:  DATA 0D,0A
009F0:  DATA 00,00
009F2:  DATA 4B,69
009F4:  DATA 6C,6C
009F6:  DATA 20,46
009F8:  DATA 4C,41
009FA:  DATA 47,20
009FC:  DATA 4D,41
009FE:  DATA 49,4E
00A00:  DATA 3A,25
00A02:  DATA 78,0D
00A04:  DATA 0A,00
00A06:  DATA 4B,69
00A08:  DATA 6C,6C
00A0A:  DATA 20,46
00A0C:  DATA 4C,41
00A0E:  DATA 47,20
00A10:  DATA 46,41
00A12:  DATA 42,3A
00A14:  DATA 25,78
00A16:  DATA 0D,0A
00A18:  DATA 00,00
00A1A:  DATA 41,55
00A1C:  DATA 54,4F
00A1E:  DATA 20,48
00A20:  DATA 49,47
00A22:  DATA 48,20
00A24:  DATA 53,41
00A26:  DATA 4D,50
00A28:  DATA 4C,49
00A2A:  DATA 4E,47
00A2C:  DATA 3A,25
00A2E:  DATA 78,0D
00A30:  DATA 0A,00
00A32:  DATA 41,55
00A34:  DATA 54,4F
00A36:  DATA 20,43
00A38:  DATA 41,4D
00A3A:  DATA 3A,25
00A3C:  DATA 78,0D
00A3E:  DATA 0A,00
00A40:  DATA 41,55
00A42:  DATA 54,4F
00A44:  DATA 20,4D
00A46:  DATA 42,50
00A48:  DATA 3A,25
00A4A:  DATA 78,0D
00A4C:  DATA 0A,00
00A4E:  DATA 41,55
00A50:  DATA 54,4F
00A52:  DATA 20,41
00A54:  DATA 44,43
00A56:  DATA 53,3A
00A58:  DATA 25,78
00A5A:  DATA 0D,0A
00A5C:  DATA 00,00
00A5E:  DATA 41,4E
00A60:  DATA 54,45
00A62:  DATA 4E,4E
00A64:  DATA 41,20
00A66:  DATA 44,45
00A68:  DATA 50,4C
00A6A:  DATA 4F,59
00A6C:  DATA 3A,25
00A6E:  DATA 78,0D
00A70:  DATA 0A,00
00A72:  DATA 55,50
00A74:  DATA 4C,49
00A76:  DATA 4E,4B
00A78:  DATA 20,53
00A7A:  DATA 55,43
00A7C:  DATA 43,45
00A7E:  DATA 53,53
00A80:  DATA 3A,25
00A82:  DATA 78,0D
00A84:  DATA 0A,0D
00A86:  DATA 0A,00
00A88:  DATA 46,4C
00A8A:  DATA 41,47
00A8C:  DATA 20,49
00A8E:  DATA 4E,46
00A90:  DATA 4F,20
00A92:  DATA 53,54
00A94:  DATA 4F,52
00A96:  DATA 45,44
00A98:  DATA 20,49
00A9A:  DATA 4E,20
00A9C:  DATA 46,4C
00A9E:  DATA 41,53
00AA0:  DATA 48,0D
00AA2:  DATA 0A,00
00AA4:  DATA 0D,0A
00AA6:  DATA 61,64
00AA8:  DATA 64,72
00AAA:  DATA 65,73
00AAC:  DATA 73,20
00AAE:  DATA 69,6E
00AB0:  DATA 66,6F
00AB2:  DATA 20,6C
00AB4:  DATA 6F,63
00AB6:  DATA 61,74
00AB8:  DATA 69,6F
00ABA:  DATA 6E,3A
00ABC:  DATA 25,6C
00ABE:  DATA 78,0D
00AC0:  DATA 0A,00
00AC2:  DATA 41,44
00AC4:  DATA 20,43
00AC6:  DATA 4F,55
00AC8:  DATA 4E,54
00ACA:  DATA 45,52
00ACC:  DATA 3A,25
00ACE:  DATA 6C,78
00AD0:  DATA 0D,0A
00AD2:  DATA 00,00
00AD4:  DATA 43,48
00AD6:  DATA 41,4E
00AD8:  DATA 47,45
00ADA:  DATA 44,20
00ADC:  DATA 4D,45
00ADE:  DATA 4D,4F
00AE0:  DATA 52,59
00AE2:  DATA 20,41
00AE4:  DATA 44,44
00AE6:  DATA 52,45
00AE8:  DATA 53,53
00AEA:  DATA 3A,00
00AEC:  DATA 0D,0A
00AEE:  DATA 53,74
00AF0:  DATA 6F,72
00AF2:  DATA 65,69
00AF4:  DATA 6E,67
00AF6:  DATA 20,41
00AF8:  DATA 64,64
00AFA:  DATA 72,65
00AFC:  DATA 73,73
00AFE:  DATA 20,44
00B00:  DATA 61,74
00B02:  DATA 61,20
00B04:  DATA 69,6E
00B06:  DATA 20,46
00B08:  DATA 6C,61
00B0A:  DATA 73,68
00B0C:  DATA 0D,0A
00B0E:  DATA 00,00
00B10:  DATA 41,44
00B12:  DATA 44,52
00B14:  DATA 45,53
00B16:  DATA 53,20
00B18:  DATA 44,41
00B1A:  DATA 54,41
00B1C:  DATA 20,53
00B1E:  DATA 54,4F
00B20:  DATA 52,45
00B22:  DATA 20,44
00B24:  DATA 4F,4E
00B26:  DATA 45,3A
00B28:  DATA 25,6C
00B2A:  DATA 78,0D
00B2C:  DATA 0A,00
00B2E:  DATA 46,4C
00B30:  DATA 41,53
00B32:  DATA 48,20
00B34:  DATA 4D,45
00B36:  DATA 4D,4F
00B38:  DATA 52,59
00B3A:  DATA 20,45
00B3C:  DATA 52,41
00B3E:  DATA 53,45
00B40:  DATA 20,53
00B42:  DATA 54,41
00B44:  DATA 52,54
00B46:  DATA 0D,0A
00B48:  DATA 00,00
00B4A:  DATA 46,4C
00B4C:  DATA 41,53
00B4E:  DATA 48,20
00B50:  DATA 4D,45
00B52:  DATA 4D,4F
00B54:  DATA 52,59
00B56:  DATA 20,45
00B58:  DATA 52,41
00B5A:  DATA 53,45
00B5C:  DATA 20,44
00B5E:  DATA 4F,4E
00B60:  DATA 45,0D
00B62:  DATA 0A,00
00B64:  DATA 52,65
00B66:  DATA 6D,61
00B68:  DATA 69,6E
00B6A:  DATA 69,6E
00B6C:  DATA 67,20
00B6E:  DATA 74,69
00B70:  DATA 6D,65
00B72:  DATA 3A,20
00B74:  DATA 25,64
00B76:  DATA 20,20
00B78:  DATA 0D,00
00B7A:  DATA 65,72
00B7C:  DATA 61,73
00B7E:  DATA 69,6E
00B80:  DATA 67,20
00B82:  DATA 6E,65
00B84:  DATA 78,74
00B86:  DATA 20,73
00B88:  DATA 65,63
00B8A:  DATA 74,6F
00B8C:  DATA 72,0D
00B8E:  DATA 0A,00
00B90:  DATA 65,72
00B92:  DATA 61,73
00B94:  DATA 69,6E
00B96:  DATA 67,20
00B98:  DATA 6E,65
00B9A:  DATA 78,74
00B9C:  DATA 20,73
00B9E:  DATA 65,63
00BA0:  DATA 74,6F
00BA2:  DATA 72,0D
00BA4:  DATA 0A,00
00BA6:  DATA 65,72
00BA8:  DATA 61,73
00BAA:  DATA 69,6E
00BAC:  DATA 67,20
00BAE:  DATA 6E,65
00BB0:  DATA 78,74
00BB2:  DATA 20,73
00BB4:  DATA 65,63
00BB6:  DATA 74,6F
00BB8:  DATA 72,0D
00BBA:  DATA 0A,00
00BBC:  DATA 65,72
00BBE:  DATA 61,73
00BC0:  DATA 69,6E
00BC2:  DATA 67,20
00BC4:  DATA 6E,65
00BC6:  DATA 78,74
00BC8:  DATA 20,73
00BCA:  DATA 65,63
00BCC:  DATA 74,6F
00BCE:  DATA 72,0D
00BD0:  DATA 0A,00
00BD2:  DATA 65,72
00BD4:  DATA 61,73
00BD6:  DATA 69,6E
00BD8:  DATA 67,20
00BDA:  DATA 6E,65
00BDC:  DATA 78,74
00BDE:  DATA 20,73
00BE0:  DATA 65,63
00BE2:  DATA 74,6F
00BE4:  DATA 72,0D
00BE6:  DATA 0A,00
00BE8:  DATA 52,65
00BEA:  DATA 61,64
00BEC:  DATA 79,20
00BEE:  DATA 66,6F
00BF0:  DATA 72,20
00BF2:  DATA 72,65
00BF4:  DATA 73,65
00BF6:  DATA 74,00
00BF8:  DATA 4C,4F
00BFA:  DATA 47,20
00BFC:  DATA 73,61
00BFE:  DATA 76,69
00C00:  DATA 6E,67
00C02:  DATA 20,64
00C04:  DATA 6F,6E
00C06:  DATA 65,0D
00C08:  DATA 0A,00
00C0A:  DATA 45,52
00C0C:  DATA 41,53
00C0E:  DATA 45,20
00C10:  DATA 4F,46
00C12:  DATA 3A,25
00C14:  DATA 78,25
00C16:  DATA 78,25
00C18:  DATA 78,25
00C1A:  DATA 78,0D
00C1C:  DATA 0A,00
00C1E:  DATA 45,52
00C20:  DATA 41,53
00C22:  DATA 45,20
00C24:  DATA 53,43
00C26:  DATA 46,3A
00C28:  DATA 25,78
00C2A:  DATA 25,78
00C2C:  DATA 25,78
00C2E:  DATA 25,78
00C30:  DATA 0D,0A
00C32:  DATA 00,00
00C34:  DATA 45,52
00C36:  DATA 41,53
00C38:  DATA 45,20
00C3A:  DATA 53,4D
00C3C:  DATA 46,3A
00C3E:  DATA 25,78
00C40:  DATA 25,78
00C42:  DATA 25,78
00C44:  DATA 25,78
00C46:  DATA 0D,0A
00C48:  DATA 00,00
00C4A:  DATA 74,72
00C4C:  DATA 61,6E
00C4E:  DATA 73,66
00C50:  DATA 65,72
00C52:  DATA 20,4F
00C54:  DATA 46,32
00C56:  DATA 53,43
00C58:  DATA 46,3A
00C5A:  DATA 25,78
00C5C:  DATA 25,78
00C5E:  DATA 25,78
00C60:  DATA 25,78
00C62:  DATA 0D,0A
00C64:  DATA 00,00
00C66:  DATA 74,72
00C68:  DATA 61,6E
00C6A:  DATA 73,66
00C6C:  DATA 65,72
00C6E:  DATA 20,4F
00C70:  DATA 46,32
00C72:  DATA 53,4D
00C74:  DATA 46,3A
00C76:  DATA 25,78
00C78:  DATA 25,78
00C7A:  DATA 25,78
00C7C:  DATA 25,78
00C7E:  DATA 0D,0A
00C80:  DATA 00,00
00C82:  DATA 74,72
00C84:  DATA 61,6E
00C86:  DATA 73,66
00C88:  DATA 65,72
00C8A:  DATA 20,53
00C8C:  DATA 43,46
00C8E:  DATA 32,4F
00C90:  DATA 46,3A
00C92:  DATA 25,78
00C94:  DATA 25,78
00C96:  DATA 25,78
00C98:  DATA 25,78
00C9A:  DATA 0D,0A
00C9C:  DATA 00,00
00C9E:  DATA 74,72
00CA0:  DATA 61,6E
00CA2:  DATA 73,66
00CA4:  DATA 65,72
00CA6:  DATA 20,53
00CA8:  DATA 43,46
00CAA:  DATA 32,53
00CAC:  DATA 4D,46
00CAE:  DATA 3A,25
00CB0:  DATA 78,25
00CB2:  DATA 78,25
00CB4:  DATA 78,25
00CB6:  DATA 78,0D
00CB8:  DATA 0A,00
00CBA:  DATA 74,72
00CBC:  DATA 61,6E
00CBE:  DATA 73,66
00CC0:  DATA 65,72
00CC2:  DATA 20,53
00CC4:  DATA 4D,46
00CC6:  DATA 32,4F
00CC8:  DATA 46,3A
00CCA:  DATA 25,78
00CCC:  DATA 25,78
00CCE:  DATA 25,78
00CD0:  DATA 25,78
00CD2:  DATA 0D,0A
00CD4:  DATA 00,00
00CD6:  DATA 74,72
00CD8:  DATA 61,6E
00CDA:  DATA 73,66
00CDC:  DATA 65,72
00CDE:  DATA 20,53
00CE0:  DATA 4D,46
00CE2:  DATA 32,53
00CE4:  DATA 43,46
00CE6:  DATA 3A,25
00CE8:  DATA 78,25
00CEA:  DATA 78,25
00CEC:  DATA 78,25
00CEE:  DATA 78,0D
00CF0:  DATA 0A,00
00CF2:  DATA 67,69
00CF4:  DATA 76,69
00CF6:  DATA 6E,67
00CF8:  DATA 20,61
00CFA:  DATA 63,63
00CFC:  DATA 65,73
00CFE:  DATA 73,20
00D00:  DATA 74,6F
00D02:  DATA 20,43
00D04:  DATA 4F,4D
00D06:  DATA 20,66
00D08:  DATA 6F,72
00D0A:  DATA 20,25
00D0C:  DATA 64,20
00D0E:  DATA 6D,69
00D10:  DATA 6E,0D
00D12:  DATA 0A,00
00D14:  DATA 0D,0A
00D16:  DATA 42,61
00D18:  DATA 63,6B
00D1A:  DATA 20,74
00D1C:  DATA 6F,20
00D1E:  DATA 4E,6F
00D20:  DATA 6D,61
00D22:  DATA 6C,20
00D24:  DATA 4F,70
00D26:  DATA 65,72
00D28:  DATA 61,74
00D2A:  DATA 69,6F
00D2C:  DATA 6E,0D
00D2E:  DATA 0A,00
00D30:  DATA 43,75
00D32:  DATA 72,72
00D34:  DATA 65,6E
00D36:  DATA 74,20
00D38:  DATA 54,65
00D3A:  DATA 6D,70
00D3C:  DATA 3A,20
00D3E:  DATA 25,31
00D40:  DATA 2E,31
00D42:  DATA 66,0D
00D44:  DATA 0A,00
00D46:  DATA 54,75
00D48:  DATA 72,6E
00D4A:  DATA 65,64
00D4C:  DATA 20,4F
00D4E:  DATA 4E,20
00D50:  DATA 42,43
00D52:  DATA 0D,0A
00D54:  DATA 00,00
00D56:  DATA 54,75
00D58:  DATA 72,6E
00D5A:  DATA 65,64
00D5C:  DATA 20,4F
00D5E:  DATA 46,46
00D60:  DATA 20,42
00D62:  DATA 43,0D
00D64:  DATA 0A,00
00D66:  DATA 4D,41
00D68:  DATA 58,49
00D6A:  DATA 4D,55
00D6C:  DATA 4D,20
00D6E:  DATA 54,45
00D70:  DATA 4D,50
00D72:  DATA 45,52
00D74:  DATA 41,54
00D76:  DATA 55,52
00D78:  DATA 45,20
00D7A:  DATA 69,73
00D7C:  DATA 20,25
00D7E:  DATA 31,2E
00D80:  DATA 31,66
00D82:  DATA 0D,0A
00D84:  DATA 0D,0A
00D86:  DATA 00,00
00D88:  DATA 0D,0A
00D8A:  DATA 42,43
00D8C:  DATA 20,41
00D8E:  DATA 74,74
00D90:  DATA 65,6D
00D92:  DATA 70,74
00D94:  DATA 20,46
00D96:  DATA 6C,61
00D98:  DATA 67,20
00D9A:  DATA 63,6C
00D9C:  DATA 65,61
00D9E:  DATA 72,20
00DA0:  DATA 64,6F
00DA2:  DATA 6E,65
00DA4:  DATA 0D,0A
00DA6:  DATA 00,00
00DA8:  DATA 0D,0A
00DAA:  DATA 42,43
00DAC:  DATA 20,41
00DAE:  DATA 74,74
00DB0:  DATA 65,6D
00DB2:  DATA 70,74
00DB4:  DATA 20,46
00DB6:  DATA 6C,61
00DB8:  DATA 67,3A
00DBA:  DATA 31,0D
00DBC:  DATA 0A,00
00DBE:  DATA 0D,0A
00DC0:  DATA 42,43
00DC2:  DATA 20,41
00DC4:  DATA 74,74
00DC6:  DATA 65,6D
00DC8:  DATA 70,74
00DCA:  DATA 20,46
00DCC:  DATA 6C,61
00DCE:  DATA 67,3A
00DD0:  DATA 32,0D
00DD2:  DATA 0A,00
00DD4:  DATA 0D,0A
00DD6:  DATA 42,43
00DD8:  DATA 20,41
00DDA:  DATA 74,74
00DDC:  DATA 65,6D
00DDE:  DATA 70,74
00DE0:  DATA 20,46
00DE2:  DATA 6C,61
00DE4:  DATA 67,3A
00DE6:  DATA 33,0D
00DE8:  DATA 0A,00
00DEA:  DATA 0D,0A
00DEC:  DATA 42,43
00DEE:  DATA 20,41
00DF0:  DATA 74,74
00DF2:  DATA 65,6D
00DF4:  DATA 70,74
00DF6:  DATA 20,46
00DF8:  DATA 6C,61
00DFA:  DATA 67,3A
00DFC:  DATA 34,0D
00DFE:  DATA 0A,00
00E00:  DATA 41,6E
00E02:  DATA 74,20
00E04:  DATA 44,65
00E06:  DATA 70,20
00E08:  DATA 41,74
00E0A:  DATA 74,65
00E0C:  DATA 6D,70
00E0E:  DATA 74,20
00E10:  DATA 4E,6F
00E12:  DATA 3A,20
00E14:  DATA 25,78
00E16:  DATA 0D,0A
00E18:  DATA 00,00
00E1A:  DATA 42,43
00E1C:  DATA 20,63
00E1E:  DATA 6F,6D
00E20:  DATA 6D,61
00E22:  DATA 6E,64
00E24:  DATA 20,73
00E26:  DATA 65,6E
00E28:  DATA 74,20
00E2A:  DATA 74,6F
00E2C:  DATA 20,52
00E2E:  DATA 45,53
00E30:  DATA 45,54
00E32:  DATA 20,50
00E34:  DATA 49,43
00E36:  DATA 0D,0A
00E38:  DATA 00,00
00E3A:  DATA 0D,0A
00E3C:  DATA 43,57
00E3E:  DATA 20,41
00E40:  DATA 4E,53
00E42:  DATA 3A,00
00E44:  DATA 0D,0A
00E46:  DATA 41,44
00E48:  DATA 43,53
00E4A:  DATA 20,44
00E4C:  DATA 41,54
00E4E:  DATA 41,20
00E50:  DATA 72,65
00E52:  DATA 63,65
00E54:  DATA 69,76
00E56:  DATA 65,64
00E58:  DATA 0D,0A
00E5A:  DATA 00,00
00E5C:  DATA 0D,0A
00E5E:  DATA 41,44
00E60:  DATA 43,53
00E62:  DATA 20,44
00E64:  DATA 41,54
00E66:  DATA 41,20
00E68:  DATA 6E,6F
00E6A:  DATA 74,20
00E6C:  DATA 72,65
00E6E:  DATA 63,65
00E70:  DATA 69,76
00E72:  DATA 65,64
00E74:  DATA 0D,0A
00E76:  DATA 00,00
00E78:  DATA 0D,0A
00E7A:  DATA 54,4C
00E7C:  DATA 45,3A
00E7E:  DATA 0D,0A
00E80:  DATA 00,00
00E82:  DATA 0D,0A
00E84:  DATA 43,57
00E86:  DATA 20,53
00E88:  DATA 41,56
00E8A:  DATA 45,44
00E8C:  DATA 0D,0A
00E8E:  DATA 00,00
00E90:  DATA 47,45
00E92:  DATA 54,20
00E94:  DATA 53,45
00E96:  DATA 4E,53
00E98:  DATA 4F,52
00E9A:  DATA 20,44
00E9C:  DATA 41,54
00E9E:  DATA 41,0D
00EA0:  DATA 0A,00
00EA2:  DATA 0D,0A
00EA4:  DATA 52,45
00EA6:  DATA 53,45
00EA8:  DATA 54,20
00EAA:  DATA 44,41
00EAC:  DATA 54,41
00EAE:  DATA 20,4F
00EB0:  DATA 42,54
00EB2:  DATA 41,49
00EB4:  DATA 4E,45
00EB6:  DATA 44,0D
00EB8:  DATA 0A,00
00EBA:  DATA 0D,0A
00EBC:  DATA 52,45
00EBE:  DATA 53,45
00EC0:  DATA 54,20
00EC2:  DATA 44,41
00EC4:  DATA 54,41
00EC6:  DATA 20,4E
00EC8:  DATA 4F,20
00ECA:  DATA 4F,42
00ECC:  DATA 54,41
00ECE:  DATA 49,4E
00ED0:  DATA 45,44
00ED2:  DATA 0D,0A
00ED4:  DATA 00,00
00ED6:  DATA 0D,0A
00ED8:  DATA 43,57
00EDA:  DATA 3A,0D
00EDC:  DATA 0A,00
00EDE:  DATA 0D,0A
00EE0:  DATA 43,6F
00EE2:  DATA 6C,6C
00EE4:  DATA 65,63
00EE6:  DATA 74,69
00EE8:  DATA 6E,67
00EEA:  DATA 20,48
00EEC:  DATA 4B,20
00EEE:  DATA 61,6E
00EF0:  DATA 64,20
00EF2:  DATA 4D,61
00EF4:  DATA 6B,69
00EF6:  DATA 6E,67
00EF8:  DATA 20,43
00EFA:  DATA 57,46
00EFC:  DATA 6F,72
00EFE:  DATA 6D,61
00F00:  DATA 74,20
00F02:  DATA 44,6F
00F04:  DATA 6E,65
00F06:  DATA 0D,0A
00F08:  DATA 00,00
00F0A:  DATA 0D,0A
00F0C:  DATA 48,4B
00F0E:  DATA 20,64
00F10:  DATA 61,74
00F12:  DATA 61,3A
00F14:  DATA 0D,0A
00F16:  DATA 00,00
00F18:  DATA 0D,0A
00F1A:  DATA 53,45
00F1C:  DATA 4E,53
00F1E:  DATA 4F,52
00F20:  DATA 53,20
00F22:  DATA 44,41
00F24:  DATA 54,41
00F26:  DATA 20,53
00F28:  DATA 41,56
00F2A:  DATA 45,44
00F2C:  DATA 20,4F
00F2E:  DATA 4E,20
00F30:  DATA 46,4C
00F32:  DATA 41,53
00F34:  DATA 48,0D
00F36:  DATA 0A,00
00F38:  DATA 4E,4F
00F3A:  DATA 20,52
00F3C:  DATA 45,53
00F3E:  DATA 50,4F
00F40:  DATA 4E,53
00F42:  DATA 45,20
00F44:  DATA 46,52
00F46:  DATA 4F,4D
00F48:  DATA 20,46
00F4A:  DATA 41,42
00F4C:  DATA 0D,0A
00F4E:  DATA 0D,0A
00F50:  DATA 00,00
00F52:  DATA 54,75
00F54:  DATA 72,6E
00F56:  DATA 20,4F
00F58:  DATA 6E,20
00F5A:  DATA 41,44
00F5C:  DATA 43,53
00F5E:  DATA 20,0D
00F60:  DATA 0A,00
00F62:  DATA 52,65
00F64:  DATA 63,65
00F66:  DATA 69,76
00F68:  DATA 65,64
00F6A:  DATA 20,41
00F6C:  DATA 43,4B
00F6E:  DATA 20,46
00F70:  DATA 72,6F
00F72:  DATA 6D,20
00F74:  DATA 41,44
00F76:  DATA 43,53
00F78:  DATA 0D,0A
00F7A:  DATA 00,00
00F7C:  DATA 53,65
00F7E:  DATA 6E,74
00F80:  DATA 20,4F
00F82:  DATA 50,45
00F84:  DATA 52,41
00F86:  DATA 54,49
00F88:  DATA 4F,4E
00F8A:  DATA 20,4D
00F8C:  DATA 4F,44
00F8E:  DATA 45,20
00F90:  DATA 74,6F
00F92:  DATA 20,41
00F94:  DATA 44,43
00F96:  DATA 53,0D
00F98:  DATA 0A,00
00F9A:  DATA 46,41
00F9C:  DATA 49,4C
00F9E:  DATA 55,52
00FA0:  DATA 45,44
00FA2:  DATA 20,47
00FA4:  DATA 45,54
00FA6:  DATA 54,49
00FA8:  DATA 4E,47
00FAA:  DATA 20,41
00FAC:  DATA 43,4B
00FAE:  DATA 20,46
00FB0:  DATA 72,6F
00FB2:  DATA 6D,20
00FB4:  DATA 41,44
00FB6:  DATA 43,53
00FB8:  DATA 0D,0A
00FBA:  DATA 00,00
00FBC:  DATA 64,6F
00FBE:  DATA 6E,65
00FC0:  DATA 0D,0A
00FC2:  DATA 00,00
00FC4:  DATA 53,74
00FC6:  DATA 6F,70
00FC8:  DATA 20,41
00FCA:  DATA 44,43
00FCC:  DATA 53,20
00FCE:  DATA 4D,69
00FD0:  DATA 73,73
00FD2:  DATA 69,6F
00FD4:  DATA 6E,0D
00FD6:  DATA 0A,00
00FD8:  DATA 0D,0A
00FDA:  DATA 0D,0A
00FDC:  DATA 54,75
00FDE:  DATA 72,6E
00FE0:  DATA 65,64
00FE2:  DATA 5F,4F
00FE4:  DATA 46,46
00FE6:  DATA 5F,41
00FE8:  DATA 44,43
00FEA:  DATA 53,0D
00FEC:  DATA 0A,0D
00FEE:  DATA 0A,0D
00FF0:  DATA 0A,00
00FF2:  DATA 0D,0A
00FF4:  DATA 0D,0A
00FF6:  DATA 54,75
00FF8:  DATA 72,6E
00FFA:  DATA 65,64
00FFC:  DATA 5F,4F
00FFE:  DATA 4E,5F
01000:  DATA 41,44
01002:  DATA 43,53
01004:  DATA 0D,0A
01006:  DATA 0D,0A
01008:  DATA 0D,0A
0100A:  DATA 00,00
0100C:  DATA 54,75
0100E:  DATA 72,6E
01010:  DATA 20,4F
01012:  DATA 6E,20
01014:  DATA 41,44
01016:  DATA 43,53
01018:  DATA 20,0D
0101A:  DATA 0A,00
0101C:  DATA 52,65
0101E:  DATA 63,65
01020:  DATA 69,76
01022:  DATA 65,64
01024:  DATA 20,41
01026:  DATA 43,4B
01028:  DATA 20,46
0102A:  DATA 72,6F
0102C:  DATA 6D,20
0102E:  DATA 41,44
01030:  DATA 43,53
01032:  DATA 0D,0A
01034:  DATA 00,00
01036:  DATA 53,65
01038:  DATA 6E,74
0103A:  DATA 20,54
0103C:  DATA 4C,45
0103E:  DATA 20,64
01040:  DATA 61,74
01042:  DATA 61,20
01044:  DATA 74,6F
01046:  DATA 20,41
01048:  DATA 44,43
0104A:  DATA 53,0D
0104C:  DATA 0A,00
0104E:  DATA 46,41
01050:  DATA 49,4C
01052:  DATA 55,52
01054:  DATA 45,44
01056:  DATA 20,47
01058:  DATA 45,54
0105A:  DATA 54,49
0105C:  DATA 4E,47
0105E:  DATA 20,41
01060:  DATA 43,4B
01062:  DATA 20,46
01064:  DATA 72,6F
01066:  DATA 6D,20
01068:  DATA 41,44
0106A:  DATA 43,53
0106C:  DATA 0D,0A
0106E:  DATA 00,00
01070:  DATA 0D,0A
01072:  DATA 46,41
01074:  DATA 42,20
01076:  DATA 44,41
01078:  DATA 54,41
0107A:  DATA 20,4F
0107C:  DATA 42,54
0107E:  DATA 41,49
01080:  DATA 4E,45
01082:  DATA 44,0D
01084:  DATA 0A,00
01086:  DATA 47,45
01088:  DATA 54,20
0108A:  DATA 52,45
0108C:  DATA 53,45
0108E:  DATA 54,0D
01090:  DATA 0A,00
01092:  DATA 4E,4F
01094:  DATA 20,52
01096:  DATA 45,53
01098:  DATA 45,54
0109A:  DATA 0D,0A
0109C:  DATA 00,00
0109E:  DATA 0D,0A
010A0:  DATA 39,30
010A2:  DATA 73,65
010A4:  DATA 63,0D
010A6:  DATA 0A,00
010A8:  DATA 0D,0A
010AA:  DATA 43,4F
010AC:  DATA 55,4E
010AE:  DATA 54,3A
010B0:  DATA 25,64
010B2:  DATA 0D,0A
010B4:  DATA 00,00
010B6:  DATA 0D,0A
010B8:  DATA 43,4F
010BA:  DATA 55,4E
010BC:  DATA 54,3A
010BE:  DATA 25,64
010C0:  DATA 0D,0A
010C2:  DATA 00,00
010C4:  DATA 43,6F
010C6:  DATA 6D,6D
010C8:  DATA 61,6E
010CA:  DATA 64,3A
010CC:  DATA 25,78
010CE:  DATA 0D,0A
010D0:  DATA 00,00
010D2:  DATA 43,41
010D4:  DATA 4D,20
010D6:  DATA 53,74
010D8:  DATA 61,72
010DA:  DATA 74,20
010DC:  DATA 6F,70
010DE:  DATA 65,72
010E0:  DATA 61,74
010E2:  DATA 69,6F
010E4:  DATA 6E,0D
010E6:  DATA 0A,00
010E8:  DATA 44,65
010EA:  DATA 6C,65
010EC:  DATA 74,69
010EE:  DATA 6E,67
010F0:  DATA 20,31
010F2:  DATA 20,73
010F4:  DATA 65,63
010F6:  DATA 74,6F
010F8:  DATA 72,20
010FA:  DATA 53,4D
010FC:  DATA 46,20
010FE:  DATA 41,64
01100:  DATA 64,72
01102:  DATA 65,73
01104:  DATA 73,20
01106:  DATA 30,30
01108:  DATA 30,38
0110A:  DATA 30,30
0110C:  DATA 30,30
0110E:  DATA 0D,0A
01110:  DATA 00,00
01112:  DATA 54,75
01114:  DATA 72,6E
01116:  DATA 65,64
01118:  DATA 20,4F
0111A:  DATA 6E,20
0111C:  DATA 43,41
0111E:  DATA 4D,20
01120:  DATA 61,6E
01122:  DATA 64,20
01124:  DATA 4D,55
01126:  DATA 58,20
01128:  DATA 43,41
0112A:  DATA 4D,20
0112C:  DATA 73,69
0112E:  DATA 64,65
01130:  DATA 0D,0A
01132:  DATA 00,00
01134:  DATA 53,65
01136:  DATA 6E,64
01138:  DATA 69,6E
0113A:  DATA 67,20
0113C:  DATA 68,61
0113E:  DATA 6E,64
01140:  DATA 20,73
01142:  DATA 68,61
01144:  DATA 6B,65
01146:  DATA 20,43
01148:  DATA 6F,6D
0114A:  DATA 6D,61
0114C:  DATA 6E,64
0114E:  DATA 20,74
01150:  DATA 6F,20
01152:  DATA 43,41
01154:  DATA 4D,0D
01156:  DATA 0A,00
01158:  DATA 41,43
0115A:  DATA 4B,20
0115C:  DATA 72,65
0115E:  DATA 63,65
01160:  DATA 69,76
01162:  DATA 65,64
01164:  DATA 20,66
01166:  DATA 72,6F
01168:  DATA 6D,20
0116A:  DATA 43,41
0116C:  DATA 4D,0D
0116E:  DATA 0A,0D
01170:  DATA 0A,00
01172:  DATA 53,65
01174:  DATA 6E,64
01176:  DATA 69,6E
01178:  DATA 67,20
0117A:  DATA 43,41
0117C:  DATA 4D,20
0117E:  DATA 4D,4F
01180:  DATA 44,45
01182:  DATA 20,64
01184:  DATA 61,74
01186:  DATA 61,0D
01188:  DATA 0A,00
0118A:  DATA 43,61
0118C:  DATA 70,74
0118E:  DATA 75,72
01190:  DATA 69,6E
01192:  DATA 67,20
01194:  DATA 61,6E
01196:  DATA 64,20
01198:  DATA 73,61
0119A:  DATA 76,69
0119C:  DATA 6E,67
0119E:  DATA 20,69
011A0:  DATA 6E,20
011A2:  DATA 53,46
011A4:  DATA 4D,2E
011A6:  DATA 2E,2E
011A8:  DATA 0D,0A
011AA:  DATA 0D,0A
011AC:  DATA 00,00
011AE:  DATA 50,48
011B0:  DATA 4F,54
011B2:  DATA 4F,20
011B4:  DATA 53,41
011B6:  DATA 56,49
011B8:  DATA 4E,47
011BA:  DATA 20,44
011BC:  DATA 4F,4E
011BE:  DATA 45,0D
011C0:  DATA 0A,00
011C2:  DATA 52,65
011C4:  DATA 61,64
011C6:  DATA 20,61
011C8:  DATA 6E,64
011CA:  DATA 20,54
011CC:  DATA 72,61
011CE:  DATA 6E,73
011D0:  DATA 66,65
011D2:  DATA 72,20
011D4:  DATA 64,61
011D6:  DATA 74,61
011D8:  DATA 20,66
011DA:  DATA 72,6F
011DC:  DATA 6D,20
011DE:  DATA 53,4D
011E0:  DATA 46,20
011E2:  DATA 54,4F
011E4:  DATA 20,53
011E6:  DATA 43,46
011E8:  DATA 20,61
011EA:  DATA 6E,64
011EC:  DATA 20,4F
011EE:  DATA 46,20
011F0:  DATA 53,74
011F2:  DATA 61,72
011F4:  DATA 74,0D
011F6:  DATA 0A,00
011F8:  DATA 43,41
011FA:  DATA 4D,20
011FC:  DATA 44,41
011FE:  DATA 54,41
01200:  DATA 20,53
01202:  DATA 41,56
01204:  DATA 49,4E
01206:  DATA 47,20
01208:  DATA 46,41
0120A:  DATA 49,4C
0120C:  DATA 55,52
0120E:  DATA 45,44
01210:  DATA 0D,0A
01212:  DATA 00,00
01214:  DATA 43,41
01216:  DATA 4D,20
01218:  DATA 41,43
0121A:  DATA 4B,20
0121C:  DATA 46,41
0121E:  DATA 49,4C
01220:  DATA 55,52
01222:  DATA 45,44
01224:  DATA 0D,0A
01226:  DATA 00,00
01228:  DATA 54,75
0122A:  DATA 72,6E
0122C:  DATA 65,64
0122E:  DATA 20,4F
01230:  DATA 46,46
01232:  DATA 20,43
01234:  DATA 41,4D
01236:  DATA 0D,0A
01238:  DATA 00,00
0123A:  DATA 53,65
0123C:  DATA 6E,64
0123E:  DATA 69,6E
01240:  DATA 67,20
01242:  DATA 68,61
01244:  DATA 6E,64
01246:  DATA 20,73
01248:  DATA 68,61
0124A:  DATA 6B,65
0124C:  DATA 20,43
0124E:  DATA 6F,6D
01250:  DATA 6D,61
01252:  DATA 6E,64
01254:  DATA 20,74
01256:  DATA 6F,20
01258:  DATA 43,41
0125A:  DATA 4D,0D
0125C:  DATA 0A,00
0125E:  DATA 41,43
01260:  DATA 4B,20
01262:  DATA 72,65
01264:  DATA 63,65
01266:  DATA 69,76
01268:  DATA 65,64
0126A:  DATA 20,66
0126C:  DATA 72,6F
0126E:  DATA 6D,20
01270:  DATA 43,41
01272:  DATA 4D,0D
01274:  DATA 0A,0D
01276:  DATA 0A,00
01278:  DATA 53,65
0127A:  DATA 6E,64
0127C:  DATA 69,6E
0127E:  DATA 67,20
01280:  DATA 43,41
01282:  DATA 4D,20
01284:  DATA 4D,4F
01286:  DATA 44,45
01288:  DATA 20,64
0128A:  DATA 61,74
0128C:  DATA 61,0D
0128E:  DATA 0A,00
01290:  DATA 43,61
01292:  DATA 70,74
01294:  DATA 75,72
01296:  DATA 69,6E
01298:  DATA 67,20
0129A:  DATA 61,6E
0129C:  DATA 64,20
0129E:  DATA 73,61
012A0:  DATA 76,69
012A2:  DATA 6E,67
012A4:  DATA 20,69
012A6:  DATA 6E,20
012A8:  DATA 53,46
012AA:  DATA 4D,2E
012AC:  DATA 2E,2E
012AE:  DATA 0D,0A
012B0:  DATA 0D,0A
012B2:  DATA 00,00
012B4:  DATA 50,48
012B6:  DATA 4F,54
012B8:  DATA 4F,20
012BA:  DATA 25,64
012BC:  DATA 20,53
012BE:  DATA 41,56
012C0:  DATA 49,4E
012C2:  DATA 47,20
012C4:  DATA 44,4F
012C6:  DATA 4E,45
012C8:  DATA 0D,0A
012CA:  DATA 00,00
012CC:  DATA 43,41
012CE:  DATA 4D,20
012D0:  DATA 44,41
012D2:  DATA 54,41
012D4:  DATA 20,53
012D6:  DATA 41,56
012D8:  DATA 49,4E
012DA:  DATA 47,20
012DC:  DATA 46,41
012DE:  DATA 49,4C
012E0:  DATA 55,52
012E2:  DATA 45,44
012E4:  DATA 0D,0A
012E6:  DATA 00,00
012E8:  DATA 43,41
012EA:  DATA 4D,20
012EC:  DATA 41,43
012EE:  DATA 4B,20
012F0:  DATA 46,41
012F2:  DATA 49,4C
012F4:  DATA 55,52
012F6:  DATA 45,44
012F8:  DATA 0D,0A
012FA:  DATA 00,00
012FC:  DATA 54,75
012FE:  DATA 72,6E
01300:  DATA 65,64
01302:  DATA 20,4F
01304:  DATA 46,46
01306:  DATA 20,43
01308:  DATA 41,4D
0130A:  DATA 0D,0A
0130C:  DATA 00,00
0130E:  DATA 54,72
01310:  DATA 61,6E
01312:  DATA 73,66
01314:  DATA 65,72
01316:  DATA 72,65
01318:  DATA 64,20
0131A:  DATA 25,6C
0131C:  DATA 64,20
0131E:  DATA 42,79
01320:  DATA 74,65
01322:  DATA 73,00
01324:  DATA 73,65
01326:  DATA 6E,64
01328:  DATA 69,6E
0132A:  DATA 67,20
0132C:  DATA 63,6F
0132E:  DATA 6D,6D
01330:  DATA 61,6E
01332:  DATA 64,73
01334:  DATA 20,74
01336:  DATA 6F,20
01338:  DATA 4D,42
0133A:  DATA 50,0D
0133C:  DATA 0A,00
0133E:  DATA 52,65
01340:  DATA 63,65
01342:  DATA 69,76
01344:  DATA 65,64
01346:  DATA 20,41
01348:  DATA 43,4B
0134A:  DATA 20,46
0134C:  DATA 72,6F
0134E:  DATA 6D,20
01350:  DATA 4D,42
01352:  DATA 50,0D
01354:  DATA 0A,00
01356:  DATA 54,52
01358:  DATA 41,4E
0135A:  DATA 53,46
0135C:  DATA 45,52
0135E:  DATA 52,49
01360:  DATA 4E,47
01362:  DATA 20,25
01364:  DATA 6C,78
01366:  DATA 20,50
01368:  DATA 41,43
0136A:  DATA 4B,45
0136C:  DATA 54,53
0136E:  DATA 0D,0A
01370:  DATA 00,00
01372:  DATA 46,41
01374:  DATA 49,4C
01376:  DATA 55,52
01378:  DATA 45,44
0137A:  DATA 20,47
0137C:  DATA 45,54
0137E:  DATA 54,49
01380:  DATA 4E,47
01382:  DATA 20,41
01384:  DATA 43,4B
01386:  DATA 20,46
01388:  DATA 72,6F
0138A:  DATA 6D,20
0138C:  DATA 4D,42
0138E:  DATA 50,0D
01390:  DATA 0A,00
01392:  DATA 73,65
01394:  DATA 6E,64
01396:  DATA 69,6E
01398:  DATA 67,20
0139A:  DATA 63,6F
0139C:  DATA 6D,6D
0139E:  DATA 61,6E
013A0:  DATA 64,73
013A2:  DATA 20,74
013A4:  DATA 6F,20
013A6:  DATA 4D,42
013A8:  DATA 50,0D
013AA:  DATA 0A,00
013AC:  DATA 52,65
013AE:  DATA 63,65
013B0:  DATA 69,76
013B2:  DATA 65,64
013B4:  DATA 20,41
013B6:  DATA 43,4B
013B8:  DATA 20,46
013BA:  DATA 72,6F
013BC:  DATA 6D,20
013BE:  DATA 4D,42
013C0:  DATA 50,0D
013C2:  DATA 0A,00
013C4:  DATA 46,41
013C6:  DATA 49,4C
013C8:  DATA 55,52
013CA:  DATA 45,44
013CC:  DATA 20,47
013CE:  DATA 45,54
013D0:  DATA 54,49
013D2:  DATA 4E,47
013D4:  DATA 20,41
013D6:  DATA 43,4B
013D8:  DATA 20,46
013DA:  DATA 72,6F
013DC:  DATA 6D,20
013DE:  DATA 4D,42
013E0:  DATA 50,0D
013E2:  DATA 0A,00
013E4:  DATA 50,57
013E6:  DATA 52,20
013E8:  DATA 63,79
013EA:  DATA 63,6C
013EC:  DATA 65,20
013EE:  DATA 61,6E
013F0:  DATA 64,20
013F2:  DATA 73,65
013F4:  DATA 6E,64
013F6:  DATA 69,6E
013F8:  DATA 67,20
013FA:  DATA 63,6F
013FC:  DATA 6D,6D
013FE:  DATA 61,6E
01400:  DATA 64,73
01402:  DATA 20,61
01404:  DATA 67,61
01406:  DATA 69,6E
01408:  DATA 0D,0A
0140A:  DATA 00,00
0140C:  DATA 4B,69
0140E:  DATA 6C,6C
01410:  DATA 20,63
01412:  DATA 6F,75
01414:  DATA 6E,74
01416:  DATA 65,72
01418:  DATA 3A,20
0141A:  DATA 25,78
0141C:  DATA 0D,0A
0141E:  DATA 00,00
01420:  DATA 4B,69
01422:  DATA 6C,6C
01424:  DATA 20,63
01426:  DATA 6F,75
01428:  DATA 6E,74
0142A:  DATA 65,72
0142C:  DATA 3A,20
0142E:  DATA 25,78
01430:  DATA 0D,0A
01432:  DATA 00,00
01434:  DATA 73,65
01436:  DATA 6E,64
01438:  DATA 69,6E
0143A:  DATA 67,20
0143C:  DATA 42,43
0143E:  DATA 20,63
01440:  DATA 6F,6D
01442:  DATA 6D,61
01444:  DATA 6E,64
01446:  DATA 20,74
01448:  DATA 6F,20
0144A:  DATA 52,45
0144C:  DATA 53,45
0144E:  DATA 54,20
01450:  DATA 50,49
01452:  DATA 43,0D
01454:  DATA 0A,00
01456:  DATA 48,53
01458:  DATA 53,43
0145A:  DATA 20,44
0145C:  DATA 4F,4E
0145E:  DATA 45,0D
01460:  DATA 0A,00
01462:  DATA 2C,41
01464:  DATA 55,54
01466:  DATA 4F,0D
01468:  DATA 0A,00
0146A:  DATA 2C,4E
0146C:  DATA 4F,52
0146E:  DATA 4D,41
01470:  DATA 4C,0D
01472:  DATA 0A,00
01474:  DATA 0D,0A
01476:  DATA 73,65
01478:  DATA 6E,64
0147A:  DATA 69,6E
0147C:  DATA 67,20
0147E:  DATA 53,59
01480:  DATA 4E,43
01482:  DATA 20,74
01484:  DATA 69,6D
01486:  DATA 65,20
01488:  DATA 74,6F
0148A:  DATA 20,4D
0148C:  DATA 42,50
0148E:  DATA 0D,0A
01490:  DATA 00,00
01492:  DATA 54,69
01494:  DATA 6D,65
01496:  DATA 20,72
01498:  DATA 65,63
0149A:  DATA 65,69
0149C:  DATA 76,65
0149E:  DATA 64,20
014A0:  DATA 66,72
014A2:  DATA 6F,6D
014A4:  DATA 20,52
014A6:  DATA 45,53
014A8:  DATA 45,54
014AA:  DATA 0D,0A
014AC:  DATA 00,00
014AE:  DATA 4E,4F
014B0:  DATA 20,52
014B2:  DATA 45,53
014B4:  DATA 45,54
014B6:  DATA 20,74
014B8:  DATA 69,6D
014BA:  DATA 65,0D
014BC:  DATA 0A,00
014BE:  DATA 54,69
014C0:  DATA 6D,65
014C2:  DATA 20,52
014C4:  DATA 65,63
014C6:  DATA 65,69
014C8:  DATA 76,65
014CA:  DATA 64,20
014CC:  DATA 66,6F
014CE:  DATA 72,20
014D0:  DATA 4D,42
014D2:  DATA 50,0D
014D4:  DATA 0A,00
014D6:  DATA 46,41
014D8:  DATA 49,4C
014DA:  DATA 55,52
014DC:  DATA 45,44
014DE:  DATA 20,47
014E0:  DATA 45,54
014E2:  DATA 54,49
014E4:  DATA 4E,47
014E6:  DATA 20,41
014E8:  DATA 43,4B
014EA:  DATA 20,46
014EC:  DATA 72,6F
014EE:  DATA 6D,20
014F0:  DATA 4D,42
014F2:  DATA 50,0D
014F4:  DATA 0A,00
014F6:  DATA 53,65
014F8:  DATA 6E,74
014FA:  DATA 20,43
014FC:  DATA 4D,44
014FE:  DATA 20,48
01500:  DATA 65,61
01502:  DATA 74,65
01504:  DATA 72,20
01506:  DATA 4F,4E
01508:  DATA 0D,0A
0150A:  DATA 00,00
0150C:  DATA 53,65
0150E:  DATA 6E,74
01510:  DATA 20,43
01512:  DATA 4D,44
01514:  DATA 20,48
01516:  DATA 65,61
01518:  DATA 74,65
0151A:  DATA 72,20
0151C:  DATA 4F,46
0151E:  DATA 46,0D
01520:  DATA 0A,00
01522:  DATA 53,65
01524:  DATA 6E,74
01526:  DATA 20,43
01528:  DATA 4D,44
0152A:  DATA 20,48
0152C:  DATA 65,61
0152E:  DATA 74,65
01530:  DATA 72,20
01532:  DATA 41,55
01534:  DATA 54,4F
01536:  DATA 0D,0A
01538:  DATA 00,00
0153A:  DATA 53,65
0153C:  DATA 6E,74
0153E:  DATA 20,43
01540:  DATA 4D,44
01542:  DATA 20,74
01544:  DATA 6F,20
01546:  DATA 43,4F
01548:  DATA 4D,20
0154A:  DATA 66,6F
0154C:  DATA 72,20
0154E:  DATA 64,61
01550:  DATA 74,61
01552:  DATA 20,64
01554:  DATA 6F,77
01556:  DATA 6E,6C
01558:  DATA 6F,61
0155A:  DATA 64,0D
0155C:  DATA 0A,00
0155E:  DATA 53,65
01560:  DATA 6E,74
01562:  DATA 20,43
01564:  DATA 4D,44
01566:  DATA 20,48
01568:  DATA 65,61
0156A:  DATA 74,65
0156C:  DATA 72,20
0156E:  DATA 4F,4E
01570:  DATA 0D,0A
01572:  DATA 00,00
01574:  DATA 53,65
01576:  DATA 6E,74
01578:  DATA 20,43
0157A:  DATA 4D,44
0157C:  DATA 20,48
0157E:  DATA 65,61
01580:  DATA 74,65
01582:  DATA 72,20
01584:  DATA 4F,46
01586:  DATA 46,0D
01588:  DATA 0A,00
0158A:  DATA 53,65
0158C:  DATA 6E,74
0158E:  DATA 20,43
01590:  DATA 4D,44
01592:  DATA 20,48
01594:  DATA 65,61
01596:  DATA 74,65
01598:  DATA 72,20
0159A:  DATA 41,55
0159C:  DATA 54,4F
0159E:  DATA 0D,0A
015A0:  DATA 00,00
015A2:  DATA 53,65
015A4:  DATA 6E,74
015A6:  DATA 20,43
015A8:  DATA 4D,44
015AA:  DATA 20,74
015AC:  DATA 6F,20
015AE:  DATA 43,4F
015B0:  DATA 4D,20
015B2:  DATA 66,6F
015B4:  DATA 72,20
015B6:  DATA 64,61
015B8:  DATA 74,61
015BA:  DATA 20,64
015BC:  DATA 6F,77
015BE:  DATA 6E,6C
015C0:  DATA 6F,61
015C2:  DATA 64,0D
015C4:  DATA 0A,00
*
01670:  MOVLB  3
01672:  MOVF   x2D,W
01674:  CLRF   01
01676:  SUBWF  x2C,W
01678:  BC    1680
0167A:  MOVFF  32C,00
0167E:  BRA    1698
01680:  CLRF   00
01682:  MOVLW  08
01684:  MOVWF  x2E
01686:  RLCF   x2C,F
01688:  RLCF   00,F
0168A:  MOVF   x2D,W
0168C:  SUBWF  00,W
0168E:  BTFSC  FD8.0
01690:  MOVWF  00
01692:  RLCF   01,F
01694:  DECFSZ x2E,F
01696:  BRA    1686
01698:  MOVLB  0
0169A:  RETURN 0
*
01716:  DATA 53,74
01718:  DATA 61,72
0171A:  DATA 74,20
0171C:  DATA 4F,70
0171E:  DATA 65,72
01720:  DATA 61,74
01722:  DATA 69,6E
01724:  DATA 67,0D
01726:  DATA 0A,00
01728:  DATA 0D,0A
0172A:  DATA 43,57
0172C:  DATA 3A,00
0172E:  DATA 0D,0A
01730:  DATA 2A,2A
01732:  DATA 2A,39
01734:  DATA 30,73
01736:  DATA 65,63
01738:  DATA 20,70
0173A:  DATA 61,73
0173C:  DATA 73,65
0173E:  DATA 64,2A
01740:  DATA 2A,2A
01742:  DATA 0D,0A
01744:  DATA 00,00
01746:  DATA 43,57
01748:  DATA 3A,00
0174A:  DATA 43,4F
0174C:  DATA 4D,20
0174E:  DATA 43,4F
01750:  DATA 4D,4D
01752:  DATA 41,4E
01754:  DATA 44,3A
01756:  DATA 0D,0A
01758:  DATA 00,00
0175A:  DATA 43,4F
0175C:  DATA 4D,4D
0175E:  DATA 41,4E
01760:  DATA 44,20
01762:  DATA 52,45
01764:  DATA 43,45
01766:  DATA 49,56
01768:  DATA 45,44
0176A:  DATA 20,46
0176C:  DATA 52,4F
0176E:  DATA 4D,20
01770:  DATA 50,43
01772:  DATA 3A,20
01774:  DATA 00,00
*
01C0C:  TBLRD*+
01C0E:  MOVFF  FF6,311
01C12:  MOVFF  FF7,312
01C16:  MOVFF  FF8,313
01C1A:  MOVF   FF5,W
01C1C:  BTFSS  F9E.4
01C1E:  BRA    1C1C
01C20:  MOVWF  FAD
01C22:  MOVFF  311,FF6
01C26:  MOVFF  312,FF7
01C2A:  MOVFF  313,FF8
01C2E:  MOVLB  3
01C30:  DECFSZ x10,F
01C32:  BRA    1C36
01C34:  BRA    1C3A
01C36:  MOVLB  0
01C38:  BRA    1C0C
01C3A:  MOVLB  0
01C3C:  RETURN 0
01C3E:  MOVLB  3
01C40:  BTFSC  x12.7
01C42:  BRA    1C64
01C44:  MOVLW  0F
01C46:  MOVWF  00
01C48:  SWAPF  x11,W
01C4A:  ANDWF  00,F
01C4C:  MOVLW  0A
01C4E:  SUBWF  00,W
01C50:  BC    1C58
01C52:  MOVLW  30
01C54:  ADDWF  00,F
01C56:  BRA    1C5C
01C58:  MOVF   x12,W
01C5A:  ADDWF  00,F
01C5C:  MOVF   00,W
01C5E:  BTFSS  F9E.4
01C60:  BRA    1C5E
01C62:  MOVWF  FAD
01C64:  MOVLW  0F
01C66:  ANDWF  x11,F
01C68:  MOVLW  0A
01C6A:  SUBWF  x11,W
01C6C:  BC    1C72
01C6E:  MOVLW  30
01C70:  BRA    1C76
01C72:  BCF    x12.7
01C74:  MOVF   x12,W
01C76:  ADDWF  x11,F
01C78:  MOVF   x11,W
01C7A:  BTFSS  F9E.4
01C7C:  BRA    1C7A
01C7E:  MOVWF  FAD
01C80:  MOVLB  0
01C82:  RETURN 0
*
0362C:  TBLRD*+
0362E:  MOVF   FF5,F
03630:  BZ    3654
03632:  MOVFF  FF6,310
03636:  MOVFF  FF7,311
0363A:  MOVFF  FF8,312
0363E:  MOVF   FF5,W
03640:  BTFSS  F9E.4
03642:  BRA    3640
03644:  MOVWF  FAD
03646:  MOVFF  310,FF6
0364A:  MOVFF  311,FF7
0364E:  MOVFF  312,FF8
03652:  BRA    362C
03654:  RETURN 0
*
04DC0:  MOVLW  8E
04DC2:  MOVWF  00
04DC4:  MOVFF  2F5,01
04DC8:  MOVFF  2F4,02
04DCC:  CLRF   03
04DCE:  BTFSS  01.7
04DD0:  BRA    4DDC
04DD2:  COMF   01,F
04DD4:  COMF   02,F
04DD6:  INCF   02,F
04DD8:  BNZ   4DDC
04DDA:  INCF   01,F
04DDC:  MOVF   01,F
04DDE:  BNZ   4DF2
04DE0:  MOVFF  02,01
04DE4:  CLRF   02
04DE6:  MOVLW  08
04DE8:  SUBWF  00,F
04DEA:  MOVF   01,F
04DEC:  BNZ   4DF2
04DEE:  CLRF   00
04DF0:  BRA    4E0E
04DF2:  BCF    FD8.0
04DF4:  BTFSC  01.7
04DF6:  BRA    4E00
04DF8:  RLCF   02,F
04DFA:  RLCF   01,F
04DFC:  DECF   00,F
04DFE:  BRA    4DF2
04E00:  MOVLB  2
04E02:  BTFSS  xF5.7
04E04:  BRA    4E0A
04E06:  MOVLB  0
04E08:  BRA    4E0E
04E0A:  BCF    01.7
04E0C:  MOVLB  0
04E0E:  RETURN 0
04E10:  MOVLB  2
04E12:  MOVF   xFC,W
04E14:  BTFSC  FD8.2
04E16:  BRA    4F38
04E18:  MOVWF  00
04E1A:  MOVLB  3
04E1C:  MOVF   x00,W
04E1E:  BTFSS  FD8.2
04E20:  BRA    4E26
04E22:  MOVLB  2
04E24:  BRA    4F38
04E26:  ADDWF  00,F
04E28:  BNC   4E38
04E2A:  MOVLW  81
04E2C:  ADDWF  00,F
04E2E:  BTFSS  FD8.0
04E30:  BRA    4E36
04E32:  MOVLB  2
04E34:  BRA    4F38
04E36:  BRA    4E4C
04E38:  MOVLW  7F
04E3A:  SUBWF  00,F
04E3C:  BTFSC  FD8.0
04E3E:  BRA    4E44
04E40:  MOVLB  2
04E42:  BRA    4F38
04E44:  BTFSS  FD8.2
04E46:  BRA    4E4C
04E48:  MOVLB  2
04E4A:  BRA    4F38
04E4C:  MOVFF  2FD,304
04E50:  MOVF   x01,W
04E52:  XORWF  x04,F
04E54:  MOVLB  2
04E56:  BSF    xFD.7
04E58:  MOVLB  3
04E5A:  BSF    x01.7
04E5C:  MOVLB  2
04E5E:  MOVF   xFF,W
04E60:  MOVLB  3
04E62:  MULWF  x03
04E64:  MOVFF  FF4,306
04E68:  MOVLB  2
04E6A:  MOVF   xFE,W
04E6C:  MOVLB  3
04E6E:  MULWF  x02
04E70:  MOVFF  FF4,03
04E74:  MOVFF  FF3,305
04E78:  MULWF  x03
04E7A:  MOVF   FF3,W
04E7C:  ADDWF  x06,F
04E7E:  MOVF   FF4,W
04E80:  ADDWFC x05,F
04E82:  MOVLW  00
04E84:  ADDWFC 03,F
04E86:  MOVLB  2
04E88:  MOVF   xFF,W
04E8A:  MOVLB  3
04E8C:  MULWF  x02
04E8E:  MOVF   FF3,W
04E90:  ADDWF  x06,F
04E92:  MOVF   FF4,W
04E94:  ADDWFC x05,F
04E96:  MOVLW  00
04E98:  CLRF   02
04E9A:  ADDWFC 03,F
04E9C:  ADDWFC 02,F
04E9E:  MOVLB  2
04EA0:  MOVF   xFD,W
04EA2:  MOVLB  3
04EA4:  MULWF  x03
04EA6:  MOVF   FF3,W
04EA8:  ADDWF  x05,F
04EAA:  MOVF   FF4,W
04EAC:  ADDWFC 03,F
04EAE:  MOVLW  00
04EB0:  ADDWFC 02,F
04EB2:  MOVLB  2
04EB4:  MOVF   xFD,W
04EB6:  MOVLB  3
04EB8:  MULWF  x02
04EBA:  MOVF   FF3,W
04EBC:  ADDWF  03,F
04EBE:  MOVF   FF4,W
04EC0:  ADDWFC 02,F
04EC2:  MOVLW  00
04EC4:  CLRF   01
04EC6:  ADDWFC 01,F
04EC8:  MOVLB  2
04ECA:  MOVF   xFF,W
04ECC:  MOVLB  3
04ECE:  MULWF  x01
04ED0:  MOVF   FF3,W
04ED2:  ADDWF  x05,F
04ED4:  MOVF   FF4,W
04ED6:  ADDWFC 03,F
04ED8:  MOVLW  00
04EDA:  ADDWFC 02,F
04EDC:  ADDWFC 01,F
04EDE:  MOVLB  2
04EE0:  MOVF   xFE,W
04EE2:  MOVLB  3
04EE4:  MULWF  x01
04EE6:  MOVF   FF3,W
04EE8:  ADDWF  03,F
04EEA:  MOVF   FF4,W
04EEC:  ADDWFC 02,F
04EEE:  MOVLW  00
04EF0:  ADDWFC 01,F
04EF2:  MOVLB  2
04EF4:  MOVF   xFD,W
04EF6:  MOVLB  3
04EF8:  MULWF  x01
04EFA:  MOVF   FF3,W
04EFC:  ADDWF  02,F
04EFE:  MOVF   FF4,W
04F00:  ADDWFC 01,F
04F02:  INCF   00,F
04F04:  BTFSC  01.7
04F06:  BRA    4F12
04F08:  RLCF   x05,F
04F0A:  RLCF   03,F
04F0C:  RLCF   02,F
04F0E:  RLCF   01,F
04F10:  DECF   00,F
04F12:  MOVLW  00
04F14:  BTFSS  x05.7
04F16:  BRA    4F2C
04F18:  INCF   03,F
04F1A:  ADDWFC 02,F
04F1C:  ADDWFC 01,F
04F1E:  MOVF   01,W
04F20:  BNZ   4F2C
04F22:  MOVF   02,W
04F24:  BNZ   4F2C
04F26:  MOVF   03,W
04F28:  BNZ   4F2C
04F2A:  INCF   00,F
04F2C:  BTFSC  x04.7
04F2E:  BSF    01.7
04F30:  BTFSS  x04.7
04F32:  BCF    01.7
04F34:  BRA    4F42
04F36:  MOVLB  2
04F38:  CLRF   00
04F3A:  CLRF   01
04F3C:  CLRF   02
04F3E:  CLRF   03
04F40:  MOVLB  3
04F42:  MOVLB  0
04F44:  RETURN 0
04F46:  MOVLW  80
04F48:  BTFSS  FD8.1
04F4A:  BRA    4F50
04F4C:  MOVLB  2
04F4E:  XORWF  xFD,F
04F50:  MOVLB  3
04F52:  CLRF   x02
04F54:  CLRF   x03
04F56:  MOVFF  2F9,301
04F5A:  MOVLB  2
04F5C:  MOVF   xFD,W
04F5E:  MOVLB  3
04F60:  XORWF  x01,F
04F62:  MOVLB  2
04F64:  MOVF   xF8,W
04F66:  BTFSC  FD8.2
04F68:  BRA    5130
04F6A:  MOVLB  3
04F6C:  MOVWF  x00
04F6E:  MOVWF  00
04F70:  MOVLB  2
04F72:  MOVF   xFC,W
04F74:  BTFSC  FD8.2
04F76:  BRA    5144
04F78:  MOVLB  3
04F7A:  SUBWF  x00,F
04F7C:  BTFSC  FD8.2
04F7E:  BRA    5088
04F80:  BNC   4FFE
04F82:  MOVFF  2FD,306
04F86:  BSF    x06.7
04F88:  MOVFF  2FE,305
04F8C:  MOVFF  2FF,304
04F90:  CLRF   x03
04F92:  BCF    FD8.0
04F94:  RRCF   x06,F
04F96:  RRCF   x05,F
04F98:  RRCF   x04,F
04F9A:  RRCF   x03,F
04F9C:  DECFSZ x00,F
04F9E:  BRA    4F90
04FA0:  BTFSS  x01.7
04FA2:  BRA    4FAA
04FA4:  BSF    x02.0
04FA6:  BRA    516E
04FA8:  BCF    x02.0
04FAA:  BCF    x00.0
04FAC:  BSF    x02.4
04FAE:  MOVLW  02
04FB0:  MOVWF  FEA
04FB2:  MOVLW  FB
04FB4:  MOVWF  FE9
04FB6:  BRA    5194
04FB8:  BCF    x02.4
04FBA:  BTFSC  x01.7
04FBC:  BRA    4FD2
04FBE:  BTFSS  x00.0
04FC0:  BRA    4FE8
04FC2:  RRCF   x06,F
04FC4:  RRCF   x05,F
04FC6:  RRCF   x04,F
04FC8:  RRCF   x03,F
04FCA:  INCF   00,F
04FCC:  BTFSC  FD8.2
04FCE:  BRA    5164
04FD0:  BRA    4FE8
04FD2:  BTFSC  x06.7
04FD4:  BRA    4FEE
04FD6:  BCF    FD8.0
04FD8:  RLCF   x03,F
04FDA:  RLCF   x04,F
04FDC:  RLCF   x05,F
04FDE:  RLCF   x06,F
04FE0:  DECF   00,F
04FE2:  BTFSC  FD8.2
04FE4:  BRA    5164
04FE6:  BRA    4FD2
04FE8:  BSF    x02.6
04FEA:  BRA    50C8
04FEC:  BCF    x02.6
04FEE:  MOVFF  2F9,301
04FF2:  BTFSS  x01.7
04FF4:  BRA    4FFA
04FF6:  BSF    x06.7
04FF8:  BRA    5156
04FFA:  BCF    x06.7
04FFC:  BRA    5156
04FFE:  MOVFF  2FC,300
05002:  MOVFF  2FC,00
05006:  MOVLB  2
05008:  MOVF   xF8,W
0500A:  MOVLB  3
0500C:  SUBWF  x00,F
0500E:  MOVFF  2F9,306
05012:  BSF    x06.7
05014:  MOVFF  2FA,305
05018:  MOVFF  2FB,304
0501C:  CLRF   x03
0501E:  BCF    FD8.0
05020:  RRCF   x06,F
05022:  RRCF   x05,F
05024:  RRCF   x04,F
05026:  RRCF   x03,F
05028:  DECFSZ x00,F
0502A:  BRA    501C
0502C:  BTFSS  x01.7
0502E:  BRA    5036
05030:  BSF    x02.1
05032:  BRA    516E
05034:  BCF    x02.1
05036:  BCF    x00.0
05038:  BSF    x02.5
0503A:  MOVLW  02
0503C:  MOVWF  FEA
0503E:  SETF   FE9
05040:  BRA    5194
05042:  BCF    x02.5
05044:  BTFSC  x01.7
05046:  BRA    505C
05048:  BTFSS  x00.0
0504A:  BRA    5072
0504C:  RRCF   x06,F
0504E:  RRCF   x05,F
05050:  RRCF   x04,F
05052:  RRCF   x03,F
05054:  INCF   00,F
05056:  BTFSC  FD8.2
05058:  BRA    5164
0505A:  BRA    5072
0505C:  BTFSC  x06.7
0505E:  BRA    5078
05060:  BCF    FD8.0
05062:  RLCF   x03,F
05064:  RLCF   x04,F
05066:  RLCF   x05,F
05068:  RLCF   x06,F
0506A:  DECF   00,F
0506C:  BTFSC  FD8.2
0506E:  BRA    5164
05070:  BRA    505C
05072:  BSF    x02.7
05074:  BRA    50C8
05076:  BCF    x02.7
05078:  MOVFF  2FD,301
0507C:  BTFSS  x01.7
0507E:  BRA    5084
05080:  BSF    x06.7
05082:  BRA    5156
05084:  BCF    x06.7
05086:  BRA    5156
05088:  MOVFF  2FD,306
0508C:  BSF    x06.7
0508E:  MOVFF  2FE,305
05092:  MOVFF  2FF,304
05096:  BTFSS  x01.7
05098:  BRA    50A2
0509A:  BCF    x06.7
0509C:  BSF    x02.2
0509E:  BRA    516E
050A0:  BCF    x02.2
050A2:  CLRF   x03
050A4:  BCF    x00.0
050A6:  MOVLW  02
050A8:  MOVWF  FEA
050AA:  MOVLW  FB
050AC:  MOVWF  FE9
050AE:  BRA    5194
050B0:  BTFSC  x01.7
050B2:  BRA    50EC
050B4:  MOVFF  2F9,301
050B8:  BTFSS  x00.0
050BA:  BRA    50C8
050BC:  RRCF   x06,F
050BE:  RRCF   x05,F
050C0:  RRCF   x04,F
050C2:  RRCF   x03,F
050C4:  INCF   00,F
050C6:  BZ    5164
050C8:  BTFSS  x03.7
050CA:  BRA    50E2
050CC:  INCF   x04,F
050CE:  BNZ   50E2
050D0:  INCF   x05,F
050D2:  BNZ   50E2
050D4:  INCF   x06,F
050D6:  BNZ   50E2
050D8:  RRCF   x06,F
050DA:  RRCF   x05,F
050DC:  RRCF   x04,F
050DE:  INCF   00,F
050E0:  BZ    5164
050E2:  BTFSC  x02.6
050E4:  BRA    4FEC
050E6:  BTFSC  x02.7
050E8:  BRA    5076
050EA:  BRA    5124
050EC:  MOVLW  80
050EE:  XORWF  x06,F
050F0:  BTFSS  x06.7
050F2:  BRA    50FC
050F4:  BRA    516E
050F6:  MOVFF  2FD,301
050FA:  BRA    5110
050FC:  MOVFF  2F9,301
05100:  MOVF   x06,F
05102:  BNZ   5110
05104:  MOVF   x05,F
05106:  BNZ   5110
05108:  MOVF   x04,F
0510A:  BNZ   5110
0510C:  CLRF   00
0510E:  BRA    5156
05110:  BTFSC  x06.7
05112:  BRA    5124
05114:  BCF    FD8.0
05116:  RLCF   x03,F
05118:  RLCF   x04,F
0511A:  RLCF   x05,F
0511C:  RLCF   x06,F
0511E:  DECFSZ 00,F
05120:  BRA    5110
05122:  BRA    5164
05124:  BTFSS  x01.7
05126:  BRA    512C
05128:  BSF    x06.7
0512A:  BRA    5156
0512C:  BCF    x06.7
0512E:  BRA    5156
05130:  MOVFF  2FC,00
05134:  MOVFF  2FD,306
05138:  MOVFF  2FE,305
0513C:  MOVFF  2FF,304
05140:  MOVLB  3
05142:  BRA    5156
05144:  MOVFF  2F8,00
05148:  MOVFF  2F9,306
0514C:  MOVFF  2FA,305
05150:  MOVFF  2FB,304
05154:  MOVLB  3
05156:  MOVFF  306,01
0515A:  MOVFF  305,02
0515E:  MOVFF  304,03
05162:  BRA    51CC
05164:  CLRF   00
05166:  CLRF   01
05168:  CLRF   02
0516A:  CLRF   03
0516C:  BRA    51CC
0516E:  CLRF   x03
05170:  COMF   x04,F
05172:  COMF   x05,F
05174:  COMF   x06,F
05176:  COMF   x03,F
05178:  INCF   x03,F
0517A:  BNZ   5186
0517C:  INCF   x04,F
0517E:  BNZ   5186
05180:  INCF   x05,F
05182:  BNZ   5186
05184:  INCF   x06,F
05186:  BTFSC  x02.0
05188:  BRA    4FA8
0518A:  BTFSC  x02.1
0518C:  BRA    5034
0518E:  BTFSC  x02.2
05190:  BRA    50A0
05192:  BRA    50F6
05194:  MOVF   FEF,W
05196:  ADDWF  x04,F
05198:  BNC   51A4
0519A:  INCF   x05,F
0519C:  BNZ   51A4
0519E:  INCF   x06,F
051A0:  BTFSC  FD8.2
051A2:  BSF    x00.0
051A4:  MOVF   FED,F
051A6:  MOVF   FEF,W
051A8:  ADDWF  x05,F
051AA:  BNC   51B2
051AC:  INCF   x06,F
051AE:  BTFSC  FD8.2
051B0:  BSF    x00.0
051B2:  MOVF   FED,F
051B4:  MOVF   FEF,W
051B6:  BTFSC  FEF.7
051B8:  BRA    51BC
051BA:  XORLW  80
051BC:  ADDWF  x06,F
051BE:  BTFSC  FD8.0
051C0:  BSF    x00.0
051C2:  BTFSC  x02.4
051C4:  BRA    4FB8
051C6:  BTFSC  x02.5
051C8:  BRA    5042
051CA:  BRA    50B0
051CC:  MOVLB  0
051CE:  RETURN 0
051D0:  MOVLW  8E
051D2:  MOVWF  00
051D4:  MOVLB  2
051D6:  MOVF   xF4,W
051D8:  SUBWF  00,F
051DA:  MOVFF  2F5,02
051DE:  MOVFF  2F6,01
051E2:  BSF    02.7
051E4:  MOVF   00,F
051E6:  BZ    51FA
051E8:  BCF    FD8.0
051EA:  MOVF   02,F
051EC:  BNZ   51F2
051EE:  MOVF   01,F
051F0:  BZ    51FA
051F2:  RRCF   02,F
051F4:  RRCF   01,F
051F6:  DECFSZ 00,F
051F8:  BRA    51E8
051FA:  BTFSS  xF5.7
051FC:  BRA    5208
051FE:  COMF   01,F
05200:  COMF   02,F
05202:  INCF   01,F
05204:  BTFSC  FD8.2
05206:  INCF   02,F
05208:  MOVLB  0
0520A:  RETURN 0
*
05CEE:  MOVLW  C0
05CF0:  ANDWF  FF6,F
05CF2:  MOVLW  3F
05CF4:  MOVWF  00
05CF6:  TBLRD*
05CF8:  TBLWT*+
05CFA:  DECFSZ 00,F
05CFC:  BRA    5CF6
05CFE:  TBLRD*
05D00:  TBLWT*
05D02:  RETURN 0
05D04:  MOVF   FF2,W
05D06:  MOVWF  03
05D08:  BCF    FF2.7
05D0A:  BSF    F7F.2
05D0C:  MOVLB  F
05D0E:  MOVLW  55
05D10:  MOVWF  F7E
05D12:  MOVLW  AA
05D14:  MOVWF  F7E
05D16:  BSF    F7F.1
05D18:  NOP   
05D1A:  MOVF   03,W
05D1C:  IORWF  FF2,F
05D1E:  MOVLB  0
05D20:  RETURN 0
*
06222:  MOVLW  8E
06224:  MOVWF  00
06226:  MOVFF  2F0,01
0622A:  MOVFF  2EF,02
0622E:  CLRF   03
06230:  MOVF   01,F
06232:  BNZ   6246
06234:  MOVFF  02,01
06238:  CLRF   02
0623A:  MOVLW  08
0623C:  SUBWF  00,F
0623E:  MOVF   01,F
06240:  BNZ   6246
06242:  CLRF   00
06244:  BRA    6256
06246:  BCF    FD8.0
06248:  BTFSC  01.7
0624A:  BRA    6254
0624C:  RLCF   02,F
0624E:  RLCF   01,F
06250:  DECF   00,F
06252:  BRA    6246
06254:  BCF    01.7
06256:  GOTO   673E (RETURN)
0625A:  MOVLB  2
0625C:  MOVF   xF3,W
0625E:  BTFSC  FD8.2
06260:  BRA    63DA
06262:  MOVWF  xFF
06264:  MOVF   xF7,W
06266:  BTFSC  FD8.2
06268:  BRA    63DA
0626A:  SUBWF  xFF,F
0626C:  BNC   6278
0626E:  MOVLW  7F
06270:  ADDWF  xFF,F
06272:  BTFSC  FD8.0
06274:  BRA    63DA
06276:  BRA    6284
06278:  MOVLW  81
0627A:  SUBWF  xFF,F
0627C:  BTFSS  FD8.0
0627E:  BRA    63DA
06280:  BTFSC  FD8.2
06282:  BRA    63DA
06284:  MOVFF  2FF,00
06288:  CLRF   01
0628A:  CLRF   02
0628C:  CLRF   03
0628E:  CLRF   xFE
06290:  MOVFF  2F4,2FD
06294:  BSF    xFD.7
06296:  MOVFF  2F5,2FC
0629A:  MOVFF  2F6,2FB
0629E:  MOVLW  19
062A0:  MOVWF  xFF
062A2:  MOVF   xFA,W
062A4:  SUBWF  xFB,F
062A6:  BC    62C2
062A8:  MOVLW  01
062AA:  SUBWF  xFC,F
062AC:  BC    62C2
062AE:  SUBWF  xFD,F
062B0:  BC    62C2
062B2:  SUBWF  xFE,F
062B4:  BC    62C2
062B6:  INCF   xFE,F
062B8:  INCF   xFD,F
062BA:  INCF   xFC,F
062BC:  MOVF   xFA,W
062BE:  ADDWF  xFB,F
062C0:  BRA    6312
062C2:  MOVF   xF9,W
062C4:  SUBWF  xFC,F
062C6:  BC    62EC
062C8:  MOVLW  01
062CA:  SUBWF  xFD,F
062CC:  BC    62EC
062CE:  SUBWF  xFE,F
062D0:  BC    62EC
062D2:  INCF   xFE,F
062D4:  INCF   xFD,F
062D6:  MOVF   xF9,W
062D8:  ADDWF  xFC,F
062DA:  MOVF   xFA,W
062DC:  ADDWF  xFB,F
062DE:  BNC   6312
062E0:  INCF   xFC,F
062E2:  BNZ   6312
062E4:  INCF   xFD,F
062E6:  BNZ   6312
062E8:  INCF   xFE,F
062EA:  BRA    6312
062EC:  MOVF   xF8,W
062EE:  IORLW  80
062F0:  SUBWF  xFD,F
062F2:  BC    6310
062F4:  MOVLW  01
062F6:  SUBWF  xFE,F
062F8:  BC    6310
062FA:  INCF   xFE,F
062FC:  MOVF   xF8,W
062FE:  IORLW  80
06300:  ADDWF  xFD,F
06302:  MOVF   xF9,W
06304:  ADDWF  xFC,F
06306:  BNC   62DA
06308:  INCF   xFD,F
0630A:  BNZ   62DA
0630C:  INCF   xFE,F
0630E:  BRA    62DA
06310:  BSF    03.0
06312:  DECFSZ xFF,F
06314:  BRA    6318
06316:  BRA    6332
06318:  BCF    FD8.0
0631A:  RLCF   xFB,F
0631C:  RLCF   xFC,F
0631E:  RLCF   xFD,F
06320:  RLCF   xFE,F
06322:  BCF    FD8.0
06324:  RLCF   03,F
06326:  RLCF   02,F
06328:  RLCF   01,F
0632A:  MOVLB  3
0632C:  RLCF   x00,F
0632E:  MOVLB  2
06330:  BRA    62A2
06332:  MOVLB  3
06334:  BTFSS  x00.0
06336:  BRA    6344
06338:  BCF    FD8.0
0633A:  RRCF   01,F
0633C:  RRCF   02,F
0633E:  RRCF   03,F
06340:  RRCF   x00,F
06342:  BRA    634C
06344:  DECFSZ 00,F
06346:  BRA    634C
06348:  MOVLB  2
0634A:  BRA    63DA
0634C:  BTFSC  x00.7
0634E:  BRA    6396
06350:  BCF    FD8.0
06352:  MOVLB  2
06354:  RLCF   xFB,F
06356:  RLCF   xFC,F
06358:  RLCF   xFD,F
0635A:  RLCF   xFE,F
0635C:  MOVF   xFA,W
0635E:  SUBWF  xFB,F
06360:  BC    6370
06362:  MOVLW  01
06364:  SUBWF  xFC,F
06366:  BC    6370
06368:  SUBWF  xFD,F
0636A:  BC    6370
0636C:  SUBWF  xFE,F
0636E:  BNC   63C6
06370:  MOVF   xF9,W
06372:  SUBWF  xFC,F
06374:  BC    6380
06376:  MOVLW  01
06378:  SUBWF  xFD,F
0637A:  BC    6380
0637C:  SUBWF  xFE,F
0637E:  BNC   63C6
06380:  MOVF   xF8,W
06382:  IORLW  80
06384:  SUBWF  xFD,F
06386:  BTFSS  FD8.0
06388:  BRA    638E
0638A:  MOVLB  3
0638C:  BRA    6396
0638E:  MOVLW  01
06390:  SUBWF  xFE,F
06392:  BNC   63C6
06394:  MOVLB  3
06396:  INCF   03,F
06398:  BTFSC  FD8.2
0639A:  BRA    63A0
0639C:  MOVLB  2
0639E:  BRA    63C6
063A0:  INCF   02,F
063A2:  BTFSC  FD8.2
063A4:  BRA    63AA
063A6:  MOVLB  2
063A8:  BRA    63C6
063AA:  INCF   01,F
063AC:  BTFSC  FD8.2
063AE:  BRA    63B4
063B0:  MOVLB  2
063B2:  BRA    63C6
063B4:  INCF   00,F
063B6:  BTFSS  FD8.2
063B8:  BRA    63BE
063BA:  MOVLB  2
063BC:  BRA    63DA
063BE:  RRCF   01,F
063C0:  RRCF   02,F
063C2:  RRCF   03,F
063C4:  MOVLB  2
063C6:  MOVFF  2F4,2FF
063CA:  MOVF   xF8,W
063CC:  XORWF  xFF,F
063CE:  BTFSS  xFF.7
063D0:  BRA    63D6
063D2:  BSF    01.7
063D4:  BRA    63E2
063D6:  BCF    01.7
063D8:  BRA    63E2
063DA:  CLRF   00
063DC:  CLRF   01
063DE:  CLRF   02
063E0:  CLRF   03
063E2:  MOVLB  0
063E4:  GOTO   67A8 (RETURN)
063E8:  MOVLB  2
063EA:  MOVF   xFC,W
063EC:  SUBLW  B6
063EE:  MOVWF  xFC
063F0:  CLRF   03
063F2:  MOVFF  2FD,300
063F6:  BSF    xFD.7
063F8:  BCF    FD8.0
063FA:  RRCF   xFD,F
063FC:  RRCF   xFE,F
063FE:  RRCF   xFF,F
06400:  RRCF   03,F
06402:  RRCF   02,F
06404:  RRCF   01,F
06406:  RRCF   00,F
06408:  DECFSZ xFC,F
0640A:  BRA    63F8
0640C:  MOVLB  3
0640E:  BTFSS  x00.7
06410:  BRA    6428
06412:  COMF   00,F
06414:  COMF   01,F
06416:  COMF   02,F
06418:  COMF   03,F
0641A:  INCF   00,F
0641C:  BTFSC  FD8.2
0641E:  INCF   01,F
06420:  BTFSC  FD8.2
06422:  INCF   02,F
06424:  BTFSC  FD8.2
06426:  INCF   03,F
06428:  MOVLB  0
0642A:  GOTO   6520 (RETURN)
0642E:  BTFSC  FD8.1
06430:  BRA    643A
06432:  MOVLW  03
06434:  MOVWF  FEA
06436:  MOVLW  04
06438:  MOVWF  FE9
0643A:  CLRF   00
0643C:  CLRF   01
0643E:  CLRF   02
06440:  CLRF   03
06442:  MOVLB  3
06444:  CLRF   x04
06446:  CLRF   x05
06448:  CLRF   x06
0644A:  CLRF   x07
0644C:  MOVF   x03,W
0644E:  IORWF  x02,W
06450:  IORWF  x01,W
06452:  IORWF  x00,W
06454:  BZ    64B2
06456:  MOVLW  20
06458:  MOVWF  x08
0645A:  BCF    FD8.0
0645C:  MOVLB  2
0645E:  RLCF   xFC,F
06460:  RLCF   xFD,F
06462:  RLCF   xFE,F
06464:  RLCF   xFF,F
06466:  MOVLB  3
06468:  RLCF   x04,F
0646A:  RLCF   x05,F
0646C:  RLCF   x06,F
0646E:  RLCF   x07,F
06470:  MOVF   x03,W
06472:  SUBWF  x07,W
06474:  BNZ   6486
06476:  MOVF   x02,W
06478:  SUBWF  x06,W
0647A:  BNZ   6486
0647C:  MOVF   x01,W
0647E:  SUBWF  x05,W
06480:  BNZ   6486
06482:  MOVF   x00,W
06484:  SUBWF  x04,W
06486:  BNC   64A6
06488:  MOVF   x00,W
0648A:  SUBWF  x04,F
0648C:  MOVF   x01,W
0648E:  BTFSS  FD8.0
06490:  INCFSZ x01,W
06492:  SUBWF  x05,F
06494:  MOVF   x02,W
06496:  BTFSS  FD8.0
06498:  INCFSZ x02,W
0649A:  SUBWF  x06,F
0649C:  MOVF   x03,W
0649E:  BTFSS  FD8.0
064A0:  INCFSZ x03,W
064A2:  SUBWF  x07,F
064A4:  BSF    FD8.0
064A6:  RLCF   00,F
064A8:  RLCF   01,F
064AA:  RLCF   02,F
064AC:  RLCF   03,F
064AE:  DECFSZ x08,F
064B0:  BRA    645A
064B2:  MOVFF  304,FEF
064B6:  MOVFF  305,FEC
064BA:  MOVFF  306,FEC
064BE:  MOVFF  307,FEC
064C2:  MOVLB  0
064C4:  RETURN 0
064C6:  MOVF   FE9,W
064C8:  MOVLB  2
064CA:  MOVWF  xF4
064CC:  MOVF   xF3,W
064CE:  MOVWF  xF6
064D0:  BZ    650C
064D2:  MOVFF  2F2,2FF
064D6:  MOVFF  2F1,2FE
064DA:  MOVFF  2F0,2FD
064DE:  MOVFF  2EF,2FC
064E2:  MOVLB  3
064E4:  CLRF   x03
064E6:  CLRF   x02
064E8:  MOVLW  20
064EA:  MOVWF  x01
064EC:  MOVLW  82
064EE:  MOVWF  x00
064F0:  MOVLB  0
064F2:  CALL   4E10
064F6:  MOVFF  03,2F2
064FA:  MOVFF  02,2F1
064FE:  MOVFF  01,2F0
06502:  MOVFF  00,2EF
06506:  MOVLB  2
06508:  DECFSZ xF6,F
0650A:  BRA    64D2
0650C:  MOVFF  2F2,2FF
06510:  MOVFF  2F1,2FE
06514:  MOVFF  2F0,2FD
06518:  MOVFF  2EF,2FC
0651C:  MOVLB  0
0651E:  BRA    63E8
06520:  MOVFF  03,2F2
06524:  MOVFF  02,2F1
06528:  MOVFF  01,2F0
0652C:  MOVFF  00,2EF
06530:  MOVLB  2
06532:  BTFSS  xF2.7
06534:  BRA    6550
06536:  DECF   xF4,F
06538:  BSF    xF4.5
0653A:  COMF   xEF,F
0653C:  COMF   xF0,F
0653E:  COMF   xF1,F
06540:  COMF   xF2,F
06542:  INCF   xEF,F
06544:  BTFSC  FD8.2
06546:  INCF   xF0,F
06548:  BTFSC  FD8.2
0654A:  INCF   xF1,F
0654C:  BTFSC  FD8.2
0654E:  INCF   xF2,F
06550:  MOVLW  3B
06552:  MOVWF  xFB
06554:  MOVLW  9A
06556:  MOVWF  xFA
06558:  MOVLW  CA
0655A:  MOVWF  xF9
0655C:  CLRF   xF8
0655E:  MOVLW  0A
06560:  MOVWF  xF6
06562:  MOVF   xF3,W
06564:  BTFSC  FD8.2
06566:  INCF   xF4,F
06568:  BSF    FD8.1
0656A:  MOVLW  02
0656C:  MOVWF  FEA
0656E:  MOVLW  EF
06570:  MOVWF  FE9
06572:  MOVFF  2F2,2FF
06576:  MOVFF  2F1,2FE
0657A:  MOVFF  2F0,2FD
0657E:  MOVFF  2EF,2FC
06582:  MOVFF  2FB,303
06586:  MOVFF  2FA,302
0658A:  MOVFF  2F9,301
0658E:  MOVFF  2F8,300
06592:  MOVLB  0
06594:  RCALL  642E
06596:  MOVF   01,W
06598:  MOVF   00,F
0659A:  BNZ   65C2
0659C:  MOVLB  2
0659E:  INCF   xF3,W
065A0:  SUBWF  xF6,W
065A2:  BTFSS  FD8.2
065A4:  BRA    65AA
065A6:  MOVLB  0
065A8:  BRA    65C2
065AA:  MOVF   xF4,W
065AC:  BZ    65C8
065AE:  ANDLW  0F
065B0:  SUBWF  xF6,W
065B2:  BZ    65B6
065B4:  BC    662E
065B6:  BTFSC  xF4.7
065B8:  BRA    662E
065BA:  BTFSC  xF4.6
065BC:  BRA    65C8
065BE:  MOVLW  20
065C0:  BRA    6624
065C2:  MOVLW  20
065C4:  MOVLB  2
065C6:  ANDWF  xF4,F
065C8:  BTFSS  xF4.5
065CA:  BRA    65E6
065CC:  BCF    xF4.5
065CE:  MOVF   xF3,W
065D0:  BTFSS  FD8.2
065D2:  DECF   xF4,F
065D4:  MOVF   00,W
065D6:  MOVWF  xF4
065D8:  MOVLW  2D
065DA:  BTFSS  F9E.4
065DC:  BRA    65DA
065DE:  MOVWF  FAD
065E0:  MOVF   xF4,W
065E2:  MOVWF  00
065E4:  CLRF   xF4
065E6:  MOVF   xF3,W
065E8:  SUBWF  xF6,W
065EA:  BNZ   6602
065EC:  MOVF   00,W
065EE:  MOVWF  xF4
065F0:  MOVLW  2E
065F2:  BTFSS  F9E.4
065F4:  BRA    65F2
065F6:  MOVWF  FAD
065F8:  MOVF   xF4,W
065FA:  MOVWF  00
065FC:  MOVLW  20
065FE:  ANDWF  xF4,F
06600:  MOVLW  00
06602:  MOVLW  30
06604:  BTFSS  xF4.5
06606:  BRA    6624
06608:  BCF    xF4.5
0660A:  MOVF   xF3,W
0660C:  BTFSS  FD8.2
0660E:  DECF   xF4,F
06610:  MOVF   00,W
06612:  MOVWF  xF4
06614:  MOVLW  2D
06616:  BTFSS  F9E.4
06618:  BRA    6616
0661A:  MOVWF  FAD
0661C:  MOVF   xF4,W
0661E:  MOVWF  00
06620:  CLRF   xF4
06622:  MOVLW  30
06624:  ADDWF  00,F
06626:  MOVF   00,W
06628:  BTFSS  F9E.4
0662A:  BRA    6628
0662C:  MOVWF  FAD
0662E:  BCF    FD8.1
06630:  MOVFF  2FB,2FF
06634:  MOVFF  2FA,2FE
06638:  MOVFF  2F9,2FD
0663C:  MOVFF  2F8,2FC
06640:  MOVLB  3
06642:  CLRF   x03
06644:  CLRF   x02
06646:  CLRF   x01
06648:  MOVLW  0A
0664A:  MOVWF  x00
0664C:  MOVLB  0
0664E:  RCALL  642E
06650:  MOVFF  03,2FB
06654:  MOVFF  02,2FA
06658:  MOVFF  01,2F9
0665C:  MOVFF  00,2F8
06660:  MOVLB  2
06662:  DECFSZ xF6,F
06664:  BRA    6568
06666:  MOVLB  0
06668:  RETURN 0
0666A:  MOVFF  2F4,2FB
0666E:  MOVLB  2
06670:  MOVF   xF8,W
06672:  XORWF  xFB,F
06674:  BTFSS  xFB.7
06676:  BRA    6682
06678:  BCF    FD8.2
0667A:  BCF    FD8.0
0667C:  BTFSC  xF4.7
0667E:  BSF    FD8.0
06680:  BRA    66E0
06682:  MOVFF  2F4,2FB
06686:  MOVFF  2F7,2FC
0668A:  MOVF   xF3,W
0668C:  SUBWF  xFC,F
0668E:  BZ    669C
06690:  BTFSS  xFB.7
06692:  BRA    66E0
06694:  MOVF   FD8,W
06696:  XORLW  01
06698:  MOVWF  FD8
0669A:  BRA    66E0
0669C:  MOVFF  2F8,2FC
066A0:  MOVF   xF4,W
066A2:  SUBWF  xFC,F
066A4:  BZ    66B2
066A6:  BTFSS  xFB.7
066A8:  BRA    66E0
066AA:  MOVF   FD8,W
066AC:  XORLW  01
066AE:  MOVWF  FD8
066B0:  BRA    66E0
066B2:  MOVFF  2F9,2FC
066B6:  MOVF   xF5,W
066B8:  SUBWF  xFC,F
066BA:  BZ    66C8
066BC:  BTFSS  xFB.7
066BE:  BRA    66E0
066C0:  MOVF   FD8,W
066C2:  XORLW  01
066C4:  MOVWF  FD8
066C6:  BRA    66E0
066C8:  MOVFF  2FA,2FC
066CC:  MOVF   xF6,W
066CE:  SUBWF  xFC,F
066D0:  BZ    66DE
066D2:  BTFSS  xFB.7
066D4:  BRA    66E0
066D6:  MOVF   FD8,W
066D8:  XORLW  01
066DA:  MOVWF  FD8
066DC:  BRA    66E0
066DE:  BCF    FD8.0
066E0:  MOVLB  0
066E2:  RETURN 0
*
06E72:  MOVLW  20
06E74:  MOVLB  2
06E76:  BTFSS  xED.4
06E78:  MOVLW  30
06E7A:  MOVWF  xEE
06E7C:  MOVFF  2EC,00
06E80:  BTFSS  xEC.7
06E82:  BRA    6E94
06E84:  COMF   00,F
06E86:  INCF   00,F
06E88:  MOVFF  00,2EC
06E8C:  MOVLW  2D
06E8E:  MOVWF  xEE
06E90:  BSF    xED.7
06E92:  BSF    xED.0
06E94:  MOVF   01,W
06E96:  CLRF   1B
06E98:  BTFSC  FF2.7
06E9A:  BSF    1B.7
06E9C:  BCF    FF2.7
06E9E:  MOVFF  2EC,32C
06EA2:  MOVLW  64
06EA4:  MOVLB  3
06EA6:  MOVWF  x2D
06EA8:  MOVLB  0
06EAA:  CALL   1670
06EAE:  BTFSC  1B.7
06EB0:  BSF    FF2.7
06EB2:  MOVFF  00,2EC
06EB6:  MOVLW  30
06EB8:  ADDWF  01,W
06EBA:  MOVLB  2
06EBC:  MOVWF  xEF
06EBE:  CLRF   1B
06EC0:  BTFSC  FF2.7
06EC2:  BSF    1B.7
06EC4:  BCF    FF2.7
06EC6:  MOVFF  2EC,32C
06ECA:  MOVLW  0A
06ECC:  MOVLB  3
06ECE:  MOVWF  x2D
06ED0:  MOVLB  0
06ED2:  CALL   1670
06ED6:  BTFSC  1B.7
06ED8:  BSF    FF2.7
06EDA:  MOVLW  30
06EDC:  ADDWF  00,W
06EDE:  MOVLB  2
06EE0:  MOVWF  xF1
06EE2:  MOVLW  30
06EE4:  ADDWF  01,W
06EE6:  MOVWF  xF0
06EE8:  MOVFF  2EE,00
06EEC:  MOVLW  30
06EEE:  SUBWF  xEF,W
06EF0:  BZ    6EFA
06EF2:  BSF    xED.1
06EF4:  BTFSC  xED.7
06EF6:  BSF    xED.2
06EF8:  BRA    6F1E
06EFA:  MOVFF  2EE,2EF
06EFE:  MOVLW  20
06F00:  MOVWF  xEE
06F02:  MOVLW  30
06F04:  SUBWF  xF0,W
06F06:  BZ    6F10
06F08:  BSF    xED.0
06F0A:  BTFSC  xED.7
06F0C:  BSF    xED.1
06F0E:  BRA    6F1E
06F10:  BTFSS  FD8.2
06F12:  BSF    xED.0
06F14:  BNZ   6F1E
06F16:  MOVFF  2EF,2F0
06F1A:  MOVLW  20
06F1C:  MOVWF  xEF
06F1E:  BTFSC  xED.2
06F20:  BRA    6F2C
06F22:  BTFSC  xED.1
06F24:  BRA    6F34
06F26:  BTFSC  xED.0
06F28:  BRA    6F3C
06F2A:  BRA    6F44
06F2C:  MOVF   xEE,W
06F2E:  BTFSS  F9E.4
06F30:  BRA    6F2E
06F32:  MOVWF  FAD
06F34:  MOVF   xEF,W
06F36:  BTFSS  F9E.4
06F38:  BRA    6F36
06F3A:  MOVWF  FAD
06F3C:  MOVF   xF0,W
06F3E:  BTFSS  F9E.4
06F40:  BRA    6F3E
06F42:  MOVWF  FAD
06F44:  MOVF   xF1,W
06F46:  BTFSS  F9E.4
06F48:  BRA    6F46
06F4A:  MOVWF  FAD
06F4C:  MOVLB  0
06F4E:  RETURN 0
*
070D0:  CLRF   01
070D2:  CLRF   02
070D4:  CLRF   00
070D6:  CLRF   03
070D8:  MOVLB  2
070DA:  MOVF   xEE,W
070DC:  BNZ   70E2
070DE:  MOVF   xED,W
070E0:  BZ    7112
070E2:  MOVLW  10
070E4:  MOVWF  xEF
070E6:  BCF    FD8.0
070E8:  RLCF   xEB,F
070EA:  RLCF   xEC,F
070EC:  RLCF   00,F
070EE:  RLCF   03,F
070F0:  MOVF   xEE,W
070F2:  SUBWF  03,W
070F4:  BNZ   70FA
070F6:  MOVF   xED,W
070F8:  SUBWF  00,W
070FA:  BNC   710A
070FC:  MOVF   xED,W
070FE:  SUBWF  00,F
07100:  BTFSS  FD8.0
07102:  DECF   03,F
07104:  MOVF   xEE,W
07106:  SUBWF  03,F
07108:  BSF    FD8.0
0710A:  RLCF   01,F
0710C:  RLCF   02,F
0710E:  DECFSZ xEF,F
07110:  BRA    70E6
07112:  MOVLB  0
07114:  RETURN 0
07116:  MOVLB  2
07118:  CLRF   xEA
0711A:  CLRF   xEB
0711C:  MOVLW  01
0711E:  MOVWF  xEC
07120:  CLRF   FDA
07122:  CLRF   FD9
07124:  MOVLW  02
07126:  MOVWF  xEF
07128:  MOVLW  E2
0712A:  MOVWF  xEE
0712C:  MOVLW  02
0712E:  MOVWF  FEA
07130:  MOVLW  E6
07132:  MOVWF  FE9
07134:  MOVFF  2EF,FE2
07138:  MOVFF  2EE,FE1
0713C:  MOVFF  2EC,2ED
07140:  BCF    FD8.0
07142:  MOVF   FE5,W
07144:  MULWF  FEE
07146:  MOVF   FF3,W
07148:  ADDWFC xEA,F
0714A:  MOVF   FF4,W
0714C:  ADDWFC xEB,F
0714E:  DECFSZ xED,F
07150:  BRA    7140
07152:  MOVFF  2EA,FDE
07156:  MOVFF  2EB,2EA
0715A:  CLRF   xEB
0715C:  BTFSC  FD8.0
0715E:  INCF   xEB,F
07160:  INCF   xEE,F
07162:  BTFSC  FD8.2
07164:  INCF   xEF,F
07166:  INCF   xEC,F
07168:  MOVF   xEC,W
0716A:  SUBLW  05
0716C:  BNZ   712C
0716E:  MOVLB  0
07170:  RETURN 0
*
08082:  MOVLB  2
08084:  MOVF   xF6,W
08086:  MULWF  xF8
08088:  MOVFF  FF3,01
0808C:  MOVFF  FF4,00
08090:  MULWF  xF9
08092:  MOVF   FF3,W
08094:  ADDWF  00,F
08096:  MOVF   xF7,W
08098:  MULWF  xF8
0809A:  MOVF   FF3,W
0809C:  ADDWFC 00,W
0809E:  MOVWF  02
080A0:  MOVLB  0
080A2:  RETURN 0
*
0AB0C:  ADDWF  FE8,W
0AB0E:  CLRF   FF7
0AB10:  RLCF   FF7,F
0AB12:  ADDLW  2D
0AB14:  MOVWF  FF6
0AB16:  MOVLW  AB
0AB18:  ADDWFC FF7,F
0AB1A:  MOVLW  00
0AB1C:  MOVWF  FF8
0AB1E:  MOVWF  FFB
0AB20:  TBLRD*-
0AB22:  MOVF   FF5,W
0AB24:  MOVWF  FFA
0AB26:  TBLRD*
0AB28:  MOVF   FF5,W
0AB2A:  MOVWF  FF9
0AB2C:  DATA 28,A8
0AB2E:  DATA 30,A8
0AB30:  DATA 38,A8
0AB32:  DATA 40,A8
0AB34:  DATA 48,A8
0AB36:  DATA 50,A8
0AB38:  DATA 58,A8
0AB3A:  DATA 60,A8
0AB3C:  DATA 68,A8
0AB3E:  DATA 70,A8
0AB40:  DATA 78,A8
0AB42:  DATA 80,A8
0AB44:  DATA 88,A8
0AB46:  DATA 90,A8
0AB48:  DATA 98,A8
*
0AC7E:  MOVFF  FEA,307
0AC82:  MOVFF  FE9,306
0AC86:  MOVLB  3
0AC88:  BTFSS  x00.7
0AC8A:  BRA    ACAA
0AC8C:  BSF    x06.7
0AC8E:  BTFSS  x06.4
0AC90:  INCF   x06,F
0AC92:  MOVLB  2
0AC94:  COMF   xFF,F
0AC96:  MOVLB  3
0AC98:  COMF   x00,F
0AC9A:  MOVLB  2
0AC9C:  INCF   xFF,F
0AC9E:  BTFSS  FD8.2
0ACA0:  BRA    ACA8
0ACA2:  MOVLB  3
0ACA4:  INCF   x00,F
0ACA6:  MOVLB  2
0ACA8:  MOVLB  3
0ACAA:  SWAPF  x00,W
0ACAC:  IORLW  F0
0ACAE:  MOVWF  x02
0ACB0:  ADDWF  x02,F
0ACB2:  ADDLW  E2
0ACB4:  MOVWF  x03
0ACB6:  ADDLW  32
0ACB8:  MOVWF  x05
0ACBA:  MOVF   x00,W
0ACBC:  ANDLW  0F
0ACBE:  ADDWF  x03,F
0ACC0:  ADDWF  x03,F
0ACC2:  ADDWF  x05,F
0ACC4:  ADDLW  E9
0ACC6:  MOVWF  x04
0ACC8:  ADDWF  x04,F
0ACCA:  ADDWF  x04,F
0ACCC:  MOVLB  2
0ACCE:  SWAPF  xFF,W
0ACD0:  ANDLW  0F
0ACD2:  MOVLB  3
0ACD4:  ADDWF  x04,F
0ACD6:  ADDWF  x05,F
0ACD8:  RLCF   x04,F
0ACDA:  RLCF   x05,F
0ACDC:  COMF   x05,F
0ACDE:  RLCF   x05,F
0ACE0:  MOVLB  2
0ACE2:  MOVF   xFF,W
0ACE4:  ANDLW  0F
0ACE6:  MOVLB  3
0ACE8:  ADDWF  x05,F
0ACEA:  RLCF   x02,F
0ACEC:  MOVLW  07
0ACEE:  MOVWF  x01
0ACF0:  MOVLW  0A
0ACF2:  DECF   x04,F
0ACF4:  ADDWF  x05,F
0ACF6:  BNC   ACF2
0ACF8:  DECF   x03,F
0ACFA:  ADDWF  x04,F
0ACFC:  BNC   ACF8
0ACFE:  DECF   x02,F
0AD00:  ADDWF  x03,F
0AD02:  BNC   ACFE
0AD04:  DECF   x01,F
0AD06:  ADDWF  x02,F
0AD08:  BNC   AD04
0AD0A:  MOVLW  03
0AD0C:  MOVWF  FEA
0AD0E:  MOVLW  01
0AD10:  MOVWF  FE9
0AD12:  MOVLW  07
0AD14:  ANDWF  x06,W
0AD16:  BCF    x06.6
0AD18:  MOVF   FED,F
0AD1A:  ANDWF  x06,W
0AD1C:  BNZ   AD2C
0AD1E:  BTFSC  x06.4
0AD20:  MOVF   FEE,F
0AD22:  BTFSC  x06.4
0AD24:  BRA    AD2C
0AD26:  MOVLW  20
0AD28:  MOVWF  00
0AD2A:  BRA    AD6E
0AD2C:  ADDWF  FE9,F
0AD2E:  MOVLW  00
0AD30:  ADDWFC FEA,F
0AD32:  MOVF   FE9,W
0AD34:  SUBLW  05
0AD36:  BNZ   AD40
0AD38:  MOVF   FEA,W
0AD3A:  SUBLW  03
0AD3C:  BNZ   AD40
0AD3E:  BSF    x06.6
0AD40:  MOVF   FEF,W
0AD42:  MOVWF  00
0AD44:  BNZ   AD56
0AD46:  BTFSC  x06.6
0AD48:  BRA    AD56
0AD4A:  BTFSC  x06.4
0AD4C:  BRA    AD76
0AD4E:  BTFSC  x06.3
0AD50:  BRA    AD56
0AD52:  MOVLW  20
0AD54:  BRA    AD6C
0AD56:  BTFSS  x06.7
0AD58:  BRA    AD66
0AD5A:  MOVLW  2D
0AD5C:  MOVWF  00
0AD5E:  MOVF   FED,W
0AD60:  BCF    x06.6
0AD62:  BCF    x06.7
0AD64:  BRA    AD6E
0AD66:  BSF    x06.3
0AD68:  BCF    x06.4
0AD6A:  MOVLW  30
0AD6C:  ADDWF  00,F
0AD6E:  MOVF   00,W
0AD70:  BTFSS  F9E.4
0AD72:  BRA    AD70
0AD74:  MOVWF  FAD
0AD76:  MOVF   FEE,W
0AD78:  BTFSS  x06.6
0AD7A:  BRA    AD32
0AD7C:  MOVLB  0
0AD7E:  GOTO   AE6C (RETURN)
....................  
.................... #list 
....................  
.................... #FUSES NOWDT, NOBROWNOUT, NOPROTECT 
.................... #use delay(crystal=16Mhz, clock=16Mhz) 
*
01F78:  MOVLW  03
01F7A:  MOVWF  FEA
01F7C:  MOVLW  19
01F7E:  MOVWF  FE9
01F80:  MOVF   FEF,W
01F82:  BZ    1FA0
01F84:  MOVLW  05
01F86:  MOVWF  01
01F88:  CLRF   00
01F8A:  DECFSZ 00,F
01F8C:  BRA    1F8A
01F8E:  DECFSZ 01,F
01F90:  BRA    1F88
01F92:  MOVLW  2E
01F94:  MOVWF  00
01F96:  DECFSZ 00,F
01F98:  BRA    1F96
01F9A:  BRA    1F9C
01F9C:  DECFSZ FEF,F
01F9E:  BRA    1F84
01FA0:  RETURN 0
.................... #include<PIC18F67J94_registers.h> 
.................... #byte ADCBUF0H = 0xFC3 
.................... #byte ADCBUF0L = 0xFC2 
.................... #byte ADCON1H = 0xFC1 
.................... #bit    FORM0 = ADCON1H.0 
.................... #bit    FORM1 = ADCON1H.1 
.................... #bit    MODE12 = ADCON1H.2 
.................... #bit    DMAEN = ADCON1H.3 
.................... #bit    DMABM = ADCON1H.4 
.................... #bit    ADSIDL = ADCON1H.5 
.................... #bit    ADFRZ = ADCON1H.6 
.................... #bit    ADON = ADCON1H.7 
.................... #byte ADCON1L = 0xFC0 
.................... #bit    DONE = ADCON1L.0 
.................... #bit    SAMP = ADCON1L.1 
.................... #bit    ASAM = ADCON1L.2 
.................... #bit    SIMSAM = ADCON1L.3 
.................... #bit    SSRC0 = ADCON1L.4 
.................... #bit    SSRC1 = ADCON1L.5 
.................... #bit    SSRC2 = ADCON1L.6 
.................... #bit    SSRC3 = ADCON1L.7 
.................... #byte TRISG = 0xF98 
.................... #byte TRISF = 0xF97 
.................... #byte TRISE = 0xF96 
.................... #byte TRISD = 0xF95 
.................... #byte TRISC = 0xF94 
.................... #byte TRISB = 0xF93 
....................  
.................... #byte TRISA = 0xF92 
.................... #bit    TRISA0 = TRISA.0 
.................... #bit    TRISA1 = TRISA.1 
.................... #bit    TRISA2 = TRISA.2 
....................  
....................  
.................... #byte LATG = 0xF8F 
.................... #byte LATF = 0xF8E 
.................... #byte LATE = 0xF8D 
.................... #byte LATD = 0xF8C 
.................... #byte LATC = 0xF8B 
.................... #byte LATB = 0xF8A 
....................  
.................... #byte LATA = 0xF89 
.................... #bit    LATA0 = LATA.0 
.................... #bit    LATA1 = LATA.1 
.................... #bit    LATA2 = LATA.2 
.................... #bit    LATA3 = LATA.3 
....................  
.................... #byte PORTG = 0xF86 
.................... #bit    RG0 = PORTG.0 
.................... #bit    RG1 = PORTG.1 
.................... #bit    RG2 = PORTG.2 
.................... #bit    RG3 = PORTG.3 
.................... #bit    RG4 = PORTG.4 
.................... #bit    RG6 = PORTG.6 
.................... #bit    RG7 = PORTG.7 
.................... #byte PORTF = 0xF85 
.................... #bit    RF2 = PORTF.2 
.................... #bit    RF3 = PORTF.3 
.................... #bit    RF4 = PORTF.4 
.................... #bit    RF5 = PORTF.5 
.................... #bit    RF6 = PORTF.6 
.................... #bit    RF7 = PORTF.7 
.................... #byte PORTE = 0xF84 
.................... #byte PORTD = 0xF83 
.................... #byte PORTC = 0xF82 
.................... #bit    RC0 = PORTC.0 
.................... #bit    RC1 = PORTC.1 
.................... #bit    RC2 = PORTC.2 
.................... #bit    RC3 = PORTC.3 
.................... #bit    RC4 = PORTC.4 
.................... #bit    RC5 = PORTC.5 
.................... #bit    RC6 = PORTC.6 
.................... #bit    RC7 = PORTC.7 
.................... #byte PORTB = 0xF81 
.................... #byte PORTA = 0xF80 
.................... #bit    RA0 = PORTA.0 
.................... #bit    RA1 = PORTA.1 
.................... #bit    RA2 = PORTA.2 
.................... #bit    RA3 = PORTA.3 
.................... #bit    RA4 = PORTA.4 
.................... #bit    RA5 = PORTA.5 
.................... #bit    RA6 = PORTA.6 
.................... #bit    RA7 = PORTA.7 
.................... #byte TRISVP = 0xF73 
.................... #byte LATVP = 0xF72 
.................... #byte PORTVP = 0xF71 
.................... #byte WPUB = 0xF62 
.................... #byte ALRMVALH = 0xF59 
.................... #byte ALRMVALL = 0xF58 
.................... #byte ANCFG = 0xF01 
.................... #bit    VBGEN = ANCFG.0 
.................... #bit    VBG2EN = ANCFG.1 
.................... #bit    VBG6EN = ANCFG.2 
.................... #byte ODCON1 = 0xEEB 
.................... #bit    SSP1OD = ODCON1.0 
.................... #bit    SSP2OD = ODCON1.1 
.................... #bit    USART1OD = ODCON1.2 
.................... #bit    USART2OD = ODCON1.3 
.................... #bit    USART3OD = ODCON1.4 
.................... #bit    USART4OD = ODCON1.5 
.................... #bit    ECCP1OD = ODCON1.6 
.................... #bit    ECCP2OD = ODCON1.7 
.................... #byte ODCON2 = 0xEEA 
.................... #bit    ECCP3OD = ODCON2.0 
.................... #bit    CCP4OD = ODCON2.1 
.................... #bit    CCP5OD = ODCON2.2 
.................... #bit    CCP6OD = ODCON2.3 
.................... #bit    CCP7OD = ODCON2.4 
.................... #bit    CCP8OD = ODCON2.5 
.................... #bit    CCP9OD = ODCON2.6 
.................... #bit    CCP10OD = ODCON2.7 
.................... #byte ADCON2H = 0xE8D 
.................... #bit    CHPS0 = ADCON2H.0 
.................... #bit    CHPS1 = ADCON2H.1 
.................... #bit    CSCNA = ADCON2H.2 
.................... #bit    BUFREGEN = ADCON2H.3 
.................... #bit    OFFCAL = ADCON2H.4 
.................... #bit    NVCFG0 = ADCON2H.5 
.................... #bit    PVCFG0 = ADCON2H.6 
.................... #bit    PVCFG1 = ADCON2H.7 
.................... #byte ADCON2L = 0xE8C 
.................... #bit    ALTS = ADCON2L.0 
.................... #bit    BUFM = ADCON2L.1 
.................... #bit    SMPI0 = ADCON2L.2 
.................... #bit    SMPI1 = ADCON2L.3 
.................... #bit    SMPI2 = ADCON2L.4 
.................... #bit    SMPI3 = ADCON2L.5 
.................... #bit    SMPI4 = ADCON2L.6 
.................... #bit    BUFS = ADCON2L.7 
.................... #byte ADCON3H = 0xE8B 
.................... #bit    SAMC0 = ADCON3H.0 
.................... #bit    SAMC1 = ADCON3H.1 
.................... #bit    SAMC2 = ADCON3H.2 
.................... #bit    SAMC3 = ADCON3H.3 
.................... #bit    SAMC4 = ADCON3H.4 
.................... #bit    PUMPEN = ADCON3H.5 
.................... #bit    EXTSAM = ADCON3H.6 
.................... #bit    ADRC = ADCON3H.7 
.................... #byte ADCON3L = 0xE8A 
.................... #byte ADCON5H = 0xE89 
.................... #bit    ASINTMD0 = ADCON5H.0 
.................... #bit    ASINTMD1 = ADCON5H.1 
.................... #bit    VREGSREQ = ADCON5H.3 
.................... #bit    BGREQ = ADCON5H.4 
.................... #bit    CTMUREQ = ADCON5H.5 
.................... #bit    LPENA = ADCON5H.6 
.................... #bit    ASENA = ADCON5H.7 
.................... #byte ADCON5L = 0xE88 
.................... #bit    CM0 = ADCON5L.0 
.................... #bit    CM1 = ADCON5L.1 
.................... #bit    WM0 = ADCON5L.2 
.................... #bit    WM1 = ADCON5L.3 
.................... #byte ADCHS0H = 0xE87 
.................... #bit    CH0SB0 = ADCHS0H.0 
.................... #bit    CH0SB1 = ADCHS0H.1 
.................... #bit    CH0SB2 = ADCHS0H.2 
.................... #bit    CH0SB3 = ADCHS0H.3 
.................... #bit    CH0SB4 = ADCHS0H.4 
.................... #bit    CH0NB0 = ADCHS0H.5 
.................... #bit    CH0NB1 = ADCHS0H.6 
.................... #bit    CH0NB2 = ADCHS0H.7 
.................... #byte ADCHS0L = 0xE86 
.................... #bit    CH0SA0 = ADCHS0L.0 
.................... #bit    CH0SA1 = ADCHS0L.1 
.................... #bit    CH0SA2 = ADCHS0L.2 
.................... #bit    CH0SA3 = ADCHS0L.3 
.................... #bit    CH0SA4 = ADCHS0L.4 
.................... #bit    CH0NA0 = ADCHS0L.5 
.................... #bit    CH0NA1 = ADCHS0L.6 
.................... #bit    CH0NA2 = ADCHS0L.7 
.................... #byte ADCSS1H = 0xE85 
.................... #bit    CSS24 = ADCSS1H.0 
.................... #bit    CSS25 = ADCSS1H.1 
.................... #bit    CSS26 = ADCSS1H.2 
.................... #bit    CSS27 = ADCSS1H.3 
.................... #bit    CSS28 = ADCSS1H.4 
.................... #bit    CSS29 = ADCSS1H.5 
.................... #bit    CSS30 = ADCSS1H.6 
.................... #bit    CSS31 = ADCSS1H.7 
.................... #byte ADCSS1L = 0xE84 
.................... #bit    CSS16 = ADCSS1L.0 
.................... #bit    CSS17 = ADCSS1L.1 
.................... #bit    CSS18 = ADCSS1L.2 
.................... #bit    CSS19 = ADCSS1L.3 
.................... #bit    CSS20 = ADCSS1L.4 
.................... #bit    CSS21 = ADCSS1L.5 
.................... #bit    CSS22 = ADCSS1L.6 
.................... #bit    CSS23 = ADCSS1L.7 
.................... #byte ADCSS0H = 0xE83 
.................... #bit    CSS8 = ADCSS0H.0 
.................... #bit    CSS9 = ADCSS0H.1 
.................... #bit    CSS10 = ADCSS0H.2 
.................... #bit    CSS11 = ADCSS0H.3 
.................... #bit    CSS12 = ADCSS0H.4 
.................... #bit    CSS13 = ADCSS0H.5 
.................... #bit    CSS14 = ADCSS0H.6 
.................... #bit    CSS15 = ADCSS0H.7 
.................... #byte ADCSS0L = 0xE82 
.................... #byte ADCHIT1H = 0xE81 
.................... #bit    CHH24 = ADCHIT1H.0 
.................... #bit    CHH25 = ADCHIT1H.1 
.................... #bit    CHH26 = ADCHIT1H.2 
.................... #bit    CHH27 = ADCHIT1H.3 
.................... #bit    CHH28 = ADCHIT1H.4 
.................... #bit    CHH29 = ADCHIT1H.5 
.................... #bit    CHH30 = ADCHIT1H.6 
.................... #bit    CHH31 = ADCHIT1H.7 
.................... #byte ADCHIT1L = 0xE80 
.................... #bit    CHH16 = ADCHIT1L.0 
.................... #bit    CHH17 = ADCHIT1L.1 
.................... #bit    CHH18 = ADCHIT1L.2 
.................... #bit    CHH19 = ADCHIT1L.3 
.................... #bit    CHH20 = ADCHIT1L.4 
.................... #bit    CHH21 = ADCHIT1L.5 
.................... #bit    CHH22 = ADCHIT1L.6 
.................... #bit    CHH23 = ADCHIT1L.7 
.................... #byte ADCHIT0H = 0xE7F 
.................... #bit    CHH8 = ADCHIT0H.0 
.................... #bit    CHH9 = ADCHIT0H.1 
.................... #bit    CHH10 = ADCHIT0H.2 
.................... #bit    CHH11 = ADCHIT0H.3 
.................... #bit    CHH12 = ADCHIT0H.4 
.................... #bit    CHH13 = ADCHIT0H.5 
.................... #bit    CHH14 = ADCHIT0H.6 
.................... #bit    CHH15 = ADCHIT0H.7 
.................... #byte ADCHIT0L = 0xE7E 
.................... #byte ADCTMUEN1H = 0xE7D 
.................... #bit    CTUMEN24 = ADCTMUEN1H.0 
.................... #bit    CTUMEN25 = ADCTMUEN1H.1 
.................... #bit    CTUMEN26 = ADCTMUEN1H.2 
.................... #bit    CTUMEN27 = ADCTMUEN1H.3 
.................... #bit    CTUMEN28 = ADCTMUEN1H.4 
.................... #bit    CTUMEN29 = ADCTMUEN1H.5 
.................... #bit    CTMUEN30 = ADCTMUEN1H.6 
.................... #bit    CTMUEN31 = ADCTMUEN1H.7 
.................... #byte ADCTMUEN1L = 0xE7C 
.................... #bit    CTUMEN16 = ADCTMUEN1L.0 
.................... #bit    CTUMEN17 = ADCTMUEN1L.1 
.................... #bit    CTUMEN18 = ADCTMUEN1L.2 
.................... #bit    CTUMEN19 = ADCTMUEN1L.3 
.................... #bit    CTMUEN20 = ADCTMUEN1L.4 
.................... #bit    CTMUEN21 = ADCTMUEN1L.5 
.................... #bit    CTMUEN22 = ADCTMUEN1L.6 
.................... #bit    CTMUEN23 = ADCTMUEN1L.7 
.................... #byte ADCTMUEN0H = 0xE7B 
.................... #bit    CTMUEN8 = ADCTMUEN0H.0 
.................... #bit    CTMUEN9 = ADCTMUEN0H.1 
.................... #bit    CTMUEN10 = ADCTMUEN0H.2 
.................... #bit    CTMUEN11 = ADCTMUEN0H.3 
.................... #bit    CTMUEN12 = ADCTMUEN0H.4 
.................... #bit    CTMUEN13 = ADCTMUEN0H.5 
.................... #bit    CTMUEN14 = ADCTMUEN0H.6 
.................... #bit    CTMUEN15 = ADCTMUEN0H.7 
.................... #byte ADCTMUEN0L = 0xE7A 
.................... #byte ADCBUF25H = 0xE79 
.................... #byte ADCBUF25L = 0xE78 
.................... #byte ADCBUF24H = 0xE77 
.................... #byte ADCBUF24L = 0xE76 
.................... #byte ADCBUF23H = 0xE75 
.................... #byte ADCBUF23L = 0xE74 
.................... #byte ADCBUF22H = 0xE73 
.................... #byte ADCBUF22L = 0xE72 
.................... #byte ADCBUF21H = 0xE71 
.................... #byte ADCBUF21L = 0xE70 
.................... #byte ADCBUF20H = 0xE6F 
.................... #byte ADCBUF20L = 0xE6E 
.................... #byte ADCBUF19H = 0xE6D 
.................... #byte ADCBUF19L = 0xE6C 
.................... #byte ADCBUF18H = 0xE6B 
.................... #byte ADCBUF18L = 0xE6A 
.................... #byte ADCBUF17H = 0xE69 
.................... #byte ADCBUF17L = 0xE68 
.................... #byte ADCBUF16H = 0xE67 
.................... #byte ADCBUF16L = 0xE66 
.................... #byte ADCBUF15H = 0xE65 
.................... #byte ADCBUF15L = 0xE64 
.................... #byte ADCBUF14H = 0xE63 
.................... #byte ADCBUF14L = 0xE62 
.................... #byte ADCBUF13H = 0xE61 
.................... #byte ADCBUF13L = 0xE60 
.................... #byte ADCBUF12H = 0xE5F 
.................... #byte ADCBUF12L = 0xE5E 
.................... #byte ADCBUF11H = 0xE5D 
.................... #byte ADCBUF11L = 0xE5C 
.................... #byte ADCBUF10H = 0xE5B 
.................... #byte ADCBUF10L = 0xE5A 
.................... #byte ADCBUF9H = 0xE59 
.................... #byte ADCBUF9L = 0xE58 
.................... #byte ADCBUF8H = 0xE57 
.................... #byte ADCBUF8L = 0xE56 
.................... #byte ADCBUF7H = 0xE55 
.................... #byte ADCBUF7L = 0xE54 
.................... #byte ADCBUF6H = 0xE53 
.................... #byte ADCBUF6L = 0xE52 
.................... #byte ADCBUF5H = 0xE51 
.................... #byte ADCBUF5L = 0xE50 
.................... #byte ADCBUF4H = 0xE4F 
.................... #byte ADCBUF4L = 0xE4E 
.................... #byte ADCBUF3H = 0xE4D 
.................... #byte ADCBUF3L = 0xE4C 
.................... #byte ADCBUF2H = 0xE4B 
.................... #byte ADCBUF2L = 0xE4A 
.................... #byte ADCBUF1H = 0xE49 
.................... #byte ADCBUF1L = 0xE48 
.................... #byte ANCON1 = 0xE47 
.................... #byte ANCON2 = 0xE46 
.................... #bit    ANSEL8 = ANCON2.0 
.................... #bit    ANSEL9 = ANCON2.1 
.................... #bit    ANSEL10 = ANCON2.2 
.................... #bit    ANSEL11 = ANCON2.3 
.................... #bit    ANSEL12 = ANCON2.4 
.................... #bit    ANSEL13 = ANCON2.5 
.................... #bit    ANSEL14 = ANCON2.6 
.................... #bit    ANSEL15 = ANCON2.7 
.................... #byte ANCON3 = 0xE45 
.................... #bit    ANSEL16 = ANCON3.0 
.................... #bit    ANSEL17 = ANCON3.1 
.................... #bit    ANSEL18 = ANCON3.2 
.................... #bit    ANSEL19 = ANCON3.3 
.................... #bit    ANSEL20 = ANCON3.4 
.................... #bit    ANSEL21 = ANCON3.5 
.................... #bit    ANSEL22 = ANCON3.6 
.................... #bit    ANSEL23 = ANCON3.7 
....................  
....................  
.................... //#include<HAMING_CORRECT.h> 
.................... //#org 0x100, 0x11000 DEFAULT  
.................... //#org DEFAULT 
....................      
.................... #device HIGH_INTS=TRUE 
....................  
.................... //-------------UART and SPI Setting-------------------------------------------- 
....................  
.................... #pin_select TX1=PIN_C6                                                           //TX PIN EXT +/- 6v 
.................... #pin_select RX1=PIN_C7                                                           //RX PIN EXT +/- 6V 
.................... #use rs232(baud=115200,parity=N,UART1,bits=8,stream=pc)                          // MAIN to Ext +/- 6v 
*
05768:  BTFSS  F9E.4
0576A:  BRA    5768
0576C:  MOVWF  FAD
0576E:  RETURN 0
....................  
.................... //#use rs232(baud=9600,parity=N,xmit=PIN_B6,rcv=PIN_B7,bits=8,stream=pc)           //UART MAIN to ICSP, PGC and PGD pins 
....................  
.................... #pin_select TX2=PIN_D3 
.................... #pin_select RX2=PIN_D2 
.................... #use rs232(baud=9600,parity=N,UART2,bits=8,stream=com)                           //UART Main to COM PIC 
*
042DC:  BTFSS  FA4.4
042DE:  BRA    42DC
042E0:  MOVLB  F
042E2:  MOVWF  x1D
042E4:  MOVLB  0
042E6:  RETURN 0
....................  
.................... #pin_select TX3=PIN_E5   
.................... #pin_select RX3=PIN_E4 
.................... #use rs232(baud=9600,parity=N,UART3,bits=8,stream=fab)                           //UART MAIN to FAB PIC 
*
04678:  BTFSS  FA6.4
0467A:  BRA    4678
0467C:  MOVLB  F
0467E:  MOVWF  x29
04680:  MOVLB  0
04682:  RETURN 0
....................  
.................... #pin_select TX4=PIN_E3   
.................... #pin_select RX4=PIN_F2 
.................... #use rs232(baud=9600,parity=N,UART4,bits=8,stream=reset)                         //UART MAIN to RESET PIC 
*
01F6C:  BTFSS  FA6.6
01F6E:  BRA    1F6C
01F70:  MOVLB  E
01F72:  MOVWF  xF9
01F74:  MOVLB  0
01F76:  RETURN 0
....................  
.................... #use rs232(baud=9600,parity=N,xmit=pin_F7,rcv=pin_F6,bits=8,stream=ADCS)         //UART MAIN to ADCS 
*
04A4E:  BCF    F97.7
04A50:  BCF    F8E.7
04A52:  MOVLW  08
04A54:  MOVWF  01
04A56:  BRA    4A58
04A58:  NOP   
04A5A:  BSF    01.7
04A5C:  BRA    4A7E
04A5E:  BCF    01.7
04A60:  MOVLB  2
04A62:  RRCF   xF7,F
04A64:  MOVLB  0
04A66:  BTFSC  FD8.0
04A68:  BSF    F8E.7
04A6A:  BTFSS  FD8.0
04A6C:  BCF    F8E.7
04A6E:  BSF    01.6
04A70:  BRA    4A7E
04A72:  BCF    01.6
04A74:  DECFSZ 01,F
04A76:  BRA    4A60
04A78:  BRA    4A7A
04A7A:  NOP   
04A7C:  BSF    F8E.7
04A7E:  MOVLW  84
04A80:  MOVWF  FE9
04A82:  DECFSZ FE9,F
04A84:  BRA    4A82
04A86:  BRA    4A88
04A88:  NOP   
04A8A:  BTFSC  01.7
04A8C:  BRA    4A5E
04A8E:  BTFSC  01.6
04A90:  BRA    4A72
04A92:  RETURN 0
04A94:  BSF    F97.6
04A96:  BTFSC  F85.6
04A98:  BRA    4A96
04A9A:  MOVLW  08
04A9C:  MOVWF  00
04A9E:  MOVLB  2
04AA0:  CLRF   xFB
04AA2:  BSF    00.7
04AA4:  BRA    4AC2
04AA6:  BCF    00.7
04AA8:  BRA    4AC2
04AAA:  BCF    FD8.0
04AAC:  BTFSC  F85.6
04AAE:  BSF    FD8.0
04AB0:  RRCF   xFB,F
04AB2:  BSF    00.6
04AB4:  BRA    4AC2
04AB6:  BCF    00.6
04AB8:  DECFSZ 00,F
04ABA:  BRA    4AAA
04ABC:  MOVFF  2FB,01
04AC0:  BRA    4ADA
04AC2:  MOVLW  84
04AC4:  BTFSC  00.7
04AC6:  MOVLW  24
04AC8:  MOVWF  01
04ACA:  DECFSZ 01,F
04ACC:  BRA    4ACA
04ACE:  BRA    4AD0
04AD0:  BTFSC  00.7
04AD2:  BRA    4AA6
04AD4:  BTFSC  00.6
04AD6:  BRA    4AB6
04AD8:  BRA    4AAA
04ADA:  MOVLB  0
04ADC:  RETURN 0
.................... #use rs232(baud=9600,parity=N,xmit=pin_G2,rcv=pin_G3,bits=8,stream=CAM)          //UART MAIN to CAM 
*
06CB6:  BCF    F98.2
06CB8:  BCF    F8F.2
06CBA:  MOVLW  08
06CBC:  MOVWF  01
06CBE:  BRA    6CC0
06CC0:  NOP   
06CC2:  BSF    01.7
06CC4:  BRA    6CE6
06CC6:  BCF    01.7
06CC8:  MOVLB  2
06CCA:  RRCF   xE7,F
06CCC:  MOVLB  0
06CCE:  BTFSC  FD8.0
06CD0:  BSF    F8F.2
06CD2:  BTFSS  FD8.0
06CD4:  BCF    F8F.2
06CD6:  BSF    01.6
06CD8:  BRA    6CE6
06CDA:  BCF    01.6
06CDC:  DECFSZ 01,F
06CDE:  BRA    6CC8
06CE0:  BRA    6CE2
06CE2:  NOP   
06CE4:  BSF    F8F.2
06CE6:  MOVLW  84
06CE8:  MOVWF  FE9
06CEA:  DECFSZ FE9,F
06CEC:  BRA    6CEA
06CEE:  BRA    6CF0
06CF0:  NOP   
06CF2:  BTFSC  01.7
06CF4:  BRA    6CC6
06CF6:  BTFSC  01.6
06CF8:  BRA    6CDA
06CFA:  RETURN 0
*
06D3C:  BSF    F98.3
06D3E:  BTFSC  F86.3
06D40:  BRA    6D3E
06D42:  MOVLW  08
06D44:  MOVWF  00
06D46:  MOVLB  2
06D48:  CLRF   xEA
06D4A:  BSF    00.7
06D4C:  BRA    6D6A
06D4E:  BCF    00.7
06D50:  BRA    6D6A
06D52:  BCF    FD8.0
06D54:  BTFSC  F86.3
06D56:  BSF    FD8.0
06D58:  RRCF   xEA,F
06D5A:  BSF    00.6
06D5C:  BRA    6D6A
06D5E:  BCF    00.6
06D60:  DECFSZ 00,F
06D62:  BRA    6D52
06D64:  MOVFF  2EA,01
06D68:  BRA    6D82
06D6A:  MOVLW  84
06D6C:  BTFSC  00.7
06D6E:  MOVLW  24
06D70:  MOVWF  01
06D72:  DECFSZ 01,F
06D74:  BRA    6D72
06D76:  BRA    6D78
06D78:  BTFSC  00.7
06D7A:  BRA    6D4E
06D7C:  BTFSC  00.6
06D7E:  BRA    6D5E
06D80:  BRA    6D52
06D82:  MOVLB  0
06D84:  RETURN 0
.................... #use rs232(baud=9600,parity=N,xmit=pin_G0,rcv=pin_G1,bits=8,stream=DC)          //UART MAIN to MB DCM 
*
042E8:  BCF    F98.0
042EA:  BCF    F8F.0
042EC:  MOVLW  08
042EE:  MOVWF  01
042F0:  BRA    42F2
042F2:  NOP   
042F4:  BSF    01.7
042F6:  BRA    4318
042F8:  BCF    01.7
042FA:  MOVLB  2
042FC:  RRCF   xFD,F
042FE:  MOVLB  0
04300:  BTFSC  FD8.0
04302:  BSF    F8F.0
04304:  BTFSS  FD8.0
04306:  BCF    F8F.0
04308:  BSF    01.6
0430A:  BRA    4318
0430C:  BCF    01.6
0430E:  DECFSZ 01,F
04310:  BRA    42FA
04312:  BRA    4314
04314:  NOP   
04316:  BSF    F8F.0
04318:  MOVLW  84
0431A:  MOVWF  FE9
0431C:  DECFSZ FE9,F
0431E:  BRA    431C
04320:  BRA    4322
04322:  NOP   
04324:  BTFSC  01.7
04326:  BRA    42F8
04328:  BTFSC  01.6
0432A:  BRA    430C
0432C:  RETURN 0
0432E:  BSF    F98.1
04330:  BTFSC  F86.1
04332:  BRA    4330
04334:  MOVLW  08
04336:  MOVWF  00
04338:  MOVLB  3
0433A:  CLRF   x01
0433C:  BSF    00.7
0433E:  BRA    435C
04340:  BCF    00.7
04342:  BRA    435C
04344:  BCF    FD8.0
04346:  BTFSC  F86.1
04348:  BSF    FD8.0
0434A:  RRCF   x01,F
0434C:  BSF    00.6
0434E:  BRA    435C
04350:  BCF    00.6
04352:  DECFSZ 00,F
04354:  BRA    4344
04356:  MOVFF  301,01
0435A:  BRA    4374
0435C:  MOVLW  84
0435E:  BTFSC  00.7
04360:  MOVLW  24
04362:  MOVWF  01
04364:  DECFSZ 01,F
04366:  BRA    4364
04368:  BRA    436A
0436A:  BTFSC  00.7
0436C:  BRA    4340
0436E:  BTFSC  00.6
04370:  BRA    4350
04372:  BRA    4344
04374:  MOVLB  0
04376:  RETURN 0
....................  
.................... #use spi(MASTER, CLK=PIN_E1, DI=PIN_E0, DO=PIN_E6,  BAUD=1000000, BITS=8, STREAM=MAIN_FM, MODE=0)        //MAIN flash memory port 
*
01776:  MOVLB  3
01778:  MOVF   x21,W
0177A:  SUBLW  08
0177C:  BZ    1786
0177E:  MOVWF  x22
01780:  RLCF   x20,F
01782:  DECFSZ x22,F
01784:  BRA    1780
01786:  BSF    F96.0
01788:  BCF    F96.6
0178A:  BCF    F96.1
0178C:  BCF    F8D.1
0178E:  MOVFF  321,322
01792:  BTFSS  x20.7
01794:  BCF    F8D.6
01796:  BTFSC  x20.7
01798:  BSF    F8D.6
0179A:  RLCF   x20,F
0179C:  BSF    F8D.1
0179E:  RLCF   01,F
017A0:  BTFSS  F84.0
017A2:  BCF    01.0
017A4:  BTFSC  F84.0
017A6:  BSF    01.0
017A8:  BCF    F8D.1
017AA:  DECFSZ x22,F
017AC:  BRA    1792
017AE:  MOVLB  0
017B0:  RETURN 0
.................... #use spi(MASTER, CLK=PIN_B2, DI=PIN_B5, DO=PIN_B4,  BAUD=1000000, BITS=8, STREAM=COM_FM, MODE=0)         //COM flash memory port 
*
0182E:  MOVLB  3
01830:  MOVF   x1B,W
01832:  SUBLW  08
01834:  BZ    183E
01836:  MOVWF  x1C
01838:  RLCF   x1A,F
0183A:  DECFSZ x1C,F
0183C:  BRA    1838
0183E:  BSF    F93.5
01840:  BCF    F93.4
01842:  BCF    F93.2
01844:  BCF    F8A.2
01846:  MOVFF  31B,31C
0184A:  BTFSS  x1A.7
0184C:  BCF    F8A.4
0184E:  BTFSC  x1A.7
01850:  BSF    F8A.4
01852:  RLCF   x1A,F
01854:  BSF    F8A.2
01856:  RLCF   01,F
01858:  BTFSS  F81.5
0185A:  BCF    01.0
0185C:  BTFSC  F81.5
0185E:  BSF    01.0
01860:  BCF    F8A.2
01862:  DECFSZ x1C,F
01864:  BRA    184A
01866:  MOVLB  0
01868:  RETURN 0
.................... #use spi(MASTER, CLK=PIN_A3, DI=PIN_A0, DO=PIN_A1,  BAUD=1000000, BITS=8, STREAM=MISSION_FM, MODE=0)     //MISSION flash memory port 
*
018EA:  MOVLB  3
018EC:  MOVF   x1B,W
018EE:  SUBLW  08
018F0:  BZ    18FA
018F2:  MOVWF  x1C
018F4:  RLCF   x1A,F
018F6:  DECFSZ x1C,F
018F8:  BRA    18F4
018FA:  BSF    F92.0
018FC:  BCF    F92.1
018FE:  BCF    F92.3
01900:  BCF    F89.3
01902:  MOVFF  31B,31C
01906:  BTFSS  x1A.7
01908:  BCF    F89.1
0190A:  BTFSC  x1A.7
0190C:  BSF    F89.1
0190E:  RLCF   x1A,F
01910:  BSF    F89.3
01912:  RLCF   01,F
01914:  BTFSS  F80.0
01916:  BCF    01.0
01918:  BTFSC  F80.0
0191A:  BSF    01.0
0191C:  BCF    F89.3
0191E:  DECFSZ x1C,F
01920:  BRA    1906
01922:  MOVLB  0
01924:  RETURN 0
....................  
.................... //-------------mainpic_function.c---------------------------------------------- 
.................... void Check_UART(); 
.................... void waiting(int32 counterval); 
.................... //void Turn_On_PWM(int a) 
.................... //void Turn_OFF_PWM() 
....................  
....................  
.................... /////////////MAIN PIC Buffer///////////// 
.................... void SerialDataReceive();                                                        //get buffer data one by one 
.................... void Delete_Buffer();                                                            //get buffer data one by one 
.................... void Transfer_Buffer(int PORT_NUM);                                              //get buffer data one by one 
....................  
.................... SerialDataReceive(); 
.................... Transfer_Buffer(int PORT_NUM); //1:PC 2:COMPIC 3:RESETPIC 4:ADCS 5:S&F 6:CAM 
....................  
.................... /////////////RESET SENSOR collection///////////// 
....................  
.................... void DELETE_RESET(); 
.................... void COLLECT_RESET_DATA(); 
....................  
.................... /////////////FAB SENSOR collection///////////// 
.................... void Delete_in_HK(); 
.................... void Delete_HKDATA(); 
.................... void Delete_CWFORMAT(); 
.................... void MAKE_CW_FORMAT(); 
.................... void SAVE_HKDATA_TO_OF(unsigned int32 Memory_Adress); 
.................... void SAVE_HKDATA_TO_SCF(unsigned int32 Memory_Adress); 
.................... void SAVE_CWFORMAT_TO_OF(unsigned int32 Memory_Adress); 
.................... void SAVE_CWFORMAT_TO_SCF(unsigned int32 Memory_Adress); 
.................... void Send_COMMAND_TO_FAB(int8 cmd); 
.................... int8 ACK_FROM_FAB(); 
.................... void Send_HKDATA_to_SCF(int32 adress); 
.................... void Send_HKDATA_to_OF(int32 adress); 
.................... void SEND_CWFORMAT_TO_SCF(int32 adress); 
.................... void SEND_CWFORMAT_TO_OF(int32 adress); 
.................... void Send_HKDATA_to_PC(int32 adress); 
.................... void CHECK_HKDATA(int8 in); 
.................... void VERIFY_FABDATA(int32 delaytime1,int32 delaytime2); 
.................... void FAB_TEST_OPERATION(); 
.................... void GET_RESET_DATA(); 
....................  
.................... ///////////////HIGH SAMPLING HK collection////////////// 
.................... void SAVE_HIGH_HKDATA_TO_SCF(unsigned int32 Memory_Adress); 
.................... void Send_HIGH_HKDATA_to_SCF(int32 adress); 
.................... void SAVE_HIGH_HKDATA_TO_OF(unsigned int32 Memory_Adress); 
.................... void Send_HIGH_HKDATA_to_OF(int32 adress); 
.................... void CHECK_HIGH_SAMP_FABDATA(int8 in); 
.................... void VERIFY_HIGH_SAMP_FABDATA(int32 delaytime); 
.................... void GET_HIGH_SAMP_RESET_DATA(); 
.................... void HIGH_SAMP_FAB_OPERATION(); 
.................... void HIGHSAMP_SENSOR_COLLECTION(int16 second); 
....................  
.................... /////////////ANTENNA DEPLOYMENT///////////// 
.................... void BC_SETUP(); 
.................... void BC_READ_TO_PC(); 
.................... void CHECK_BC_TEMP(); 
.................... void Turn_ON_BC(); 
.................... void Turn_OFF_BC(); 
.................... void CHECK_POWER(); 
.................... void BC_OPERATION(); 
.................... void CLEAR_BC_FLAG(); 
.................... void MAKE_BC_FLAG_1(); 
.................... void MAKE_BC_FLAG_2(); 
.................... void MAKE_BC_FLAG_3(); 
.................... void MAKE_BC_FLAG_4(); 
....................  
....................  
.................... /////////////CAM MISSION///////////// 
.................... void Turn_On_CAM(); 
.................... void Turn_Off_CAM(); 
.................... void Send_Command_to_CAM(int8 data); 
.................... int8 ACK_from_CAM(); 
.................... void Transfer_Photo(); 
.................... void CAM_TEST_OPERATION(int8 mode); 
.................... void CAM_DEPLOYMENT_OPERATION(int8 mode); 
....................  
....................  
.................... /////////////ADCS MISSION///////////// 
.................... void Turn_On_ADCS(); 
.................... void Turn_Off_ADCS(); 
.................... void Send_Command_to_ADCS(int8 data); 
.................... void DELETE_ADCS_SENSOR(); 
.................... void ADCS_SETTINGS();                                                            //initiallize 
.................... void DISPLAY_ADCS_SENSOR_TO_PC();                                                //for testing 
.................... void Get_ADCS_Data(); 
.................... void SAVE_SENSOR_TO_SMF(); 
.................... void TRANSFER_SENSOR_FROM_SMF_TO_SCF(); 
.................... void ADCS_TEST_OPERATION(); 
.................... void ADCS_TLE_JOIN(); 
.................... void ADCS_TLE_TRANSFER(); 
....................  
.................... /////////////MBP Data Collection MISSION///////////// 
.................... void Turn_On_MBP(); 
.................... void Turn_Off_MBP(); 
.................... void DATACOLLECTION_TEST_OPERATION(); 
.................... void MISSION_TEST_OPERATION(); 
.................... void MBP_SYNC(); 
....................  
.................... /////////////KILL FUNCTION/////////////////////// 
.................... void Count_Kill_Flag(); 
....................  
.................... /////////////OTHER FUNCTION////////////////////// 
.................... void COLLECT_RESET_DATA(); 
.................... void CURRENT_ADDRESS_OF_COM_FLASH(); 
.................... void STORE_ADRESS_DATA_TO_FLASH(); 
.................... void TAKE_ADDRESS_DATA_FROM_OF(); 
.................... void MAKE_ADDRESS_DATA(); 
.................... void CHECK_ADDRESS_DATA(); 
.................... void MEMORY_ERASE(); 
....................  
....................  
.................... ////////////////////////////////RESERVATION FUNCTION (reserve_function.c)///////////////////////////////// 
.................... /*maisun 
.................... void initialize_table(); 
.................... void sort_table();                                                               //(command info, time info, mission mode)~10compare the time and sort 
.................... void Save_RSV(); 
.................... void table_refresh(); 
.................... void Get_RSV(); 
.................... void Disp_RSV();                                                                 //show the reserve status (reserve command and reserve table) 
.................... void input_reservation_COM();                                                    //put the command into the table and sort 
.................... void input_reservation_PC();                                                     //put the command into the table and sort 
.................... void Remove_1_Reservation();                                                     //after executing the mission, it should be finished 
.................... void Reserve_command_COM();                                                      //reservation from COM 
.................... void Reserve_command_PC();                                                       //reservation from PC 
.................... void Reserve_next();                                                             //after finishing executing the reservation command, this function should be execute 
.................... void RSV_DATA_DOWNLOAD();                                                        //send cmd to COM for data download reservation function 
.................... */ 
.................... #include<mainpic_function.h> 
.................... #include<flash_ memory_ MT25QL01GBBB_OF.c>                                       //all flash memory 
.................... #define SPIPORT MAIN_FM 
.................... #define SPIPORT_2 COM_FM 
.................... #define SPIPORT_3 MISSION_FM 
....................  
.................... #define CS_PIN PIN_E2 
.................... #define CS_PIN_2 PIN_B3 
.................... #define CS_PIN_3 PIN_A2 
....................  
.................... #define READ_ID              0x9F 
.................... #define READ_STATUS_REG      0x05  
.................... #define READ_DATA_BYTES      0x13  //0x03 for byte 
.................... #define ENABLE_WRITE         0x06 
.................... #define WRITE_PAGE           0x12  //0x02 for 3byte 
.................... #define ERASE_SECTOR         0xDC  //0xD8 for 3byte 
.................... #define ERASE_4KB_SUBSECTOR  0x21 
.................... #define ERASE_32KB_SUBSECTOR 0x5C 
.................... #define DIE_ERASE            0xC4 
....................  
....................  
....................  
.................... void WRITE_ENABLE_OF(){ 
....................  output_low(CS_PIN); 
*
01A68:  BCF    F96.2
01A6A:  BCF    F8D.2
....................   
....................  ///////////////////////////////////////////////////////////// 
....................  //delay_ms(2); 
....................  spi_xfer(SPIPORT,ENABLE_WRITE);                //Send 0x06 
01A6C:  MOVLW  06
01A6E:  MOVLB  3
01A70:  MOVWF  x20
01A72:  MOVLW  08
01A74:  MOVWF  x21
01A76:  MOVLB  0
01A78:  RCALL  1776
....................  ///////////////////////////////////////////////////////////// 
....................   
....................  output_high(CS_PIN);   
01A7A:  BCF    F96.2
01A7C:  BSF    F8D.2
....................  return; 
01A7E:  RETURN 0
.................... } 
.................... void WRITE_ENABLE_SCF(){ 
....................  output_low(CS_PIN_2); 
*
01AF4:  BCF    F93.3
01AF6:  BCF    F8A.3
....................   
....................  ///////////////////////////////////////////////////////////// 
....................  //delay_ms(2); 
....................  spi_xfer(SPIPORT_2,ENABLE_WRITE);                //Send 0x06 
01AF8:  MOVLW  06
01AFA:  MOVLB  3
01AFC:  MOVWF  x1A
01AFE:  MOVLW  08
01B00:  MOVWF  x1B
01B02:  MOVLB  0
01B04:  RCALL  182E
....................  ///////////////////////////////////////////////////////////// 
....................   
....................  output_high(CS_PIN_2);   
01B06:  BCF    F93.3
01B08:  BSF    F8A.3
....................  return; 
01B0A:  RETURN 0
.................... } 
.................... void WRITE_ENABLE_SMF(){ 
....................  output_low(CS_PIN_3); 
*
01B80:  BCF    F92.2
01B82:  BCF    F89.2
....................   
....................  ///////////////////////////////////////////////////////////// 
....................  //delay_ms(2); 
....................  spi_xfer(SPIPORT_3,ENABLE_WRITE);                //Send 0x06 
01B84:  MOVLW  06
01B86:  MOVLB  3
01B88:  MOVWF  x1A
01B8A:  MOVLW  08
01B8C:  MOVWF  x1B
01B8E:  MOVLB  0
01B90:  RCALL  18EA
....................  ///////////////////////////////////////////////////////////// 
....................   
....................  output_high(CS_PIN_3);   
01B92:  BCF    F92.2
01B94:  BSF    F89.2
....................  return; 
01B96:  RETURN 0
.................... } 
....................  
.................... void sector_erase_OF(unsigned int32 sector_address)                              //borra un sector de la flash 
.................... { 
....................    unsigned int8 adsress[4]; 
....................     
....................    adsress[0]  = (unsigned int8)((sector_address>>24) & 0xFF);                   // 0x _ _ 00 00 00 
*
0391E:  MOVLB  3
03920:  MOVFF  309,30A
....................    adsress[1]  = (unsigned int8)((sector_address>>16) & 0xFF);                   // 0x 00 _ _ 00 00 
03924:  MOVFF  308,30B
....................    adsress[2]  = (unsigned int8)((sector_address>>8) & 0xFF);                    // 0x 00 00 _ _ 00 
03928:  MOVFF  307,30C
....................    adsress[3]  = (unsigned int8)((sector_address) & 0xFF);                       // 0x 00 00 00 _ _ 
0392C:  MOVFF  306,30D
....................     
....................     
....................    WRITE_ENABLE_OF(); 
03930:  MOVLB  0
03932:  CALL   1A68
....................    output_low(CS_PIN);                                                           //lower the CS PIN 
03936:  BCF    F96.2
03938:  BCF    F8D.2
....................    delay_us(2); 
0393A:  MOVLW  02
0393C:  MOVWF  00
0393E:  DECFSZ 00,F
03940:  BRA    393E
03942:  NOP   
....................     
....................    /////////////////////////////////////////////////////////////////// 
....................    spi_xfer(SPIPORT,ERASE_SECTOR);                                               //SECTOR ERASE COMAND   (0xDC) 
03944:  MOVLW  DC
03946:  MOVLB  3
03948:  MOVWF  x20
0394A:  MOVLW  08
0394C:  MOVWF  x21
0394E:  MOVLB  0
03950:  CALL   1776
....................     
....................    spi_xfer(SPIPORT,adsress[0]);    
03954:  MOVFF  30A,320
03958:  MOVLW  08
0395A:  MOVLB  3
0395C:  MOVWF  x21
0395E:  MOVLB  0
03960:  CALL   1776
....................    spi_xfer(SPIPORT,adsress[1]);     
03964:  MOVFF  30B,320
03968:  MOVLW  08
0396A:  MOVLB  3
0396C:  MOVWF  x21
0396E:  MOVLB  0
03970:  CALL   1776
....................    spi_xfer(SPIPORT,adsress[2]);     
03974:  MOVFF  30C,320
03978:  MOVLW  08
0397A:  MOVLB  3
0397C:  MOVWF  x21
0397E:  MOVLB  0
03980:  CALL   1776
....................    spi_xfer(SPIPORT,adsress[3]); 
03984:  MOVFF  30D,320
03988:  MOVLW  08
0398A:  MOVLB  3
0398C:  MOVWF  x21
0398E:  MOVLB  0
03990:  CALL   1776
....................    ////////////////////////////////////////////////////////////////// 
....................     
....................    delay_us(2); 
03994:  MOVLW  02
03996:  MOVWF  00
03998:  DECFSZ 00,F
0399A:  BRA    3998
0399C:  NOP   
....................    output_high(CS_PIN);                                                          //take CS PIN higher back 
0399E:  BCF    F96.2
039A0:  BSF    F8D.2
....................    //delay_ms(1000); 
....................    delay_ms(750); 
039A2:  MOVLW  03
039A4:  MOVLB  3
039A6:  MOVWF  x0E
039A8:  MOVLW  FA
039AA:  MOVWF  x19
039AC:  MOVLB  0
039AE:  CALL   1F78
039B2:  MOVLB  3
039B4:  DECFSZ x0E,F
039B6:  BRA    39A8
....................     
....................    return; 
039B8:  MOVLB  0
039BA:  RETURN 0
.................... } 
.................... void sector_erase_SCF(unsigned int32 sector_address) 
.................... { 
....................    unsigned int8 adsress[4]; 
....................     
....................    adsress[0]  = (unsigned int8)((sector_address>>24) & 0xFF);                   // 0x _ _ 00 00 00 
039BC:  MOVLB  3
039BE:  MOVFF  309,30A
....................    adsress[1]  = (unsigned int8)((sector_address>>16) & 0xFF);                   // 0x 00 _ _ 00 00 
039C2:  MOVFF  308,30B
....................    adsress[2]  = (unsigned int8)((sector_address>>8) & 0xFF);                    // 0x 00 00 _ _ 00 
039C6:  MOVFF  307,30C
....................    adsress[3]  = (unsigned int8)((sector_address) & 0xFF);                       // 0x 00 00 00 _ _ 
039CA:  MOVFF  306,30D
....................     
....................     
....................    WRITE_ENABLE_SCF(); 
039CE:  MOVLB  0
039D0:  CALL   1AF4
....................    output_low(CS_PIN_2);                                                         //lower the CS PIN 
039D4:  BCF    F93.3
039D6:  BCF    F8A.3
....................    delay_us(2); 
039D8:  MOVLW  02
039DA:  MOVWF  00
039DC:  DECFSZ 00,F
039DE:  BRA    39DC
039E0:  NOP   
....................     
....................    /////////////////////////////////////////////////////////////////// 
....................    spi_xfer(SPIPORT_2,ERASE_SECTOR);                                             //SECTOR ERASE COMAND   (0xDC) 
039E2:  MOVLW  DC
039E4:  MOVLB  3
039E6:  MOVWF  x1A
039E8:  MOVLW  08
039EA:  MOVWF  x1B
039EC:  MOVLB  0
039EE:  CALL   182E
....................     
....................    spi_xfer(SPIPORT_2,adsress[0]);    
039F2:  MOVFF  30A,31A
039F6:  MOVLW  08
039F8:  MOVLB  3
039FA:  MOVWF  x1B
039FC:  MOVLB  0
039FE:  CALL   182E
....................    spi_xfer(SPIPORT_2,adsress[1]);     
03A02:  MOVFF  30B,31A
03A06:  MOVLW  08
03A08:  MOVLB  3
03A0A:  MOVWF  x1B
03A0C:  MOVLB  0
03A0E:  CALL   182E
....................    spi_xfer(SPIPORT_2,adsress[2]);     
03A12:  MOVFF  30C,31A
03A16:  MOVLW  08
03A18:  MOVLB  3
03A1A:  MOVWF  x1B
03A1C:  MOVLB  0
03A1E:  CALL   182E
....................    spi_xfer(SPIPORT_2,adsress[3]); 
03A22:  MOVFF  30D,31A
03A26:  MOVLW  08
03A28:  MOVLB  3
03A2A:  MOVWF  x1B
03A2C:  MOVLB  0
03A2E:  CALL   182E
....................    ////////////////////////////////////////////////////////////////// 
....................     
....................    delay_us(2); 
03A32:  MOVLW  02
03A34:  MOVWF  00
03A36:  DECFSZ 00,F
03A38:  BRA    3A36
03A3A:  NOP   
....................    output_high(CS_PIN_2);                                                        //take CS PIN higher back 
03A3C:  BCF    F93.3
03A3E:  BSF    F8A.3
....................    //delay_ms(1000); 
....................    delay_ms(750); 
03A40:  MOVLW  03
03A42:  MOVLB  3
03A44:  MOVWF  x0E
03A46:  MOVLW  FA
03A48:  MOVWF  x19
03A4A:  MOVLB  0
03A4C:  CALL   1F78
03A50:  MOVLB  3
03A52:  DECFSZ x0E,F
03A54:  BRA    3A46
....................     
....................    return; 
03A56:  MOVLB  0
03A58:  RETURN 0
.................... } 
.................... void sector_erase_SMF(unsigned int32 sector_address) 
.................... { 
....................    unsigned int8 adsress[4]; 
....................     
....................    adsress[0]  = (unsigned int8)((sector_address>>24) & 0xFF);   // 0x _ _ 00 00 00 
03A5A:  MOVLB  3
03A5C:  MOVFF  309,30A
....................    adsress[1]  = (unsigned int8)((sector_address>>16) & 0xFF);   // 0x 00 _ _ 00 00 
03A60:  MOVFF  308,30B
....................    adsress[2]  = (unsigned int8)((sector_address>>8) & 0xFF);    // 0x 00 00 _ _ 00 
03A64:  MOVFF  307,30C
....................    adsress[3]  = (unsigned int8)((sector_address) & 0xFF);       // 0x 00 00 00 _ _ 
03A68:  MOVFF  306,30D
....................     
....................     
....................    WRITE_ENABLE_SMF(); 
03A6C:  MOVLB  0
03A6E:  CALL   1B80
....................    output_low(CS_PIN_3);             //lower the CS PIN 
03A72:  BCF    F92.2
03A74:  BCF    F89.2
....................    delay_us(2); 
03A76:  MOVLW  02
03A78:  MOVWF  00
03A7A:  DECFSZ 00,F
03A7C:  BRA    3A7A
03A7E:  NOP   
....................     
....................    /////////////////////////////////////////////////////////////////// 
....................    spi_xfer(SPIPORT_3,ERASE_SECTOR); //SECTOR ERASE COMAND   (0xDC) 
03A80:  MOVLW  DC
03A82:  MOVLB  3
03A84:  MOVWF  x1A
03A86:  MOVLW  08
03A88:  MOVWF  x1B
03A8A:  MOVLB  0
03A8C:  CALL   18EA
....................     
....................    spi_xfer(SPIPORT_3,adsress[0]);    
03A90:  MOVFF  30A,31A
03A94:  MOVLW  08
03A96:  MOVLB  3
03A98:  MOVWF  x1B
03A9A:  MOVLB  0
03A9C:  CALL   18EA
....................    spi_xfer(SPIPORT_3,adsress[1]);     
03AA0:  MOVFF  30B,31A
03AA4:  MOVLW  08
03AA6:  MOVLB  3
03AA8:  MOVWF  x1B
03AAA:  MOVLB  0
03AAC:  CALL   18EA
....................    spi_xfer(SPIPORT_3,adsress[2]);     
03AB0:  MOVFF  30C,31A
03AB4:  MOVLW  08
03AB6:  MOVLB  3
03AB8:  MOVWF  x1B
03ABA:  MOVLB  0
03ABC:  CALL   18EA
....................    spi_xfer(SPIPORT_3,adsress[3]); 
03AC0:  MOVFF  30D,31A
03AC4:  MOVLW  08
03AC6:  MOVLB  3
03AC8:  MOVWF  x1B
03ACA:  MOVLB  0
03ACC:  CALL   18EA
....................    ////////////////////////////////////////////////////////////////// 
....................     
....................    delay_us(2); 
03AD0:  MOVLW  02
03AD2:  MOVWF  00
03AD4:  DECFSZ 00,F
03AD6:  BRA    3AD4
03AD8:  NOP   
....................    output_high(CS_PIN_3);           //take CS PIN higher back 
03ADA:  BCF    F92.2
03ADC:  BSF    F89.2
....................    //delay_ms(1000);   
....................    delay_ms(750); 
03ADE:  MOVLW  03
03AE0:  MOVLB  3
03AE2:  MOVWF  x0E
03AE4:  MOVLW  FA
03AE6:  MOVWF  x19
03AE8:  MOVLB  0
03AEA:  CALL   1F78
03AEE:  MOVLB  3
03AF0:  DECFSZ x0E,F
03AF2:  BRA    3AE4
....................    return; 
03AF4:  MOVLB  0
03AF6:  RETURN 0
.................... } 
....................  
.................... void SUBSECTOR_4KB_ERASE_OF(unsigned int32 sector_address)                       //Funcion que borra un sector de 4KB de la Main Flash 
.................... {                                                                                //Recibe la direccion del sector que se quiere borrar 
....................    unsigned int8 adsress[4]; 
....................     
....................    adsress[0]  = (unsigned int8)((sector_address>>24) & 0xFF);                   // 0x _ _ 00 00 00 
*
0346A:  MOVLB  3
0346C:  MOVFF  313,314
....................    adsress[1]  = (unsigned int8)((sector_address>>16) & 0xFF);                   // 0x 00 _ _ 00 00 
03470:  MOVFF  312,315
....................    adsress[2]  = (unsigned int8)((sector_address>>8) & 0xFF);                    // 0x 00 00 _ _ 00 
03474:  MOVFF  311,316
....................    adsress[3]  = (unsigned int8)((sector_address) & 0xFF);                       // 0x 00 00 00 _ _ 
03478:  MOVFF  310,317
....................     
....................     
....................    WRITE_ENABLE_OF();                                                            //Funcion que habilita escritura en Own Flash 
0347C:  MOVLB  0
0347E:  CALL   1A68
....................    output_low(CS_PIN);                                                           //lower the CS PIN 
03482:  BCF    F96.2
03484:  BCF    F8D.2
....................    delay_us(2); 
03486:  MOVLW  02
03488:  MOVWF  00
0348A:  DECFSZ 00,F
0348C:  BRA    348A
0348E:  NOP   
....................     
....................    /////////////////////////////////////////////////////////////////// 
....................    spi_xfer(SPIPORT,ERASE_4KB_SUBSECTOR);                                        //SECTOR ERASE COMAND   (0xDC) 
03490:  MOVLW  21
03492:  MOVLB  3
03494:  MOVWF  x20
03496:  MOVLW  08
03498:  MOVWF  x21
0349A:  MOVLB  0
0349C:  CALL   1776
....................     
....................    spi_xfer(SPIPORT,adsress[0]);                                                 //Se le pasa la direccion del sector a borrar 
034A0:  MOVFF  314,320
034A4:  MOVLW  08
034A6:  MOVLB  3
034A8:  MOVWF  x21
034AA:  MOVLB  0
034AC:  CALL   1776
....................    spi_xfer(SPIPORT,adsress[1]);     
034B0:  MOVFF  315,320
034B4:  MOVLW  08
034B6:  MOVLB  3
034B8:  MOVWF  x21
034BA:  MOVLB  0
034BC:  CALL   1776
....................    spi_xfer(SPIPORT,adsress[2]);     
034C0:  MOVFF  316,320
034C4:  MOVLW  08
034C6:  MOVLB  3
034C8:  MOVWF  x21
034CA:  MOVLB  0
034CC:  CALL   1776
....................    spi_xfer(SPIPORT,adsress[3]); 
034D0:  MOVFF  317,320
034D4:  MOVLW  08
034D6:  MOVLB  3
034D8:  MOVWF  x21
034DA:  MOVLB  0
034DC:  CALL   1776
....................    ////////////////////////////////////////////////////////////////// 
....................     
....................    delay_us(2); 
034E0:  MOVLW  02
034E2:  MOVWF  00
034E4:  DECFSZ 00,F
034E6:  BRA    34E4
034E8:  NOP   
....................    output_high(CS_PIN);                                                          //take CS PIN higher back 
034EA:  BCF    F96.2
034EC:  BSF    F8D.2
....................    delay_ms(100);   
034EE:  MOVLW  64
034F0:  MOVLB  3
034F2:  MOVWF  x19
034F4:  MOVLB  0
034F6:  CALL   1F78
....................     
....................    return; 
034FA:  RETURN 0
.................... } 
.................... void SUBSECTOR_4KB_ERASE_SCF(unsigned int32 sector_address)                      //Funcion que borra un sector de 4KB de la COM Flash 
.................... { 
....................    unsigned int8 adsress[4]; 
....................     
....................    adsress[0]  = (unsigned int8)((sector_address>>24) & 0xFF);                   // 0x _ _ 00 00 00 
034FC:  MOVLB  3
034FE:  MOVFF  313,314
....................    adsress[1]  = (unsigned int8)((sector_address>>16) & 0xFF);                   // 0x 00 _ _ 00 00 
03502:  MOVFF  312,315
....................    adsress[2]  = (unsigned int8)((sector_address>>8) & 0xFF);                    // 0x 00 00 _ _ 00 
03506:  MOVFF  311,316
....................    adsress[3]  = (unsigned int8)((sector_address) & 0xFF);                       // 0x 00 00 00 _ _ 
0350A:  MOVFF  310,317
....................     
....................     
....................    WRITE_ENABLE_SCF();                                                           //Funcion que habilita escritura en COM Flash 
0350E:  MOVLB  0
03510:  CALL   1AF4
....................    output_low(CS_PIN_2);                                                         //lower the CS PIN 
03514:  BCF    F93.3
03516:  BCF    F8A.3
....................    delay_us(2); 
03518:  MOVLW  02
0351A:  MOVWF  00
0351C:  DECFSZ 00,F
0351E:  BRA    351C
03520:  NOP   
....................     
....................    /////////////////////////////////////////////////////////////////// 
....................    spi_xfer(SPIPORT_2,ERASE_4KB_SUBSECTOR); //SECTOR ERASE COMAND   (0xDC) 
03522:  MOVLW  21
03524:  MOVLB  3
03526:  MOVWF  x1A
03528:  MOVLW  08
0352A:  MOVWF  x1B
0352C:  MOVLB  0
0352E:  CALL   182E
....................     
....................    spi_xfer(SPIPORT_2,adsress[0]);    
03532:  MOVFF  314,31A
03536:  MOVLW  08
03538:  MOVLB  3
0353A:  MOVWF  x1B
0353C:  MOVLB  0
0353E:  CALL   182E
....................    spi_xfer(SPIPORT_2,adsress[1]);     
03542:  MOVFF  315,31A
03546:  MOVLW  08
03548:  MOVLB  3
0354A:  MOVWF  x1B
0354C:  MOVLB  0
0354E:  CALL   182E
....................    spi_xfer(SPIPORT_2,adsress[2]);     
03552:  MOVFF  316,31A
03556:  MOVLW  08
03558:  MOVLB  3
0355A:  MOVWF  x1B
0355C:  MOVLB  0
0355E:  CALL   182E
....................    spi_xfer(SPIPORT_2,adsress[3]); 
03562:  MOVFF  317,31A
03566:  MOVLW  08
03568:  MOVLB  3
0356A:  MOVWF  x1B
0356C:  MOVLB  0
0356E:  CALL   182E
....................    ////////////////////////////////////////////////////////////////// 
....................     
....................    delay_us(2); 
03572:  MOVLW  02
03574:  MOVWF  00
03576:  DECFSZ 00,F
03578:  BRA    3576
0357A:  NOP   
....................    output_high(CS_PIN_2);                                                        //take CS PIN higher back 
0357C:  BCF    F93.3
0357E:  BSF    F8A.3
....................    delay_ms(10);   
03580:  MOVLW  0A
03582:  MOVLB  3
03584:  MOVWF  x19
03586:  MOVLB  0
03588:  CALL   1F78
....................     
....................    return; 
0358C:  RETURN 0
.................... } 
.................... void SUBSECTOR_4KB_ERASE_SMF(unsigned int32 sector_address)                      //Funcion que borra un sector de 4KB de la Mission Flash 
.................... { 
....................    unsigned int8 adsress[4]; 
....................     
....................    adsress[0]  = (unsigned int8)((sector_address>>24) & 0xFF);                   // 0x _ _ 00 00 00 
0358E:  MOVLB  3
03590:  MOVFF  313,314
....................    adsress[1]  = (unsigned int8)((sector_address>>16) & 0xFF);                   // 0x 00 _ _ 00 00 
03594:  MOVFF  312,315
....................    adsress[2]  = (unsigned int8)((sector_address>>8) & 0xFF);                    // 0x 00 00 _ _ 00 
03598:  MOVFF  311,316
....................    adsress[3]  = (unsigned int8)((sector_address) & 0xFF);                       // 0x 00 00 00 _ _ 
0359C:  MOVFF  310,317
....................     
....................     
....................    WRITE_ENABLE_SMF();                                                           //Funcion que habilita escritura en Mission Flash 
035A0:  MOVLB  0
035A2:  CALL   1B80
....................    output_low(CS_PIN_3);                                                         //lower the CS PIN 
035A6:  BCF    F92.2
035A8:  BCF    F89.2
....................    delay_us(2); 
035AA:  MOVLW  02
035AC:  MOVWF  00
035AE:  DECFSZ 00,F
035B0:  BRA    35AE
035B2:  NOP   
....................     
....................    /////////////////////////////////////////////////////////////////// 
....................    spi_xfer(SPIPORT_3,ERASE_4KB_SUBSECTOR);                                      //SECTOR ERASE COMAND   (0xDC) 
035B4:  MOVLW  21
035B6:  MOVLB  3
035B8:  MOVWF  x1A
035BA:  MOVLW  08
035BC:  MOVWF  x1B
035BE:  MOVLB  0
035C0:  CALL   18EA
....................     
....................    spi_xfer(SPIPORT_3,adsress[0]);    
035C4:  MOVFF  314,31A
035C8:  MOVLW  08
035CA:  MOVLB  3
035CC:  MOVWF  x1B
035CE:  MOVLB  0
035D0:  CALL   18EA
....................    spi_xfer(SPIPORT_3,adsress[1]);     
035D4:  MOVFF  315,31A
035D8:  MOVLW  08
035DA:  MOVLB  3
035DC:  MOVWF  x1B
035DE:  MOVLB  0
035E0:  CALL   18EA
....................    spi_xfer(SPIPORT_3,adsress[2]);     
035E4:  MOVFF  316,31A
035E8:  MOVLW  08
035EA:  MOVLB  3
035EC:  MOVWF  x1B
035EE:  MOVLB  0
035F0:  CALL   18EA
....................    spi_xfer(SPIPORT_3,adsress[3]); 
035F4:  MOVFF  317,31A
035F8:  MOVLW  08
035FA:  MOVLB  3
035FC:  MOVWF  x1B
035FE:  MOVLB  0
03600:  CALL   18EA
....................    ////////////////////////////////////////////////////////////////// 
....................     
....................    delay_us(2); 
03604:  MOVLW  02
03606:  MOVWF  00
03608:  DECFSZ 00,F
0360A:  BRA    3608
0360C:  NOP   
....................    output_high(CS_PIN_3);                                                        //take CS PIN higher back 
0360E:  BCF    F92.2
03610:  BSF    F89.2
....................    delay_ms(1000);   
03612:  MOVLW  04
03614:  MOVLB  3
03616:  MOVWF  x18
03618:  MOVLW  FA
0361A:  MOVWF  x19
0361C:  MOVLB  0
0361E:  CALL   1F78
03622:  MOVLB  3
03624:  DECFSZ x18,F
03626:  BRA    3618
....................     
....................    return; 
03628:  MOVLB  0
0362A:  RETURN 0
.................... } 
.................... /* 
.................... void SUBSECTOR_32KB_ERASE_OF(unsigned int32 sector_address) 
.................... { 
....................    unsigned int8 adsress[4]; 
....................     
....................    adsress[0]  = (unsigned int8)((sector_address>>24) & 0xFF);   // 0x _ _ 00 00 00 
....................    adsress[1]  = (unsigned int8)((sector_address>>16) & 0xFF);   // 0x 00 _ _ 00 00 
....................    adsress[2]  = (unsigned int8)((sector_address>>8) & 0xFF);    // 0x 00 00 _ _ 00 
....................    adsress[3]  = (unsigned int8)((sector_address) & 0xFF);       // 0x 00 00 00 _ _ 
....................     
....................     
....................    WRITE_ENABLE_OF(); 
....................    output_low(CS_PIN);             //lower the CS PIN 
....................    delay_us(2); 
....................     
....................    /////////////////////////////////////////////////////////////////// 
....................    spi_xfer(SPIPORT,ERASE_32KB_SUBSECTOR); //SECTOR ERASE COMAND   (0xDC) 
....................     
....................    spi_xfer(SPIPORT,adsress[0]);    
....................    spi_xfer(SPIPORT,adsress[1]);     
....................    spi_xfer(SPIPORT,adsress[2]);     
....................    spi_xfer(SPIPORT,adsress[3]); 
....................    ////////////////////////////////////////////////////////////////// 
....................     
....................    delay_us(2); 
....................    output_high(CS_PIN);           //take CS PIN higher back 
....................    delay_ms(1000);   
....................     
....................    return; 
.................... } 
.................... void SUBSECTOR_32KB_ERASE_SCF(unsigned int32 sector_address) 
.................... { 
....................    unsigned int8 adsress[4]; 
....................     
....................    adsress[0]  = (unsigned int8)((sector_address>>24) & 0xFF);   // 0x _ _ 00 00 00 
....................    adsress[1]  = (unsigned int8)((sector_address>>16) & 0xFF);   // 0x 00 _ _ 00 00 
....................    adsress[2]  = (unsigned int8)((sector_address>>8) & 0xFF);    // 0x 00 00 _ _ 00 
....................    adsress[3]  = (unsigned int8)((sector_address) & 0xFF);       // 0x 00 00 00 _ _ 
....................     
....................     
....................    WRITE_ENABLE_SCF(); 
....................    output_low(CS_PIN_2);             //lower the CS PIN 
....................    delay_us(2); 
....................     
....................    /////////////////////////////////////////////////////////////////// 
....................    spi_xfer(SPIPORT_2,ERASE_32KB_SUBSECTOR); //SECTOR ERASE COMAND   (0xDC) 
....................     
....................    spi_xfer(SPIPORT_2,adsress[0]);    
....................    spi_xfer(SPIPORT_2,adsress[1]);     
....................    spi_xfer(SPIPORT_2,adsress[2]);     
....................    spi_xfer(SPIPORT_2,adsress[3]); 
....................    ////////////////////////////////////////////////////////////////// 
....................     
....................    delay_us(2); 
....................    output_high(CS_PIN_2);           //take CS PIN higher back 
....................    delay_ms(1000);   
....................     
....................    return; 
.................... } 
.................... void SUBSECTOR_32KB_ERASE_SMF(unsigned int32 sector_address) 
.................... { 
....................    unsigned int8 adsress[4]; 
....................     
....................    adsress[0]  = (unsigned int8)((sector_address>>24) & 0xFF);   // 0x _ _ 00 00 00 
....................    adsress[1]  = (unsigned int8)((sector_address>>16) & 0xFF);   // 0x 00 _ _ 00 00 
....................    adsress[2]  = (unsigned int8)((sector_address>>8) & 0xFF);    // 0x 00 00 _ _ 00 
....................    adsress[3]  = (unsigned int8)((sector_address) & 0xFF);       // 0x 00 00 00 _ _ 
....................     
....................     
....................    WRITE_ENABLE_SMF(); 
....................    output_low(CS_PIN_3);             //lower the CS PIN 
....................    delay_us(2); 
....................     
....................    /////////////////////////////////////////////////////////////////// 
....................    spi_xfer(SPIPORT_3,ERASE_32KB_SUBSECTOR); //SECTOR ERASE COMAND   (0xDC) 
....................     
....................    spi_xfer(SPIPORT_3,adsress[0]);    
....................    spi_xfer(SPIPORT_3,adsress[1]);     
....................    spi_xfer(SPIPORT_3,adsress[2]);     
....................    spi_xfer(SPIPORT_3,adsress[3]); 
....................    ////////////////////////////////////////////////////////////////// 
....................     
....................    delay_us(2); 
....................    output_high(CS_PIN_3);           //take CS PIN higher back 
....................    delay_ms(1000);   
....................     
....................    return; 
.................... } 
....................  
.................... void ALL_SECTOR_ERASE_OF() 
.................... { 
....................    int32 ADRESS = 0; 
....................    for(int16 i = 0; i < 2048; i++) 
....................    { 
....................       sector_erase_OF(ADRESS); 
....................       ADRESS = ADRESS + 65536; 
....................    } 
.................... } 
.................... void ALL_SECTOR_ERASE_SCF() 
.................... { 
....................    int32 ADRESS = 0; 
....................    for(int16 i = 0; i < 2048; i++) 
....................    { 
....................       sector_erase_SCF(ADRESS); 
....................       ADRESS = ADRESS + 65536; 
....................    } 
.................... } 
.................... void ALL_SECTOR_ERASE_SMF() 
.................... { 
....................    int32 ADRESS = 0; 
....................    for(int16 i = 0; i < 2048; i++) 
....................    { 
....................       sector_erase_SMF(ADRESS); 
....................       ADRESS = ADRESS + 65536; 
....................    } 
.................... } 
.................... */ 
.................... void WRITE_DATA_BYTE_OF(unsigned int32 page_address, int8 data)                  //Funcion que escribe un Byte en la Main Flash 
.................... { 
....................    unsigned int8 adsress[4]; 
....................     
....................    //Byte extraction 
....................    adsress[0]  = (unsigned int8)((page_address>>24) & 0xFF);                     // 0x _ _ 00 00 00 
*
01A80:  MOVLB  3
01A82:  MOVFF  314,316
....................    adsress[1]  = (unsigned int8)((page_address>>16) & 0xFF);                     // 0x 00 _ _ 00 00 
01A86:  MOVFF  313,317
....................    adsress[2]  = (unsigned int8)((page_address>>8) & 0xFF);                      // 0x 00 00 _ _ 00 
01A8A:  MOVFF  312,318
....................    adsress[3]  = (unsigned int8)((page_address) & 0xFF);                         // 0x 00 00 00 _ _ 
01A8E:  MOVFF  311,319
....................     
....................    WRITE_ENABLE_OF(); 
01A92:  MOVLB  0
01A94:  RCALL  1A68
....................    output_low(CS_PIN);                                                           //lower the CS PIN 
01A96:  BCF    F96.2
01A98:  BCF    F8D.2
....................    //delay_us(2); 
....................     
....................    //////////////////////////////////////////////////////////////// 
....................    spi_xfer(SPIPORT,WRITE_PAGE);                                                 //PAGE WRITE COMAND  (0x12) 
01A9A:  MOVLW  12
01A9C:  MOVLB  3
01A9E:  MOVWF  x20
01AA0:  MOVLW  08
01AA2:  MOVWF  x21
01AA4:  MOVLB  0
01AA6:  RCALL  1776
....................    
....................    spi_xfer(SPIPORT,adsress[0]);     
01AA8:  MOVFF  316,320
01AAC:  MOVLW  08
01AAE:  MOVLB  3
01AB0:  MOVWF  x21
01AB2:  MOVLB  0
01AB4:  RCALL  1776
....................    spi_xfer(SPIPORT,adsress[1]);     
01AB6:  MOVFF  317,320
01ABA:  MOVLW  08
01ABC:  MOVLB  3
01ABE:  MOVWF  x21
01AC0:  MOVLB  0
01AC2:  RCALL  1776
....................    spi_xfer(SPIPORT,adsress[2]);     
01AC4:  MOVFF  318,320
01AC8:  MOVLW  08
01ACA:  MOVLB  3
01ACC:  MOVWF  x21
01ACE:  MOVLB  0
01AD0:  RCALL  1776
....................    spi_xfer(SPIPORT,adsress[3]); 
01AD2:  MOVFF  319,320
01AD6:  MOVLW  08
01AD8:  MOVLB  3
01ADA:  MOVWF  x21
01ADC:  MOVLB  0
01ADE:  RCALL  1776
....................     
....................    spi_xfer(SPIPORT,data);  
01AE0:  MOVFF  315,320
01AE4:  MOVLW  08
01AE6:  MOVLB  3
01AE8:  MOVWF  x21
01AEA:  MOVLB  0
01AEC:  RCALL  1776
....................    //////////////////////////////////////////////////////////////// 
....................     
....................    output_high(CS_PIN);                                                          //take CS PIN higher back 
01AEE:  BCF    F96.2
01AF0:  BSF    F8D.2
....................  
....................    //delay_us(5);   
....................     
....................    return; 
01AF2:  RETURN 0
.................... } 
.................... void WRITE_DATA_BYTE_SCF(unsigned int32 page_address, int8 data)                 //Funcion que escribe un Byte en la COM Flash 
.................... { 
....................    unsigned int8 adsress[4]; 
....................     
....................    //Byte extraction 
....................    adsress[0]  = (unsigned int8)((page_address>>24) & 0xFF);                     // 0x _ _ 00 00 00 
*
01B0C:  MOVLB  3
01B0E:  MOVFF  314,316
....................    adsress[1]  = (unsigned int8)((page_address>>16) & 0xFF);                     // 0x 00 _ _ 00 00 
01B12:  MOVFF  313,317
....................    adsress[2]  = (unsigned int8)((page_address>>8) & 0xFF);                      // 0x 00 00 _ _ 00 
01B16:  MOVFF  312,318
....................    adsress[3]  = (unsigned int8)((page_address) & 0xFF);                         // 0x 00 00 00 _ _ 
01B1A:  MOVFF  311,319
....................     
....................    WRITE_ENABLE_SCF(); 
01B1E:  MOVLB  0
01B20:  RCALL  1AF4
....................    output_low(CS_PIN_2);                                                         //lower the CS PIN 
01B22:  BCF    F93.3
01B24:  BCF    F8A.3
....................    //delay_us(2); 
....................     
....................    //////////////////////////////////////////////////////////////// 
....................    spi_xfer(SPIPORT_2,WRITE_PAGE);                                               //PAGE WRITE COMAND  (0x12) 
01B26:  MOVLW  12
01B28:  MOVLB  3
01B2A:  MOVWF  x1A
01B2C:  MOVLW  08
01B2E:  MOVWF  x1B
01B30:  MOVLB  0
01B32:  RCALL  182E
....................    
....................    spi_xfer(SPIPORT_2,adsress[0]);     
01B34:  MOVFF  316,31A
01B38:  MOVLW  08
01B3A:  MOVLB  3
01B3C:  MOVWF  x1B
01B3E:  MOVLB  0
01B40:  RCALL  182E
....................    spi_xfer(SPIPORT_2,adsress[1]);     
01B42:  MOVFF  317,31A
01B46:  MOVLW  08
01B48:  MOVLB  3
01B4A:  MOVWF  x1B
01B4C:  MOVLB  0
01B4E:  RCALL  182E
....................    spi_xfer(SPIPORT_2,adsress[2]);     
01B50:  MOVFF  318,31A
01B54:  MOVLW  08
01B56:  MOVLB  3
01B58:  MOVWF  x1B
01B5A:  MOVLB  0
01B5C:  RCALL  182E
....................    spi_xfer(SPIPORT_2,adsress[3]); 
01B5E:  MOVFF  319,31A
01B62:  MOVLW  08
01B64:  MOVLB  3
01B66:  MOVWF  x1B
01B68:  MOVLB  0
01B6A:  RCALL  182E
....................     
....................    spi_xfer(SPIPORT_2,data);  
01B6C:  MOVFF  315,31A
01B70:  MOVLW  08
01B72:  MOVLB  3
01B74:  MOVWF  x1B
01B76:  MOVLB  0
01B78:  RCALL  182E
....................    //////////////////////////////////////////////////////////////// 
....................     
....................    output_high(CS_PIN_2);                                                        //take CS PIN higher back 
01B7A:  BCF    F93.3
01B7C:  BSF    F8A.3
....................  
....................    //delay_us(5);   
....................     
....................    return; 
01B7E:  RETURN 0
.................... } 
.................... void WRITE_DATA_BYTE_SMF(unsigned int32 page_address, int8 data)                 //Funcion que escribe un Byte en la Mission Flash 
.................... { 
....................    unsigned int8 adsress[4]; 
....................     
....................    //Byte extraction 
....................    adsress[0]  = (unsigned int8)((page_address>>24) & 0xFF);                     // 0x _ _ 00 00 00 
*
01B98:  MOVLB  3
01B9A:  MOVFF  314,316
....................    adsress[1]  = (unsigned int8)((page_address>>16) & 0xFF);                     // 0x 00 _ _ 00 00 
01B9E:  MOVFF  313,317
....................    adsress[2]  = (unsigned int8)((page_address>>8) & 0xFF);                      // 0x 00 00 _ _ 00 
01BA2:  MOVFF  312,318
....................    adsress[3]  = (unsigned int8)((page_address) & 0xFF);                         // 0x 00 00 00 _ _ 
01BA6:  MOVFF  311,319
....................     
....................    WRITE_ENABLE_SMF(); 
01BAA:  MOVLB  0
01BAC:  RCALL  1B80
....................    output_low(CS_PIN_3);                                                         //lower the CS PIN 
01BAE:  BCF    F92.2
01BB0:  BCF    F89.2
....................    //delay_us(2); 
....................     
....................    //////////////////////////////////////////////////////////////// 
....................    spi_xfer(SPIPORT_3,WRITE_PAGE);                                               //PAGE WRITE COMAND  (0x12) 
01BB2:  MOVLW  12
01BB4:  MOVLB  3
01BB6:  MOVWF  x1A
01BB8:  MOVLW  08
01BBA:  MOVWF  x1B
01BBC:  MOVLB  0
01BBE:  RCALL  18EA
....................    
....................    spi_xfer(SPIPORT_3,adsress[0]);     
01BC0:  MOVFF  316,31A
01BC4:  MOVLW  08
01BC6:  MOVLB  3
01BC8:  MOVWF  x1B
01BCA:  MOVLB  0
01BCC:  RCALL  18EA
....................    spi_xfer(SPIPORT_3,adsress[1]);     
01BCE:  MOVFF  317,31A
01BD2:  MOVLW  08
01BD4:  MOVLB  3
01BD6:  MOVWF  x1B
01BD8:  MOVLB  0
01BDA:  RCALL  18EA
....................    spi_xfer(SPIPORT_3,adsress[2]);     
01BDC:  MOVFF  318,31A
01BE0:  MOVLW  08
01BE2:  MOVLB  3
01BE4:  MOVWF  x1B
01BE6:  MOVLB  0
01BE8:  RCALL  18EA
....................    spi_xfer(SPIPORT_3,adsress[3]); 
01BEA:  MOVFF  319,31A
01BEE:  MOVLW  08
01BF0:  MOVLB  3
01BF2:  MOVWF  x1B
01BF4:  MOVLB  0
01BF6:  RCALL  18EA
....................     
....................    spi_xfer(SPIPORT_3,data);  
01BF8:  MOVFF  315,31A
01BFC:  MOVLW  08
01BFE:  MOVLB  3
01C00:  MOVWF  x1B
01C02:  MOVLB  0
01C04:  RCALL  18EA
....................    //////////////////////////////////////////////////////////////// 
....................     
....................    output_high(CS_PIN_3);                                                        //take CS PIN higher back 
01C06:  BCF    F92.2
01C08:  BSF    F89.2
....................  
....................    //delay_us(10);   
....................     
....................    return; 
01C0A:  RETURN 0
.................... } 
.................... /* 
.................... int8 READ_CHIP_ID_OF() 
.................... { 
....................  output_low(CS_PIN);           //lower the CS PIN 
....................   
....................  //////////////////////////////////////////////////////////////// 
....................  int8 chip_id; 
....................  spi_xfer(SPIPORT,READ_ID);    //READ ID COMAND   (0x9F) 
....................  chip_id = spi_xfer(SPIPORT); 
....................  //////////////////////////////////////////////////////////////// 
....................   
....................  output_high(CS_PIN);         //take CS PIN higher back 
....................  return chip_id; 
.................... } 
.................... int8 READ_CHIP_ID_SCF() 
.................... { 
....................  output_low(CS_PIN_2);           //lower the CS PIN 
....................   
....................  //////////////////////////////////////////////////////////////// 
....................  int8 chip_id; 
....................  spi_xfer(SPIPORT_2,READ_ID);    //READ ID COMAND   (0x9F) 
....................  chip_id = spi_xfer(SPIPORT_2); 
....................  //////////////////////////////////////////////////////////////// 
....................   
....................  output_high(CS_PIN_2);         //take CS PIN higher back 
....................  return chip_id; 
.................... } 
.................... int8 READ_CHIP_ID_SMF() 
.................... { 
....................  output_low(CS_PIN_3);           //lower the CS PIN 
....................   
....................  //////////////////////////////////////////////////////////////// 
....................  int8 chip_id; 
....................  spi_xfer(SPIPORT_3,READ_ID);    //READ ID COMAND   (0x9F) 
....................  chip_id = spi_xfer(SPIPORT_3); 
....................  //////////////////////////////////////////////////////////////// 
....................   
....................  output_high(CS_PIN_3);         //take CS PIN higher back 
....................  return chip_id; 
.................... } 
....................  
.................... int8 READ_STATUS_REGISTER_OF() 
.................... { 
....................  output_low(CS_PIN);           //lower the CS PIN 
....................   
....................  ///////////////////////////////////////////////////////////////// 
....................  int8 status_reg; 
....................  spi_xfer(SPIPORT,READ_STATUS_REG); //READ STATUS REGISTER COMAND  (0x05) 
....................  status_reg = spi_xfer(SPIPORT); 
....................  ///////////////////////////////////////////////////////////////// 
....................   
....................  output_high(CS_PIN);         //take CS PIN higher back 
....................  return status_reg; 
.................... } 
.................... int8 READ_STATUS_REGISTER_SCF() 
.................... { 
....................  output_low(CS_PIN_2);           //lower the CS PIN 
....................   
....................  ///////////////////////////////////////////////////////////////// 
....................  int8 status_reg; 
....................  spi_xfer(SPIPORT_2,READ_STATUS_REG); //READ STATUS REGISTER COMAND  (0x05) 
....................  status_reg = spi_xfer(SPIPORT_2); 
....................  ///////////////////////////////////////////////////////////////// 
....................   
....................  output_high(CS_PIN_2);         //take CS PIN higher back 
....................  return status_reg; 
.................... } 
.................... int8 READ_STATUS_REGISTER_SMF() 
.................... { 
....................  output_low(CS_PIN_3);           //lower the CS PIN 
....................   
....................  ///////////////////////////////////////////////////////////////// 
....................  int8 status_reg; 
....................  spi_xfer(SPIPORT_3,READ_STATUS_REG); //READ STATUS REGISTER COMAND  (0x05) 
....................  status_reg = spi_xfer(SPIPORT_3); 
....................  ///////////////////////////////////////////////////////////////// 
....................   
....................  output_high(CS_PIN_3);         //take CS PIN higher back 
....................  return status_reg; 
.................... } 
.................... */ 
.................... int8 READ_DATA_BYTE_OF(unsigned INT32 ADDRESS) 
.................... { 
....................  
....................  unsigned int8 adsress[4]; 
....................    //Byte extraction 
....................    adsress[0]  = (unsigned int8)((ADDRESS>>24) & 0xFF);                          // 0x _ _ 00 00 00 
*
017B2:  MOVLB  3
017B4:  MOVFF  31A,31B
....................    adsress[1]  = (unsigned int8)((ADDRESS>>16) & 0xFF);                          // 0x 00 _ _ 00 00 
017B8:  MOVFF  319,31C
....................    adsress[2]  = (unsigned int8)((ADDRESS>>8) & 0xFF);                           // 0x 00 00 _ _ 00 
017BC:  MOVFF  318,31D
....................    adsress[3]  = (unsigned int8)((ADDRESS) & 0xFF);                              // 0x 00 00 00 _ _ 
017C0:  MOVFF  317,31E
....................     
....................  output_low(CS_PIN);                                                             //lower the CS PIN 
017C4:  BCF    F96.2
017C6:  BCF    F8D.2
....................   
....................  ////////////////////////////////////////////////////////////////// 
....................  int8 data; 
....................  spi_xfer(SPIPORT,READ_DATA_BYTES);                                              //READ DATA COMAND   (0x13) 
017C8:  MOVLW  13
017CA:  MOVWF  x20
017CC:  MOVLW  08
017CE:  MOVWF  x21
017D0:  MOVLB  0
017D2:  RCALL  1776
....................   
....................  spi_xfer(SPIPORT,adsress[0]); 
017D4:  MOVFF  31B,320
017D8:  MOVLW  08
017DA:  MOVLB  3
017DC:  MOVWF  x21
017DE:  MOVLB  0
017E0:  RCALL  1776
....................  spi_xfer(SPIPORT,adsress[1]); 
017E2:  MOVFF  31C,320
017E6:  MOVLW  08
017E8:  MOVLB  3
017EA:  MOVWF  x21
017EC:  MOVLB  0
017EE:  RCALL  1776
....................  spi_xfer(SPIPORT,adsress[2]); 
017F0:  MOVFF  31D,320
017F4:  MOVLW  08
017F6:  MOVLB  3
017F8:  MOVWF  x21
017FA:  MOVLB  0
017FC:  RCALL  1776
....................  spi_xfer(SPIPORT,adsress[3]); 
017FE:  MOVFF  31E,320
01802:  MOVLW  08
01804:  MOVLB  3
01806:  MOVWF  x21
01808:  MOVLB  0
0180A:  RCALL  1776
....................  data = spi_xfer(SPIPORT); 
0180C:  MOVLW  01
0180E:  MOVLB  3
01810:  MOVWF  x20
01812:  MOVLW  08
01814:  MOVWF  x21
01816:  MOVLB  0
01818:  RCALL  1776
0181A:  MOVF   01,W
0181C:  MOVFF  01,31F
....................  ////////////////////////////////////////////////////////////////// 
....................   
....................  output_high(CS_PIN);                                                            //take CS PIN higher back 
01820:  BCF    F96.2
01822:  BSF    F8D.2
....................  return data; 
01824:  MOVLB  3
01826:  MOVFF  31F,01
0182A:  MOVLB  0
0182C:  RETURN 0
....................   
.................... } 
.................... int8 READ_DATA_BYTE_SCF(unsigned INT32 ADDRESS) 
.................... { 
....................  
....................  unsigned int8 adsress[4]; 
....................    //Byte extraction 
....................    adsress[0]  = (unsigned int8)((ADDRESS>>24) & 0xFF);                          // 0x _ _ 00 00 00 
*
0186A:  MOVLB  3
0186C:  MOVFF  300,301
....................    adsress[1]  = (unsigned int8)((ADDRESS>>16) & 0xFF);                          // 0x 00 _ _ 00 00 
01870:  MOVFF  2FF,302
....................    adsress[2]  = (unsigned int8)((ADDRESS>>8) & 0xFF);                           // 0x 00 00 _ _ 00 
01874:  MOVFF  2FE,303
....................    adsress[3]  = (unsigned int8)((ADDRESS) & 0xFF);                              // 0x 00 00 00 _ _ 
01878:  MOVLB  2
0187A:  MOVFF  2FD,304
....................     
....................  output_low(CS_PIN_2);                                                           //lower the CS PIN 
0187E:  BCF    F93.3
01880:  BCF    F8A.3
....................   
....................  ////////////////////////////////////////////////////////////////// 
....................  int8 data; 
....................  spi_xfer(SPIPORT_2,READ_DATA_BYTES);                                            //READ DATA COMAND   (0x13) 
01882:  MOVLW  13
01884:  MOVLB  3
01886:  MOVWF  x1A
01888:  MOVLW  08
0188A:  MOVWF  x1B
0188C:  MOVLB  0
0188E:  RCALL  182E
....................   
....................  spi_xfer(SPIPORT_2,adsress[0]); 
01890:  MOVFF  301,31A
01894:  MOVLW  08
01896:  MOVLB  3
01898:  MOVWF  x1B
0189A:  MOVLB  0
0189C:  RCALL  182E
....................  spi_xfer(SPIPORT_2,adsress[1]); 
0189E:  MOVFF  302,31A
018A2:  MOVLW  08
018A4:  MOVLB  3
018A6:  MOVWF  x1B
018A8:  MOVLB  0
018AA:  RCALL  182E
....................  spi_xfer(SPIPORT_2,adsress[2]); 
018AC:  MOVFF  303,31A
018B0:  MOVLW  08
018B2:  MOVLB  3
018B4:  MOVWF  x1B
018B6:  MOVLB  0
018B8:  RCALL  182E
....................  spi_xfer(SPIPORT_2,adsress[3]); 
018BA:  MOVFF  304,31A
018BE:  MOVLW  08
018C0:  MOVLB  3
018C2:  MOVWF  x1B
018C4:  MOVLB  0
018C6:  RCALL  182E
....................  data = spi_xfer(SPIPORT_2); 
018C8:  MOVLW  02
018CA:  MOVLB  3
018CC:  MOVWF  x1A
018CE:  MOVLW  08
018D0:  MOVWF  x1B
018D2:  MOVLB  0
018D4:  RCALL  182E
018D6:  MOVF   01,W
018D8:  MOVFF  01,305
....................  ////////////////////////////////////////////////////////////////// 
....................   
....................  output_high(CS_PIN_2);                                                          //take CS PIN higher back 
018DC:  BCF    F93.3
018DE:  BSF    F8A.3
....................  return data; 
018E0:  MOVLB  3
018E2:  MOVFF  305,01
018E6:  MOVLB  0
018E8:  RETURN 0
....................   
.................... } 
.................... int8 READ_DATA_BYTE_SMF(unsigned INT32 ADDRESS) 
.................... { 
....................  
....................  unsigned int8 adsress[4]; 
....................    //Byte extraction 
....................    adsress[0]  = (unsigned int8)((ADDRESS>>24) & 0xFF);                          // 0x _ _ 00 00 00 
*
01926:  MOVLB  3
01928:  MOVFF  300,301
....................    adsress[1]  = (unsigned int8)((ADDRESS>>16) & 0xFF);                          // 0x 00 _ _ 00 00 
0192C:  MOVFF  2FF,302
....................    adsress[2]  = (unsigned int8)((ADDRESS>>8) & 0xFF);                           // 0x 00 00 _ _ 00 
01930:  MOVFF  2FE,303
....................    adsress[3]  = (unsigned int8)((ADDRESS) & 0xFF);                              // 0x 00 00 00 _ _ 
01934:  MOVLB  2
01936:  MOVFF  2FD,304
....................     
....................  output_low(CS_PIN_3);                                                           //lower the CS PIN 
0193A:  BCF    F92.2
0193C:  BCF    F89.2
....................   
....................  ////////////////////////////////////////////////////////////////// 
....................  int8 data; 
....................  spi_xfer(SPIPORT_3,READ_DATA_BYTES);                                            //READ DATA COMAND   (0x13) 
0193E:  MOVLW  13
01940:  MOVLB  3
01942:  MOVWF  x1A
01944:  MOVLW  08
01946:  MOVWF  x1B
01948:  MOVLB  0
0194A:  RCALL  18EA
....................   
....................  spi_xfer(SPIPORT_3,adsress[0]); 
0194C:  MOVFF  301,31A
01950:  MOVLW  08
01952:  MOVLB  3
01954:  MOVWF  x1B
01956:  MOVLB  0
01958:  RCALL  18EA
....................  spi_xfer(SPIPORT_3,adsress[1]); 
0195A:  MOVFF  302,31A
0195E:  MOVLW  08
01960:  MOVLB  3
01962:  MOVWF  x1B
01964:  MOVLB  0
01966:  RCALL  18EA
....................  spi_xfer(SPIPORT_3,adsress[2]); 
01968:  MOVFF  303,31A
0196C:  MOVLW  08
0196E:  MOVLB  3
01970:  MOVWF  x1B
01972:  MOVLB  0
01974:  RCALL  18EA
....................  spi_xfer(SPIPORT_3,adsress[3]); 
01976:  MOVFF  304,31A
0197A:  MOVLW  08
0197C:  MOVLB  3
0197E:  MOVWF  x1B
01980:  MOVLB  0
01982:  RCALL  18EA
....................  data = spi_xfer(SPIPORT_3); 
01984:  MOVLW  03
01986:  MOVLB  3
01988:  MOVWF  x1A
0198A:  MOVLW  08
0198C:  MOVWF  x1B
0198E:  MOVLB  0
01990:  RCALL  18EA
01992:  MOVF   01,W
01994:  MOVFF  01,305
....................  ////////////////////////////////////////////////////////////////// 
....................   
....................  output_high(CS_PIN_3);                                                          //take CS PIN higher back 
01998:  BCF    F92.2
0199A:  BSF    F89.2
....................  return data; 
0199C:  MOVLB  3
0199E:  MOVFF  305,01
019A2:  MOVLB  0
019A4:  RETURN 0
....................   
.................... } 
.................... /* 
.................... void TRANSFER_DATA_256byte_OF(unsigned INT32 ADRESS, int PORT_NUM) //read and send the specified data 
.................... { 
....................    unsigned long int i; 
....................     
....................    switch(PORT_NUM) 
....................    { 
....................       case 1: 
....................          for (i=0 ; i < 256 ; i++) 
....................          { 
....................             fputc(READ_DATA_BYTE_OF(ADRESS),PC); 
....................             ADRESS++; 
....................          } 
....................          break; 
....................       case 2: 
....................          for (i=0 ; i < 256 ; i++) 
....................          { 
....................             fputc(READ_DATA_BYTE_OF(ADRESS),reset); 
....................             ADRESS++; 
....................          } 
....................          break; 
....................       case 3: 
....................          for (i=0 ; i < 256 ; i++) 
....................          { 
....................             fputc(READ_DATA_BYTE_OF(ADRESS),com); 
....................             ADRESS++; 
....................          } 
....................          break; 
....................    } 
....................    return;  
.................... } 
.................... void TRANSFER_DATA_256byte_SCF(unsigned INT32 ADRESS, int PORT_NUM) //read and send the specified data 
.................... { 
....................    unsigned long int i; 
....................     
....................    switch(PORT_NUM) 
....................    { 
....................       case 1: 
....................          for (i=0 ; i < 256 ; i++) 
....................          { 
....................             fputc(READ_DATA_BYTE_SCF(ADRESS),PC); 
....................             ADRESS++; 
....................          } 
....................          break; 
....................       case 2: 
....................          for (i=0 ; i < 256 ; i++) 
....................          { 
....................             fputc(READ_DATA_BYTE_SCF(ADRESS),reset); 
....................             ADRESS++; 
....................          } 
....................          break; 
....................       case 3: 
....................          for (i=0 ; i < 256 ; i++) 
....................          { 
....................             fputc(READ_DATA_BYTE_SCF(ADRESS),com); 
....................             ADRESS++; 
....................          } 
....................          break; 
....................    } 
....................     return;   
.................... } 
.................... void TRANSFER_DATA_256byte_SMF(unsigned INT32 ADRESS, int PORT_NUM) //read and send the specified data 
.................... { 
....................    unsigned long int i; 
....................     
....................    switch(PORT_NUM) 
....................    { 
....................       case 1: 
....................          for (i=0 ; i < 256 ; i++) 
....................          { 
....................             fputc(READ_DATA_BYTE_SMF(ADRESS),PC); 
....................             ADRESS++; 
....................          } 
....................          break; 
....................       case 2: 
....................          for (i=0 ; i < 256 ; i++) 
....................          { 
....................             fputc(READ_DATA_BYTE_SMF(ADRESS),reset); 
....................             ADRESS++; 
....................          } 
....................          break; 
....................       case 3: 
....................          for (i=0 ; i < 256 ; i++) 
....................          { 
....................             fputc(READ_DATA_BYTE_SMF(ADRESS),com); 
....................             ADRESS++; 
....................          } 
....................          break; 
....................    } 
....................     return;   
.................... } 
....................  
.................... void WRITE_DATA_NBYTE_OF(unsigned INT32 ADDRES,int32 data_byte) //read and send the specified data 
.................... { 
....................    for (int32 i=0 ; i < data_byte ; i++) 
....................    { 
....................       WRITE_DATA_BYTE_OF(ADDRES,0x77); 
....................       ADDRES++; 
....................    } 
....................    return; 
.................... } 
.................... void WRITE_DATA_NBYTE_SCF(unsigned INT32 ADDRES,int32 data_byte) //read and send the specified data 
.................... { 
....................    for (int32 i=0 ; i < data_byte ; i++) 
....................    { 
....................       WRITE_DATA_BYTE_SCF(ADDRES,0x69); 
....................       ADDRES++; 
....................    } 
....................    return; 
.................... } 
.................... void WRITE_DATA_NBYTE_SMF(unsigned INT32 ADDRES,int32 data_byte) //read and send the specified data 
.................... { 
....................    for (int32 i=0 ; i < data_byte ; i++) 
....................    { 
....................       WRITE_DATA_BYTE_SMF(ADDRES,0x55); 
....................       ADDRES++; 
....................    } 
....................    return; 
.................... } 
.................... */ 
.................... void TRANSFER_DATA_NBYTE_TOPC_OF(unsigned INT32 ADRESS,int32 data_byte)          //read and send the specified data 
.................... { 
....................    for (int32 i=0 ; i < data_byte ; i++) 
*
05770:  MOVLB  2
05772:  CLRF   xFB
05774:  CLRF   xFA
05776:  CLRF   xF9
05778:  CLRF   xF8
0577A:  MOVF   xFB,W
0577C:  SUBWF  xF7,W
0577E:  BNC   57DE
05780:  BNZ   5798
05782:  MOVF   xFA,W
05784:  SUBWF  xF6,W
05786:  BNC   57DE
05788:  BNZ   5798
0578A:  MOVF   xF9,W
0578C:  SUBWF  xF5,W
0578E:  BNC   57DE
05790:  BNZ   5798
05792:  MOVF   xF4,W
05794:  SUBWF  xF8,W
05796:  BC    57DE
....................    { 
....................       fputc(READ_DATA_BYTE_OF(ADRESS),PC); 
05798:  MOVFF  2F3,31A
0579C:  MOVFF  2F2,319
057A0:  MOVFF  2F1,318
057A4:  MOVFF  2F0,317
057A8:  MOVLB  0
057AA:  CALL   17B2
057AE:  MOVFF  01,2FC
057B2:  MOVLB  2
057B4:  MOVF   xFC,W
057B6:  MOVLB  0
057B8:  RCALL  5768
....................       ADRESS++; 
057BA:  MOVLW  01
057BC:  MOVLB  2
057BE:  ADDWF  xF0,F
057C0:  BTFSC  FD8.0
057C2:  INCF   xF1,F
057C4:  BTFSC  FD8.2
057C6:  INCF   xF2,F
057C8:  BTFSC  FD8.2
057CA:  INCF   xF3,F
057CC:  MOVLW  01
057CE:  ADDWF  xF8,F
057D0:  BTFSC  FD8.0
057D2:  INCF   xF9,F
057D4:  BTFSC  FD8.2
057D6:  INCF   xFA,F
057D8:  BTFSC  FD8.2
057DA:  INCF   xFB,F
057DC:  BRA    577A
....................    } 
....................    return; 
057DE:  MOVLB  0
057E0:  GOTO   5816 (RETURN)
.................... } 
.................... void TRANSFER_DATA_NBYTE_TOPC_SCF(unsigned INT32 ADRESS,int32 data_byte)         //read and send the specified data 
.................... { 
....................    for (int32 i=0 ; i < data_byte ; i++) 
*
082AC:  MOVLB  2
082AE:  CLRF   xF1
082B0:  CLRF   xF0
082B2:  CLRF   xEF
082B4:  CLRF   xEE
082B6:  MOVF   xF1,W
082B8:  SUBWF  xED,W
082BA:  BNC   8322
082BC:  BNZ   82D4
082BE:  MOVF   xF0,W
082C0:  SUBWF  xEC,W
082C2:  BNC   8322
082C4:  BNZ   82D4
082C6:  MOVF   xEF,W
082C8:  SUBWF  xEB,W
082CA:  BNC   8322
082CC:  BNZ   82D4
082CE:  MOVF   xEA,W
082D0:  SUBWF  xEE,W
082D2:  BC    8322
....................    { 
....................       fprintf(PC,"%x",READ_DATA_BYTE_SCF(ADRESS)); 
082D4:  MOVFF  2E9,300
082D8:  MOVFF  2E8,2FF
082DC:  MOVFF  2E7,2FE
082E0:  MOVFF  2E6,2FD
082E4:  MOVLB  0
082E6:  CALL   186A
082EA:  MOVFF  01,2F2
082EE:  MOVFF  01,311
082F2:  MOVLW  57
082F4:  MOVLB  3
082F6:  MOVWF  x12
082F8:  MOVLB  0
082FA:  CALL   1C3E
....................       ADRESS++; 
082FE:  MOVLW  01
08300:  MOVLB  2
08302:  ADDWF  xE6,F
08304:  BTFSC  FD8.0
08306:  INCF   xE7,F
08308:  BTFSC  FD8.2
0830A:  INCF   xE8,F
0830C:  BTFSC  FD8.2
0830E:  INCF   xE9,F
08310:  MOVLW  01
08312:  ADDWF  xEE,F
08314:  BTFSC  FD8.0
08316:  INCF   xEF,F
08318:  BTFSC  FD8.2
0831A:  INCF   xF0,F
0831C:  BTFSC  FD8.2
0831E:  INCF   xF1,F
08320:  BRA    82B6
....................    } 
....................    return; 
08322:  MOVLB  0
08324:  RETURN 0
.................... } 
.................... void TRANSFER_DATA_NBYTE_TOPC_SMF(unsigned INT32 ADRESS,int32 data_byte)         //read and send the specified data 
.................... { 
....................    for (int32 i=0 ; i < data_byte ; i++) 
....................    { 
....................       fputc(READ_DATA_BYTE_SMF(ADRESS),PC); 
....................       ADRESS++; 
....................    } 
....................    return; 
.................... } 
.................... /* 
.................... void TRANSFER_DATA_NBYTE_OFtoSCF(unsigned INT32 FROM_ADRESS,unsigned INT32 TO_ADRESS,int32 data_byte) //transfer data from MAIN FLASH to COM FLASH 
.................... { 
....................    for (int32 i=0 ; i < data_byte ; i++) 
....................    { 
....................       WRITE_DATA_BYTE_SCF(TO_ADRESS,READ_DATA_BYTE_OF(FROM_ADRESS)); 
....................       FROM_ADRESS++; 
....................       TO_ADRESS++; 
....................    } 
....................    return; 
.................... } 
.................... void TRANSFER_DATA_NBYTE_SCFtoOF(unsigned INT32 FROM_ADRESS,unsigned INT32 TO_ADRESS,int32 data_byte) //transfer data from COM FLASH to MAIN FLASH 
.................... { 
....................    for (int32 i=0 ; i < data_byte ; i++) 
....................    { 
....................       WRITE_DATA_BYTE_OF(TO_ADRESS,READ_DATA_BYTE_SCF(FROM_ADRESS)); 
....................       FROM_ADRESS++; 
....................       TO_ADRESS++; 
....................    } 
....................    return; 
.................... } 
.................... void TRANSFER_DATA_NBYTE_OFtoSMF(unsigned INT32 FROM_ADRESS,unsigned INT32 TO_ADRESS,int32 data_byte) //transfer data from MAIN FLASH to MISSION FLASH 
.................... { 
....................    for (int32 i=0 ; i < data_byte ; i++) 
....................    { 
....................       WRITE_DATA_BYTE_SMF(TO_ADRESS,READ_DATA_BYTE_OF(FROM_ADRESS)); 
....................       FROM_ADRESS++; 
....................       TO_ADRESS++; 
....................    } 
....................    return; 
.................... }*/ 
.................... void TRANSFER_DATA_NBYTE_SMFtoOF(unsigned INT32 FROM_ADRESS,unsigned INT32 TO_ADRESS,int32 data_byte) //transfer data from MISSION FLASH to MAIN FLASH 
.................... { 
....................    for (int32 i=0 ; i < data_byte ; i++) 
*
0821A:  MOVLB  2
0821C:  CLRF   xF5
0821E:  CLRF   xF4
08220:  CLRF   xF3
08222:  CLRF   xF2
08224:  MOVF   xF5,W
08226:  SUBWF  xF1,W
08228:  BNC   82A8
0822A:  BNZ   8242
0822C:  MOVF   xF4,W
0822E:  SUBWF  xF0,W
08230:  BNC   82A8
08232:  BNZ   8242
08234:  MOVF   xF3,W
08236:  SUBWF  xEF,W
08238:  BNC   82A8
0823A:  BNZ   8242
0823C:  MOVF   xEE,W
0823E:  SUBWF  xF2,W
08240:  BC    82A8
....................    { 
....................       WRITE_DATA_BYTE_OF(TO_ADRESS,READ_DATA_BYTE_SMF(FROM_ADRESS)); 
08242:  MOVFF  2E9,300
08246:  MOVFF  2E8,2FF
0824A:  MOVFF  2E7,2FE
0824E:  MOVFF  2E6,2FD
08252:  MOVLB  0
08254:  CALL   1926
08258:  MOVFF  01,2F6
0825C:  MOVFF  2ED,314
08260:  MOVFF  2EC,313
08264:  MOVFF  2EB,312
08268:  MOVFF  2EA,311
0826C:  MOVFF  01,315
08270:  CALL   1A80
....................       FROM_ADRESS++; 
08274:  MOVLW  01
08276:  MOVLB  2
08278:  ADDWF  xE6,F
0827A:  BTFSC  FD8.0
0827C:  INCF   xE7,F
0827E:  BTFSC  FD8.2
08280:  INCF   xE8,F
08282:  BTFSC  FD8.2
08284:  INCF   xE9,F
....................       TO_ADRESS++; 
08286:  MOVLW  01
08288:  ADDWF  xEA,F
0828A:  BTFSC  FD8.0
0828C:  INCF   xEB,F
0828E:  BTFSC  FD8.2
08290:  INCF   xEC,F
08292:  BTFSC  FD8.2
08294:  INCF   xED,F
08296:  MOVLW  01
08298:  ADDWF  xF2,F
0829A:  BTFSC  FD8.0
0829C:  INCF   xF3,F
0829E:  BTFSC  FD8.2
082A0:  INCF   xF4,F
082A2:  BTFSC  FD8.2
082A4:  INCF   xF5,F
082A6:  BRA    8224
....................    } 
....................    return; 
082A8:  MOVLB  0
082AA:  RETURN 0
.................... } 
.................... void TRANSFER_DATA_NBYTE_SMFtoSCF(unsigned INT32 FROM_ADRESS,unsigned INT32 TO_ADRESS,int32 data_byte) //transfer data from MISSION FLASH to COM FLASH 
.................... { 
....................    for (int32 i=0 ; i < data_byte ; i++) 
*
08188:  MOVLB  2
0818A:  CLRF   xF5
0818C:  CLRF   xF4
0818E:  CLRF   xF3
08190:  CLRF   xF2
08192:  MOVF   xF5,W
08194:  SUBWF  xF1,W
08196:  BNC   8216
08198:  BNZ   81B0
0819A:  MOVF   xF4,W
0819C:  SUBWF  xF0,W
0819E:  BNC   8216
081A0:  BNZ   81B0
081A2:  MOVF   xF3,W
081A4:  SUBWF  xEF,W
081A6:  BNC   8216
081A8:  BNZ   81B0
081AA:  MOVF   xEE,W
081AC:  SUBWF  xF2,W
081AE:  BC    8216
....................    { 
....................       WRITE_DATA_BYTE_SCF(TO_ADRESS,READ_DATA_BYTE_SMF(FROM_ADRESS)); 
081B0:  MOVFF  2E9,300
081B4:  MOVFF  2E8,2FF
081B8:  MOVFF  2E7,2FE
081BC:  MOVFF  2E6,2FD
081C0:  MOVLB  0
081C2:  CALL   1926
081C6:  MOVFF  01,2F6
081CA:  MOVFF  2ED,314
081CE:  MOVFF  2EC,313
081D2:  MOVFF  2EB,312
081D6:  MOVFF  2EA,311
081DA:  MOVFF  01,315
081DE:  CALL   1B0C
....................       FROM_ADRESS++; 
081E2:  MOVLW  01
081E4:  MOVLB  2
081E6:  ADDWF  xE6,F
081E8:  BTFSC  FD8.0
081EA:  INCF   xE7,F
081EC:  BTFSC  FD8.2
081EE:  INCF   xE8,F
081F0:  BTFSC  FD8.2
081F2:  INCF   xE9,F
....................       TO_ADRESS++; 
081F4:  MOVLW  01
081F6:  ADDWF  xEA,F
081F8:  BTFSC  FD8.0
081FA:  INCF   xEB,F
081FC:  BTFSC  FD8.2
081FE:  INCF   xEC,F
08200:  BTFSC  FD8.2
08202:  INCF   xED,F
08204:  MOVLW  01
08206:  ADDWF  xF2,F
08208:  BTFSC  FD8.0
0820A:  INCF   xF3,F
0820C:  BTFSC  FD8.2
0820E:  INCF   xF4,F
08210:  BTFSC  FD8.2
08212:  INCF   xF5,F
08214:  BRA    8192
....................    } 
....................    return; 
08216:  MOVLB  0
08218:  RETURN 0
.................... }/* 
.................... void TRANSFER_DATA_NBYTE_SCFtoSMF(unsigned INT32 FROM_ADRESS,unsigned INT32 TO_ADRESS,int32 data_byte) //transfer data from COM FLASH to MISSION FLASH 
.................... { 
....................    for (int32 i=0 ; i < data_byte ; i++) 
....................    { 
....................       WRITE_DATA_BYTE_SMF(TO_ADRESS,READ_DATA_BYTE_SCF(FROM_ADRESS)); 
....................       FROM_ADRESS++; 
....................       TO_ADRESS++; 
....................    } 
....................    return; 
.................... } 
.................... void TRANSFER_DATA_NBYTE_SCF(unsigned INT32 FROM_ADRESS,unsigned INT32 TO_ADRESS,int32 data_byte) //read and send the specified data 
.................... { 
....................    for (int32 i=0 ; i < data_byte ; i++) 
....................    { 
....................       WRITE_DATA_BYTE_SMF(TO_ADRESS,READ_DATA_BYTE_SCF(FROM_ADRESS)); 
....................       FROM_ADRESS++; 
....................       TO_ADRESS++; 
....................    } 
....................    return; 
.................... } 
.................... */ 
....................  
....................  
....................  
.................... #include<MEMORY_OPERATION.c> 
.................... //-------------------------ADDRESS (PREVIOUS)---------------------------------- 
.................... //!/////////////////previous////////////////////////////// 
.................... //!Static int32 ADCS_SENSOR_ADDRESS = 65536*500; 
.................... //!Static int32 FAB_HK_ADDRESS = 65536 * 200; 
.................... //!Static int32 FAB_CW_ADDRESS = 65536 * 50; 
.................... //!Static int32 FAB_CW_ADDRESS_FOR_MF = 65536; //sector1 
.................... //!Static int32 HIGH_SAMP_HK_ADDRESS = 65536 * 1800; 
.................... //!Static int32 CAM_ADDRESS = 65536; 
.................... //!Static int32 DC_STATUS_ADDRESS = 65536*300; 
.................... //!/////////////////////////////////////////////////////// 
.................... #define SECT 65536                                                               //1 Sector = 65536 Bytes 
....................  
.................... Static int32 ADD_INFO_ADDRESS = 4096;                                            //for keeping the address data to flash memory 
.................... Static int32 ADDRESS_WRITING_COUNTER = 0;                                        //if address writing more than 30000 times, change the store address 
....................  
.................... Static int32 FLAG_DATA_ADDRESS = SECT*4;                                         //1sector 
.................... Static int32 RSV_DATA_ADDRESS=SECT*5;                                            //1sector 
.................... Static int32 SAT_LOG = SECT*6;                                                   //2sector 
.................... Static int32 CAM_ADDRESS = SECT*8;                                               //90sector 
.................... Static int32 FAB_HK_ADDRESS = SECT*98;                                           //1000sector 
.................... Static int32 FAB_CW_ADDRESS = SECT*1098;                                         //40sector 
.................... Static int32 ADCS_SENSOR_ADDRESS = SECT*1138;                                    //500sector 
.................... Static int32 ADCS_TLE_ADDRESS = SECT*1637;                                       //1sector (el ultimo no utilizado por ADCS data) 
.................... Static int32 DC_STATUS_ADDRESS = SECT*1638;                                      //1sector 
.................... Static int32 HIGH_SAMP_HK_ADDRESS = SECT*1639;                                   //409sector 
.................... Static int32 FLAG_ADDRESS_EEPROM = 0x18000;                                      //from 75 percent of the programming memory 
.................... Static int32 FLASH_AD_ADDRESS_EEPROM = 0x18000 + 28;                             //after flag info 
....................                                                                                  //Definicion de direcciones de espacio de memoria (fin) 
.................... #define FLAG_DATA_ADDRESS_END  SECT*5-26                                         //considera la longitud de cada dato para determinar la direccion de finalizacion 
.................... #define RSV_DATA_ADDRESS_END  SECT*6-160 
.................... #define SAT_LOG_END  SECT*8-22 
.................... #define CAM_ADDRESS_END  SECT*98-SECT*2 
.................... #define FAB_HK_ADDRESS_END  SECT*1098-SECT-248 
.................... #define FAB_CW_ADDRESS_END  SECT*1138-10 
.................... #define FAB_CW_ADDRESS_FOR_MF_END FAB_CW_ADDRESS_END 
.................... #define ADCS_SENSOR_ADDRESS_END  SECT*1638-408000                                //408000 is for 2 hour data(85*3600*2/1.5) 
.................... #define ADCS_TLE_ADDRESS_END  SECT*1638-TLE_size 
.................... #define DC_STATUS_ADDRESS_END SECT*1639-415 
.................... #define HIGH_SAMP_HK_ADDRESS_END  SECT*2047-178560                               //178560 is for 2 hour data(124*3600*2/5) 
....................                                                                                  //Flags definition 
.................... int8 BC_ATTEMPT_FLAG = 0; 
.................... int16 PASSED_DAYS = 0; 
.................... int8 RESERVE_CHECK = 0; 
.................... int8 RESERVE_MIN_FLAG = 0; 
.................... int8 RESERVE_TARGET_FLAG = 0; 
.................... int8 MISSION_CONTENTS = 0; 
.................... int8 MISSION_DETAIL = 0; 
.................... int8 RESERVE_ADDRESS_1 = 0; 
.................... int8 RESERVE_ADDRESS_2 = 0; 
.................... int8 RESERVE_ADDRESS_3 = 0; 
.................... int8 RESERVE_ADDRESS_4 = 0; 
.................... int8 RESERVE_PACKET_NUM = 0; 
.................... int8 Kill_FLAG_MAIN = 0; 
.................... int8 Kill_FLAG_FAB = 0; 
.................... int8 FIRST_HSSC_DONE = 0; 
.................... int8 AUTO_CAM_DONE = 0; 
.................... int8 AUTO_MBP_DONE = 0; 
.................... int8 AUTO_ADCS_DONE = 0; 
.................... int8 ANT_DEP_STATUS = 0; 
.................... int8 UPLINK_SUCCESS = 0; 
....................  
.................... int8 RESERVE_SEC_FLAG = 0; 
....................  
.................... //--------MAIN PIC Buffer------------------------------------------------------ 
.................... int8 CMD_FROM_PC[8] = {}; 
.................... unsigned int8 in_bffr_main[16] = {}; 
.................... int8 COM_DATA= 0; 
.................... static int8 CW_IDENTIFIER = 0; 
.................... int8 OPERATION_MODE = 0x00; 
.................... int8 PC_DATA = 0;                                   
.................... int8 COM_ONEBYTE_COMMAND = 0;                                                    //for GS testing 
....................  
.................... #define buffer_from_com  (in_bffr_main[0]==0xAA) && (in_bffr_main[15]==0xBB) 
.................... #define buffer_flash  (in_bffr_main[7]==0x73) 
.................... #define START_ADCS_MISSION  (in_bffr_main[1]==0x73) 
.................... #define ADCS_SENSOR_SIZE 78                                                      //for testing additional 6byte for checking duty 
....................  
.................... int8 ADCS_SENSOR_DATA[ADCS_SENSOR_SIZE] = {}; 
.................... int8 ADCS_ACK = 0; 
.................... int8 ADCS_ACK_COMMING = 0;                                                       //for Checking ACK from ADCS 
.................... #define ATTEMPT_TIME 8 
....................  
....................  
.................... #define EX_PANEL_THRESHHOLD 0x14 
.................... #define HIGH_SAMP_TIMES 12                                                       //for 2 hours 
....................  
.................... //----------RESET-------------------------------------------------------------- 
.................... #define Reset_size 11                                                            //1byte ack, 4byte time, 10byte sensor 
.................... int8 RESET_DATA = 0; 
.................... int8 reset_bffr[Reset_size] = {}; 
.................... int8 reset_flag = 0; 
....................  
.................... //---------OTHER FUNCTION------------------------------------------------------ 
.................... #define FLASH_ADD_SIZE 41                                                        //10 kinds of address(40byte), 1 flag(1byte), 1 WRITING COUNTER(2byte) 
.................... #define FLAG_INFO_SIZE 16 
.................... unsigned int8 sec_add_bfr[FLASH_ADD_SIZE] = {};                                  //vector utilizado para almacenar las direcciones leidas de la flash 
.................... unsigned int8 flag_info_bffr[FLAG_INFO_SIZE] = {}; 
....................  
.................... void CURRENT_FLAG_STATUS()                                                      //Print on PC port current flag status 
.................... { 
....................    fprintf(PC,"\r\nPASSED DAYS:%x\r\n",PASSED_DAYS); 
*
02B8A:  MOVLW  94
02B8C:  MOVWF  FF6
02B8E:  MOVLW  07
02B90:  MOVWF  FF7
02B92:  MOVLW  00
02B94:  MOVWF  FF8
02B96:  MOVLW  0E
02B98:  MOVLB  3
02B9A:  MOVWF  x10
02B9C:  MOVLB  0
02B9E:  CALL   1C0C
02BA2:  MOVFF  69,311
02BA6:  MOVLW  57
02BA8:  MOVLB  3
02BAA:  MOVWF  x12
02BAC:  MOVLB  0
02BAE:  CALL   1C3E
02BB2:  MOVLW  0D
02BB4:  BTFSS  F9E.4
02BB6:  BRA    2BB4
02BB8:  MOVWF  FAD
02BBA:  MOVLW  0A
02BBC:  BTFSS  F9E.4
02BBE:  BRA    2BBC
02BC0:  MOVWF  FAD
....................    fprintf(PC,"RESERVE CHECK:%x\r\n",RESERVE_CHECK); 
02BC2:  MOVLW  A8
02BC4:  MOVWF  FF6
02BC6:  MOVLW  07
02BC8:  MOVWF  FF7
02BCA:  MOVLW  00
02BCC:  MOVWF  FF8
02BCE:  MOVLW  0E
02BD0:  MOVLB  3
02BD2:  MOVWF  x10
02BD4:  MOVLB  0
02BD6:  CALL   1C0C
02BDA:  MOVFF  6B,311
02BDE:  MOVLW  57
02BE0:  MOVLB  3
02BE2:  MOVWF  x12
02BE4:  MOVLB  0
02BE6:  CALL   1C3E
02BEA:  MOVLW  0D
02BEC:  BTFSS  F9E.4
02BEE:  BRA    2BEC
02BF0:  MOVWF  FAD
02BF2:  MOVLW  0A
02BF4:  BTFSS  F9E.4
02BF6:  BRA    2BF4
02BF8:  MOVWF  FAD
....................    fprintf(PC,"Kill FLAG MAIN:%x\r\n",Kill_FLAG_MAIN); 
02BFA:  MOVLW  BC
02BFC:  MOVWF  FF6
02BFE:  MOVLW  07
02C00:  MOVWF  FF7
02C02:  MOVLW  00
02C04:  MOVWF  FF8
02C06:  MOVLW  0F
02C08:  MOVLB  3
02C0A:  MOVWF  x10
02C0C:  MOVLB  0
02C0E:  CALL   1C0C
02C12:  MOVFF  75,311
02C16:  MOVLW  57
02C18:  MOVLB  3
02C1A:  MOVWF  x12
02C1C:  MOVLB  0
02C1E:  CALL   1C3E
02C22:  MOVLW  0D
02C24:  BTFSS  F9E.4
02C26:  BRA    2C24
02C28:  MOVWF  FAD
02C2A:  MOVLW  0A
02C2C:  BTFSS  F9E.4
02C2E:  BRA    2C2C
02C30:  MOVWF  FAD
....................    fprintf(PC,"Kill FLAG FAB:%x\r\n",Kill_FLAG_FAB); 
02C32:  MOVLW  D0
02C34:  MOVWF  FF6
02C36:  MOVLW  07
02C38:  MOVWF  FF7
02C3A:  MOVLW  00
02C3C:  MOVWF  FF8
02C3E:  MOVLW  0E
02C40:  MOVLB  3
02C42:  MOVWF  x10
02C44:  MOVLB  0
02C46:  CALL   1C0C
02C4A:  MOVFF  76,311
02C4E:  MOVLW  57
02C50:  MOVLB  3
02C52:  MOVWF  x12
02C54:  MOVLB  0
02C56:  CALL   1C3E
02C5A:  MOVLW  0D
02C5C:  BTFSS  F9E.4
02C5E:  BRA    2C5C
02C60:  MOVWF  FAD
02C62:  MOVLW  0A
02C64:  BTFSS  F9E.4
02C66:  BRA    2C64
02C68:  MOVWF  FAD
....................    fprintf(PC,"AUTO HIGH SAMPLING:%x\r\n",FIRST_HSSC_DONE); 
02C6A:  MOVLW  E4
02C6C:  MOVWF  FF6
02C6E:  MOVLW  07
02C70:  MOVWF  FF7
02C72:  MOVLW  00
02C74:  MOVWF  FF8
02C76:  MOVLW  13
02C78:  MOVLB  3
02C7A:  MOVWF  x10
02C7C:  MOVLB  0
02C7E:  CALL   1C0C
02C82:  MOVFF  77,311
02C86:  MOVLW  57
02C88:  MOVLB  3
02C8A:  MOVWF  x12
02C8C:  MOVLB  0
02C8E:  CALL   1C3E
02C92:  MOVLW  0D
02C94:  BTFSS  F9E.4
02C96:  BRA    2C94
02C98:  MOVWF  FAD
02C9A:  MOVLW  0A
02C9C:  BTFSS  F9E.4
02C9E:  BRA    2C9C
02CA0:  MOVWF  FAD
....................    fprintf(PC,"AUTO CAM:%x\r\n",AUTO_CAM_DONE); 
02CA2:  MOVLW  FC
02CA4:  MOVWF  FF6
02CA6:  MOVLW  07
02CA8:  MOVWF  FF7
02CAA:  MOVLW  00
02CAC:  MOVWF  FF8
02CAE:  MOVLW  09
02CB0:  MOVLB  3
02CB2:  MOVWF  x10
02CB4:  MOVLB  0
02CB6:  CALL   1C0C
02CBA:  MOVFF  78,311
02CBE:  MOVLW  57
02CC0:  MOVLB  3
02CC2:  MOVWF  x12
02CC4:  MOVLB  0
02CC6:  CALL   1C3E
02CCA:  MOVLW  0D
02CCC:  BTFSS  F9E.4
02CCE:  BRA    2CCC
02CD0:  MOVWF  FAD
02CD2:  MOVLW  0A
02CD4:  BTFSS  F9E.4
02CD6:  BRA    2CD4
02CD8:  MOVWF  FAD
....................    fprintf(PC,"AUTO MBP:%x\r\n",AUTO_MBP_DONE); 
02CDA:  MOVLW  0A
02CDC:  MOVWF  FF6
02CDE:  MOVLW  08
02CE0:  MOVWF  FF7
02CE2:  MOVLW  00
02CE4:  MOVWF  FF8
02CE6:  MOVLW  09
02CE8:  MOVLB  3
02CEA:  MOVWF  x10
02CEC:  MOVLB  0
02CEE:  CALL   1C0C
02CF2:  MOVFF  79,311
02CF6:  MOVLW  57
02CF8:  MOVLB  3
02CFA:  MOVWF  x12
02CFC:  MOVLB  0
02CFE:  CALL   1C3E
02D02:  MOVLW  0D
02D04:  BTFSS  F9E.4
02D06:  BRA    2D04
02D08:  MOVWF  FAD
02D0A:  MOVLW  0A
02D0C:  BTFSS  F9E.4
02D0E:  BRA    2D0C
02D10:  MOVWF  FAD
....................    fprintf(PC,"AUTO ADCS:%x\r\n",AUTO_ADCS_DONE); 
02D12:  MOVLW  18
02D14:  MOVWF  FF6
02D16:  MOVLW  08
02D18:  MOVWF  FF7
02D1A:  MOVLW  00
02D1C:  MOVWF  FF8
02D1E:  MOVLW  0A
02D20:  MOVLB  3
02D22:  MOVWF  x10
02D24:  MOVLB  0
02D26:  CALL   1C0C
02D2A:  MOVFF  7A,311
02D2E:  MOVLW  57
02D30:  MOVLB  3
02D32:  MOVWF  x12
02D34:  MOVLB  0
02D36:  CALL   1C3E
02D3A:  MOVLW  0D
02D3C:  BTFSS  F9E.4
02D3E:  BRA    2D3C
02D40:  MOVWF  FAD
02D42:  MOVLW  0A
02D44:  BTFSS  F9E.4
02D46:  BRA    2D44
02D48:  MOVWF  FAD
....................    fprintf(PC,"ANTENNA DEPLOY:%x\r\n",ANT_DEP_STATUS); 
02D4A:  MOVLW  28
02D4C:  MOVWF  FF6
02D4E:  MOVLW  08
02D50:  MOVWF  FF7
02D52:  MOVLW  00
02D54:  MOVWF  FF8
02D56:  MOVLW  0F
02D58:  MOVLB  3
02D5A:  MOVWF  x10
02D5C:  MOVLB  0
02D5E:  CALL   1C0C
02D62:  MOVFF  7B,311
02D66:  MOVLW  57
02D68:  MOVLB  3
02D6A:  MOVWF  x12
02D6C:  MOVLB  0
02D6E:  CALL   1C3E
02D72:  MOVLW  0D
02D74:  BTFSS  F9E.4
02D76:  BRA    2D74
02D78:  MOVWF  FAD
02D7A:  MOVLW  0A
02D7C:  BTFSS  F9E.4
02D7E:  BRA    2D7C
02D80:  MOVWF  FAD
....................    fprintf(PC,"ANTENNA DEPLOY ATTEMPT:%x\r\n",BC_ATTEMPT_FLAG); 
02D82:  MOVLW  3C
02D84:  MOVWF  FF6
02D86:  MOVLW  08
02D88:  MOVWF  FF7
02D8A:  MOVLW  00
02D8C:  MOVWF  FF8
02D8E:  MOVLW  17
02D90:  MOVLB  3
02D92:  MOVWF  x10
02D94:  MOVLB  0
02D96:  CALL   1C0C
02D9A:  MOVFF  68,311
02D9E:  MOVLW  57
02DA0:  MOVLB  3
02DA2:  MOVWF  x12
02DA4:  MOVLB  0
02DA6:  CALL   1C3E
02DAA:  MOVLW  0D
02DAC:  BTFSS  F9E.4
02DAE:  BRA    2DAC
02DB0:  MOVWF  FAD
02DB2:  MOVLW  0A
02DB4:  BTFSS  F9E.4
02DB6:  BRA    2DB4
02DB8:  MOVWF  FAD
....................    fprintf(PC,"UPLINK SUCCESS:%x\r\n\r\n",UPLINK_SUCCESS); 
02DBA:  MOVLW  58
02DBC:  MOVWF  FF6
02DBE:  MOVLW  08
02DC0:  MOVWF  FF7
02DC2:  MOVLW  00
02DC4:  MOVWF  FF8
02DC6:  MOVLW  0F
02DC8:  MOVLB  3
02DCA:  MOVWF  x10
02DCC:  MOVLB  0
02DCE:  CALL   1C0C
02DD2:  MOVFF  7C,311
02DD6:  MOVLW  57
02DD8:  MOVLB  3
02DDA:  MOVWF  x12
02DDC:  MOVLB  0
02DDE:  CALL   1C3E
02DE2:  MOVLW  69
02DE4:  MOVWF  FF6
02DE6:  MOVLW  08
02DE8:  MOVWF  FF7
02DEA:  MOVLW  00
02DEC:  MOVWF  FF8
02DEE:  MOVLW  04
02DF0:  MOVLB  3
02DF2:  MOVWF  x10
02DF4:  MOVLB  0
02DF6:  CALL   1C0C
....................    return; 
02DFA:  RETURN 0
.................... } 
....................  
....................  
.................... void CURRENT_ADDRESS_OF_FLASH()                                                  //imprime la asignacion de direcciones de la Flash memory 
.................... {   
....................    fprintf(PC,"\r\nADD INFO ADDRESS:%lx\r\n\r\n",ADD_INFO_ADDRESS); 
02DFC:  MOVLW  6E
02DFE:  MOVWF  FF6
02E00:  MOVLW  08
02E02:  MOVWF  FF7
02E04:  MOVLW  00
02E06:  MOVWF  FF8
02E08:  MOVLW  13
02E0A:  MOVLB  3
02E0C:  MOVWF  x10
02E0E:  MOVLB  0
02E10:  CALL   1C0C
02E14:  MOVFF  33,311
02E18:  MOVLW  57
02E1A:  MOVLB  3
02E1C:  MOVWF  x12
02E1E:  MOVLB  0
02E20:  CALL   1C3E
02E24:  MOVFF  32,311
02E28:  MOVLW  57
02E2A:  MOVLB  3
02E2C:  MOVWF  x12
02E2E:  MOVLB  0
02E30:  CALL   1C3E
02E34:  MOVFF  31,311
02E38:  MOVLW  57
02E3A:  MOVLB  3
02E3C:  MOVWF  x12
02E3E:  MOVLB  0
02E40:  CALL   1C3E
02E44:  MOVFF  30,311
02E48:  MOVLW  57
02E4A:  MOVLB  3
02E4C:  MOVWF  x12
02E4E:  MOVLB  0
02E50:  CALL   1C3E
02E54:  MOVLW  84
02E56:  MOVWF  FF6
02E58:  MOVLW  08
02E5A:  MOVWF  FF7
02E5C:  MOVLW  00
02E5E:  MOVWF  FF8
02E60:  MOVLW  04
02E62:  MOVLB  3
02E64:  MOVWF  x10
02E66:  MOVLB  0
02E68:  CALL   1C0C
....................    fprintf(PC,"FLAG DATA ADDRESS:%x%x%x%x\r\n",FLAG_DATA_ADDRESS>>24,FLAG_DATA_ADDRESS>>16,FLAG_DATA_ADDRESS>>8,FLAG_DATA_ADDRESS); 
02E6C:  MOVFF  3B,2E6
02E70:  MOVLB  2
02E72:  CLRF   xE7
02E74:  CLRF   xE8
02E76:  CLRF   xE9
02E78:  MOVFF  3A,2EB
02E7C:  MOVFF  3B,2EC
02E80:  CLRF   xED
02E82:  CLRF   xEE
02E84:  MOVFF  39,2F0
02E88:  MOVFF  3A,2F1
02E8C:  MOVFF  3B,2F2
02E90:  CLRF   xF3
02E92:  MOVLW  8A
02E94:  MOVWF  FF6
02E96:  MOVLW  08
02E98:  MOVWF  FF7
02E9A:  MOVLW  00
02E9C:  MOVWF  FF8
02E9E:  MOVLW  12
02EA0:  MOVLB  3
02EA2:  MOVWF  x10
02EA4:  MOVLB  0
02EA6:  CALL   1C0C
02EAA:  MOVFF  2E6,311
02EAE:  MOVLW  57
02EB0:  MOVLB  3
02EB2:  MOVWF  x12
02EB4:  MOVLB  0
02EB6:  CALL   1C3E
02EBA:  MOVFF  2EB,311
02EBE:  MOVLW  57
02EC0:  MOVLB  3
02EC2:  MOVWF  x12
02EC4:  MOVLB  0
02EC6:  CALL   1C3E
02ECA:  MOVFF  2F0,311
02ECE:  MOVLW  57
02ED0:  MOVLB  3
02ED2:  MOVWF  x12
02ED4:  MOVLB  0
02ED6:  CALL   1C3E
02EDA:  MOVFF  38,311
02EDE:  MOVLW  57
02EE0:  MOVLB  3
02EE2:  MOVWF  x12
02EE4:  MOVLB  0
02EE6:  CALL   1C3E
02EEA:  MOVLW  0D
02EEC:  BTFSS  F9E.4
02EEE:  BRA    2EEC
02EF0:  MOVWF  FAD
02EF2:  MOVLW  0A
02EF4:  BTFSS  F9E.4
02EF6:  BRA    2EF4
02EF8:  MOVWF  FAD
....................    fprintf(PC,"RESERVATION TABLE ADDRESS:%x%x%x%x\r\n",RSV_DATA_ADDRESS>>24,RSV_DATA_ADDRESS>>16,RSV_DATA_ADDRESS>>8,RSV_DATA_ADDRESS); 
02EFA:  MOVFF  3F,2E6
02EFE:  MOVLB  2
02F00:  CLRF   xE7
02F02:  CLRF   xE8
02F04:  CLRF   xE9
02F06:  MOVFF  3E,2EB
02F0A:  MOVFF  3F,2EC
02F0E:  CLRF   xED
02F10:  CLRF   xEE
02F12:  MOVFF  3D,2F0
02F16:  MOVFF  3E,2F1
02F1A:  MOVFF  3F,2F2
02F1E:  CLRF   xF3
02F20:  MOVLW  A8
02F22:  MOVWF  FF6
02F24:  MOVLW  08
02F26:  MOVWF  FF7
02F28:  MOVLW  00
02F2A:  MOVWF  FF8
02F2C:  MOVLW  1A
02F2E:  MOVLB  3
02F30:  MOVWF  x10
02F32:  MOVLB  0
02F34:  CALL   1C0C
02F38:  MOVFF  2E6,311
02F3C:  MOVLW  57
02F3E:  MOVLB  3
02F40:  MOVWF  x12
02F42:  MOVLB  0
02F44:  CALL   1C3E
02F48:  MOVFF  2EB,311
02F4C:  MOVLW  57
02F4E:  MOVLB  3
02F50:  MOVWF  x12
02F52:  MOVLB  0
02F54:  CALL   1C3E
02F58:  MOVFF  2F0,311
02F5C:  MOVLW  57
02F5E:  MOVLB  3
02F60:  MOVWF  x12
02F62:  MOVLB  0
02F64:  CALL   1C3E
02F68:  MOVFF  3C,311
02F6C:  MOVLW  57
02F6E:  MOVLB  3
02F70:  MOVWF  x12
02F72:  MOVLB  0
02F74:  CALL   1C3E
02F78:  MOVLW  0D
02F7A:  BTFSS  F9E.4
02F7C:  BRA    2F7A
02F7E:  MOVWF  FAD
02F80:  MOVLW  0A
02F82:  BTFSS  F9E.4
02F84:  BRA    2F82
02F86:  MOVWF  FAD
....................    fprintf(PC,"SATELLITE LOG ADDRESS:%x%x%x%x\r\n",SAT_LOG>>24,SAT_LOG>>16,SAT_LOG>>8,SAT_LOG); 
02F88:  MOVFF  43,2E6
02F8C:  MOVLB  2
02F8E:  CLRF   xE7
02F90:  CLRF   xE8
02F92:  CLRF   xE9
02F94:  MOVFF  42,2EB
02F98:  MOVFF  43,2EC
02F9C:  CLRF   xED
02F9E:  CLRF   xEE
02FA0:  MOVFF  41,2F0
02FA4:  MOVFF  42,2F1
02FA8:  MOVFF  43,2F2
02FAC:  CLRF   xF3
02FAE:  MOVLW  CE
02FB0:  MOVWF  FF6
02FB2:  MOVLW  08
02FB4:  MOVWF  FF7
02FB6:  MOVLW  00
02FB8:  MOVWF  FF8
02FBA:  MOVLW  16
02FBC:  MOVLB  3
02FBE:  MOVWF  x10
02FC0:  MOVLB  0
02FC2:  CALL   1C0C
02FC6:  MOVFF  2E6,311
02FCA:  MOVLW  57
02FCC:  MOVLB  3
02FCE:  MOVWF  x12
02FD0:  MOVLB  0
02FD2:  CALL   1C3E
02FD6:  MOVFF  2EB,311
02FDA:  MOVLW  57
02FDC:  MOVLB  3
02FDE:  MOVWF  x12
02FE0:  MOVLB  0
02FE2:  CALL   1C3E
02FE6:  MOVFF  2F0,311
02FEA:  MOVLW  57
02FEC:  MOVLB  3
02FEE:  MOVWF  x12
02FF0:  MOVLB  0
02FF2:  CALL   1C3E
02FF6:  MOVFF  40,311
02FFA:  MOVLW  57
02FFC:  MOVLB  3
02FFE:  MOVWF  x12
03000:  MOVLB  0
03002:  CALL   1C3E
03006:  MOVLW  0D
03008:  BTFSS  F9E.4
0300A:  BRA    3008
0300C:  MOVWF  FAD
0300E:  MOVLW  0A
03010:  BTFSS  F9E.4
03012:  BRA    3010
03014:  MOVWF  FAD
....................    fprintf(PC,"CAM ADDRESS:%x%x%x%x\r\n",CAM_ADDRESS>>24,CAM_ADDRESS>>16,CAM_ADDRESS>>8,CAM_ADDRESS); 
03016:  MOVFF  47,2E6
0301A:  MOVLB  2
0301C:  CLRF   xE7
0301E:  CLRF   xE8
03020:  CLRF   xE9
03022:  MOVFF  46,2EB
03026:  MOVFF  47,2EC
0302A:  CLRF   xED
0302C:  CLRF   xEE
0302E:  MOVFF  45,2F0
03032:  MOVFF  46,2F1
03036:  MOVFF  47,2F2
0303A:  CLRF   xF3
0303C:  MOVLW  F0
0303E:  MOVWF  FF6
03040:  MOVLW  08
03042:  MOVWF  FF7
03044:  MOVLW  00
03046:  MOVWF  FF8
03048:  MOVLW  0C
0304A:  MOVLB  3
0304C:  MOVWF  x10
0304E:  MOVLB  0
03050:  CALL   1C0C
03054:  MOVFF  2E6,311
03058:  MOVLW  57
0305A:  MOVLB  3
0305C:  MOVWF  x12
0305E:  MOVLB  0
03060:  CALL   1C3E
03064:  MOVFF  2EB,311
03068:  MOVLW  57
0306A:  MOVLB  3
0306C:  MOVWF  x12
0306E:  MOVLB  0
03070:  CALL   1C3E
03074:  MOVFF  2F0,311
03078:  MOVLW  57
0307A:  MOVLB  3
0307C:  MOVWF  x12
0307E:  MOVLB  0
03080:  CALL   1C3E
03084:  MOVFF  44,311
03088:  MOVLW  57
0308A:  MOVLB  3
0308C:  MOVWF  x12
0308E:  MOVLB  0
03090:  CALL   1C3E
03094:  MOVLW  0D
03096:  BTFSS  F9E.4
03098:  BRA    3096
0309A:  MOVWF  FAD
0309C:  MOVLW  0A
0309E:  BTFSS  F9E.4
030A0:  BRA    309E
030A2:  MOVWF  FAD
....................    fprintf(PC,"FAB HK ADDRESS:%x%x%x%x\r\n",FAB_HK_ADDRESS>>24,FAB_HK_ADDRESS>>16,FAB_HK_ADDRESS>>8,FAB_HK_ADDRESS); 
030A4:  MOVFF  4B,2E6
030A8:  MOVLB  2
030AA:  CLRF   xE7
030AC:  CLRF   xE8
030AE:  CLRF   xE9
030B0:  MOVFF  4A,2EB
030B4:  MOVFF  4B,2EC
030B8:  CLRF   xED
030BA:  CLRF   xEE
030BC:  MOVFF  49,2F0
030C0:  MOVFF  4A,2F1
030C4:  MOVFF  4B,2F2
030C8:  CLRF   xF3
030CA:  MOVLW  08
030CC:  MOVWF  FF6
030CE:  MOVLW  09
030D0:  MOVWF  FF7
030D2:  MOVLW  00
030D4:  MOVWF  FF8
030D6:  MOVLW  0F
030D8:  MOVLB  3
030DA:  MOVWF  x10
030DC:  MOVLB  0
030DE:  CALL   1C0C
030E2:  MOVFF  2E6,311
030E6:  MOVLW  57
030E8:  MOVLB  3
030EA:  MOVWF  x12
030EC:  MOVLB  0
030EE:  CALL   1C3E
030F2:  MOVFF  2EB,311
030F6:  MOVLW  57
030F8:  MOVLB  3
030FA:  MOVWF  x12
030FC:  MOVLB  0
030FE:  CALL   1C3E
03102:  MOVFF  2F0,311
03106:  MOVLW  57
03108:  MOVLB  3
0310A:  MOVWF  x12
0310C:  MOVLB  0
0310E:  CALL   1C3E
03112:  MOVFF  48,311
03116:  MOVLW  57
03118:  MOVLB  3
0311A:  MOVWF  x12
0311C:  MOVLB  0
0311E:  CALL   1C3E
03122:  MOVLW  0D
03124:  BTFSS  F9E.4
03126:  BRA    3124
03128:  MOVWF  FAD
0312A:  MOVLW  0A
0312C:  BTFSS  F9E.4
0312E:  BRA    312C
03130:  MOVWF  FAD
....................    fprintf(PC,"FAB CW ADDRESS:%x%x%x%x\r\n",FAB_CW_ADDRESS>>24,FAB_CW_ADDRESS>>16,FAB_CW_ADDRESS>>8,FAB_CW_ADDRESS); 
03132:  MOVFF  4F,2E6
03136:  MOVLB  2
03138:  CLRF   xE7
0313A:  CLRF   xE8
0313C:  CLRF   xE9
0313E:  MOVFF  4E,2EB
03142:  MOVFF  4F,2EC
03146:  CLRF   xED
03148:  CLRF   xEE
0314A:  MOVFF  4D,2F0
0314E:  MOVFF  4E,2F1
03152:  MOVFF  4F,2F2
03156:  CLRF   xF3
03158:  MOVLW  22
0315A:  MOVWF  FF6
0315C:  MOVLW  09
0315E:  MOVWF  FF7
03160:  MOVLW  00
03162:  MOVWF  FF8
03164:  MOVLW  0F
03166:  MOVLB  3
03168:  MOVWF  x10
0316A:  MOVLB  0
0316C:  CALL   1C0C
03170:  MOVFF  2E6,311
03174:  MOVLW  57
03176:  MOVLB  3
03178:  MOVWF  x12
0317A:  MOVLB  0
0317C:  CALL   1C3E
03180:  MOVFF  2EB,311
03184:  MOVLW  57
03186:  MOVLB  3
03188:  MOVWF  x12
0318A:  MOVLB  0
0318C:  CALL   1C3E
03190:  MOVFF  2F0,311
03194:  MOVLW  57
03196:  MOVLB  3
03198:  MOVWF  x12
0319A:  MOVLB  0
0319C:  CALL   1C3E
031A0:  MOVFF  4C,311
031A4:  MOVLW  57
031A6:  MOVLB  3
031A8:  MOVWF  x12
031AA:  MOVLB  0
031AC:  CALL   1C3E
031B0:  MOVLW  0D
031B2:  BTFSS  F9E.4
031B4:  BRA    31B2
031B6:  MOVWF  FAD
031B8:  MOVLW  0A
031BA:  BTFSS  F9E.4
031BC:  BRA    31BA
031BE:  MOVWF  FAD
....................    fprintf(PC,"ADCS SENSOR ADDRESS:%x%x%x%x\r\n",ADCS_SENSOR_ADDRESS>>24,ADCS_SENSOR_ADDRESS>>16,ADCS_SENSOR_ADDRESS>>8,ADCS_SENSOR_ADDRESS); 
031C0:  MOVFF  53,2E6
031C4:  MOVLB  2
031C6:  CLRF   xE7
031C8:  CLRF   xE8
031CA:  CLRF   xE9
031CC:  MOVFF  52,2EB
031D0:  MOVFF  53,2EC
031D4:  CLRF   xED
031D6:  CLRF   xEE
031D8:  MOVFF  51,2F0
031DC:  MOVFF  52,2F1
031E0:  MOVFF  53,2F2
031E4:  CLRF   xF3
031E6:  MOVLW  3C
031E8:  MOVWF  FF6
031EA:  MOVLW  09
031EC:  MOVWF  FF7
031EE:  MOVLW  00
031F0:  MOVWF  FF8
031F2:  MOVLW  14
031F4:  MOVLB  3
031F6:  MOVWF  x10
031F8:  MOVLB  0
031FA:  CALL   1C0C
031FE:  MOVFF  2E6,311
03202:  MOVLW  57
03204:  MOVLB  3
03206:  MOVWF  x12
03208:  MOVLB  0
0320A:  CALL   1C3E
0320E:  MOVFF  2EB,311
03212:  MOVLW  57
03214:  MOVLB  3
03216:  MOVWF  x12
03218:  MOVLB  0
0321A:  CALL   1C3E
0321E:  MOVFF  2F0,311
03222:  MOVLW  57
03224:  MOVLB  3
03226:  MOVWF  x12
03228:  MOVLB  0
0322A:  CALL   1C3E
0322E:  MOVFF  50,311
03232:  MOVLW  57
03234:  MOVLB  3
03236:  MOVWF  x12
03238:  MOVLB  0
0323A:  CALL   1C3E
0323E:  MOVLW  0D
03240:  BTFSS  F9E.4
03242:  BRA    3240
03244:  MOVWF  FAD
03246:  MOVLW  0A
03248:  BTFSS  F9E.4
0324A:  BRA    3248
0324C:  MOVWF  FAD
....................    fprintf(PC,"ADCS TLE ADDRESS:%x%x%x%x\r\n",ADCS_TLE_ADDRESS>>24,ADCS_TLE_ADDRESS>>16,ADCS_TLE_ADDRESS>>8,ADCS_TLE_ADDRESS); 
0324E:  MOVFF  57,2E6
03252:  MOVLB  2
03254:  CLRF   xE7
03256:  CLRF   xE8
03258:  CLRF   xE9
0325A:  MOVFF  56,2EB
0325E:  MOVFF  57,2EC
03262:  CLRF   xED
03264:  CLRF   xEE
03266:  MOVFF  55,2F0
0326A:  MOVFF  56,2F1
0326E:  MOVFF  57,2F2
03272:  CLRF   xF3
03274:  MOVLW  5C
03276:  MOVWF  FF6
03278:  MOVLW  09
0327A:  MOVWF  FF7
0327C:  MOVLW  00
0327E:  MOVWF  FF8
03280:  MOVLW  11
03282:  MOVLB  3
03284:  MOVWF  x10
03286:  MOVLB  0
03288:  CALL   1C0C
0328C:  MOVFF  2E6,311
03290:  MOVLW  57
03292:  MOVLB  3
03294:  MOVWF  x12
03296:  MOVLB  0
03298:  CALL   1C3E
0329C:  MOVFF  2EB,311
032A0:  MOVLW  57
032A2:  MOVLB  3
032A4:  MOVWF  x12
032A6:  MOVLB  0
032A8:  CALL   1C3E
032AC:  MOVFF  2F0,311
032B0:  MOVLW  57
032B2:  MOVLB  3
032B4:  MOVWF  x12
032B6:  MOVLB  0
032B8:  CALL   1C3E
032BC:  MOVFF  54,311
032C0:  MOVLW  57
032C2:  MOVLB  3
032C4:  MOVWF  x12
032C6:  MOVLB  0
032C8:  CALL   1C3E
032CC:  MOVLW  0D
032CE:  BTFSS  F9E.4
032D0:  BRA    32CE
032D2:  MOVWF  FAD
032D4:  MOVLW  0A
032D6:  BTFSS  F9E.4
032D8:  BRA    32D6
032DA:  MOVWF  FAD
....................    fprintf(PC,"MISSION BOSS ADDRESS:%x%x%x%x\r\n",DC_STATUS_ADDRESS>>24,DC_STATUS_ADDRESS>>16,DC_STATUS_ADDRESS>>8,DC_STATUS_ADDRESS); 
032DC:  MOVFF  5B,2E6
032E0:  MOVLB  2
032E2:  CLRF   xE7
032E4:  CLRF   xE8
032E6:  CLRF   xE9
032E8:  MOVFF  5A,2EB
032EC:  MOVFF  5B,2EC
032F0:  CLRF   xED
032F2:  CLRF   xEE
032F4:  MOVFF  59,2F0
032F8:  MOVFF  5A,2F1
032FC:  MOVFF  5B,2F2
03300:  CLRF   xF3
03302:  MOVLW  78
03304:  MOVWF  FF6
03306:  MOVLW  09
03308:  MOVWF  FF7
0330A:  MOVLW  00
0330C:  MOVWF  FF8
0330E:  MOVLW  15
03310:  MOVLB  3
03312:  MOVWF  x10
03314:  MOVLB  0
03316:  CALL   1C0C
0331A:  MOVFF  2E6,311
0331E:  MOVLW  57
03320:  MOVLB  3
03322:  MOVWF  x12
03324:  MOVLB  0
03326:  CALL   1C3E
0332A:  MOVFF  2EB,311
0332E:  MOVLW  57
03330:  MOVLB  3
03332:  MOVWF  x12
03334:  MOVLB  0
03336:  CALL   1C3E
0333A:  MOVFF  2F0,311
0333E:  MOVLW  57
03340:  MOVLB  3
03342:  MOVWF  x12
03344:  MOVLB  0
03346:  CALL   1C3E
0334A:  MOVFF  58,311
0334E:  MOVLW  57
03350:  MOVLB  3
03352:  MOVWF  x12
03354:  MOVLB  0
03356:  CALL   1C3E
0335A:  MOVLW  0D
0335C:  BTFSS  F9E.4
0335E:  BRA    335C
03360:  MOVWF  FAD
03362:  MOVLW  0A
03364:  BTFSS  F9E.4
03366:  BRA    3364
03368:  MOVWF  FAD
....................    fprintf(PC,"HIGH SAMP HK ADDERSS:%x%x%x%x\r\n",HIGH_SAMP_HK_ADDRESS>>24,HIGH_SAMP_HK_ADDRESS>>16,HIGH_SAMP_HK_ADDRESS>>8,HIGH_SAMP_HK_ADDRESS); 
0336A:  MOVFF  5F,2E6
0336E:  MOVLB  2
03370:  CLRF   xE7
03372:  CLRF   xE8
03374:  CLRF   xE9
03376:  MOVFF  5E,2EB
0337A:  MOVFF  5F,2EC
0337E:  CLRF   xED
03380:  CLRF   xEE
03382:  MOVFF  5D,2F0
03386:  MOVFF  5E,2F1
0338A:  MOVFF  5F,2F2
0338E:  CLRF   xF3
03390:  MOVLW  98
03392:  MOVWF  FF6
03394:  MOVLW  09
03396:  MOVWF  FF7
03398:  MOVLW  00
0339A:  MOVWF  FF8
0339C:  MOVLW  15
0339E:  MOVLB  3
033A0:  MOVWF  x10
033A2:  MOVLB  0
033A4:  CALL   1C0C
033A8:  MOVFF  2E6,311
033AC:  MOVLW  57
033AE:  MOVLB  3
033B0:  MOVWF  x12
033B2:  MOVLB  0
033B4:  CALL   1C3E
033B8:  MOVFF  2EB,311
033BC:  MOVLW  57
033BE:  MOVLB  3
033C0:  MOVWF  x12
033C2:  MOVLB  0
033C4:  CALL   1C3E
033C8:  MOVFF  2F0,311
033CC:  MOVLW  57
033CE:  MOVLB  3
033D0:  MOVWF  x12
033D2:  MOVLB  0
033D4:  CALL   1C3E
033D8:  MOVFF  5C,311
033DC:  MOVLW  57
033DE:  MOVLB  3
033E0:  MOVWF  x12
033E2:  MOVLB  0
033E4:  CALL   1C3E
033E8:  MOVLW  0D
033EA:  BTFSS  F9E.4
033EC:  BRA    33EA
033EE:  MOVWF  FAD
033F0:  MOVLW  0A
033F2:  BTFSS  F9E.4
033F4:  BRA    33F2
033F6:  MOVWF  FAD
....................    fprintf(PC,"WRITE %lx TIMES\r\n",ADDRESS_WRITING_COUNTER); 
033F8:  MOVLW  B8
033FA:  MOVWF  FF6
033FC:  MOVLW  09
033FE:  MOVWF  FF7
03400:  MOVLW  00
03402:  MOVWF  FF8
03404:  MOVLW  06
03406:  MOVLB  3
03408:  MOVWF  x10
0340A:  MOVLB  0
0340C:  CALL   1C0C
03410:  MOVFF  37,311
03414:  MOVLW  57
03416:  MOVLB  3
03418:  MOVWF  x12
0341A:  MOVLB  0
0341C:  CALL   1C3E
03420:  MOVFF  36,311
03424:  MOVLW  57
03426:  MOVLB  3
03428:  MOVWF  x12
0342A:  MOVLB  0
0342C:  CALL   1C3E
03430:  MOVFF  35,311
03434:  MOVLW  57
03436:  MOVLB  3
03438:  MOVWF  x12
0343A:  MOVLB  0
0343C:  CALL   1C3E
03440:  MOVFF  34,311
03444:  MOVLW  57
03446:  MOVLB  3
03448:  MOVWF  x12
0344A:  MOVLB  0
0344C:  CALL   1C3E
03450:  MOVLW  C1
03452:  MOVWF  FF6
03454:  MOVLW  09
03456:  MOVWF  FF7
03458:  MOVLW  00
0345A:  MOVWF  FF8
0345C:  MOVLW  08
0345E:  MOVLB  3
03460:  MOVWF  x10
03462:  MOVLB  0
03464:  CALL   1C0C
....................    return; 
03468:  RETURN 0
.................... } 
....................  
.................... void ERASE_EEPROM_INFO() 
.................... { 
....................    erase_program_eeprom(FLAG_ADDRESS_EEPROM);//erase 512byte(from 0x18000 to 0x181ff) 
*
0B3E2:  BSF    FD0.6
0B3E4:  MOVFF  62,FF8
0B3E8:  MOVFF  61,FF7
0B3EC:  MOVFF  60,FF6
0B3F0:  BSF    F7F.4
0B3F2:  CALL   5D04
0B3F6:  CLRF   FF8
....................    return; 
0B3F8:  RETURN 0
.................... } 
....................  
.................... void WRITE_FLAG_to_EEPROM()                                                      //saves the flags in the EEPROM from the address 0x18000 (75%) 
.................... { 
.................... //total programming memory size is 128KB 
.................... //start writing the important flag from 75 percent of the programming memory(from the address of 96KB --> 0x18000) 
....................    int16 DATA; 
....................    DATA = (int16)BC_ATTEMPT_FLAG; 
*
05D22:  MOVLB  2
05D24:  CLRF   xEE
05D26:  MOVFF  68,2ED
....................    WRITE_PROGRAM_EEPROM(FLAG_ADDRESS_EEPROM, DATA); 
05D2A:  BSF    FD0.6
05D2C:  MOVFF  62,FF8
05D30:  MOVFF  61,FF7
05D34:  MOVFF  60,FF6
05D38:  MOVLB  0
05D3A:  RCALL  5CEE
05D3C:  MOVFF  60,FF6
05D40:  MOVFF  2ED,FF5
05D44:  TBLWT*+
05D46:  MOVFF  2EE,FF5
05D4A:  TBLWT*
05D4C:  RCALL  5D04
05D4E:  CLRF   FF8
05D50:  CLRF   FF8
....................    DATA = (int16)PASSED_DAYS; 
05D52:  MOVFF  6A,2EE
05D56:  MOVFF  69,2ED
....................    WRITE_PROGRAM_EEPROM(FLAG_ADDRESS_EEPROM+2, DATA); 
05D5A:  MOVLW  02
05D5C:  ADDWF  x60,W
05D5E:  MOVLB  2
05D60:  MOVWF  xEF
05D62:  MOVLW  00
05D64:  MOVLB  0
05D66:  ADDWFC x61,W
05D68:  MOVLB  2
05D6A:  MOVWF  xF0
05D6C:  MOVLW  00
05D6E:  MOVLB  0
05D70:  ADDWFC x62,W
05D72:  MOVLB  2
05D74:  MOVWF  xF1
05D76:  MOVLW  00
05D78:  MOVLB  0
05D7A:  ADDWFC x63,W
05D7C:  MOVLB  2
05D7E:  MOVWF  xF2
05D80:  BSF    FD0.6
05D82:  MOVFF  2F1,FF8
05D86:  MOVFF  2F0,FF7
05D8A:  MOVFF  2EF,FF6
05D8E:  MOVLB  0
05D90:  RCALL  5CEE
05D92:  MOVFF  2EF,FF6
05D96:  MOVFF  2ED,FF5
05D9A:  TBLWT*+
05D9C:  MOVFF  2EE,FF5
05DA0:  TBLWT*
05DA2:  RCALL  5D04
05DA4:  CLRF   FF8
05DA6:  CLRF   FF8
....................    DATA = (int16)RESERVE_CHECK; 
05DA8:  MOVLB  2
05DAA:  CLRF   xEE
05DAC:  MOVFF  6B,2ED
....................    WRITE_PROGRAM_EEPROM(FLAG_ADDRESS_EEPROM+4, DATA); 
05DB0:  MOVLW  04
05DB2:  MOVLB  0
05DB4:  ADDWF  x60,W
05DB6:  MOVLB  2
05DB8:  MOVWF  xEF
05DBA:  MOVLW  00
05DBC:  MOVLB  0
05DBE:  ADDWFC x61,W
05DC0:  MOVLB  2
05DC2:  MOVWF  xF0
05DC4:  MOVLW  00
05DC6:  MOVLB  0
05DC8:  ADDWFC x62,W
05DCA:  MOVLB  2
05DCC:  MOVWF  xF1
05DCE:  MOVLW  00
05DD0:  MOVLB  0
05DD2:  ADDWFC x63,W
05DD4:  MOVLB  2
05DD6:  MOVWF  xF2
05DD8:  BSF    FD0.6
05DDA:  MOVFF  2F1,FF8
05DDE:  MOVFF  2F0,FF7
05DE2:  MOVFF  2EF,FF6
05DE6:  MOVLB  0
05DE8:  RCALL  5CEE
05DEA:  MOVFF  2EF,FF6
05DEE:  MOVFF  2ED,FF5
05DF2:  TBLWT*+
05DF4:  MOVFF  2EE,FF5
05DF8:  TBLWT*
05DFA:  RCALL  5D04
05DFC:  CLRF   FF8
05DFE:  CLRF   FF8
....................    DATA = (int16)RESERVE_MIN_FLAG; 
05E00:  MOVLB  2
05E02:  CLRF   xEE
05E04:  MOVFF  6C,2ED
....................    WRITE_PROGRAM_EEPROM(FLAG_ADDRESS_EEPROM+6, DATA); 
05E08:  MOVLW  06
05E0A:  MOVLB  0
05E0C:  ADDWF  x60,W
05E0E:  MOVLB  2
05E10:  MOVWF  xEF
05E12:  MOVLW  00
05E14:  MOVLB  0
05E16:  ADDWFC x61,W
05E18:  MOVLB  2
05E1A:  MOVWF  xF0
05E1C:  MOVLW  00
05E1E:  MOVLB  0
05E20:  ADDWFC x62,W
05E22:  MOVLB  2
05E24:  MOVWF  xF1
05E26:  MOVLW  00
05E28:  MOVLB  0
05E2A:  ADDWFC x63,W
05E2C:  MOVLB  2
05E2E:  MOVWF  xF2
05E30:  BSF    FD0.6
05E32:  MOVFF  2F1,FF8
05E36:  MOVFF  2F0,FF7
05E3A:  MOVFF  2EF,FF6
05E3E:  MOVLB  0
05E40:  RCALL  5CEE
05E42:  MOVFF  2EF,FF6
05E46:  MOVFF  2ED,FF5
05E4A:  TBLWT*+
05E4C:  MOVFF  2EE,FF5
05E50:  TBLWT*
05E52:  RCALL  5D04
05E54:  CLRF   FF8
05E56:  CLRF   FF8
....................    DATA = (int16)RESERVE_TARGET_FLAG; 
05E58:  MOVLB  2
05E5A:  CLRF   xEE
05E5C:  MOVFF  6D,2ED
....................    WRITE_PROGRAM_EEPROM(FLAG_ADDRESS_EEPROM+8, DATA); 
05E60:  MOVLW  08
05E62:  MOVLB  0
05E64:  ADDWF  x60,W
05E66:  MOVLB  2
05E68:  MOVWF  xEF
05E6A:  MOVLW  00
05E6C:  MOVLB  0
05E6E:  ADDWFC x61,W
05E70:  MOVLB  2
05E72:  MOVWF  xF0
05E74:  MOVLW  00
05E76:  MOVLB  0
05E78:  ADDWFC x62,W
05E7A:  MOVLB  2
05E7C:  MOVWF  xF1
05E7E:  MOVLW  00
05E80:  MOVLB  0
05E82:  ADDWFC x63,W
05E84:  MOVLB  2
05E86:  MOVWF  xF2
05E88:  BSF    FD0.6
05E8A:  MOVFF  2F1,FF8
05E8E:  MOVFF  2F0,FF7
05E92:  MOVFF  2EF,FF6
05E96:  MOVLB  0
05E98:  RCALL  5CEE
05E9A:  MOVFF  2EF,FF6
05E9E:  MOVFF  2ED,FF5
05EA2:  TBLWT*+
05EA4:  MOVFF  2EE,FF5
05EA8:  TBLWT*
05EAA:  RCALL  5D04
05EAC:  CLRF   FF8
05EAE:  CLRF   FF8
....................    DATA = (int16)MISSION_CONTENTS; 
05EB0:  MOVLB  2
05EB2:  CLRF   xEE
05EB4:  MOVFF  6E,2ED
....................    WRITE_PROGRAM_EEPROM(FLAG_ADDRESS_EEPROM+10, DATA); 
05EB8:  MOVLW  0A
05EBA:  MOVLB  0
05EBC:  ADDWF  x60,W
05EBE:  MOVLB  2
05EC0:  MOVWF  xEF
05EC2:  MOVLW  00
05EC4:  MOVLB  0
05EC6:  ADDWFC x61,W
05EC8:  MOVLB  2
05ECA:  MOVWF  xF0
05ECC:  MOVLW  00
05ECE:  MOVLB  0
05ED0:  ADDWFC x62,W
05ED2:  MOVLB  2
05ED4:  MOVWF  xF1
05ED6:  MOVLW  00
05ED8:  MOVLB  0
05EDA:  ADDWFC x63,W
05EDC:  MOVLB  2
05EDE:  MOVWF  xF2
05EE0:  BSF    FD0.6
05EE2:  MOVFF  2F1,FF8
05EE6:  MOVFF  2F0,FF7
05EEA:  MOVFF  2EF,FF6
05EEE:  MOVLB  0
05EF0:  RCALL  5CEE
05EF2:  MOVFF  2EF,FF6
05EF6:  MOVFF  2ED,FF5
05EFA:  TBLWT*+
05EFC:  MOVFF  2EE,FF5
05F00:  TBLWT*
05F02:  RCALL  5D04
05F04:  CLRF   FF8
05F06:  CLRF   FF8
....................    DATA = (int16)MISSION_DETAIL; 
05F08:  MOVLB  2
05F0A:  CLRF   xEE
05F0C:  MOVFF  6F,2ED
....................    WRITE_PROGRAM_EEPROM(FLAG_ADDRESS_EEPROM+12, DATA); 
05F10:  MOVLW  0C
05F12:  MOVLB  0
05F14:  ADDWF  x60,W
05F16:  MOVLB  2
05F18:  MOVWF  xEF
05F1A:  MOVLW  00
05F1C:  MOVLB  0
05F1E:  ADDWFC x61,W
05F20:  MOVLB  2
05F22:  MOVWF  xF0
05F24:  MOVLW  00
05F26:  MOVLB  0
05F28:  ADDWFC x62,W
05F2A:  MOVLB  2
05F2C:  MOVWF  xF1
05F2E:  MOVLW  00
05F30:  MOVLB  0
05F32:  ADDWFC x63,W
05F34:  MOVLB  2
05F36:  MOVWF  xF2
05F38:  BSF    FD0.6
05F3A:  MOVFF  2F1,FF8
05F3E:  MOVFF  2F0,FF7
05F42:  MOVFF  2EF,FF6
05F46:  MOVLB  0
05F48:  RCALL  5CEE
05F4A:  MOVFF  2EF,FF6
05F4E:  MOVFF  2ED,FF5
05F52:  TBLWT*+
05F54:  MOVFF  2EE,FF5
05F58:  TBLWT*
05F5A:  RCALL  5D04
05F5C:  CLRF   FF8
05F5E:  CLRF   FF8
....................    DATA = (int16)Kill_FLAG_MAIN; 
05F60:  MOVLB  2
05F62:  CLRF   xEE
05F64:  MOVFF  75,2ED
....................    WRITE_PROGRAM_EEPROM(FLAG_ADDRESS_EEPROM+14, DATA); 
05F68:  MOVLW  0E
05F6A:  MOVLB  0
05F6C:  ADDWF  x60,W
05F6E:  MOVLB  2
05F70:  MOVWF  xEF
05F72:  MOVLW  00
05F74:  MOVLB  0
05F76:  ADDWFC x61,W
05F78:  MOVLB  2
05F7A:  MOVWF  xF0
05F7C:  MOVLW  00
05F7E:  MOVLB  0
05F80:  ADDWFC x62,W
05F82:  MOVLB  2
05F84:  MOVWF  xF1
05F86:  MOVLW  00
05F88:  MOVLB  0
05F8A:  ADDWFC x63,W
05F8C:  MOVLB  2
05F8E:  MOVWF  xF2
05F90:  BSF    FD0.6
05F92:  MOVFF  2F1,FF8
05F96:  MOVFF  2F0,FF7
05F9A:  MOVFF  2EF,FF6
05F9E:  MOVLB  0
05FA0:  RCALL  5CEE
05FA2:  MOVFF  2EF,FF6
05FA6:  MOVFF  2ED,FF5
05FAA:  TBLWT*+
05FAC:  MOVFF  2EE,FF5
05FB0:  TBLWT*
05FB2:  RCALL  5D04
05FB4:  CLRF   FF8
05FB6:  CLRF   FF8
....................    DATA = (int16)Kill_FLAG_FAB; 
05FB8:  MOVLB  2
05FBA:  CLRF   xEE
05FBC:  MOVFF  76,2ED
....................    WRITE_PROGRAM_EEPROM(FLAG_ADDRESS_EEPROM+16, DATA); 
05FC0:  MOVLW  10
05FC2:  MOVLB  0
05FC4:  ADDWF  x60,W
05FC6:  MOVLB  2
05FC8:  MOVWF  xEF
05FCA:  MOVLW  00
05FCC:  MOVLB  0
05FCE:  ADDWFC x61,W
05FD0:  MOVLB  2
05FD2:  MOVWF  xF0
05FD4:  MOVLW  00
05FD6:  MOVLB  0
05FD8:  ADDWFC x62,W
05FDA:  MOVLB  2
05FDC:  MOVWF  xF1
05FDE:  MOVLW  00
05FE0:  MOVLB  0
05FE2:  ADDWFC x63,W
05FE4:  MOVLB  2
05FE6:  MOVWF  xF2
05FE8:  BSF    FD0.6
05FEA:  MOVFF  2F1,FF8
05FEE:  MOVFF  2F0,FF7
05FF2:  MOVFF  2EF,FF6
05FF6:  MOVLB  0
05FF8:  RCALL  5CEE
05FFA:  MOVFF  2EF,FF6
05FFE:  MOVFF  2ED,FF5
06002:  TBLWT*+
06004:  MOVFF  2EE,FF5
06008:  TBLWT*
0600A:  RCALL  5D04
0600C:  CLRF   FF8
0600E:  CLRF   FF8
....................    DATA = (int16)FIRST_HSSC_DONE; 
06010:  MOVLB  2
06012:  CLRF   xEE
06014:  MOVFF  77,2ED
....................    WRITE_PROGRAM_EEPROM(FLAG_ADDRESS_EEPROM+18, DATA); 
06018:  MOVLW  12
0601A:  MOVLB  0
0601C:  ADDWF  x60,W
0601E:  MOVLB  2
06020:  MOVWF  xEF
06022:  MOVLW  00
06024:  MOVLB  0
06026:  ADDWFC x61,W
06028:  MOVLB  2
0602A:  MOVWF  xF0
0602C:  MOVLW  00
0602E:  MOVLB  0
06030:  ADDWFC x62,W
06032:  MOVLB  2
06034:  MOVWF  xF1
06036:  MOVLW  00
06038:  MOVLB  0
0603A:  ADDWFC x63,W
0603C:  MOVLB  2
0603E:  MOVWF  xF2
06040:  BSF    FD0.6
06042:  MOVFF  2F1,FF8
06046:  MOVFF  2F0,FF7
0604A:  MOVFF  2EF,FF6
0604E:  MOVLB  0
06050:  RCALL  5CEE
06052:  MOVFF  2EF,FF6
06056:  MOVFF  2ED,FF5
0605A:  TBLWT*+
0605C:  MOVFF  2EE,FF5
06060:  TBLWT*
06062:  RCALL  5D04
06064:  CLRF   FF8
06066:  CLRF   FF8
....................    DATA = (int16)AUTO_CAM_DONE; 
06068:  MOVLB  2
0606A:  CLRF   xEE
0606C:  MOVFF  78,2ED
....................    WRITE_PROGRAM_EEPROM(FLAG_ADDRESS_EEPROM+20, DATA); 
06070:  MOVLW  14
06072:  MOVLB  0
06074:  ADDWF  x60,W
06076:  MOVLB  2
06078:  MOVWF  xEF
0607A:  MOVLW  00
0607C:  MOVLB  0
0607E:  ADDWFC x61,W
06080:  MOVLB  2
06082:  MOVWF  xF0
06084:  MOVLW  00
06086:  MOVLB  0
06088:  ADDWFC x62,W
0608A:  MOVLB  2
0608C:  MOVWF  xF1
0608E:  MOVLW  00
06090:  MOVLB  0
06092:  ADDWFC x63,W
06094:  MOVLB  2
06096:  MOVWF  xF2
06098:  BSF    FD0.6
0609A:  MOVFF  2F1,FF8
0609E:  MOVFF  2F0,FF7
060A2:  MOVFF  2EF,FF6
060A6:  MOVLB  0
060A8:  RCALL  5CEE
060AA:  MOVFF  2EF,FF6
060AE:  MOVFF  2ED,FF5
060B2:  TBLWT*+
060B4:  MOVFF  2EE,FF5
060B8:  TBLWT*
060BA:  RCALL  5D04
060BC:  CLRF   FF8
060BE:  CLRF   FF8
....................    DATA = (int16)AUTO_MBP_DONE; 
060C0:  MOVLB  2
060C2:  CLRF   xEE
060C4:  MOVFF  79,2ED
....................    WRITE_PROGRAM_EEPROM(FLAG_ADDRESS_EEPROM+22, DATA); 
060C8:  MOVLW  16
060CA:  MOVLB  0
060CC:  ADDWF  x60,W
060CE:  MOVLB  2
060D0:  MOVWF  xEF
060D2:  MOVLW  00
060D4:  MOVLB  0
060D6:  ADDWFC x61,W
060D8:  MOVLB  2
060DA:  MOVWF  xF0
060DC:  MOVLW  00
060DE:  MOVLB  0
060E0:  ADDWFC x62,W
060E2:  MOVLB  2
060E4:  MOVWF  xF1
060E6:  MOVLW  00
060E8:  MOVLB  0
060EA:  ADDWFC x63,W
060EC:  MOVLB  2
060EE:  MOVWF  xF2
060F0:  BSF    FD0.6
060F2:  MOVFF  2F1,FF8
060F6:  MOVFF  2F0,FF7
060FA:  MOVFF  2EF,FF6
060FE:  MOVLB  0
06100:  RCALL  5CEE
06102:  MOVFF  2EF,FF6
06106:  MOVFF  2ED,FF5
0610A:  TBLWT*+
0610C:  MOVFF  2EE,FF5
06110:  TBLWT*
06112:  RCALL  5D04
06114:  CLRF   FF8
06116:  CLRF   FF8
....................    DATA = (int16)AUTO_ADCS_DONE; 
06118:  MOVLB  2
0611A:  CLRF   xEE
0611C:  MOVFF  7A,2ED
....................    WRITE_PROGRAM_EEPROM(FLAG_ADDRESS_EEPROM+24, DATA); 
06120:  MOVLW  18
06122:  MOVLB  0
06124:  ADDWF  x60,W
06126:  MOVLB  2
06128:  MOVWF  xEF
0612A:  MOVLW  00
0612C:  MOVLB  0
0612E:  ADDWFC x61,W
06130:  MOVLB  2
06132:  MOVWF  xF0
06134:  MOVLW  00
06136:  MOVLB  0
06138:  ADDWFC x62,W
0613A:  MOVLB  2
0613C:  MOVWF  xF1
0613E:  MOVLW  00
06140:  MOVLB  0
06142:  ADDWFC x63,W
06144:  MOVLB  2
06146:  MOVWF  xF2
06148:  BSF    FD0.6
0614A:  MOVFF  2F1,FF8
0614E:  MOVFF  2F0,FF7
06152:  MOVFF  2EF,FF6
06156:  MOVLB  0
06158:  RCALL  5CEE
0615A:  MOVFF  2EF,FF6
0615E:  MOVFF  2ED,FF5
06162:  TBLWT*+
06164:  MOVFF  2EE,FF5
06168:  TBLWT*
0616A:  RCALL  5D04
0616C:  CLRF   FF8
0616E:  CLRF   FF8
....................    DATA = (int16)ANT_DEP_STATUS; 
06170:  MOVLB  2
06172:  CLRF   xEE
06174:  MOVFF  7B,2ED
....................    WRITE_PROGRAM_EEPROM(FLAG_ADDRESS_EEPROM+26, DATA); 
06178:  MOVLW  1A
0617A:  MOVLB  0
0617C:  ADDWF  x60,W
0617E:  MOVLB  2
06180:  MOVWF  xEF
06182:  MOVLW  00
06184:  MOVLB  0
06186:  ADDWFC x61,W
06188:  MOVLB  2
0618A:  MOVWF  xF0
0618C:  MOVLW  00
0618E:  MOVLB  0
06190:  ADDWFC x62,W
06192:  MOVLB  2
06194:  MOVWF  xF1
06196:  MOVLW  00
06198:  MOVLB  0
0619A:  ADDWFC x63,W
0619C:  MOVLB  2
0619E:  MOVWF  xF2
061A0:  BSF    FD0.6
061A2:  MOVFF  2F1,FF8
061A6:  MOVFF  2F0,FF7
061AA:  MOVFF  2EF,FF6
061AE:  MOVLB  0
061B0:  RCALL  5CEE
061B2:  MOVFF  2EF,FF6
061B6:  MOVFF  2ED,FF5
061BA:  TBLWT*+
061BC:  MOVFF  2EE,FF5
061C0:  TBLWT*
061C2:  RCALL  5D04
061C4:  CLRF   FF8
061C6:  CLRF   FF8
....................    DATA = (int16)UPLINK_SUCCESS; 
061C8:  MOVLB  2
061CA:  CLRF   xEE
061CC:  MOVFF  7C,2ED
....................    WRITE_PROGRAM_EEPROM(FLAG_ADDRESS_EEPROM+28, DATA); 
061D0:  MOVLW  1C
061D2:  MOVLB  0
061D4:  ADDWF  x60,W
061D6:  MOVLB  2
061D8:  MOVWF  xEF
061DA:  MOVLW  00
061DC:  MOVLB  0
061DE:  ADDWFC x61,W
061E0:  MOVLB  2
061E2:  MOVWF  xF0
061E4:  MOVLW  00
061E6:  MOVLB  0
061E8:  ADDWFC x62,W
061EA:  MOVLB  2
061EC:  MOVWF  xF1
061EE:  MOVLW  00
061F0:  MOVLB  0
061F2:  ADDWFC x63,W
061F4:  MOVLB  2
061F6:  MOVWF  xF2
061F8:  BSF    FD0.6
061FA:  MOVFF  2F1,FF8
061FE:  MOVFF  2F0,FF7
06202:  MOVFF  2EF,FF6
06206:  MOVLB  0
06208:  RCALL  5CEE
0620A:  MOVFF  2EF,FF6
0620E:  MOVFF  2ED,FF5
06212:  TBLWT*+
06214:  MOVFF  2EE,FF5
06218:  TBLWT*
0621A:  RCALL  5D04
0621C:  CLRF   FF8
0621E:  CLRF   FF8
....................    return; 
06220:  RETURN 0
.................... } 
.................... /* 
.................... void WRITE_AD_INFO_to_EEPROM() 
.................... { 
....................    int16 DATA; 
....................    DATA = BC_ATTEMPT_FLAG >> 16; 
....................    WRITE_PROGRAM_EEPROM(FLASH_AD_ADDRESS_EEPROM, DATA); 
....................    DATA = BC_ATTEMPT_FLAG; 
....................    WRITE_PROGRAM_EEPROM(FLASH_AD_ADDRESS_EEPROM+2, DATA); 
....................    return; 
.................... } 
.................... */ 
.................... void MAKE_FLAG_from_EEPROM()                                                     //toma de la eeprom la info de los flags y los carga en sus variables respectivas 
.................... { 
....................    if((READ_PROGRAM_EEPROM(FLAG_ADDRESS_EEPROM)!=0xffff)&&(READ_PROGRAM_EEPROM(FLAG_ADDRESS_EEPROM+26)!=0xffff)) 
*
0207C:  MOVFF  FF2,2DC
02080:  BCF    FF2.7
02082:  MOVFF  62,FF8
02086:  MOVFF  61,FF7
0208A:  MOVFF  60,FF6
0208E:  TBLRD*+
02090:  MOVF   FF5,W
02092:  TBLRD*
02094:  MOVFF  FF5,03
02098:  CLRF   FF8
0209A:  MOVLB  2
0209C:  BTFSC  xDC.7
0209E:  BSF    FF2.7
020A0:  MOVWF  xDC
020A2:  MOVFF  03,2DD
020A6:  INCFSZ xDC,W
020A8:  BRA    20B0
020AA:  INCFSZ xDD,W
020AC:  BRA    20B0
020AE:  BRA    2542
020B0:  MOVLW  1A
020B2:  MOVLB  0
020B4:  ADDWF  x60,W
020B6:  MOVLB  2
020B8:  MOVWF  xDC
020BA:  MOVLW  00
020BC:  MOVLB  0
020BE:  ADDWFC x61,W
020C0:  MOVLB  2
020C2:  MOVWF  xDD
020C4:  MOVLW  00
020C6:  MOVLB  0
020C8:  ADDWFC x62,W
020CA:  MOVLB  2
020CC:  MOVWF  xDE
020CE:  MOVLW  00
020D0:  MOVLB  0
020D2:  ADDWFC x63,W
020D4:  MOVLB  2
020D6:  MOVWF  xDF
020D8:  MOVFF  FF2,2E0
020DC:  BCF    FF2.7
020DE:  MOVFF  2DE,FF8
020E2:  MOVFF  2DD,FF7
020E6:  MOVFF  2DC,FF6
020EA:  TBLRD*+
020EC:  MOVF   FF5,W
020EE:  TBLRD*
020F0:  MOVFF  FF5,03
020F4:  CLRF   FF8
020F6:  BTFSC  xE0.7
020F8:  BSF    FF2.7
020FA:  MOVWF  xDC
020FC:  MOVFF  03,2DD
02100:  INCFSZ xDC,W
02102:  BRA    210A
02104:  INCFSZ xDD,W
02106:  BRA    210A
02108:  BRA    2542
....................    { 
....................       BC_ATTEMPT_FLAG = (int8)READ_PROGRAM_EEPROM(FLAG_ADDRESS_EEPROM); 
0210A:  MOVFF  FF2,2DC
0210E:  BCF    FF2.7
02110:  MOVFF  62,FF8
02114:  MOVFF  61,FF7
02118:  MOVFF  60,FF6
0211C:  TBLRD*+
0211E:  MOVF   FF5,W
02120:  TBLRD*
02122:  MOVFF  FF5,03
02126:  CLRF   FF8
02128:  BTFSC  xDC.7
0212A:  BSF    FF2.7
0212C:  MOVLB  0
0212E:  MOVWF  x68
....................       PASSED_DAYS = (int16)READ_PROGRAM_EEPROM(FLAG_ADDRESS_EEPROM+2); 
02130:  MOVLW  02
02132:  ADDWF  x60,W
02134:  MOVLB  2
02136:  MOVWF  xDC
02138:  MOVLW  00
0213A:  MOVLB  0
0213C:  ADDWFC x61,W
0213E:  MOVLB  2
02140:  MOVWF  xDD
02142:  MOVLW  00
02144:  MOVLB  0
02146:  ADDWFC x62,W
02148:  MOVLB  2
0214A:  MOVWF  xDE
0214C:  MOVLW  00
0214E:  MOVLB  0
02150:  ADDWFC x63,W
02152:  MOVLB  2
02154:  MOVFF  FF2,2E0
02158:  BCF    FF2.7
0215A:  MOVFF  2DE,FF8
0215E:  MOVFF  2DD,FF7
02162:  MOVFF  2DC,FF6
02166:  TBLRD*+
02168:  MOVF   FF5,W
0216A:  TBLRD*
0216C:  MOVFF  FF5,03
02170:  CLRF   FF8
02172:  BTFSC  xE0.7
02174:  BSF    FF2.7
02176:  MOVLB  0
02178:  MOVWF  x69
0217A:  MOVFF  03,6A
....................       RESERVE_CHECK = (int8)READ_PROGRAM_EEPROM(FLAG_ADDRESS_EEPROM+4); 
0217E:  MOVLW  04
02180:  ADDWF  x60,W
02182:  MOVLB  2
02184:  MOVWF  xDC
02186:  MOVLW  00
02188:  MOVLB  0
0218A:  ADDWFC x61,W
0218C:  MOVLB  2
0218E:  MOVWF  xDD
02190:  MOVLW  00
02192:  MOVLB  0
02194:  ADDWFC x62,W
02196:  MOVLB  2
02198:  MOVWF  xDE
0219A:  MOVLW  00
0219C:  MOVLB  0
0219E:  ADDWFC x63,W
021A0:  MOVLB  2
021A2:  MOVFF  FF2,2E0
021A6:  BCF    FF2.7
021A8:  MOVFF  2DE,FF8
021AC:  MOVFF  2DD,FF7
021B0:  MOVFF  2DC,FF6
021B4:  TBLRD*+
021B6:  MOVF   FF5,W
021B8:  TBLRD*
021BA:  MOVFF  FF5,03
021BE:  CLRF   FF8
021C0:  BTFSC  xE0.7
021C2:  BSF    FF2.7
021C4:  MOVLB  0
021C6:  MOVWF  x6B
....................       RESERVE_MIN_FLAG = (int8)READ_PROGRAM_EEPROM(FLAG_ADDRESS_EEPROM+6); 
021C8:  MOVLW  06
021CA:  ADDWF  x60,W
021CC:  MOVLB  2
021CE:  MOVWF  xDC
021D0:  MOVLW  00
021D2:  MOVLB  0
021D4:  ADDWFC x61,W
021D6:  MOVLB  2
021D8:  MOVWF  xDD
021DA:  MOVLW  00
021DC:  MOVLB  0
021DE:  ADDWFC x62,W
021E0:  MOVLB  2
021E2:  MOVWF  xDE
021E4:  MOVLW  00
021E6:  MOVLB  0
021E8:  ADDWFC x63,W
021EA:  MOVLB  2
021EC:  MOVFF  FF2,2E0
021F0:  BCF    FF2.7
021F2:  MOVFF  2DE,FF8
021F6:  MOVFF  2DD,FF7
021FA:  MOVFF  2DC,FF6
021FE:  TBLRD*+
02200:  MOVF   FF5,W
02202:  TBLRD*
02204:  MOVFF  FF5,03
02208:  CLRF   FF8
0220A:  BTFSC  xE0.7
0220C:  BSF    FF2.7
0220E:  MOVLB  0
02210:  MOVWF  x6C
....................       RESERVE_TARGET_FLAG = (int8)READ_PROGRAM_EEPROM(FLAG_ADDRESS_EEPROM+8); 
02212:  MOVLW  08
02214:  ADDWF  x60,W
02216:  MOVLB  2
02218:  MOVWF  xDC
0221A:  MOVLW  00
0221C:  MOVLB  0
0221E:  ADDWFC x61,W
02220:  MOVLB  2
02222:  MOVWF  xDD
02224:  MOVLW  00
02226:  MOVLB  0
02228:  ADDWFC x62,W
0222A:  MOVLB  2
0222C:  MOVWF  xDE
0222E:  MOVLW  00
02230:  MOVLB  0
02232:  ADDWFC x63,W
02234:  MOVLB  2
02236:  MOVFF  FF2,2E0
0223A:  BCF    FF2.7
0223C:  MOVFF  2DE,FF8
02240:  MOVFF  2DD,FF7
02244:  MOVFF  2DC,FF6
02248:  TBLRD*+
0224A:  MOVF   FF5,W
0224C:  TBLRD*
0224E:  MOVFF  FF5,03
02252:  CLRF   FF8
02254:  BTFSC  xE0.7
02256:  BSF    FF2.7
02258:  MOVLB  0
0225A:  MOVWF  x6D
....................       MISSION_CONTENTS = (int8)READ_PROGRAM_EEPROM(FLAG_ADDRESS_EEPROM+10); 
0225C:  MOVLW  0A
0225E:  ADDWF  x60,W
02260:  MOVLB  2
02262:  MOVWF  xDC
02264:  MOVLW  00
02266:  MOVLB  0
02268:  ADDWFC x61,W
0226A:  MOVLB  2
0226C:  MOVWF  xDD
0226E:  MOVLW  00
02270:  MOVLB  0
02272:  ADDWFC x62,W
02274:  MOVLB  2
02276:  MOVWF  xDE
02278:  MOVLW  00
0227A:  MOVLB  0
0227C:  ADDWFC x63,W
0227E:  MOVLB  2
02280:  MOVFF  FF2,2E0
02284:  BCF    FF2.7
02286:  MOVFF  2DE,FF8
0228A:  MOVFF  2DD,FF7
0228E:  MOVFF  2DC,FF6
02292:  TBLRD*+
02294:  MOVF   FF5,W
02296:  TBLRD*
02298:  MOVFF  FF5,03
0229C:  CLRF   FF8
0229E:  BTFSC  xE0.7
022A0:  BSF    FF2.7
022A2:  MOVLB  0
022A4:  MOVWF  x6E
....................       MISSION_DETAIL = (int8)READ_PROGRAM_EEPROM(FLAG_ADDRESS_EEPROM+12); 
022A6:  MOVLW  0C
022A8:  ADDWF  x60,W
022AA:  MOVLB  2
022AC:  MOVWF  xDC
022AE:  MOVLW  00
022B0:  MOVLB  0
022B2:  ADDWFC x61,W
022B4:  MOVLB  2
022B6:  MOVWF  xDD
022B8:  MOVLW  00
022BA:  MOVLB  0
022BC:  ADDWFC x62,W
022BE:  MOVLB  2
022C0:  MOVWF  xDE
022C2:  MOVLW  00
022C4:  MOVLB  0
022C6:  ADDWFC x63,W
022C8:  MOVLB  2
022CA:  MOVFF  FF2,2E0
022CE:  BCF    FF2.7
022D0:  MOVFF  2DE,FF8
022D4:  MOVFF  2DD,FF7
022D8:  MOVFF  2DC,FF6
022DC:  TBLRD*+
022DE:  MOVF   FF5,W
022E0:  TBLRD*
022E2:  MOVFF  FF5,03
022E6:  CLRF   FF8
022E8:  BTFSC  xE0.7
022EA:  BSF    FF2.7
022EC:  MOVLB  0
022EE:  MOVWF  x6F
....................       Kill_FLAG_MAIN = (int8)READ_PROGRAM_EEPROM(FLAG_ADDRESS_EEPROM+14); 
022F0:  MOVLW  0E
022F2:  ADDWF  x60,W
022F4:  MOVLB  2
022F6:  MOVWF  xDC
022F8:  MOVLW  00
022FA:  MOVLB  0
022FC:  ADDWFC x61,W
022FE:  MOVLB  2
02300:  MOVWF  xDD
02302:  MOVLW  00
02304:  MOVLB  0
02306:  ADDWFC x62,W
02308:  MOVLB  2
0230A:  MOVWF  xDE
0230C:  MOVLW  00
0230E:  MOVLB  0
02310:  ADDWFC x63,W
02312:  MOVLB  2
02314:  MOVFF  FF2,2E0
02318:  BCF    FF2.7
0231A:  MOVFF  2DE,FF8
0231E:  MOVFF  2DD,FF7
02322:  MOVFF  2DC,FF6
02326:  TBLRD*+
02328:  MOVF   FF5,W
0232A:  TBLRD*
0232C:  MOVFF  FF5,03
02330:  CLRF   FF8
02332:  BTFSC  xE0.7
02334:  BSF    FF2.7
02336:  MOVLB  0
02338:  MOVWF  x75
....................       Kill_FLAG_FAB = (int8)READ_PROGRAM_EEPROM(FLAG_ADDRESS_EEPROM+16); 
0233A:  MOVLW  10
0233C:  ADDWF  x60,W
0233E:  MOVLB  2
02340:  MOVWF  xDC
02342:  MOVLW  00
02344:  MOVLB  0
02346:  ADDWFC x61,W
02348:  MOVLB  2
0234A:  MOVWF  xDD
0234C:  MOVLW  00
0234E:  MOVLB  0
02350:  ADDWFC x62,W
02352:  MOVLB  2
02354:  MOVWF  xDE
02356:  MOVLW  00
02358:  MOVLB  0
0235A:  ADDWFC x63,W
0235C:  MOVLB  2
0235E:  MOVFF  FF2,2E0
02362:  BCF    FF2.7
02364:  MOVFF  2DE,FF8
02368:  MOVFF  2DD,FF7
0236C:  MOVFF  2DC,FF6
02370:  TBLRD*+
02372:  MOVF   FF5,W
02374:  TBLRD*
02376:  MOVFF  FF5,03
0237A:  CLRF   FF8
0237C:  BTFSC  xE0.7
0237E:  BSF    FF2.7
02380:  MOVLB  0
02382:  MOVWF  x76
....................       FIRST_HSSC_DONE = (int8)READ_PROGRAM_EEPROM(FLAG_ADDRESS_EEPROM+18); 
02384:  MOVLW  12
02386:  ADDWF  x60,W
02388:  MOVLB  2
0238A:  MOVWF  xDC
0238C:  MOVLW  00
0238E:  MOVLB  0
02390:  ADDWFC x61,W
02392:  MOVLB  2
02394:  MOVWF  xDD
02396:  MOVLW  00
02398:  MOVLB  0
0239A:  ADDWFC x62,W
0239C:  MOVLB  2
0239E:  MOVWF  xDE
023A0:  MOVLW  00
023A2:  MOVLB  0
023A4:  ADDWFC x63,W
023A6:  MOVLB  2
023A8:  MOVFF  FF2,2E0
023AC:  BCF    FF2.7
023AE:  MOVFF  2DE,FF8
023B2:  MOVFF  2DD,FF7
023B6:  MOVFF  2DC,FF6
023BA:  TBLRD*+
023BC:  MOVF   FF5,W
023BE:  TBLRD*
023C0:  MOVFF  FF5,03
023C4:  CLRF   FF8
023C6:  BTFSC  xE0.7
023C8:  BSF    FF2.7
023CA:  MOVLB  0
023CC:  MOVWF  x77
....................       AUTO_CAM_DONE = (int8)READ_PROGRAM_EEPROM(FLAG_ADDRESS_EEPROM+20); 
023CE:  MOVLW  14
023D0:  ADDWF  x60,W
023D2:  MOVLB  2
023D4:  MOVWF  xDC
023D6:  MOVLW  00
023D8:  MOVLB  0
023DA:  ADDWFC x61,W
023DC:  MOVLB  2
023DE:  MOVWF  xDD
023E0:  MOVLW  00
023E2:  MOVLB  0
023E4:  ADDWFC x62,W
023E6:  MOVLB  2
023E8:  MOVWF  xDE
023EA:  MOVLW  00
023EC:  MOVLB  0
023EE:  ADDWFC x63,W
023F0:  MOVLB  2
023F2:  MOVFF  FF2,2E0
023F6:  BCF    FF2.7
023F8:  MOVFF  2DE,FF8
023FC:  MOVFF  2DD,FF7
02400:  MOVFF  2DC,FF6
02404:  TBLRD*+
02406:  MOVF   FF5,W
02408:  TBLRD*
0240A:  MOVFF  FF5,03
0240E:  CLRF   FF8
02410:  BTFSC  xE0.7
02412:  BSF    FF2.7
02414:  MOVLB  0
02416:  MOVWF  x78
....................       AUTO_MBP_DONE = (int8)READ_PROGRAM_EEPROM(FLAG_ADDRESS_EEPROM+22); 
02418:  MOVLW  16
0241A:  ADDWF  x60,W
0241C:  MOVLB  2
0241E:  MOVWF  xDC
02420:  MOVLW  00
02422:  MOVLB  0
02424:  ADDWFC x61,W
02426:  MOVLB  2
02428:  MOVWF  xDD
0242A:  MOVLW  00
0242C:  MOVLB  0
0242E:  ADDWFC x62,W
02430:  MOVLB  2
02432:  MOVWF  xDE
02434:  MOVLW  00
02436:  MOVLB  0
02438:  ADDWFC x63,W
0243A:  MOVLB  2
0243C:  MOVFF  FF2,2E0
02440:  BCF    FF2.7
02442:  MOVFF  2DE,FF8
02446:  MOVFF  2DD,FF7
0244A:  MOVFF  2DC,FF6
0244E:  TBLRD*+
02450:  MOVF   FF5,W
02452:  TBLRD*
02454:  MOVFF  FF5,03
02458:  CLRF   FF8
0245A:  BTFSC  xE0.7
0245C:  BSF    FF2.7
0245E:  MOVLB  0
02460:  MOVWF  x79
....................       AUTO_ADCS_DONE = (int8)READ_PROGRAM_EEPROM(FLAG_ADDRESS_EEPROM+24); 
02462:  MOVLW  18
02464:  ADDWF  x60,W
02466:  MOVLB  2
02468:  MOVWF  xDC
0246A:  MOVLW  00
0246C:  MOVLB  0
0246E:  ADDWFC x61,W
02470:  MOVLB  2
02472:  MOVWF  xDD
02474:  MOVLW  00
02476:  MOVLB  0
02478:  ADDWFC x62,W
0247A:  MOVLB  2
0247C:  MOVWF  xDE
0247E:  MOVLW  00
02480:  MOVLB  0
02482:  ADDWFC x63,W
02484:  MOVLB  2
02486:  MOVFF  FF2,2E0
0248A:  BCF    FF2.7
0248C:  MOVFF  2DE,FF8
02490:  MOVFF  2DD,FF7
02494:  MOVFF  2DC,FF6
02498:  TBLRD*+
0249A:  MOVF   FF5,W
0249C:  TBLRD*
0249E:  MOVFF  FF5,03
024A2:  CLRF   FF8
024A4:  BTFSC  xE0.7
024A6:  BSF    FF2.7
024A8:  MOVLB  0
024AA:  MOVWF  x7A
....................       ANT_DEP_STATUS = (int8)READ_PROGRAM_EEPROM(FLAG_ADDRESS_EEPROM+26); 
024AC:  MOVLW  1A
024AE:  ADDWF  x60,W
024B0:  MOVLB  2
024B2:  MOVWF  xDC
024B4:  MOVLW  00
024B6:  MOVLB  0
024B8:  ADDWFC x61,W
024BA:  MOVLB  2
024BC:  MOVWF  xDD
024BE:  MOVLW  00
024C0:  MOVLB  0
024C2:  ADDWFC x62,W
024C4:  MOVLB  2
024C6:  MOVWF  xDE
024C8:  MOVLW  00
024CA:  MOVLB  0
024CC:  ADDWFC x63,W
024CE:  MOVLB  2
024D0:  MOVFF  FF2,2E0
024D4:  BCF    FF2.7
024D6:  MOVFF  2DE,FF8
024DA:  MOVFF  2DD,FF7
024DE:  MOVFF  2DC,FF6
024E2:  TBLRD*+
024E4:  MOVF   FF5,W
024E6:  TBLRD*
024E8:  MOVFF  FF5,03
024EC:  CLRF   FF8
024EE:  BTFSC  xE0.7
024F0:  BSF    FF2.7
024F2:  MOVLB  0
024F4:  MOVWF  x7B
....................       UPLINK_SUCCESS = (int8)READ_PROGRAM_EEPROM(FLAG_ADDRESS_EEPROM+28); 
024F6:  MOVLW  1C
024F8:  ADDWF  x60,W
024FA:  MOVLB  2
024FC:  MOVWF  xDC
024FE:  MOVLW  00
02500:  MOVLB  0
02502:  ADDWFC x61,W
02504:  MOVLB  2
02506:  MOVWF  xDD
02508:  MOVLW  00
0250A:  MOVLB  0
0250C:  ADDWFC x62,W
0250E:  MOVLB  2
02510:  MOVWF  xDE
02512:  MOVLW  00
02514:  MOVLB  0
02516:  ADDWFC x63,W
02518:  MOVLB  2
0251A:  MOVFF  FF2,2E0
0251E:  BCF    FF2.7
02520:  MOVFF  2DE,FF8
02524:  MOVFF  2DD,FF7
02528:  MOVFF  2DC,FF6
0252C:  TBLRD*+
0252E:  MOVF   FF5,W
02530:  TBLRD*
02532:  MOVFF  FF5,03
02536:  CLRF   FF8
02538:  BTFSC  xE0.7
0253A:  BSF    FF2.7
0253C:  MOVLB  0
0253E:  MOVWF  x7C
02540:  MOVLB  2
....................    } 
....................     
....................    fprintf(PC,"\r\nPASSED DAYS:%lx\r\n",PASSED_DAYS); 
02542:  MOVLW  CA
02544:  MOVWF  FF6
02546:  MOVLW  09
02548:  MOVWF  FF7
0254A:  MOVLW  00
0254C:  MOVWF  FF8
0254E:  MOVLW  0E
02550:  MOVLB  3
02552:  MOVWF  x10
02554:  MOVLB  0
02556:  CALL   1C0C
0255A:  MOVFF  6A,311
0255E:  MOVLW  57
02560:  MOVLB  3
02562:  MOVWF  x12
02564:  MOVLB  0
02566:  CALL   1C3E
0256A:  MOVFF  69,311
0256E:  MOVLW  57
02570:  MOVLB  3
02572:  MOVWF  x12
02574:  MOVLB  0
02576:  CALL   1C3E
0257A:  MOVLW  0D
0257C:  BTFSS  F9E.4
0257E:  BRA    257C
02580:  MOVWF  FAD
02582:  MOVLW  0A
02584:  BTFSS  F9E.4
02586:  BRA    2584
02588:  MOVWF  FAD
....................    fprintf(PC,"RESERVE CHECK:%x\r\n",RESERVE_CHECK); 
0258A:  MOVLW  DE
0258C:  MOVWF  FF6
0258E:  MOVLW  09
02590:  MOVWF  FF7
02592:  MOVLW  00
02594:  MOVWF  FF8
02596:  MOVLW  0E
02598:  MOVLB  3
0259A:  MOVWF  x10
0259C:  MOVLB  0
0259E:  CALL   1C0C
025A2:  MOVFF  6B,311
025A6:  MOVLW  57
025A8:  MOVLB  3
025AA:  MOVWF  x12
025AC:  MOVLB  0
025AE:  CALL   1C3E
025B2:  MOVLW  0D
025B4:  BTFSS  F9E.4
025B6:  BRA    25B4
025B8:  MOVWF  FAD
025BA:  MOVLW  0A
025BC:  BTFSS  F9E.4
025BE:  BRA    25BC
025C0:  MOVWF  FAD
....................    fprintf(PC,"Kill FLAG MAIN:%x\r\n",Kill_FLAG_MAIN); 
025C2:  MOVLW  F2
025C4:  MOVWF  FF6
025C6:  MOVLW  09
025C8:  MOVWF  FF7
025CA:  MOVLW  00
025CC:  MOVWF  FF8
025CE:  MOVLW  0F
025D0:  MOVLB  3
025D2:  MOVWF  x10
025D4:  MOVLB  0
025D6:  CALL   1C0C
025DA:  MOVFF  75,311
025DE:  MOVLW  57
025E0:  MOVLB  3
025E2:  MOVWF  x12
025E4:  MOVLB  0
025E6:  CALL   1C3E
025EA:  MOVLW  0D
025EC:  BTFSS  F9E.4
025EE:  BRA    25EC
025F0:  MOVWF  FAD
025F2:  MOVLW  0A
025F4:  BTFSS  F9E.4
025F6:  BRA    25F4
025F8:  MOVWF  FAD
....................    fprintf(PC,"Kill FLAG FAB:%x\r\n",Kill_FLAG_FAB); 
025FA:  MOVLW  06
025FC:  MOVWF  FF6
025FE:  MOVLW  0A
02600:  MOVWF  FF7
02602:  MOVLW  00
02604:  MOVWF  FF8
02606:  MOVLW  0E
02608:  MOVLB  3
0260A:  MOVWF  x10
0260C:  MOVLB  0
0260E:  CALL   1C0C
02612:  MOVFF  76,311
02616:  MOVLW  57
02618:  MOVLB  3
0261A:  MOVWF  x12
0261C:  MOVLB  0
0261E:  CALL   1C3E
02622:  MOVLW  0D
02624:  BTFSS  F9E.4
02626:  BRA    2624
02628:  MOVWF  FAD
0262A:  MOVLW  0A
0262C:  BTFSS  F9E.4
0262E:  BRA    262C
02630:  MOVWF  FAD
....................    fprintf(PC,"AUTO HIGH SAMPLING:%x\r\n",FIRST_HSSC_DONE); 
02632:  MOVLW  1A
02634:  MOVWF  FF6
02636:  MOVLW  0A
02638:  MOVWF  FF7
0263A:  MOVLW  00
0263C:  MOVWF  FF8
0263E:  MOVLW  13
02640:  MOVLB  3
02642:  MOVWF  x10
02644:  MOVLB  0
02646:  CALL   1C0C
0264A:  MOVFF  77,311
0264E:  MOVLW  57
02650:  MOVLB  3
02652:  MOVWF  x12
02654:  MOVLB  0
02656:  CALL   1C3E
0265A:  MOVLW  0D
0265C:  BTFSS  F9E.4
0265E:  BRA    265C
02660:  MOVWF  FAD
02662:  MOVLW  0A
02664:  BTFSS  F9E.4
02666:  BRA    2664
02668:  MOVWF  FAD
....................    fprintf(PC,"AUTO CAM:%x\r\n",AUTO_CAM_DONE); 
0266A:  MOVLW  32
0266C:  MOVWF  FF6
0266E:  MOVLW  0A
02670:  MOVWF  FF7
02672:  MOVLW  00
02674:  MOVWF  FF8
02676:  MOVLW  09
02678:  MOVLB  3
0267A:  MOVWF  x10
0267C:  MOVLB  0
0267E:  CALL   1C0C
02682:  MOVFF  78,311
02686:  MOVLW  57
02688:  MOVLB  3
0268A:  MOVWF  x12
0268C:  MOVLB  0
0268E:  CALL   1C3E
02692:  MOVLW  0D
02694:  BTFSS  F9E.4
02696:  BRA    2694
02698:  MOVWF  FAD
0269A:  MOVLW  0A
0269C:  BTFSS  F9E.4
0269E:  BRA    269C
026A0:  MOVWF  FAD
....................    fprintf(PC,"AUTO MBP:%x\r\n",AUTO_MBP_DONE); 
026A2:  MOVLW  40
026A4:  MOVWF  FF6
026A6:  MOVLW  0A
026A8:  MOVWF  FF7
026AA:  MOVLW  00
026AC:  MOVWF  FF8
026AE:  MOVLW  09
026B0:  MOVLB  3
026B2:  MOVWF  x10
026B4:  MOVLB  0
026B6:  CALL   1C0C
026BA:  MOVFF  79,311
026BE:  MOVLW  57
026C0:  MOVLB  3
026C2:  MOVWF  x12
026C4:  MOVLB  0
026C6:  CALL   1C3E
026CA:  MOVLW  0D
026CC:  BTFSS  F9E.4
026CE:  BRA    26CC
026D0:  MOVWF  FAD
026D2:  MOVLW  0A
026D4:  BTFSS  F9E.4
026D6:  BRA    26D4
026D8:  MOVWF  FAD
....................    fprintf(PC,"AUTO ADCS:%x\r\n",AUTO_ADCS_DONE); 
026DA:  MOVLW  4E
026DC:  MOVWF  FF6
026DE:  MOVLW  0A
026E0:  MOVWF  FF7
026E2:  MOVLW  00
026E4:  MOVWF  FF8
026E6:  MOVLW  0A
026E8:  MOVLB  3
026EA:  MOVWF  x10
026EC:  MOVLB  0
026EE:  CALL   1C0C
026F2:  MOVFF  7A,311
026F6:  MOVLW  57
026F8:  MOVLB  3
026FA:  MOVWF  x12
026FC:  MOVLB  0
026FE:  CALL   1C3E
02702:  MOVLW  0D
02704:  BTFSS  F9E.4
02706:  BRA    2704
02708:  MOVWF  FAD
0270A:  MOVLW  0A
0270C:  BTFSS  F9E.4
0270E:  BRA    270C
02710:  MOVWF  FAD
....................    fprintf(PC,"ANTENNA DEPLOY:%x\r\n",ANT_DEP_STATUS); 
02712:  MOVLW  5E
02714:  MOVWF  FF6
02716:  MOVLW  0A
02718:  MOVWF  FF7
0271A:  MOVLW  00
0271C:  MOVWF  FF8
0271E:  MOVLW  0F
02720:  MOVLB  3
02722:  MOVWF  x10
02724:  MOVLB  0
02726:  CALL   1C0C
0272A:  MOVFF  7B,311
0272E:  MOVLW  57
02730:  MOVLB  3
02732:  MOVWF  x12
02734:  MOVLB  0
02736:  CALL   1C3E
0273A:  MOVLW  0D
0273C:  BTFSS  F9E.4
0273E:  BRA    273C
02740:  MOVWF  FAD
02742:  MOVLW  0A
02744:  BTFSS  F9E.4
02746:  BRA    2744
02748:  MOVWF  FAD
....................    fprintf(PC,"UPLINK SUCCESS:%x\r\n\r\n",UPLINK_SUCCESS); 
0274A:  MOVLW  72
0274C:  MOVWF  FF6
0274E:  MOVLW  0A
02750:  MOVWF  FF7
02752:  MOVLW  00
02754:  MOVWF  FF8
02756:  MOVLW  0F
02758:  MOVLB  3
0275A:  MOVWF  x10
0275C:  MOVLB  0
0275E:  CALL   1C0C
02762:  MOVFF  7C,311
02766:  MOVLW  57
02768:  MOVLB  3
0276A:  MOVWF  x12
0276C:  MOVLB  0
0276E:  CALL   1C3E
02772:  MOVLW  83
02774:  MOVWF  FF6
02776:  MOVLW  0A
02778:  MOVWF  FF7
0277A:  MOVLW  00
0277C:  MOVWF  FF8
0277E:  MOVLW  04
02780:  MOVLB  3
02782:  MOVWF  x10
02784:  MOVLB  0
02786:  CALL   1C0C
....................     
....................    return; 
0278A:  GOTO   2802 (RETURN)
.................... } 
....................  
.................... void TAKE_AD_INFO_from_EEPROM()                                                  //Reads address data from de program memory 
*
019A6:  MOVFF  FF2,2E7
019AA:  BCF    FF2.7
019AC:  MOVFF  66,FF8
019B0:  MOVFF  65,FF7
019B4:  MOVFF  64,FF6
019B8:  TBLRD*+
019BA:  MOVF   FF5,W
019BC:  TBLRD*
019BE:  MOVFF  FF5,03
019C2:  CLRF   FF8
019C4:  MOVLB  2
019C6:  BTFSC  xE7.7
019C8:  BSF    FF2.7
019CA:  MOVWF  xDF
019CC:  MOVFF  03,2E0
019D0:  MOVLW  02
019D2:  MOVLB  0
019D4:  ADDWF  x64,W
019D6:  MOVLB  2
019D8:  MOVWF  xE7
019DA:  MOVLW  00
019DC:  MOVLB  0
019DE:  ADDWFC x65,W
019E0:  MOVLB  2
019E2:  MOVWF  xE8
019E4:  MOVLW  00
019E6:  MOVLB  0
019E8:  ADDWFC x66,W
019EA:  MOVLB  2
019EC:  MOVWF  xE9
019EE:  MOVLW  00
019F0:  MOVLB  0
019F2:  ADDWFC x67,W
019F4:  MOVLB  2
019F6:  MOVWF  xEA
019F8:  MOVFF  FF2,2EB
019FC:  BCF    FF2.7
019FE:  MOVFF  2E9,FF8
01A02:  MOVFF  2E8,FF7
01A06:  MOVFF  2E7,FF6
01A0A:  TBLRD*+
01A0C:  MOVF   FF5,W
01A0E:  TBLRD*
01A10:  MOVFF  FF5,03
01A14:  CLRF   FF8
01A16:  BTFSC  xEB.7
01A18:  BSF    FF2.7
01A1A:  MOVWF  xE1
01A1C:  MOVFF  03,2E2
01A20:  CLRF   xE7
01A22:  CLRF   xE8
01A24:  CLRF   02
01A26:  CLRF   03
01A28:  MOVF   xE1,W
01A2A:  IORWF  xE7,W
01A2C:  MOVWF  xE3
01A2E:  MOVF   xE2,W
01A30:  IORWF  xE8,W
01A32:  MOVWF  xE4
01A34:  MOVF   02,W
01A36:  IORWF  xDF,W
01A38:  MOVWF  xE5
01A3A:  MOVF   03,W
01A3C:  IORWF  xE0,W
01A3E:  MOVWF  xE6
.................... { 
....................    int16 DATA_high = READ_PROGRAM_EEPROM(FLASH_AD_ADDRESS_EEPROM);                
....................    int16 DATA_low = READ_PROGRAM_EEPROM(FLASH_AD_ADDRESS_EEPROM+2); 
....................    int32 DATA = (((int32)DATA_high<<16) | (int32)DATA_low); 
....................    if(DATA != 0xffffffff) 
01A40:  INCFSZ xE3,W
01A42:  BRA    1A52
01A44:  INCFSZ xE4,W
01A46:  BRA    1A52
01A48:  INCFSZ xE5,W
01A4A:  BRA    1A52
01A4C:  INCFSZ xE6,W
01A4E:  BRA    1A52
01A50:  BRA    1A62
....................    { 
....................       ADD_INFO_ADDRESS = DATA;                                                    
01A52:  MOVFF  2E6,33
01A56:  MOVFF  2E5,32
01A5A:  MOVFF  2E4,31
01A5E:  MOVFF  2E3,30
....................    } 
....................    return; 
01A62:  MOVLB  0
01A64:  GOTO   1CC8 (RETURN)
.................... } 
....................  
.................... void STORE_FLAG_INFO()                                                           //save flag data to flash memory 
.................... { 
....................    flag_info_bffr[0] = BC_ATTEMPT_FLAG; 
*
05B0E:  MOVFF  68,121
....................    flag_info_bffr[1] = PASSED_DAYS >> 8; 
05B12:  MOVFF  6A,122
....................    flag_info_bffr[2] = PASSED_DAYS; 
05B16:  MOVFF  69,123
....................    flag_info_bffr[3] = RESERVE_CHECK; 
05B1A:  MOVFF  6B,124
....................    flag_info_bffr[4] = RESERVE_TARGET_FLAG; 
05B1E:  MOVFF  6D,125
....................    flag_info_bffr[5] = RESERVE_MIN_FLAG; 
05B22:  MOVFF  6C,126
....................    flag_info_bffr[6] = MISSION_CONTENTS; 
05B26:  MOVFF  6E,127
....................    flag_info_bffr[7] = MISSION_DETAIL; 
05B2A:  MOVFF  6F,128
....................    flag_info_bffr[8] = Kill_FLAG_MAIN; 
05B2E:  MOVFF  75,129
....................    flag_info_bffr[9] = Kill_FLAG_FAB; 
05B32:  MOVFF  76,12A
....................    flag_info_bffr[10] = FIRST_HSSC_DONE; 
05B36:  MOVFF  77,12B
....................    flag_info_bffr[11] = AUTO_CAM_DONE; 
05B3A:  MOVFF  78,12C
....................    flag_info_bffr[12] = AUTO_MBP_DONE; 
05B3E:  MOVFF  79,12D
....................    flag_info_bffr[13] = AUTO_ADCS_DONE; 
05B42:  MOVFF  7A,12E
....................    flag_info_bffr[14] = ANT_DEP_STATUS; 
05B46:  MOVFF  7B,12F
....................    flag_info_bffr[15] = UPLINK_SUCCESS; 
05B4A:  MOVFF  7C,130
....................     
....................    output_low(PIN_A5);                                                           //CAM_MUX MAINSIDE 
05B4E:  BCF    F92.5
05B50:  BCF    F89.5
....................    output_low(PIN_C4);                                                           //COM_MUX MAINSIDE 
05B52:  BCF    F94.4
05B54:  BCF    F8B.4
....................    SUBSECTOR_4KB_ERASE_OF(FLAG_DATA_ADDRESS); 
05B56:  MOVFF  3B,313
05B5A:  MOVFF  3A,312
05B5E:  MOVFF  39,311
05B62:  MOVFF  38,310
05B66:  CALL   346A
....................    delay_ms(200); 
05B6A:  MOVLW  C8
05B6C:  MOVLB  3
05B6E:  MOVWF  x19
05B70:  MOVLB  0
05B72:  CALL   1F78
....................    for(int8 num = 0; num < FLAG_INFO_SIZE; num++) 
05B76:  MOVLB  2
05B78:  CLRF   xED
05B7A:  MOVF   xED,W
05B7C:  SUBLW  0F
05B7E:  BNC   5BCE
....................    { 
....................       WRITE_DATA_BYTE_OF(FLAG_DATA_ADDRESS + num,flag_info_bffr[num]); 
05B80:  MOVF   xED,W
05B82:  ADDWF  38,W
05B84:  MOVWF  xEE
05B86:  MOVLW  00
05B88:  ADDWFC 39,W
05B8A:  MOVWF  xEF
05B8C:  MOVLW  00
05B8E:  ADDWFC 3A,W
05B90:  MOVWF  xF0
05B92:  MOVLW  00
05B94:  ADDWFC 3B,W
05B96:  MOVWF  xF1
05B98:  CLRF   03
05B9A:  MOVF   xED,W
05B9C:  ADDLW  21
05B9E:  MOVWF  FE9
05BA0:  MOVLW  01
05BA2:  ADDWFC 03,W
05BA4:  MOVWF  FEA
05BA6:  MOVFF  FEF,315
05BAA:  MOVFF  2F1,314
05BAE:  MOVFF  2F0,313
05BB2:  MOVFF  2EF,312
05BB6:  MOVFF  2EE,311
05BBA:  MOVLB  0
05BBC:  CALL   1A80
....................       delay_us(10); 
05BC0:  MOVLW  0D
05BC2:  MOVWF  00
05BC4:  DECFSZ 00,F
05BC6:  BRA    5BC4
05BC8:  MOVLB  2
05BCA:  INCF   xED,F
05BCC:  BRA    5B7A
....................    } 
....................    delay_ms(10); 
05BCE:  MOVLW  0A
05BD0:  MOVLB  3
05BD2:  MOVWF  x19
05BD4:  MOVLB  0
05BD6:  CALL   1F78
....................    SUBSECTOR_4KB_ERASE_SCF(FLAG_DATA_ADDRESS); 
05BDA:  MOVFF  3B,313
05BDE:  MOVFF  3A,312
05BE2:  MOVFF  39,311
05BE6:  MOVFF  38,310
05BEA:  CALL   34FC
....................    delay_ms(200); 
05BEE:  MOVLW  C8
05BF0:  MOVLB  3
05BF2:  MOVWF  x19
05BF4:  MOVLB  0
05BF6:  CALL   1F78
....................    for(num = 0; num < FLAG_INFO_SIZE; num++) 
05BFA:  MOVLB  2
05BFC:  CLRF   xED
05BFE:  MOVF   xED,W
05C00:  SUBLW  0F
05C02:  BNC   5C52
....................    { 
....................       WRITE_DATA_BYTE_SCF(FLAG_DATA_ADDRESS + num,flag_info_bffr[num]); 
05C04:  MOVF   xED,W
05C06:  ADDWF  38,W
05C08:  MOVWF  xEE
05C0A:  MOVLW  00
05C0C:  ADDWFC 39,W
05C0E:  MOVWF  xEF
05C10:  MOVLW  00
05C12:  ADDWFC 3A,W
05C14:  MOVWF  xF0
05C16:  MOVLW  00
05C18:  ADDWFC 3B,W
05C1A:  MOVWF  xF1
05C1C:  CLRF   03
05C1E:  MOVF   xED,W
05C20:  ADDLW  21
05C22:  MOVWF  FE9
05C24:  MOVLW  01
05C26:  ADDWFC 03,W
05C28:  MOVWF  FEA
05C2A:  MOVFF  FEF,315
05C2E:  MOVFF  2F1,314
05C32:  MOVFF  2F0,313
05C36:  MOVFF  2EF,312
05C3A:  MOVFF  2EE,311
05C3E:  MOVLB  0
05C40:  CALL   1B0C
....................       delay_us(10); 
05C44:  MOVLW  0D
05C46:  MOVWF  00
05C48:  DECFSZ 00,F
05C4A:  BRA    5C48
05C4C:  MOVLB  2
05C4E:  INCF   xED,F
05C50:  BRA    5BFE
....................    } 
....................    delay_ms(10); 
05C52:  MOVLW  0A
05C54:  MOVLB  3
05C56:  MOVWF  x19
05C58:  MOVLB  0
05C5A:  CALL   1F78
....................    SUBSECTOR_4KB_ERASE_SMF(FLAG_DATA_ADDRESS); 
05C5E:  MOVFF  3B,313
05C62:  MOVFF  3A,312
05C66:  MOVFF  39,311
05C6A:  MOVFF  38,310
05C6E:  CALL   358E
....................    delay_ms(200); 
05C72:  MOVLW  C8
05C74:  MOVLB  3
05C76:  MOVWF  x19
05C78:  MOVLB  0
05C7A:  CALL   1F78
....................    for(num = 0; num < FLAG_INFO_SIZE; num++) 
05C7E:  MOVLB  2
05C80:  CLRF   xED
05C82:  MOVF   xED,W
05C84:  SUBLW  0F
05C86:  BNC   5CD6
....................    { 
....................       WRITE_DATA_BYTE_SMF(FLAG_DATA_ADDRESS + num,flag_info_bffr[num]); 
05C88:  MOVF   xED,W
05C8A:  ADDWF  38,W
05C8C:  MOVWF  xEE
05C8E:  MOVLW  00
05C90:  ADDWFC 39,W
05C92:  MOVWF  xEF
05C94:  MOVLW  00
05C96:  ADDWFC 3A,W
05C98:  MOVWF  xF0
05C9A:  MOVLW  00
05C9C:  ADDWFC 3B,W
05C9E:  MOVWF  xF1
05CA0:  CLRF   03
05CA2:  MOVF   xED,W
05CA4:  ADDLW  21
05CA6:  MOVWF  FE9
05CA8:  MOVLW  01
05CAA:  ADDWFC 03,W
05CAC:  MOVWF  FEA
05CAE:  MOVFF  FEF,315
05CB2:  MOVFF  2F1,314
05CB6:  MOVFF  2F0,313
05CBA:  MOVFF  2EF,312
05CBE:  MOVFF  2EE,311
05CC2:  MOVLB  0
05CC4:  CALL   1B98
....................       delay_us(10); 
05CC8:  MOVLW  0D
05CCA:  MOVWF  00
05CCC:  DECFSZ 00,F
05CCE:  BRA    5CCC
05CD0:  MOVLB  2
05CD2:  INCF   xED,F
05CD4:  BRA    5C82
....................    } 
....................     
....................    output_high(PIN_C4);                                                          //COM_MUX COMSIDE 
05CD6:  BCF    F94.4
05CD8:  BSF    F8B.4
....................     
....................    fprintf(PC,"FLAG INFO STORED IN FLASH\r\n"); 
05CDA:  MOVLW  88
05CDC:  MOVWF  FF6
05CDE:  MOVLW  0A
05CE0:  MOVWF  FF7
05CE2:  MOVLW  00
05CE4:  MOVWF  FF8
05CE6:  MOVLB  0
05CE8:  CALL   362C
....................    return; 
05CEC:  RETURN 0
....................     
.................... } 
....................  
.................... void RESET_FLAG_DATA() 
.................... { 
....................    //BC_ATTEMPT_FLAG = 0; 
....................    PASSED_DAYS = 0; 
*
0CFCC:  CLRF   x6A
0CFCE:  CLRF   x69
....................    //RESERVE_CHECK = 0; 
....................    //RESERVE_MIN_FLAG = 0; 
....................    //RESERVE_TARGET_FLAG = 0; 
....................    //MISSION_CONTENTS = 0; 
....................    //MISSION_DETAIL = 0; 
....................    Kill_FLAG_MAIN = 0; 
0CFD0:  CLRF   x75
....................    Kill_FLAG_FAB = 0; 
0CFD2:  CLRF   x76
....................    FIRST_HSSC_DONE = 0; 
0CFD4:  CLRF   x77
....................    AUTO_CAM_DONE = 0; 
0CFD6:  CLRF   x78
....................    AUTO_MBP_DONE = 0; 
0CFD8:  CLRF   x79
....................    AUTO_ADCS_DONE = 0; 
0CFDA:  CLRF   x7A
....................    ANT_DEP_STATUS = 0; 
0CFDC:  CLRF   x7B
....................    UPLINK_SUCCESS = 0; 
0CFDE:  CLRF   x7C
....................    STORE_FLAG_INFO(); 
0CFE0:  CALL   5B0E
....................    WRITE_FLAG_to_EEPROM(); 
0CFE4:  CALL   5D22
....................    return; 
0CFE8:  GOTO   D7C4 (RETURN)
.................... } 
....................  
.................... void READ_WRTITING_ADDRESS_LOCATION()                                            //carga la variable ADD_INFO_ADDRESS, busca el dato en OF, SCF, SMF y EEPROM 
.................... {                                                                                //si no lo encuentra usa el valor inicial 
....................    int i; 
....................    int8 ad_location_bfr[4]; 
....................    output_low(PIN_C4);                                                           //Main side 
*
01C84:  BCF    F94.4
01C86:  BCF    F8B.4
....................    output_low(PIN_A5);                                                           //Main side 
01C88:  BCF    F92.5
01C8A:  BCF    F89.5
....................    if(READ_DATA_BYTE_OF(0) == 0xff)                                              //this means there is no address data in OBC Flash 
01C8C:  MOVLB  3
01C8E:  CLRF   x1A
01C90:  CLRF   x19
01C92:  CLRF   x18
01C94:  CLRF   x17
01C96:  MOVLB  0
01C98:  RCALL  17B2
01C9A:  INCFSZ 01,W
01C9C:  BRA    1DAA
....................    { 
....................       if(READ_DATA_BYTE_SCF(0) == 0xff)                                          //this means there is no address data in Shared COM Flash 
01C9E:  MOVLB  3
01CA0:  CLRF   x00
01CA2:  MOVLB  2
01CA4:  CLRF   xFF
01CA6:  CLRF   xFE
01CA8:  CLRF   xFD
01CAA:  MOVLB  0
01CAC:  RCALL  186A
01CAE:  INCFSZ 01,W
01CB0:  BRA    1D42
....................       { 
....................          if(READ_DATA_BYTE_SMF(0) == 0xff)                                       //if all memory was empty, location should be initial value 
01CB2:  MOVLB  3
01CB4:  CLRF   x00
01CB6:  MOVLB  2
01CB8:  CLRF   xFF
01CBA:  CLRF   xFE
01CBC:  CLRF   xFD
01CBE:  MOVLB  0
01CC0:  RCALL  1926
01CC2:  INCFSZ 01,W
01CC4:  BRA    1CDA
....................          { 
....................             TAKE_AD_INFO_from_EEPROM();                                          //if inside of eeprom is also empty, use the initial value 
01CC6:  BRA    19A6
....................             ad_location_bfr[0] = ADD_INFO_ADDRESS >> 24; 
01CC8:  MOVFF  33,2DB
....................             ad_location_bfr[1] = ADD_INFO_ADDRESS >> 16; 
01CCC:  MOVFF  32,2DC
....................             ad_location_bfr[2] = ADD_INFO_ADDRESS >> 8; 
01CD0:  MOVFF  31,2DD
....................             ad_location_bfr[3] = ADD_INFO_ADDRESS; 
01CD4:  MOVFF  30,2DE
....................          }else{ 
01CD8:  BRA    1D40
....................             ad_location_bfr[0] = READ_DATA_BYTE_SMF(0); 
01CDA:  MOVLB  3
01CDC:  CLRF   x00
01CDE:  MOVLB  2
01CE0:  CLRF   xFF
01CE2:  CLRF   xFE
01CE4:  CLRF   xFD
01CE6:  MOVLB  0
01CE8:  RCALL  1926
01CEA:  MOVFF  01,2DB
....................             ad_location_bfr[1] = READ_DATA_BYTE_SMF(1); 
01CEE:  MOVLB  3
01CF0:  CLRF   x00
01CF2:  MOVLB  2
01CF4:  CLRF   xFF
01CF6:  CLRF   xFE
01CF8:  MOVLW  01
01CFA:  MOVWF  xFD
01CFC:  MOVLB  0
01CFE:  RCALL  1926
01D00:  MOVFF  01,2DC
....................             ad_location_bfr[2] = READ_DATA_BYTE_SMF(2); 
01D04:  MOVLB  3
01D06:  CLRF   x00
01D08:  MOVLB  2
01D0A:  CLRF   xFF
01D0C:  CLRF   xFE
01D0E:  MOVLW  02
01D10:  MOVWF  xFD
01D12:  MOVLB  0
01D14:  RCALL  1926
01D16:  MOVFF  01,2DD
....................             ad_location_bfr[3] = READ_DATA_BYTE_SMF(3); 
01D1A:  MOVLB  3
01D1C:  CLRF   x00
01D1E:  MOVLB  2
01D20:  CLRF   xFF
01D22:  CLRF   xFE
01D24:  MOVLW  03
01D26:  MOVWF  xFD
01D28:  MOVLB  0
01D2A:  RCALL  1926
01D2C:  MOVFF  01,2DE
....................             ADD_INFO_ADDRESS = make32(ad_location_bfr[0],ad_location_bfr[1],ad_location_bfr[2],ad_location_bfr[3]); 
01D30:  MOVFF  2DB,33
01D34:  MOVFF  2DC,32
01D38:  MOVFF  2DD,31
01D3C:  MOVFF  2DE,30
....................          } 
....................       }else{ 
01D40:  BRA    1DA8
....................          ad_location_bfr[0] = READ_DATA_BYTE_SCF(0); 
01D42:  MOVLB  3
01D44:  CLRF   x00
01D46:  MOVLB  2
01D48:  CLRF   xFF
01D4A:  CLRF   xFE
01D4C:  CLRF   xFD
01D4E:  MOVLB  0
01D50:  RCALL  186A
01D52:  MOVFF  01,2DB
....................          ad_location_bfr[1] = READ_DATA_BYTE_SCF(1); 
01D56:  MOVLB  3
01D58:  CLRF   x00
01D5A:  MOVLB  2
01D5C:  CLRF   xFF
01D5E:  CLRF   xFE
01D60:  MOVLW  01
01D62:  MOVWF  xFD
01D64:  MOVLB  0
01D66:  RCALL  186A
01D68:  MOVFF  01,2DC
....................          ad_location_bfr[2] = READ_DATA_BYTE_SCF(2); 
01D6C:  MOVLB  3
01D6E:  CLRF   x00
01D70:  MOVLB  2
01D72:  CLRF   xFF
01D74:  CLRF   xFE
01D76:  MOVLW  02
01D78:  MOVWF  xFD
01D7A:  MOVLB  0
01D7C:  RCALL  186A
01D7E:  MOVFF  01,2DD
....................          ad_location_bfr[3] = READ_DATA_BYTE_SCF(3); 
01D82:  MOVLB  3
01D84:  CLRF   x00
01D86:  MOVLB  2
01D88:  CLRF   xFF
01D8A:  CLRF   xFE
01D8C:  MOVLW  03
01D8E:  MOVWF  xFD
01D90:  MOVLB  0
01D92:  RCALL  186A
01D94:  MOVFF  01,2DE
....................          ADD_INFO_ADDRESS = make32(ad_location_bfr[0],ad_location_bfr[1],ad_location_bfr[2],ad_location_bfr[3]); 
01D98:  MOVFF  2DB,33
01D9C:  MOVFF  2DC,32
01DA0:  MOVFF  2DD,31
01DA4:  MOVFF  2DE,30
....................       } 
....................    }else{ 
01DA8:  BRA    1E08
....................       ad_location_bfr[0] = READ_DATA_BYTE_OF(0); 
01DAA:  MOVLB  3
01DAC:  CLRF   x1A
01DAE:  CLRF   x19
01DB0:  CLRF   x18
01DB2:  CLRF   x17
01DB4:  MOVLB  0
01DB6:  RCALL  17B2
01DB8:  MOVFF  01,2DB
....................       ad_location_bfr[1] = READ_DATA_BYTE_OF(1); 
01DBC:  MOVLB  3
01DBE:  CLRF   x1A
01DC0:  CLRF   x19
01DC2:  CLRF   x18
01DC4:  MOVLW  01
01DC6:  MOVWF  x17
01DC8:  MOVLB  0
01DCA:  RCALL  17B2
01DCC:  MOVFF  01,2DC
....................       ad_location_bfr[2] = READ_DATA_BYTE_OF(2); 
01DD0:  MOVLB  3
01DD2:  CLRF   x1A
01DD4:  CLRF   x19
01DD6:  CLRF   x18
01DD8:  MOVLW  02
01DDA:  MOVWF  x17
01DDC:  MOVLB  0
01DDE:  RCALL  17B2
01DE0:  MOVFF  01,2DD
....................       ad_location_bfr[3] = READ_DATA_BYTE_OF(3); 
01DE4:  MOVLB  3
01DE6:  CLRF   x1A
01DE8:  CLRF   x19
01DEA:  CLRF   x18
01DEC:  MOVLW  03
01DEE:  MOVWF  x17
01DF0:  MOVLB  0
01DF2:  RCALL  17B2
01DF4:  MOVFF  01,2DE
....................       ADD_INFO_ADDRESS = make32(ad_location_bfr[0],ad_location_bfr[1],ad_location_bfr[2],ad_location_bfr[3]); 
01DF8:  MOVFF  2DB,33
01DFC:  MOVFF  2DC,32
01E00:  MOVFF  2DD,31
01E04:  MOVFF  2DE,30
....................    } 
....................     
....................    for(i = 0; i < 4; i++)                                                        //store the subsector(location) information 
01E08:  MOVLB  2
01E0A:  CLRF   xDA
01E0C:  MOVF   xDA,W
01E0E:  SUBLW  03
01E10:  BNC   1E82
....................    { 
....................       WRITE_DATA_BYTE_OF(i,ad_location_bfr[i]); 
01E12:  CLRF   03
01E14:  MOVF   xDA,W
01E16:  ADDLW  DB
01E18:  MOVWF  FE9
01E1A:  MOVLW  02
01E1C:  ADDWFC 03,W
01E1E:  MOVWF  FEA
01E20:  MOVFF  FEF,315
01E24:  MOVLB  3
01E26:  CLRF   x14
01E28:  CLRF   x13
01E2A:  CLRF   x12
01E2C:  MOVFF  2DA,311
01E30:  MOVLB  0
01E32:  RCALL  1A80
....................       WRITE_DATA_BYTE_SCF(i,ad_location_bfr[i]); 
01E34:  CLRF   03
01E36:  MOVLB  2
01E38:  MOVF   xDA,W
01E3A:  ADDLW  DB
01E3C:  MOVWF  FE9
01E3E:  MOVLW  02
01E40:  ADDWFC 03,W
01E42:  MOVWF  FEA
01E44:  MOVFF  FEF,315
01E48:  MOVLB  3
01E4A:  CLRF   x14
01E4C:  CLRF   x13
01E4E:  CLRF   x12
01E50:  MOVFF  2DA,311
01E54:  MOVLB  0
01E56:  RCALL  1B0C
....................       WRITE_DATA_BYTE_SMF(i,ad_location_bfr[i]); 
01E58:  CLRF   03
01E5A:  MOVLB  2
01E5C:  MOVF   xDA,W
01E5E:  ADDLW  DB
01E60:  MOVWF  FE9
01E62:  MOVLW  02
01E64:  ADDWFC 03,W
01E66:  MOVWF  FEA
01E68:  MOVFF  FEF,315
01E6C:  MOVLB  3
01E6E:  CLRF   x14
01E70:  CLRF   x13
01E72:  CLRF   x12
01E74:  MOVFF  2DA,311
01E78:  MOVLB  0
01E7A:  RCALL  1B98
01E7C:  MOVLB  2
01E7E:  INCF   xDA,F
01E80:  BRA    1E0C
....................    } 
....................    output_high(PIN_C4); 
01E82:  BCF    F94.4
01E84:  BSF    F8B.4
....................    fprintf(PC,"\r\naddress info location:%lx\r\n",ADD_INFO_ADDRESS); 
01E86:  MOVLW  A4
01E88:  MOVWF  FF6
01E8A:  MOVLW  0A
01E8C:  MOVWF  FF7
01E8E:  MOVLW  00
01E90:  MOVWF  FF8
01E92:  MOVLW  18
01E94:  MOVLB  3
01E96:  MOVWF  x10
01E98:  MOVLB  0
01E9A:  RCALL  1C0C
01E9C:  MOVFF  33,311
01EA0:  MOVLW  57
01EA2:  MOVLB  3
01EA4:  MOVWF  x12
01EA6:  MOVLB  0
01EA8:  RCALL  1C3E
01EAA:  MOVFF  32,311
01EAE:  MOVLW  57
01EB0:  MOVLB  3
01EB2:  MOVWF  x12
01EB4:  MOVLB  0
01EB6:  RCALL  1C3E
01EB8:  MOVFF  31,311
01EBC:  MOVLW  57
01EBE:  MOVLB  3
01EC0:  MOVWF  x12
01EC2:  MOVLB  0
01EC4:  RCALL  1C3E
01EC6:  MOVFF  30,311
01ECA:  MOVLW  57
01ECC:  MOVLB  3
01ECE:  MOVWF  x12
01ED0:  MOVLB  0
01ED2:  RCALL  1C3E
01ED4:  MOVLW  0D
01ED6:  BTFSS  F9E.4
01ED8:  BRA    1ED6
01EDA:  MOVWF  FAD
01EDC:  MOVLW  0A
01EDE:  BTFSS  F9E.4
01EE0:  BRA    1EDE
01EE2:  MOVWF  FAD
....................    return; 
01EE4:  GOTO   3F5E (RETURN)
.................... } 
....................  
.................... void CHANGE_ADDRESS_WRITING_LOCATION()                                           //cambia la direccion de escritura de address locations cuando se superan los 95.000 ciclos 
*
03656:  MOVLW  25
03658:  ADDWF  30,W
0365A:  MOVLB  3
0365C:  MOVWF  x10
0365E:  MOVLW  00
03660:  ADDWFC 31,W
03662:  MOVWF  x11
03664:  MOVLW  00
03666:  ADDWFC 32,W
03668:  MOVWF  x12
0366A:  MOVLW  00
0366C:  ADDWFC 33,W
0366E:  MOVWF  x13
03670:  MOVWF  x1A
03672:  MOVFF  312,319
03676:  MOVFF  311,318
0367A:  MOVFF  310,317
0367E:  MOVLB  0
03680:  CALL   17B2
03684:  MOVFF  01,310
03688:  MOVLW  26
0368A:  ADDWF  30,W
0368C:  MOVLB  3
0368E:  MOVWF  x11
03690:  MOVLW  00
03692:  ADDWFC 31,W
03694:  MOVWF  x12
03696:  MOVLW  00
03698:  ADDWFC 32,W
0369A:  MOVWF  x13
0369C:  MOVLW  00
0369E:  ADDWFC 33,W
036A0:  MOVWF  x14
036A2:  MOVWF  x1A
036A4:  MOVFF  313,319
036A8:  MOVFF  312,318
036AC:  MOVFF  311,317
036B0:  MOVLB  0
036B2:  CALL   17B2
036B6:  MOVFF  01,311
036BA:  MOVLW  27
036BC:  ADDWF  30,W
036BE:  MOVLB  3
036C0:  MOVWF  x12
036C2:  MOVLW  00
036C4:  ADDWFC 31,W
036C6:  MOVWF  x13
036C8:  MOVLW  00
036CA:  ADDWFC 32,W
036CC:  MOVWF  x14
036CE:  MOVLW  00
036D0:  ADDWFC 33,W
036D2:  MOVWF  x15
036D4:  MOVWF  x1A
036D6:  MOVFF  314,319
036DA:  MOVFF  313,318
036DE:  MOVFF  312,317
036E2:  MOVLB  0
036E4:  CALL   17B2
036E8:  MOVFF  01,312
036EC:  MOVLW  28
036EE:  ADDWF  30,W
036F0:  MOVLB  3
036F2:  MOVWF  x13
036F4:  MOVLW  00
036F6:  ADDWFC 31,W
036F8:  MOVWF  x14
036FA:  MOVLW  00
036FC:  ADDWFC 32,W
036FE:  MOVWF  x15
03700:  MOVLW  00
03702:  ADDWFC 33,W
03704:  MOVWF  x16
03706:  MOVWF  x1A
03708:  MOVFF  315,319
0370C:  MOVFF  314,318
03710:  MOVFF  313,317
03714:  MOVLB  0
03716:  CALL   17B2
0371A:  MOVFF  310,30A
0371E:  MOVFF  311,309
03722:  MOVFF  312,308
03726:  MOVFF  01,307
.................... { 
....................    int32 AD_COUNTER = make32(READ_DATA_BYTE_OF(ADD_INFO_ADDRESS+37),READ_DATA_BYTE_OF(ADD_INFO_ADDRESS+38),READ_DATA_BYTE_OF(ADD_INFO_ADDRESS+39),READ_DATA_BYTE_OF(ADD_INFO_ADDRESS+40));//check counter value 
....................    fprintf(PC,"AD COUNTER:%lx\r\n",AD_COUNTER); 
0372A:  MOVLW  C2
0372C:  MOVWF  FF6
0372E:  MOVLW  0A
03730:  MOVWF  FF7
03732:  MOVLW  00
03734:  MOVWF  FF8
03736:  MOVLW  0B
03738:  MOVLB  3
0373A:  MOVWF  x10
0373C:  MOVLB  0
0373E:  CALL   1C0C
03742:  MOVFF  30A,311
03746:  MOVLW  57
03748:  MOVLB  3
0374A:  MOVWF  x12
0374C:  MOVLB  0
0374E:  CALL   1C3E
03752:  MOVFF  309,311
03756:  MOVLW  57
03758:  MOVLB  3
0375A:  MOVWF  x12
0375C:  MOVLB  0
0375E:  CALL   1C3E
03762:  MOVFF  308,311
03766:  MOVLW  57
03768:  MOVLB  3
0376A:  MOVWF  x12
0376C:  MOVLB  0
0376E:  CALL   1C3E
03772:  MOVFF  307,311
03776:  MOVLW  57
03778:  MOVLB  3
0377A:  MOVWF  x12
0377C:  MOVLB  0
0377E:  CALL   1C3E
03782:  MOVLW  0D
03784:  BTFSS  F9E.4
03786:  BRA    3784
03788:  MOVWF  FAD
0378A:  MOVLW  0A
0378C:  BTFSS  F9E.4
0378E:  BRA    378C
03790:  MOVWF  FAD
....................    if((AD_COUNTER > 95000) && (AD_COUNTER != 0xffffffff)) 
03792:  MOVLB  3
03794:  MOVF   x0A,F
03796:  BNZ   37B8
03798:  MOVF   x09,W
0379A:  SUBLW  00
0379C:  BTFSC  FD8.0
0379E:  BRA    391A
037A0:  XORLW  FF
037A2:  BNZ   37B8
037A4:  MOVF   x08,W
037A6:  SUBLW  72
037A8:  BTFSC  FD8.0
037AA:  BRA    391A
037AC:  XORLW  FF
037AE:  BNZ   37B8
037B0:  MOVF   x07,W
037B2:  SUBLW  18
037B4:  BTFSC  FD8.0
037B6:  BRA    391A
037B8:  INCFSZ x07,W
037BA:  BRA    37CA
037BC:  INCFSZ x08,W
037BE:  BRA    37CA
037C0:  INCFSZ x09,W
037C2:  BRA    37CA
037C4:  INCFSZ x0A,W
037C6:  BRA    37CA
037C8:  BRA    391A
....................    { 
....................       output_low(PIN_A5);                                                        //CAM_MUX MAINSIDE 
037CA:  BCF    F92.5
037CC:  BCF    F89.5
....................       output_low(PIN_C4);                                                        //COM_MUX MAINSIDE 
037CE:  BCF    F94.4
037D0:  BCF    F8B.4
....................       SUBSECTOR_4KB_ERASE_OF(0); 
037D2:  CLRF   x13
037D4:  CLRF   x12
037D6:  CLRF   x11
037D8:  CLRF   x10
037DA:  MOVLB  0
037DC:  RCALL  346A
....................       SUBSECTOR_4KB_ERASE_SCF(0); 
037DE:  MOVLB  3
037E0:  CLRF   x13
037E2:  CLRF   x12
037E4:  CLRF   x11
037E6:  CLRF   x10
037E8:  MOVLB  0
037EA:  RCALL  34FC
....................       SUBSECTOR_4KB_ERASE_SMF(0); 
037EC:  MOVLB  3
037EE:  CLRF   x13
037F0:  CLRF   x12
037F2:  CLRF   x11
037F4:  CLRF   x10
037F6:  MOVLB  0
037F8:  RCALL  358E
....................       ADDRESS_WRITING_COUNTER = 0;                                               //reset counter 
037FA:  CLRF   37
037FC:  CLRF   36
037FE:  CLRF   35
03800:  CLRF   34
....................       ADD_INFO_ADDRESS = ADD_INFO_ADDRESS + 0x00001000;                          //use next subsector 
03802:  MOVLW  10
03804:  ADDWF  31,F
03806:  MOVLW  00
03808:  ADDWFC 32,F
0380A:  ADDWFC 33,F
....................       output_high(PIN_C4);                                                       //COM_MUX COMSIDE 
0380C:  BCF    F94.4
0380E:  BSF    F8B.4
....................        
....................       unsigned int8 address_place[4] = {}; 
03810:  MOVLB  3
03812:  CLRF   x0B
03814:  CLRF   x0C
03816:  CLRF   x0D
03818:  CLRF   x0E
....................       address_place[0] = ADD_INFO_ADDRESS >> 24; 
0381A:  MOVFF  33,30B
....................       address_place[1] = ADD_INFO_ADDRESS >> 16; 
0381E:  MOVFF  32,30C
....................       address_place[2] = ADD_INFO_ADDRESS >> 8; 
03822:  MOVFF  31,30D
....................       address_place[3] = ADD_INFO_ADDRESS; 
03826:  MOVFF  30,30E
....................        
....................       output_low(PIN_A5);                                                        //CAM_MUX MAINSIDE 
0382A:  BCF    F92.5
0382C:  BCF    F89.5
....................       output_low(PIN_C4);                                                        //COM_MUX MAINSIDE 
0382E:  BCF    F94.4
03830:  BCF    F8B.4
....................       for(int i = 0; i < 4; i++)                                                 //store the new subsector(location) information 
03832:  CLRF   x0F
03834:  MOVF   x0F,W
03836:  SUBLW  03
03838:  BNC   38C2
....................       { 
....................          WRITE_DATA_BYTE_OF(i,address_place[i]);                                 //se le pasa direccion y dato 
0383A:  CLRF   03
0383C:  MOVF   x0F,W
0383E:  ADDLW  0B
03840:  MOVWF  FE9
03842:  MOVLW  03
03844:  ADDWFC 03,W
03846:  MOVWF  FEA
03848:  MOVFF  FEF,315
0384C:  CLRF   x14
0384E:  CLRF   x13
03850:  CLRF   x12
03852:  MOVFF  30F,311
03856:  MOVLB  0
03858:  CALL   1A80
....................          delay_us(10); 
0385C:  MOVLW  0D
0385E:  MOVWF  00
03860:  DECFSZ 00,F
03862:  BRA    3860
....................          WRITE_DATA_BYTE_SCF(i,address_place[i]); 
03864:  CLRF   03
03866:  MOVLB  3
03868:  MOVF   x0F,W
0386A:  ADDLW  0B
0386C:  MOVWF  FE9
0386E:  MOVLW  03
03870:  ADDWFC 03,W
03872:  MOVWF  FEA
03874:  MOVFF  FEF,315
03878:  CLRF   x14
0387A:  CLRF   x13
0387C:  CLRF   x12
0387E:  MOVFF  30F,311
03882:  MOVLB  0
03884:  CALL   1B0C
....................          delay_us(10); 
03888:  MOVLW  0D
0388A:  MOVWF  00
0388C:  DECFSZ 00,F
0388E:  BRA    388C
....................          WRITE_DATA_BYTE_SMF(i,address_place[i]); 
03890:  CLRF   03
03892:  MOVLB  3
03894:  MOVF   x0F,W
03896:  ADDLW  0B
03898:  MOVWF  FE9
0389A:  MOVLW  03
0389C:  ADDWFC 03,W
0389E:  MOVWF  FEA
038A0:  MOVFF  FEF,315
038A4:  CLRF   x14
038A6:  CLRF   x13
038A8:  CLRF   x12
038AA:  MOVFF  30F,311
038AE:  MOVLB  0
038B0:  CALL   1B98
....................          delay_us(10); 
038B4:  MOVLW  0D
038B6:  MOVWF  00
038B8:  DECFSZ 00,F
038BA:  BRA    38B8
038BC:  MOVLB  3
038BE:  INCF   x0F,F
038C0:  BRA    3834
....................       } 
....................       output_high(PIN_C4);                                                       //COM_MUX COMSIDE 
038C2:  BCF    F94.4
038C4:  BSF    F8B.4
....................        
....................       fprintf(PC,"CHANGED MEMORY ADDRESS:"); 
038C6:  MOVLW  D4
038C8:  MOVWF  FF6
038CA:  MOVLW  0A
038CC:  MOVWF  FF7
038CE:  MOVLW  00
038D0:  MOVWF  FF8
038D2:  MOVLB  0
038D4:  RCALL  362C
....................       for(i = 0; i < 4; i++)                                                     //store the subsector(location) information 
038D6:  MOVLB  3
038D8:  CLRF   x0F
038DA:  MOVF   x0F,W
038DC:  SUBLW  03
038DE:  BNC   390A
....................       { 
....................          fprintf(PC,"%x",READ_DATA_BYTE_OF(i)); 
038E0:  CLRF   x1A
038E2:  CLRF   x19
038E4:  CLRF   x18
038E6:  MOVFF  30F,317
038EA:  MOVLB  0
038EC:  CALL   17B2
038F0:  MOVFF  01,310
038F4:  MOVFF  01,311
038F8:  MOVLW  57
038FA:  MOVLB  3
038FC:  MOVWF  x12
038FE:  MOVLB  0
03900:  CALL   1C3E
03904:  MOVLB  3
03906:  INCF   x0F,F
03908:  BRA    38DA
....................       } 
....................       fprintf(PC,"\r\n"); 
0390A:  MOVLW  0D
0390C:  BTFSS  F9E.4
0390E:  BRA    390C
03910:  MOVWF  FAD
03912:  MOVLW  0A
03914:  BTFSS  F9E.4
03916:  BRA    3914
03918:  MOVWF  FAD
....................    } 
....................     
....................    return; 
0391A:  MOVLB  0
0391C:  RETURN 0
.................... } 
....................  
.................... void TAKE_FLAG_INFO_FROM_OF()                                                    //Funcion que lee de memoria el dato de los FLAGS 
.................... { 
....................    for(int8 num = 0; num < FLAG_INFO_SIZE; num++) 
*
01EE8:  MOVLB  2
01EEA:  CLRF   xDC
01EEC:  MOVF   xDC,W
01EEE:  SUBLW  0F
01EF0:  BNC   1F44
....................    { 
....................       flag_info_bffr[num] = READ_DATA_BYTE_OF(FLAG_DATA_ADDRESS + num);          //guarda los datos en el vector flag_info_bffr[] 
01EF2:  CLRF   03
01EF4:  MOVF   xDC,W
01EF6:  ADDLW  21
01EF8:  MOVWF  01
01EFA:  MOVLW  01
01EFC:  ADDWFC 03,F
01EFE:  MOVFF  01,2DD
01F02:  MOVFF  03,2DE
01F06:  MOVF   xDC,W
01F08:  ADDWF  38,W
01F0A:  MOVWF  xDF
01F0C:  MOVLW  00
01F0E:  ADDWFC 39,W
01F10:  MOVWF  xE0
01F12:  MOVLW  00
01F14:  ADDWFC 3A,W
01F16:  MOVWF  xE1
01F18:  MOVLW  00
01F1A:  ADDWFC 3B,W
01F1C:  MOVWF  xE2
01F1E:  MOVFF  FE8,31A
01F22:  MOVFF  2E1,319
01F26:  MOVFF  2E0,318
01F2A:  MOVFF  2DF,317
01F2E:  MOVLB  0
01F30:  RCALL  17B2
01F32:  MOVFF  2DE,FEA
01F36:  MOVFF  2DD,FE9
01F3A:  MOVFF  01,FEF
01F3E:  MOVLB  2
01F40:  INCF   xDC,F
01F42:  BRA    1EEC
....................       //delay_ms(1); 
....................    } 
....................    return; 
01F44:  MOVLB  0
01F46:  GOTO   2798 (RETURN)
.................... } 
....................  
.................... void STORE_ADRESS_DATA_TO_FLASH()                                                //save the address data in a new sector if the R / W cycle is reached 
.................... { 
....................    fprintf(PC,"\r\nStoreing Address Data in Flash\r\n"); 
*
03AF8:  MOVLW  EC
03AFA:  MOVWF  FF6
03AFC:  MOVLW  0A
03AFE:  MOVWF  FF7
03B00:  MOVLW  00
03B02:  MOVWF  FF8
03B04:  RCALL  362C
....................    ADDRESS_WRITING_COUNTER++;                                                    //contador de escrituras en una direccion 
03B06:  MOVLW  01
03B08:  ADDWF  34,F
03B0A:  BTFSC  FD8.0
03B0C:  INCF   35,F
03B0E:  BTFSC  FD8.2
03B10:  INCF   36,F
03B12:  BTFSC  FD8.2
03B14:  INCF   37,F
....................    CHANGE_ADDRESS_WRITING_LOCATION();                                            //cambia la direccion del lugar de escritura si se superan 95000 ciclos 
03B16:  RCALL  3656
....................    sec_add_bfr[0] = FLAG_DATA_ADDRESS >> 24;                                     //se carga el array sec_add_bfr[] con los datos de las direcciones 
03B18:  MOVFF  3B,F8
....................    sec_add_bfr[1] = FLAG_DATA_ADDRESS >> 16; 
03B1C:  MOVFF  3A,F9
....................    sec_add_bfr[2] = FLAG_DATA_ADDRESS >> 8; 
03B20:  MOVFF  39,FA
....................    sec_add_bfr[3] = FLAG_DATA_ADDRESS; 
03B24:  MOVFF  38,FB
....................        
....................    sec_add_bfr[4] = RSV_DATA_ADDRESS >> 24; 
03B28:  MOVFF  3F,FC
....................    sec_add_bfr[5] = RSV_DATA_ADDRESS >> 16; 
03B2C:  MOVFF  3E,FD
....................    sec_add_bfr[6] = RSV_DATA_ADDRESS >> 8; 
03B30:  MOVFF  3D,FE
....................    sec_add_bfr[7] = RSV_DATA_ADDRESS; 
03B34:  MOVFF  3C,FF
....................     
....................    sec_add_bfr[8] = SAT_LOG >> 24; 
03B38:  MOVFF  43,100
....................    sec_add_bfr[9] = SAT_LOG >> 16; 
03B3C:  MOVFF  42,101
....................    sec_add_bfr[10] = SAT_LOG >> 8; 
03B40:  MOVFF  41,102
....................    sec_add_bfr[11] = SAT_LOG; 
03B44:  MOVFF  40,103
....................     
....................    sec_add_bfr[12] = CAM_ADDRESS >> 24; 
03B48:  MOVFF  47,104
....................    sec_add_bfr[13] = CAM_ADDRESS >> 16; 
03B4C:  MOVFF  46,105
....................    sec_add_bfr[14] = CAM_ADDRESS >> 8; 
03B50:  MOVFF  45,106
....................    sec_add_bfr[15] = CAM_ADDRESS; 
03B54:  MOVFF  44,107
....................     
....................    sec_add_bfr[16] = FAB_HK_ADDRESS >> 24; 
03B58:  MOVFF  4B,108
....................    sec_add_bfr[17] = FAB_HK_ADDRESS >> 16; 
03B5C:  MOVFF  4A,109
....................    sec_add_bfr[18] = FAB_HK_ADDRESS >> 8; 
03B60:  MOVFF  49,10A
....................    sec_add_bfr[19] = FAB_HK_ADDRESS; 
03B64:  MOVFF  48,10B
....................     
....................    sec_add_bfr[20] = FAB_CW_ADDRESS >> 24; 
03B68:  MOVFF  4F,10C
....................    sec_add_bfr[21] = FAB_CW_ADDRESS >> 16; 
03B6C:  MOVFF  4E,10D
....................    sec_add_bfr[22] = FAB_CW_ADDRESS >> 8; 
03B70:  MOVFF  4D,10E
....................    sec_add_bfr[23] = FAB_CW_ADDRESS; 
03B74:  MOVFF  4C,10F
....................     
....................    sec_add_bfr[24] = ADCS_SENSOR_ADDRESS >> 24; 
03B78:  MOVFF  53,110
....................    sec_add_bfr[25] = ADCS_SENSOR_ADDRESS >> 16; 
03B7C:  MOVFF  52,111
....................    sec_add_bfr[26] = ADCS_SENSOR_ADDRESS >> 8; 
03B80:  MOVFF  51,112
....................    sec_add_bfr[27] = ADCS_SENSOR_ADDRESS; 
03B84:  MOVFF  50,113
....................     
....................    sec_add_bfr[28] = DC_STATUS_ADDRESS >> 24; 
03B88:  MOVFF  5B,114
....................    sec_add_bfr[29] = DC_STATUS_ADDRESS >> 16; 
03B8C:  MOVFF  5A,115
....................    sec_add_bfr[30] = DC_STATUS_ADDRESS >> 8; 
03B90:  MOVFF  59,116
....................    sec_add_bfr[31] = DC_STATUS_ADDRESS; 
03B94:  MOVFF  58,117
....................     
....................    sec_add_bfr[32] = HIGH_SAMP_HK_ADDRESS >> 24; 
03B98:  MOVFF  5F,118
....................    sec_add_bfr[33] = HIGH_SAMP_HK_ADDRESS >> 16; 
03B9C:  MOVFF  5E,119
....................    sec_add_bfr[34] = HIGH_SAMP_HK_ADDRESS >> 8; 
03BA0:  MOVFF  5D,11A
....................    sec_add_bfr[35] = HIGH_SAMP_HK_ADDRESS; 
03BA4:  MOVFF  5C,11B
....................     
....................    sec_add_bfr[36] = BC_ATTEMPT_FLAG; 
03BA8:  MOVFF  68,11C
....................     
....................     
....................    sec_add_bfr[37] = ADDRESS_WRITING_COUNTER >> 24; 
03BAC:  MOVFF  37,11D
....................    sec_add_bfr[38] = ADDRESS_WRITING_COUNTER >> 16; 
03BB0:  MOVFF  36,11E
....................    sec_add_bfr[39] = ADDRESS_WRITING_COUNTER >> 8; 
03BB4:  MOVFF  35,11F
....................    sec_add_bfr[40] = ADDRESS_WRITING_COUNTER; 
03BB8:  MOVFF  34,120
....................     
....................    output_low(PIN_A5);                                                           //CAM_MUX MAINSIDE 
03BBC:  BCF    F92.5
03BBE:  BCF    F89.5
....................    output_low(PIN_C4);                                                           //COM_MUX MAINSIDE 
03BC0:  BCF    F94.4
03BC2:  BCF    F8B.4
....................    int8 num = 0; 
03BC4:  MOVLB  3
03BC6:  CLRF   x06
....................    SUBSECTOR_4KB_ERASE_OF(ADD_INFO_ADDRESS); 
03BC8:  MOVFF  33,313
03BCC:  MOVFF  32,312
03BD0:  MOVFF  31,311
03BD4:  MOVFF  30,310
03BD8:  MOVLB  0
03BDA:  RCALL  346A
....................    delay_ms(200); 
03BDC:  MOVLW  C8
03BDE:  MOVLB  3
03BE0:  MOVWF  x19
03BE2:  MOVLB  0
03BE4:  CALL   1F78
....................    for(num = 0; num < FLASH_ADD_SIZE; num++)                                     //guarda todos los datos de direcciones en OBC FLASH 
03BE8:  MOVLB  3
03BEA:  CLRF   x06
03BEC:  MOVF   x06,W
03BEE:  SUBLW  28
03BF0:  BNC   3C40
....................    { 
....................       WRITE_DATA_BYTE_OF(ADD_INFO_ADDRESS + num,sec_add_bfr[num]); 
03BF2:  MOVF   x06,W
03BF4:  ADDWF  30,W
03BF6:  MOVWF  x07
03BF8:  MOVLW  00
03BFA:  ADDWFC 31,W
03BFC:  MOVWF  x08
03BFE:  MOVLW  00
03C00:  ADDWFC 32,W
03C02:  MOVWF  x09
03C04:  MOVLW  00
03C06:  ADDWFC 33,W
03C08:  MOVWF  x0A
03C0A:  CLRF   03
03C0C:  MOVF   x06,W
03C0E:  ADDLW  F8
03C10:  MOVWF  FE9
03C12:  MOVLW  00
03C14:  ADDWFC 03,W
03C16:  MOVWF  FEA
03C18:  MOVFF  FEF,315
03C1C:  MOVFF  30A,314
03C20:  MOVFF  309,313
03C24:  MOVFF  308,312
03C28:  MOVFF  307,311
03C2C:  MOVLB  0
03C2E:  CALL   1A80
....................       delay_us(10); 
03C32:  MOVLW  0D
03C34:  MOVWF  00
03C36:  DECFSZ 00,F
03C38:  BRA    3C36
03C3A:  MOVLB  3
03C3C:  INCF   x06,F
03C3E:  BRA    3BEC
....................    } 
....................    SUBSECTOR_4KB_ERASE_SCF(ADD_INFO_ADDRESS); 
03C40:  MOVFF  33,313
03C44:  MOVFF  32,312
03C48:  MOVFF  31,311
03C4C:  MOVFF  30,310
03C50:  MOVLB  0
03C52:  RCALL  34FC
....................    delay_ms(200); 
03C54:  MOVLW  C8
03C56:  MOVLB  3
03C58:  MOVWF  x19
03C5A:  MOVLB  0
03C5C:  CALL   1F78
....................    for(num = 0; num < FLASH_ADD_SIZE; num++)                                     //guarda todos los datos de direcciones en COM FLASH 
03C60:  MOVLB  3
03C62:  CLRF   x06
03C64:  MOVF   x06,W
03C66:  SUBLW  28
03C68:  BNC   3CB8
....................    { 
....................       WRITE_DATA_BYTE_SCF(ADD_INFO_ADDRESS + num,sec_add_bfr[num]); 
03C6A:  MOVF   x06,W
03C6C:  ADDWF  30,W
03C6E:  MOVWF  x07
03C70:  MOVLW  00
03C72:  ADDWFC 31,W
03C74:  MOVWF  x08
03C76:  MOVLW  00
03C78:  ADDWFC 32,W
03C7A:  MOVWF  x09
03C7C:  MOVLW  00
03C7E:  ADDWFC 33,W
03C80:  MOVWF  x0A
03C82:  CLRF   03
03C84:  MOVF   x06,W
03C86:  ADDLW  F8
03C88:  MOVWF  FE9
03C8A:  MOVLW  00
03C8C:  ADDWFC 03,W
03C8E:  MOVWF  FEA
03C90:  MOVFF  FEF,315
03C94:  MOVFF  30A,314
03C98:  MOVFF  309,313
03C9C:  MOVFF  308,312
03CA0:  MOVFF  307,311
03CA4:  MOVLB  0
03CA6:  CALL   1B0C
....................       delay_us(10); 
03CAA:  MOVLW  0D
03CAC:  MOVWF  00
03CAE:  DECFSZ 00,F
03CB0:  BRA    3CAE
03CB2:  MOVLB  3
03CB4:  INCF   x06,F
03CB6:  BRA    3C64
....................    } 
....................    SUBSECTOR_4KB_ERASE_SMF(ADD_INFO_ADDRESS); 
03CB8:  MOVFF  33,313
03CBC:  MOVFF  32,312
03CC0:  MOVFF  31,311
03CC4:  MOVFF  30,310
03CC8:  MOVLB  0
03CCA:  RCALL  358E
....................    delay_ms(200); 
03CCC:  MOVLW  C8
03CCE:  MOVLB  3
03CD0:  MOVWF  x19
03CD2:  MOVLB  0
03CD4:  CALL   1F78
....................    for(num = 0; num < FLASH_ADD_SIZE; num++)                                     //guarda todos los datos de direcciones en MISSION FLASH 
03CD8:  MOVLB  3
03CDA:  CLRF   x06
03CDC:  MOVF   x06,W
03CDE:  SUBLW  28
03CE0:  BNC   3D30
....................    { 
....................       WRITE_DATA_BYTE_SMF(ADD_INFO_ADDRESS + num,sec_add_bfr[num]); 
03CE2:  MOVF   x06,W
03CE4:  ADDWF  30,W
03CE6:  MOVWF  x07
03CE8:  MOVLW  00
03CEA:  ADDWFC 31,W
03CEC:  MOVWF  x08
03CEE:  MOVLW  00
03CF0:  ADDWFC 32,W
03CF2:  MOVWF  x09
03CF4:  MOVLW  00
03CF6:  ADDWFC 33,W
03CF8:  MOVWF  x0A
03CFA:  CLRF   03
03CFC:  MOVF   x06,W
03CFE:  ADDLW  F8
03D00:  MOVWF  FE9
03D02:  MOVLW  00
03D04:  ADDWFC 03,W
03D06:  MOVWF  FEA
03D08:  MOVFF  FEF,315
03D0C:  MOVFF  30A,314
03D10:  MOVFF  309,313
03D14:  MOVFF  308,312
03D18:  MOVFF  307,311
03D1C:  MOVLB  0
03D1E:  CALL   1B98
....................       delay_us(10); 
03D22:  MOVLW  0D
03D24:  MOVWF  00
03D26:  DECFSZ 00,F
03D28:  BRA    3D26
03D2A:  MOVLB  3
03D2C:  INCF   x06,F
03D2E:  BRA    3CDC
....................    } 
....................    output_high(PIN_C4);                                                          //COM_MUX COMSIDE 
03D30:  BCF    F94.4
03D32:  BSF    F8B.4
....................    
....................    fprintf(PC,"ADDRESS DATA STORE DONE:%lx\r\n",ADD_INFO_ADDRESS); 
03D34:  MOVLW  10
03D36:  MOVWF  FF6
03D38:  MOVLW  0B
03D3A:  MOVWF  FF7
03D3C:  MOVLW  00
03D3E:  MOVWF  FF8
03D40:  MOVLW  18
03D42:  MOVWF  x10
03D44:  MOVLB  0
03D46:  CALL   1C0C
03D4A:  MOVFF  33,311
03D4E:  MOVLW  57
03D50:  MOVLB  3
03D52:  MOVWF  x12
03D54:  MOVLB  0
03D56:  CALL   1C3E
03D5A:  MOVFF  32,311
03D5E:  MOVLW  57
03D60:  MOVLB  3
03D62:  MOVWF  x12
03D64:  MOVLB  0
03D66:  CALL   1C3E
03D6A:  MOVFF  31,311
03D6E:  MOVLW  57
03D70:  MOVLB  3
03D72:  MOVWF  x12
03D74:  MOVLB  0
03D76:  CALL   1C3E
03D7A:  MOVFF  30,311
03D7E:  MOVLW  57
03D80:  MOVLB  3
03D82:  MOVWF  x12
03D84:  MOVLB  0
03D86:  CALL   1C3E
03D8A:  MOVLW  0D
03D8C:  BTFSS  F9E.4
03D8E:  BRA    3D8C
03D90:  MOVWF  FAD
03D92:  MOVLW  0A
03D94:  BTFSS  F9E.4
03D96:  BRA    3D94
03D98:  MOVWF  FAD
....................    return; 
03D9A:  RETURN 0
.................... } 
....................  
.................... void TAKE_ADDRESS_DATA_FROM_OF()                                                 //Funcion que toma de la memoria las direcciones almacenadas en los primeros lugares 
.................... {   
....................     
....................    for(int8 num = 0; num < FLASH_ADD_SIZE; num++) 
*
0280C:  MOVLB  2
0280E:  CLRF   xDC
02810:  MOVF   xDC,W
02812:  SUBLW  28
02814:  BNC   286A
....................    { 
....................       sec_add_bfr[num] = READ_DATA_BYTE_OF(ADD_INFO_ADDRESS + num); 
02816:  CLRF   03
02818:  MOVF   xDC,W
0281A:  ADDLW  F8
0281C:  MOVWF  01
0281E:  MOVLW  00
02820:  ADDWFC 03,F
02822:  MOVFF  01,2DD
02826:  MOVFF  03,2DE
0282A:  MOVF   xDC,W
0282C:  ADDWF  30,W
0282E:  MOVWF  xDF
02830:  MOVLW  00
02832:  ADDWFC 31,W
02834:  MOVWF  xE0
02836:  MOVLW  00
02838:  ADDWFC 32,W
0283A:  MOVWF  xE1
0283C:  MOVLW  00
0283E:  ADDWFC 33,W
02840:  MOVWF  xE2
02842:  MOVFF  FE8,31A
02846:  MOVFF  2E1,319
0284A:  MOVFF  2E0,318
0284E:  MOVFF  2DF,317
02852:  MOVLB  0
02854:  CALL   17B2
02858:  MOVFF  2DE,FEA
0285C:  MOVFF  2DD,FE9
02860:  MOVFF  01,FEF
02864:  MOVLB  2
02866:  INCF   xDC,F
02868:  BRA    2810
....................    } 
....................    return; 
0286A:  MOVLB  0
0286C:  GOTO   29EE (RETURN)
.................... } 
....................  
.................... void TAKE_ADDRESS_DATA_FROM_SCF() 
.................... {   
....................    output_low(PIN_C4);   
*
02912:  BCF    F94.4
02914:  BCF    F8B.4
....................    for(int8 num = 0; num < FLASH_ADD_SIZE; num++) 
02916:  MOVLB  2
02918:  CLRF   xDC
0291A:  MOVF   xDC,W
0291C:  SUBLW  28
0291E:  BNC   2974
....................    { 
....................       sec_add_bfr[num] = READ_DATA_BYTE_SCF(ADD_INFO_ADDRESS + num); 
02920:  CLRF   03
02922:  MOVF   xDC,W
02924:  ADDLW  F8
02926:  MOVWF  01
02928:  MOVLW  00
0292A:  ADDWFC 03,F
0292C:  MOVFF  01,2DD
02930:  MOVFF  03,2DE
02934:  MOVF   xDC,W
02936:  ADDWF  30,W
02938:  MOVWF  xDF
0293A:  MOVLW  00
0293C:  ADDWFC 31,W
0293E:  MOVWF  xE0
02940:  MOVLW  00
02942:  ADDWFC 32,W
02944:  MOVWF  xE1
02946:  MOVLW  00
02948:  ADDWFC 33,W
0294A:  MOVWF  xE2
0294C:  MOVFF  FE8,300
02950:  MOVFF  2E1,2FF
02954:  MOVFF  2E0,2FE
02958:  MOVFF  2DF,2FD
0295C:  MOVLB  0
0295E:  CALL   186A
02962:  MOVFF  2DE,FEA
02966:  MOVFF  2DD,FE9
0296A:  MOVFF  01,FEF
0296E:  MOVLB  2
02970:  INCF   xDC,F
02972:  BRA    291A
....................    } 
....................    output_high(PIN_C4); 
02974:  BCF    F94.4
02976:  BSF    F8B.4
....................    return; 
02978:  MOVLB  0
0297A:  GOTO   2A64 (RETURN)
.................... } 
....................  
.................... void TAKE_ADDRESS_DATA_FROM_SMF() 
.................... {   
....................    output_low(PIN_A5);   
0297E:  BCF    F92.5
02980:  BCF    F89.5
....................    for(int8 num = 0; num < FLASH_ADD_SIZE; num++) 
02982:  MOVLB  2
02984:  CLRF   xDC
02986:  MOVF   xDC,W
02988:  SUBLW  28
0298A:  BNC   29E0
....................    { 
....................       sec_add_bfr[num] = READ_DATA_BYTE_SMF(ADD_INFO_ADDRESS + num); 
0298C:  CLRF   03
0298E:  MOVF   xDC,W
02990:  ADDLW  F8
02992:  MOVWF  01
02994:  MOVLW  00
02996:  ADDWFC 03,F
02998:  MOVFF  01,2DD
0299C:  MOVFF  03,2DE
029A0:  MOVF   xDC,W
029A2:  ADDWF  30,W
029A4:  MOVWF  xDF
029A6:  MOVLW  00
029A8:  ADDWFC 31,W
029AA:  MOVWF  xE0
029AC:  MOVLW  00
029AE:  ADDWFC 32,W
029B0:  MOVWF  xE1
029B2:  MOVLW  00
029B4:  ADDWFC 33,W
029B6:  MOVWF  xE2
029B8:  MOVFF  FE8,300
029BC:  MOVFF  2E1,2FF
029C0:  MOVFF  2E0,2FE
029C4:  MOVFF  2DF,2FD
029C8:  MOVLB  0
029CA:  CALL   1926
029CE:  MOVFF  2DE,FEA
029D2:  MOVFF  2DD,FE9
029D6:  MOVFF  01,FEF
029DA:  MOVLB  2
029DC:  INCF   xDC,F
029DE:  BRA    2986
....................    } 
....................    return; 
029E0:  MOVLB  0
029E2:  GOTO   2AE0 (RETURN)
.................... } 
....................  
.................... void MAKE_FLAG_INFO()                                                            //Guarda en cada variable la informacion de flags recuperadas de memoria 
.................... { 
....................    BC_ATTEMPT_FLAG     = flag_info_bffr[0]; 
*
02026:  MOVFF  121,68
....................    PASSED_DAYS         = make16(flag_info_bffr[1],flag_info_bffr[2]); 
0202A:  MOVFF  122,6A
0202E:  MOVFF  123,69
....................    RESERVE_CHECK       = flag_info_bffr[3]; 
02032:  MOVFF  124,6B
....................    RESERVE_TARGET_FLAG = flag_info_bffr[4]; 
02036:  MOVFF  125,6D
....................    RESERVE_MIN_FLAG    = flag_info_bffr[5]; 
0203A:  MOVFF  126,6C
....................    MISSION_CONTENTS    = flag_info_bffr[6]; 
0203E:  MOVFF  127,6E
....................    MISSION_DETAIL      = flag_info_bffr[7]; 
02042:  MOVFF  128,6F
....................    Kill_FLAG_MAIN      = flag_info_bffr[8]; 
02046:  MOVFF  129,75
....................    Kill_FLAG_FAB       = flag_info_bffr[9]; 
0204A:  MOVFF  12A,76
....................    FIRST_HSSC_DONE     = flag_info_bffr[10]; 
0204E:  MOVFF  12B,77
....................    AUTO_CAM_DONE       = flag_info_bffr[11]; 
02052:  MOVFF  12C,78
....................    AUTO_MBP_DONE       = flag_info_bffr[12]; 
02056:  MOVFF  12D,79
....................    AUTO_ADCS_DONE      = flag_info_bffr[13]; 
0205A:  MOVFF  12E,7A
....................    ANT_DEP_STATUS      = flag_info_bffr[14]; 
0205E:  MOVFF  12F,7B
....................    UPLINK_SUCCESS      = flag_info_bffr[15]; 
02062:  MOVFF  130,7C
....................    if(PASSED_DAYS == 0xffff) 
02066:  INCFSZ x69,W
02068:  BRA    2078
0206A:  INCFSZ x6A,W
0206C:  BRA    2078
....................    { 
....................       COLLECT_RESET_DATA();                                                      //funcion que envia el comando 0x28 al reset PIC y carga reset_bffr[] 
0206E:  RCALL  1FE0
....................       PASSED_DAYS = make16(reset_bffr[4],reset_bffr[5]); 
02070:  MOVFF  F0,6A
02074:  MOVFF  F1,69
....................    } 
....................    return; 
02078:  GOTO   27FA (RETURN)
.................... } 
....................                                                                              
.................... void MAKE_ADDRESS_DATA()                                                         //Funcion que separa los datos de direcciones en cada variable correspondiente 
.................... {                                                                                //sec_add_bfr[] vector que contiene los datos de direcciones 
....................  
....................  
....................    FLAG_DATA_ADDRESS = make32(sec_add_bfr[0],sec_add_bfr[1],sec_add_bfr[2],sec_add_bfr[3]);//FLAG_DATA_ADDRESS_1 | FLAG_DATA_ADDRESS_2 | FLAG_DATA_ADDRESS_3 | FLAG_DATA_ADDRESS_4; 
*
02870:  MOVFF  F8,3B
02874:  MOVFF  F9,3A
02878:  MOVFF  FA,39
0287C:  MOVFF  FB,38
....................     
....................    RSV_DATA_ADDRESS = make32(sec_add_bfr[4],sec_add_bfr[5],sec_add_bfr[6],sec_add_bfr[7]);//RSV_DATA_ADDRESS_1| RSV_DATA_ADDRESS_2 | RSV_DATA_ADDRESS_3 | RSV_DATA_ADDRESS_4; 
02880:  MOVFF  FC,3F
02884:  MOVFF  FD,3E
02888:  MOVFF  FE,3D
0288C:  MOVFF  FF,3C
....................     
....................    SAT_LOG = make32(sec_add_bfr[8],sec_add_bfr[9],sec_add_bfr[10],sec_add_bfr[11]);//SAT_LOG_1 | SAT_LOG_2 | SAT_LOG_3 | SAT_LOG_4; 
02890:  MOVFF  100,43
02894:  MOVFF  101,42
02898:  MOVFF  102,41
0289C:  MOVFF  103,40
....................     
....................    CAM_ADDRESS = make32(sec_add_bfr[12],sec_add_bfr[13],sec_add_bfr[14],sec_add_bfr[15]);//CAM_ADDRESS_1 | CAM_ADDRESS_2 | CAM_ADDRESS_3 | CAM_ADDRESS_4; 
028A0:  MOVFF  104,47
028A4:  MOVFF  105,46
028A8:  MOVFF  106,45
028AC:  MOVFF  107,44
....................     
....................    FAB_HK_ADDRESS = make32(sec_add_bfr[16],sec_add_bfr[17],sec_add_bfr[18],sec_add_bfr[19]);//FAB_HK_ADDRESS_1 | FAB_HK_ADDRESS_2 | FAB_HK_ADDRESS_3 | FAB_HK_ADDRESS_4; 
028B0:  MOVFF  108,4B
028B4:  MOVFF  109,4A
028B8:  MOVFF  10A,49
028BC:  MOVFF  10B,48
....................  
....................    FAB_CW_ADDRESS = make32(sec_add_bfr[20],sec_add_bfr[21],sec_add_bfr[22],sec_add_bfr[23]);//FAB_CW_ADDRESS_1| FAB_CW_ADDRESS_2 | FAB_CW_ADDRESS_3 | FAB_CW_ADDRESS_4; 
028C0:  MOVFF  10C,4F
028C4:  MOVFF  10D,4E
028C8:  MOVFF  10E,4D
028CC:  MOVFF  10F,4C
....................     
....................    ADCS_SENSOR_ADDRESS = make32(sec_add_bfr[24],sec_add_bfr[25],sec_add_bfr[26],sec_add_bfr[27]);//ADCS_SENSOR_ADDRESS_1 | ADCS_SENSOR_ADDRESS_2 | ADCS_SENSOR_ADDRESS_3 | ADCS_SENSOR_ADDRESS_4; 
028D0:  MOVFF  110,53
028D4:  MOVFF  111,52
028D8:  MOVFF  112,51
028DC:  MOVFF  113,50
....................     
....................    DC_STATUS_ADDRESS = make32(sec_add_bfr[28],sec_add_bfr[29],sec_add_bfr[30],sec_add_bfr[31]);//DC_STATUS_ADDRESS_1 | DC_STATUS_ADDRESS_2 | DC_STATUS_ADDRESS_3 | DC_STATUS_ADDRESS_4; 
028E0:  MOVFF  114,5B
028E4:  MOVFF  115,5A
028E8:  MOVFF  116,59
028EC:  MOVFF  117,58
....................     
....................    HIGH_SAMP_HK_ADDRESS = make32(sec_add_bfr[32],sec_add_bfr[33],sec_add_bfr[34],sec_add_bfr[35]);//HIGH_SAMP_HK_ADDRESS = HIGH_SAMP_HK_ADDRESS_1 | HIGH_SAMP_HK_ADDRESS_2 | HIGH_SAMP_HK_ADDRESS_3 | HIGH_SAMP_HK_ADDRESS_4; 
028F0:  MOVFF  118,5F
028F4:  MOVFF  119,5E
028F8:  MOVFF  11A,5D
028FC:  MOVFF  11B,5C
....................     
....................    ADDRESS_WRITING_COUNTER = make32(sec_add_bfr[36],sec_add_bfr[37],sec_add_bfr[38],sec_add_bfr[39]);//ADDRESS_WRITING_COUNTER_1 | ADDRESS_WRITING_COUNTER_2 
02900:  MOVFF  11C,37
02904:  MOVFF  11D,36
02908:  MOVFF  11E,35
0290C:  MOVFF  11F,34
....................     
....................    return; 
02910:  RETURN 0
.................... } 
....................  
.................... void CHECK_FLAG_INFO()                                                           //funcion que imprime los datos de los flags y los separa en cada variable 
*
0278E:  MOVLB  2
02790:  CLRF   xDA
.................... { 
....................    int8 checksum = 0; 
....................    TAKE_FLAG_INFO_FROM_OF();                                                     //funcion que lee de la Main flash el estado de los flags y carga el array flag_info_bffr 
02792:  MOVLB  0
02794:  GOTO   1EE8
....................    for(int8 num = 0; num < FLAG_INFO_SIZE; num++) 
02798:  MOVLB  2
0279A:  CLRF   xDB
0279C:  MOVF   xDB,W
0279E:  SUBLW  0F
027A0:  BNC   27BA
....................    { 
....................       if(flag_info_bffr[num] == 0xff)                                            //si la informacion recuperada es 0xff (no hay informacion) incrementa el checksum 
027A2:  CLRF   03
027A4:  MOVF   xDB,W
027A6:  ADDLW  21
027A8:  MOVWF  FE9
027AA:  MOVLW  01
027AC:  ADDWFC 03,W
027AE:  MOVWF  FEA
027B0:  INCFSZ FEF,W
027B2:  BRA    27B6
....................       { 
....................          checksum++; 
027B4:  INCF   xDA,F
....................       } 
027B6:  INCF   xDB,F
027B8:  BRA    279C
....................    } 
....................    //fprintf(PC,"%d",checksum); 
....................     
....................    if((flag_info_bffr[0]!=0xff)&&(flag_info_bffr[FLAG_INFO_SIZE-1]!=0xff))       //if something stored 
027BA:  MOVLB  1
027BC:  INCFSZ x21,W
027BE:  BRA    27C2
027C0:  BRA    27FE
027C2:  INCFSZ x30,W
027C4:  BRA    27C8
027C6:  BRA    27FE
....................    { 
....................       for(num = 0; num < FLAG_INFO_SIZE; num++)                                  //imprime la informacion de los flags 
027C8:  MOVLB  2
027CA:  CLRF   xDB
027CC:  MOVF   xDB,W
027CE:  SUBLW  0F
027D0:  BNC   27F6
....................       { 
....................          fprintf(PC,"%x",flag_info_bffr[num]); 
027D2:  CLRF   03
027D4:  MOVF   xDB,W
027D6:  ADDLW  21
027D8:  MOVWF  FE9
027DA:  MOVLW  01
027DC:  ADDWFC 03,W
027DE:  MOVWF  FEA
027E0:  MOVFF  FEF,311
027E4:  MOVLW  57
027E6:  MOVLB  3
027E8:  MOVWF  x12
027EA:  MOVLB  0
027EC:  CALL   1C3E
027F0:  MOVLB  2
027F2:  INCF   xDB,F
027F4:  BRA    27CC
....................       } 
....................       MAKE_FLAG_INFO();                                                          //separa el estado de los flags en cada variable 
027F6:  MOVLB  0
027F8:  BRA    2026
....................    }else{                                                                        //if nothing stored 
027FA:  BRA    2802
027FC:  MOVLB  1
....................       MAKE_FLAG_from_EEPROM();                                                   //lee de la eeprom el estado de los flags 
027FE:  MOVLB  0
02800:  BRA    207C
....................    } 
....................    checksum = 0; 
02802:  MOVLB  2
02804:  CLRF   xDA
....................    return; 
02806:  MOVLB  0
02808:  GOTO   3F66 (RETURN)
.................... } 
....................  
.................... void CHECK_ADDRESS_DATA()                                                        //imprime los datos de direcciones y los separa en cada variable correspondiente 
*
029E6:  MOVLB  2
029E8:  CLRF   xDA
.................... { 
....................    int8 checksum = 0; 
....................    TAKE_ADDRESS_DATA_FROM_OF();                                                  //craga el array sec_add_bfr[] con address location info y lo imprime                                                   
029EA:  MOVLB  0
029EC:  BRA    280C
....................    for(int8 num = 37; num < 41; num++)                                           //check the data of last 4 byte 
029EE:  MOVLW  25
029F0:  MOVLB  2
029F2:  MOVWF  xDB
029F4:  MOVF   xDB,W
029F6:  SUBLW  28
029F8:  BNC   2A12
....................    { 
....................       if(sec_add_bfr[num] == 0xff)                                               //if nothing, count checksum 
029FA:  CLRF   03
029FC:  MOVF   xDB,W
029FE:  ADDLW  F8
02A00:  MOVWF  FE9
02A02:  MOVLW  00
02A04:  ADDWFC 03,W
02A06:  MOVWF  FEA
02A08:  INCFSZ FEF,W
02A0A:  BRA    2A0E
....................       { 
....................          checksum++; 
02A0C:  INCF   xDA,F
....................       } 
02A0E:  INCF   xDB,F
02A10:  BRA    29F4
....................    } 
....................     
....................    if(checksum != 4)                                                             //if something stored (if last 4 byte were not 0xff) 
02A12:  MOVF   xDA,W
02A14:  SUBLW  04
02A16:  BZ    2A5C
....................    { 
....................       for(num = 0; num < FLASH_ADD_SIZE; num++) 
02A18:  CLRF   xDB
02A1A:  MOVF   xDB,W
02A1C:  SUBLW  28
02A1E:  BNC   2A44
....................       { 
....................          fprintf(PC,"%x",sec_add_bfr[num]);                                      //imprime el contenido de sec_add_bfr[] que contiene las direcciones 
02A20:  CLRF   03
02A22:  MOVF   xDB,W
02A24:  ADDLW  F8
02A26:  MOVWF  FE9
02A28:  MOVLW  00
02A2A:  ADDWFC 03,W
02A2C:  MOVWF  FEA
02A2E:  MOVFF  FEF,311
02A32:  MOVLW  57
02A34:  MOVLB  3
02A36:  MOVWF  x12
02A38:  MOVLB  0
02A3A:  CALL   1C3E
02A3E:  MOVLB  2
02A40:  INCF   xDB,F
02A42:  BRA    2A1A
....................       } 
....................       fprintf(PC,"\r\n"); 
02A44:  MOVLW  0D
02A46:  BTFSS  F9E.4
02A48:  BRA    2A46
02A4A:  MOVWF  FAD
02A4C:  MOVLW  0A
02A4E:  BTFSS  F9E.4
02A50:  BRA    2A4E
02A52:  MOVWF  FAD
....................       MAKE_ADDRESS_DATA();                                                       //los separa en las variables correspondientes a cada direccion 
02A54:  MOVLB  0
02A56:  RCALL  2870
....................    }else{                                                                        //if there is nothing, check from SCF 
02A58:  BRA    2B4C
02A5A:  MOVLB  2
....................       output_low(PIN_C4); 
02A5C:  BCF    F94.4
02A5E:  BCF    F8B.4
....................       TAKE_ADDRESS_DATA_FROM_SCF(); 
02A60:  MOVLB  0
02A62:  BRA    2912
....................       output_high(PIN_C4); 
02A64:  BCF    F94.4
02A66:  BSF    F8B.4
....................       checksum = 0; 
02A68:  MOVLB  2
02A6A:  CLRF   xDA
....................       for(num = 37; num < 41; num++)                                             //check the data of last 4 byte 
02A6C:  MOVLW  25
02A6E:  MOVWF  xDB
02A70:  MOVF   xDB,W
02A72:  SUBLW  28
02A74:  BNC   2A8E
....................       { 
....................          if(sec_add_bfr[num] == 0xff)                                            //if nothing, count checksum 
02A76:  CLRF   03
02A78:  MOVF   xDB,W
02A7A:  ADDLW  F8
02A7C:  MOVWF  FE9
02A7E:  MOVLW  00
02A80:  ADDWFC 03,W
02A82:  MOVWF  FEA
02A84:  INCFSZ FEF,W
02A86:  BRA    2A8A
....................          { 
....................             checksum++; 
02A88:  INCF   xDA,F
....................          } 
02A8A:  INCF   xDB,F
02A8C:  BRA    2A70
....................       } 
....................       if(checksum != 4) 
02A8E:  MOVF   xDA,W
02A90:  SUBLW  04
02A92:  BZ    2AD8
....................       { 
....................          for(num = 0; num < FLASH_ADD_SIZE; num++) 
02A94:  CLRF   xDB
02A96:  MOVF   xDB,W
02A98:  SUBLW  28
02A9A:  BNC   2AC0
....................          { 
....................             fprintf(PC,"%x",sec_add_bfr[num]); 
02A9C:  CLRF   03
02A9E:  MOVF   xDB,W
02AA0:  ADDLW  F8
02AA2:  MOVWF  FE9
02AA4:  MOVLW  00
02AA6:  ADDWFC 03,W
02AA8:  MOVWF  FEA
02AAA:  MOVFF  FEF,311
02AAE:  MOVLW  57
02AB0:  MOVLB  3
02AB2:  MOVWF  x12
02AB4:  MOVLB  0
02AB6:  CALL   1C3E
02ABA:  MOVLB  2
02ABC:  INCF   xDB,F
02ABE:  BRA    2A96
....................          } 
....................          fprintf(PC,"\r\n"); 
02AC0:  MOVLW  0D
02AC2:  BTFSS  F9E.4
02AC4:  BRA    2AC2
02AC6:  MOVWF  FAD
02AC8:  MOVLW  0A
02ACA:  BTFSS  F9E.4
02ACC:  BRA    2ACA
02ACE:  MOVWF  FAD
....................          MAKE_ADDRESS_DATA(); 
02AD0:  MOVLB  0
02AD2:  RCALL  2870
....................       }else{                                                                     //if there is nothing, check from SMF 
02AD4:  BRA    2B4C
02AD6:  MOVLB  2
....................          output_low(PIN_A5); 
02AD8:  BCF    F92.5
02ADA:  BCF    F89.5
....................          TAKE_ADDRESS_DATA_FROM_SMF(); 
02ADC:  MOVLB  0
02ADE:  BRA    297E
....................          checksum = 0; 
02AE0:  MOVLB  2
02AE2:  CLRF   xDA
....................          for(num = 37; num < 41; num++)                                          //check the data of last 4 byte 
02AE4:  MOVLW  25
02AE6:  MOVWF  xDB
02AE8:  MOVF   xDB,W
02AEA:  SUBLW  28
02AEC:  BNC   2B06
....................          { 
....................             if(sec_add_bfr[num] == 0xff)                                         //if nothing, count checksum 
02AEE:  CLRF   03
02AF0:  MOVF   xDB,W
02AF2:  ADDLW  F8
02AF4:  MOVWF  FE9
02AF6:  MOVLW  00
02AF8:  ADDWFC 03,W
02AFA:  MOVWF  FEA
02AFC:  INCFSZ FEF,W
02AFE:  BRA    2B02
....................             { 
....................                checksum++; 
02B00:  INCF   xDA,F
....................             } 
02B02:  INCF   xDB,F
02B04:  BRA    2AE8
....................          } 
....................          if(checksum != 4) 
02B06:  MOVF   xDA,W
02B08:  SUBLW  04
02B0A:  BZ    2B4E
....................          { 
....................             for(num = 0; num < FLASH_ADD_SIZE; num++) 
02B0C:  CLRF   xDB
02B0E:  MOVF   xDB,W
02B10:  SUBLW  28
02B12:  BNC   2B38
....................             { 
....................                fprintf(PC,"%x",sec_add_bfr[num]); 
02B14:  CLRF   03
02B16:  MOVF   xDB,W
02B18:  ADDLW  F8
02B1A:  MOVWF  FE9
02B1C:  MOVLW  00
02B1E:  ADDWFC 03,W
02B20:  MOVWF  FEA
02B22:  MOVFF  FEF,311
02B26:  MOVLW  57
02B28:  MOVLB  3
02B2A:  MOVWF  x12
02B2C:  MOVLB  0
02B2E:  CALL   1C3E
02B32:  MOVLB  2
02B34:  INCF   xDB,F
02B36:  BRA    2B0E
....................             } 
....................             fprintf(PC,"\r\n"); 
02B38:  MOVLW  0D
02B3A:  BTFSS  F9E.4
02B3C:  BRA    2B3A
02B3E:  MOVWF  FAD
02B40:  MOVLW  0A
02B42:  BTFSS  F9E.4
02B44:  BRA    2B42
02B46:  MOVWF  FAD
....................             MAKE_ADDRESS_DATA(); 
02B48:  MOVLB  0
02B4A:  RCALL  2870
02B4C:  MOVLB  2
....................          } 
....................       } 
....................    }   
....................    checksum = 0;   
02B4E:  CLRF   xDA
....................    return; 
02B50:  MOVLB  0
02B52:  GOTO   3F6A (RETURN)
.................... } 
....................  
.................... ////////////////////////// 
.................... //FAB_HK_ADDRESS        // 
.................... //FAB_CW_ADDRESS        // 
.................... //ADCS_SENSOR_ADDRESS   // 
.................... //CAM_ADDRESS           // 
.................... //DC_STATUS_ADDRESS     // 
.................... ////////////////////////// 
.................... void MEMORY_ERASE() 
.................... { 
....................    fprintf(PC,"FLASH MEMORY ERASE START\r\n"); 
*
0B3FA:  MOVLW  2E
0B3FC:  MOVWF  FF6
0B3FE:  MOVLW  0B
0B400:  MOVWF  FF7
0B402:  MOVLW  00
0B404:  MOVWF  FF8
0B406:  CALL   362C
....................     
....................    output_low(PIN_A5);                                                           //CAM_MUX MAINSIDE 
0B40A:  BCF    F92.5
0B40C:  BCF    F89.5
....................    output_low(PIN_C4);                                                           //COM_MUX MAINSIDE 
0B40E:  BCF    F94.4
0B410:  BCF    F8B.4
....................     
....................    sector_erase_OF(0); 
0B412:  MOVLB  3
0B414:  CLRF   x09
0B416:  CLRF   x08
0B418:  CLRF   x07
0B41A:  CLRF   x06
0B41C:  MOVLB  0
0B41E:  CALL   391E
....................    sector_erase_SCF(0); 
0B422:  MOVLB  3
0B424:  CLRF   x09
0B426:  CLRF   x08
0B428:  CLRF   x07
0B42A:  CLRF   x06
0B42C:  MOVLB  0
0B42E:  CALL   39BC
....................    sector_erase_SMF(0); 
0B432:  MOVLB  3
0B434:  CLRF   x09
0B436:  CLRF   x08
0B438:  CLRF   x07
0B43A:  CLRF   x06
0B43C:  MOVLB  0
0B43E:  CALL   3A5A
....................     
....................    sector_erase_OF(FAB_CW_ADDRESS); 
0B442:  MOVFF  4F,309
0B446:  MOVFF  4E,308
0B44A:  MOVFF  4D,307
0B44E:  MOVFF  4C,306
0B452:  CALL   391E
....................    sector_erase_SCF(FAB_CW_ADDRESS); 
0B456:  MOVFF  4F,309
0B45A:  MOVFF  4E,308
0B45E:  MOVFF  4D,307
0B462:  MOVFF  4C,306
0B466:  CALL   39BC
....................    sector_erase_SMF(FAB_CW_ADDRESS); 
0B46A:  MOVFF  4F,309
0B46E:  MOVFF  4E,308
0B472:  MOVFF  4D,307
0B476:  MOVFF  4C,306
0B47A:  CALL   3A5A
....................     
....................     
....................    for(int8 num = 0; num < 5; num++) 
0B47E:  MOVLB  2
0B480:  CLRF   xE5
0B482:  MOVF   xE5,W
0B484:  SUBLW  04
0B486:  BTFSS  FD8.0
0B488:  BRA    B90E
....................    { 
....................       sector_erase_OF(FLAG_DATA_ADDRESS + SECT*num);                             //65536*num 
0B48A:  CLRF   01
0B48C:  CLRF   02
0B48E:  MOVFF  01,03
0B492:  MOVFF  2E5,02
0B496:  CLRF   00
0B498:  CLRF   01
0B49A:  MOVF   00,W
0B49C:  ADDWF  38,W
0B49E:  MOVWF  xE7
0B4A0:  MOVF   01,W
0B4A2:  ADDWFC 39,W
0B4A4:  MOVWF  xE8
0B4A6:  MOVF   xE5,W
0B4A8:  ADDWFC 3A,W
0B4AA:  MOVWF  xE9
0B4AC:  MOVF   03,W
0B4AE:  ADDWFC 3B,W
0B4B0:  MOVWF  xEA
0B4B2:  MOVFF  FE8,309
0B4B6:  MOVFF  2E9,308
0B4BA:  MOVFF  2E8,307
0B4BE:  MOVFF  2E7,306
0B4C2:  MOVLB  0
0B4C4:  CALL   391E
....................       sector_erase_OF(CAM_ADDRESS + SECT*num);                                   //65536*num 
0B4C8:  CLRF   01
0B4CA:  CLRF   02
0B4CC:  MOVFF  01,03
0B4D0:  MOVFF  2E5,02
0B4D4:  CLRF   00
0B4D6:  CLRF   01
0B4D8:  MOVF   00,W
0B4DA:  ADDWF  44,W
0B4DC:  MOVLB  2
0B4DE:  MOVWF  xE7
0B4E0:  MOVF   01,W
0B4E2:  ADDWFC 45,W
0B4E4:  MOVWF  xE8
0B4E6:  MOVF   xE5,W
0B4E8:  ADDWFC 46,W
0B4EA:  MOVWF  xE9
0B4EC:  MOVF   03,W
0B4EE:  ADDWFC 47,W
0B4F0:  MOVWF  xEA
0B4F2:  MOVFF  FE8,309
0B4F6:  MOVFF  2E9,308
0B4FA:  MOVFF  2E8,307
0B4FE:  MOVFF  2E7,306
0B502:  MOVLB  0
0B504:  CALL   391E
....................       sector_erase_OF(FAB_HK_ADDRESS + SECT*num);                                //65536*num 
0B508:  CLRF   01
0B50A:  CLRF   02
0B50C:  MOVFF  01,03
0B510:  MOVFF  2E5,02
0B514:  CLRF   00
0B516:  CLRF   01
0B518:  MOVF   00,W
0B51A:  ADDWF  48,W
0B51C:  MOVLB  2
0B51E:  MOVWF  xE7
0B520:  MOVF   01,W
0B522:  ADDWFC 49,W
0B524:  MOVWF  xE8
0B526:  MOVF   xE5,W
0B528:  ADDWFC 4A,W
0B52A:  MOVWF  xE9
0B52C:  MOVF   03,W
0B52E:  ADDWFC 4B,W
0B530:  MOVWF  xEA
0B532:  MOVFF  FE8,309
0B536:  MOVFF  2E9,308
0B53A:  MOVFF  2E8,307
0B53E:  MOVFF  2E7,306
0B542:  MOVLB  0
0B544:  CALL   391E
....................       sector_erase_OF(ADCS_SENSOR_ADDRESS + SECT*num);                           //65536*num 
0B548:  CLRF   01
0B54A:  CLRF   02
0B54C:  MOVFF  01,03
0B550:  MOVFF  2E5,02
0B554:  CLRF   00
0B556:  CLRF   01
0B558:  MOVF   00,W
0B55A:  ADDWF  50,W
0B55C:  MOVLB  2
0B55E:  MOVWF  xE7
0B560:  MOVF   01,W
0B562:  ADDWFC 51,W
0B564:  MOVWF  xE8
0B566:  MOVF   xE5,W
0B568:  ADDWFC 52,W
0B56A:  MOVWF  xE9
0B56C:  MOVF   03,W
0B56E:  ADDWFC 53,W
0B570:  MOVWF  xEA
0B572:  MOVFF  FE8,309
0B576:  MOVFF  2E9,308
0B57A:  MOVFF  2E8,307
0B57E:  MOVFF  2E7,306
0B582:  MOVLB  0
0B584:  CALL   391E
....................       sector_erase_OF(DC_STATUS_ADDRESS + SECT*num);                             //65536*num 
0B588:  CLRF   01
0B58A:  CLRF   02
0B58C:  MOVFF  01,03
0B590:  MOVFF  2E5,02
0B594:  CLRF   00
0B596:  CLRF   01
0B598:  MOVF   00,W
0B59A:  ADDWF  58,W
0B59C:  MOVLB  2
0B59E:  MOVWF  xE7
0B5A0:  MOVF   01,W
0B5A2:  ADDWFC 59,W
0B5A4:  MOVWF  xE8
0B5A6:  MOVF   xE5,W
0B5A8:  ADDWFC 5A,W
0B5AA:  MOVWF  xE9
0B5AC:  MOVF   03,W
0B5AE:  ADDWFC 5B,W
0B5B0:  MOVWF  xEA
0B5B2:  MOVFF  FE8,309
0B5B6:  MOVFF  2E9,308
0B5BA:  MOVFF  2E8,307
0B5BE:  MOVFF  2E7,306
0B5C2:  MOVLB  0
0B5C4:  CALL   391E
....................       sector_erase_OF(HIGH_SAMP_HK_ADDRESS + SECT*num);                          //65536*num 
0B5C8:  CLRF   01
0B5CA:  CLRF   02
0B5CC:  MOVFF  01,03
0B5D0:  MOVFF  2E5,02
0B5D4:  CLRF   00
0B5D6:  CLRF   01
0B5D8:  MOVF   00,W
0B5DA:  ADDWF  5C,W
0B5DC:  MOVLB  2
0B5DE:  MOVWF  xE7
0B5E0:  MOVF   01,W
0B5E2:  ADDWFC 5D,W
0B5E4:  MOVWF  xE8
0B5E6:  MOVF   xE5,W
0B5E8:  ADDWFC 5E,W
0B5EA:  MOVWF  xE9
0B5EC:  MOVF   03,W
0B5EE:  ADDWFC 5F,W
0B5F0:  MOVWF  xEA
0B5F2:  MOVFF  FE8,309
0B5F6:  MOVFF  2E9,308
0B5FA:  MOVFF  2E8,307
0B5FE:  MOVFF  2E7,306
0B602:  MOVLB  0
0B604:  CALL   391E
....................        
....................       sector_erase_SCF(FLAG_DATA_ADDRESS + SECT*num);                            //65536*num 
0B608:  CLRF   01
0B60A:  CLRF   02
0B60C:  MOVFF  01,03
0B610:  MOVFF  2E5,02
0B614:  CLRF   00
0B616:  CLRF   01
0B618:  MOVF   00,W
0B61A:  ADDWF  38,W
0B61C:  MOVLB  2
0B61E:  MOVWF  xE7
0B620:  MOVF   01,W
0B622:  ADDWFC 39,W
0B624:  MOVWF  xE8
0B626:  MOVF   xE5,W
0B628:  ADDWFC 3A,W
0B62A:  MOVWF  xE9
0B62C:  MOVF   03,W
0B62E:  ADDWFC 3B,W
0B630:  MOVWF  xEA
0B632:  MOVFF  FE8,309
0B636:  MOVFF  2E9,308
0B63A:  MOVFF  2E8,307
0B63E:  MOVFF  2E7,306
0B642:  MOVLB  0
0B644:  CALL   39BC
....................       sector_erase_SCF(CAM_ADDRESS + SECT*num);                                  //65536*num 
0B648:  CLRF   01
0B64A:  CLRF   02
0B64C:  MOVFF  01,03
0B650:  MOVFF  2E5,02
0B654:  CLRF   00
0B656:  CLRF   01
0B658:  MOVF   00,W
0B65A:  ADDWF  44,W
0B65C:  MOVLB  2
0B65E:  MOVWF  xE7
0B660:  MOVF   01,W
0B662:  ADDWFC 45,W
0B664:  MOVWF  xE8
0B666:  MOVF   xE5,W
0B668:  ADDWFC 46,W
0B66A:  MOVWF  xE9
0B66C:  MOVF   03,W
0B66E:  ADDWFC 47,W
0B670:  MOVWF  xEA
0B672:  MOVFF  FE8,309
0B676:  MOVFF  2E9,308
0B67A:  MOVFF  2E8,307
0B67E:  MOVFF  2E7,306
0B682:  MOVLB  0
0B684:  CALL   39BC
....................       sector_erase_SCF(FAB_HK_ADDRESS + SECT*num);                               //65536*num 
0B688:  CLRF   01
0B68A:  CLRF   02
0B68C:  MOVFF  01,03
0B690:  MOVFF  2E5,02
0B694:  CLRF   00
0B696:  CLRF   01
0B698:  MOVF   00,W
0B69A:  ADDWF  48,W
0B69C:  MOVLB  2
0B69E:  MOVWF  xE7
0B6A0:  MOVF   01,W
0B6A2:  ADDWFC 49,W
0B6A4:  MOVWF  xE8
0B6A6:  MOVF   xE5,W
0B6A8:  ADDWFC 4A,W
0B6AA:  MOVWF  xE9
0B6AC:  MOVF   03,W
0B6AE:  ADDWFC 4B,W
0B6B0:  MOVWF  xEA
0B6B2:  MOVFF  FE8,309
0B6B6:  MOVFF  2E9,308
0B6BA:  MOVFF  2E8,307
0B6BE:  MOVFF  2E7,306
0B6C2:  MOVLB  0
0B6C4:  CALL   39BC
....................       sector_erase_SCF(ADCS_SENSOR_ADDRESS + SECT*num);                          //65536*num 
0B6C8:  CLRF   01
0B6CA:  CLRF   02
0B6CC:  MOVFF  01,03
0B6D0:  MOVFF  2E5,02
0B6D4:  CLRF   00
0B6D6:  CLRF   01
0B6D8:  MOVF   00,W
0B6DA:  ADDWF  50,W
0B6DC:  MOVLB  2
0B6DE:  MOVWF  xE7
0B6E0:  MOVF   01,W
0B6E2:  ADDWFC 51,W
0B6E4:  MOVWF  xE8
0B6E6:  MOVF   xE5,W
0B6E8:  ADDWFC 52,W
0B6EA:  MOVWF  xE9
0B6EC:  MOVF   03,W
0B6EE:  ADDWFC 53,W
0B6F0:  MOVWF  xEA
0B6F2:  MOVFF  FE8,309
0B6F6:  MOVFF  2E9,308
0B6FA:  MOVFF  2E8,307
0B6FE:  MOVFF  2E7,306
0B702:  MOVLB  0
0B704:  CALL   39BC
....................       sector_erase_SCF(DC_STATUS_ADDRESS + SECT*num);                            //65536*num 
0B708:  CLRF   01
0B70A:  CLRF   02
0B70C:  MOVFF  01,03
0B710:  MOVFF  2E5,02
0B714:  CLRF   00
0B716:  CLRF   01
0B718:  MOVF   00,W
0B71A:  ADDWF  58,W
0B71C:  MOVLB  2
0B71E:  MOVWF  xE7
0B720:  MOVF   01,W
0B722:  ADDWFC 59,W
0B724:  MOVWF  xE8
0B726:  MOVF   xE5,W
0B728:  ADDWFC 5A,W
0B72A:  MOVWF  xE9
0B72C:  MOVF   03,W
0B72E:  ADDWFC 5B,W
0B730:  MOVWF  xEA
0B732:  MOVFF  FE8,309
0B736:  MOVFF  2E9,308
0B73A:  MOVFF  2E8,307
0B73E:  MOVFF  2E7,306
0B742:  MOVLB  0
0B744:  CALL   39BC
....................       sector_erase_SCF(HIGH_SAMP_HK_ADDRESS + SECT*num);                         //65536*num 
0B748:  CLRF   01
0B74A:  CLRF   02
0B74C:  MOVFF  01,03
0B750:  MOVFF  2E5,02
0B754:  CLRF   00
0B756:  CLRF   01
0B758:  MOVF   00,W
0B75A:  ADDWF  5C,W
0B75C:  MOVLB  2
0B75E:  MOVWF  xE7
0B760:  MOVF   01,W
0B762:  ADDWFC 5D,W
0B764:  MOVWF  xE8
0B766:  MOVF   xE5,W
0B768:  ADDWFC 5E,W
0B76A:  MOVWF  xE9
0B76C:  MOVF   03,W
0B76E:  ADDWFC 5F,W
0B770:  MOVWF  xEA
0B772:  MOVFF  FE8,309
0B776:  MOVFF  2E9,308
0B77A:  MOVFF  2E8,307
0B77E:  MOVFF  2E7,306
0B782:  MOVLB  0
0B784:  CALL   39BC
....................        
....................       sector_erase_SMF(FLAG_DATA_ADDRESS + SECT*num);                            //65536*num 
0B788:  CLRF   01
0B78A:  CLRF   02
0B78C:  MOVFF  01,03
0B790:  MOVFF  2E5,02
0B794:  CLRF   00
0B796:  CLRF   01
0B798:  MOVF   00,W
0B79A:  ADDWF  38,W
0B79C:  MOVLB  2
0B79E:  MOVWF  xE7
0B7A0:  MOVF   01,W
0B7A2:  ADDWFC 39,W
0B7A4:  MOVWF  xE8
0B7A6:  MOVF   xE5,W
0B7A8:  ADDWFC 3A,W
0B7AA:  MOVWF  xE9
0B7AC:  MOVF   03,W
0B7AE:  ADDWFC 3B,W
0B7B0:  MOVWF  xEA
0B7B2:  MOVFF  FE8,309
0B7B6:  MOVFF  2E9,308
0B7BA:  MOVFF  2E8,307
0B7BE:  MOVFF  2E7,306
0B7C2:  MOVLB  0
0B7C4:  CALL   3A5A
....................       sector_erase_SMF(CAM_ADDRESS + SECT*num);                                  //65536*num 
0B7C8:  CLRF   01
0B7CA:  CLRF   02
0B7CC:  MOVFF  01,03
0B7D0:  MOVFF  2E5,02
0B7D4:  CLRF   00
0B7D6:  CLRF   01
0B7D8:  MOVF   00,W
0B7DA:  ADDWF  44,W
0B7DC:  MOVLB  2
0B7DE:  MOVWF  xE7
0B7E0:  MOVF   01,W
0B7E2:  ADDWFC 45,W
0B7E4:  MOVWF  xE8
0B7E6:  MOVF   xE5,W
0B7E8:  ADDWFC 46,W
0B7EA:  MOVWF  xE9
0B7EC:  MOVF   03,W
0B7EE:  ADDWFC 47,W
0B7F0:  MOVWF  xEA
0B7F2:  MOVFF  FE8,309
0B7F6:  MOVFF  2E9,308
0B7FA:  MOVFF  2E8,307
0B7FE:  MOVFF  2E7,306
0B802:  MOVLB  0
0B804:  CALL   3A5A
....................       sector_erase_SMF(FAB_HK_ADDRESS + SECT*num);                               //65536*num 
0B808:  CLRF   01
0B80A:  CLRF   02
0B80C:  MOVFF  01,03
0B810:  MOVFF  2E5,02
0B814:  CLRF   00
0B816:  CLRF   01
0B818:  MOVF   00,W
0B81A:  ADDWF  48,W
0B81C:  MOVLB  2
0B81E:  MOVWF  xE7
0B820:  MOVF   01,W
0B822:  ADDWFC 49,W
0B824:  MOVWF  xE8
0B826:  MOVF   xE5,W
0B828:  ADDWFC 4A,W
0B82A:  MOVWF  xE9
0B82C:  MOVF   03,W
0B82E:  ADDWFC 4B,W
0B830:  MOVWF  xEA
0B832:  MOVFF  FE8,309
0B836:  MOVFF  2E9,308
0B83A:  MOVFF  2E8,307
0B83E:  MOVFF  2E7,306
0B842:  MOVLB  0
0B844:  CALL   3A5A
....................       sector_erase_SMF(ADCS_SENSOR_ADDRESS + SECT*num);                          //65536*num 
0B848:  CLRF   01
0B84A:  CLRF   02
0B84C:  MOVFF  01,03
0B850:  MOVFF  2E5,02
0B854:  CLRF   00
0B856:  CLRF   01
0B858:  MOVF   00,W
0B85A:  ADDWF  50,W
0B85C:  MOVLB  2
0B85E:  MOVWF  xE7
0B860:  MOVF   01,W
0B862:  ADDWFC 51,W
0B864:  MOVWF  xE8
0B866:  MOVF   xE5,W
0B868:  ADDWFC 52,W
0B86A:  MOVWF  xE9
0B86C:  MOVF   03,W
0B86E:  ADDWFC 53,W
0B870:  MOVWF  xEA
0B872:  MOVFF  FE8,309
0B876:  MOVFF  2E9,308
0B87A:  MOVFF  2E8,307
0B87E:  MOVFF  2E7,306
0B882:  MOVLB  0
0B884:  CALL   3A5A
....................       sector_erase_SMF(DC_STATUS_ADDRESS + SECT*num);                            //65536*num 
0B888:  CLRF   01
0B88A:  CLRF   02
0B88C:  MOVFF  01,03
0B890:  MOVFF  2E5,02
0B894:  CLRF   00
0B896:  CLRF   01
0B898:  MOVF   00,W
0B89A:  ADDWF  58,W
0B89C:  MOVLB  2
0B89E:  MOVWF  xE7
0B8A0:  MOVF   01,W
0B8A2:  ADDWFC 59,W
0B8A4:  MOVWF  xE8
0B8A6:  MOVF   xE5,W
0B8A8:  ADDWFC 5A,W
0B8AA:  MOVWF  xE9
0B8AC:  MOVF   03,W
0B8AE:  ADDWFC 5B,W
0B8B0:  MOVWF  xEA
0B8B2:  MOVFF  FE8,309
0B8B6:  MOVFF  2E9,308
0B8BA:  MOVFF  2E8,307
0B8BE:  MOVFF  2E7,306
0B8C2:  MOVLB  0
0B8C4:  CALL   3A5A
....................       sector_erase_SMF(HIGH_SAMP_HK_ADDRESS + SECT*num);                         //65536*num 
0B8C8:  CLRF   01
0B8CA:  CLRF   02
0B8CC:  MOVFF  01,03
0B8D0:  MOVFF  2E5,02
0B8D4:  CLRF   00
0B8D6:  CLRF   01
0B8D8:  MOVF   00,W
0B8DA:  ADDWF  5C,W
0B8DC:  MOVLB  2
0B8DE:  MOVWF  xE7
0B8E0:  MOVF   01,W
0B8E2:  ADDWFC 5D,W
0B8E4:  MOVWF  xE8
0B8E6:  MOVF   xE5,W
0B8E8:  ADDWFC 5E,W
0B8EA:  MOVWF  xE9
0B8EC:  MOVF   03,W
0B8EE:  ADDWFC 5F,W
0B8F0:  MOVWF  xEA
0B8F2:  MOVFF  FE8,309
0B8F6:  MOVFF  2E9,308
0B8FA:  MOVFF  2E8,307
0B8FE:  MOVFF  2E7,306
0B902:  MOVLB  0
0B904:  CALL   3A5A
0B908:  MOVLB  2
0B90A:  INCF   xE5,F
0B90C:  BRA    B482
....................    } 
....................    for(num = 5; num < 10; num++) 
0B90E:  MOVLW  05
0B910:  MOVWF  xE5
0B912:  MOVF   xE5,W
0B914:  SUBLW  09
0B916:  BTFSS  FD8.0
0B918:  BRA    BB5E
....................    { 
....................       sector_erase_OF(CAM_ADDRESS + SECT*num);                                   //65536*num 
0B91A:  CLRF   01
0B91C:  CLRF   02
0B91E:  MOVFF  01,03
0B922:  MOVFF  2E5,02
0B926:  CLRF   00
0B928:  CLRF   01
0B92A:  MOVF   00,W
0B92C:  ADDWF  44,W
0B92E:  MOVWF  xE7
0B930:  MOVF   01,W
0B932:  ADDWFC 45,W
0B934:  MOVWF  xE8
0B936:  MOVF   xE5,W
0B938:  ADDWFC 46,W
0B93A:  MOVWF  xE9
0B93C:  MOVF   03,W
0B93E:  ADDWFC 47,W
0B940:  MOVWF  xEA
0B942:  MOVFF  FE8,309
0B946:  MOVFF  2E9,308
0B94A:  MOVFF  2E8,307
0B94E:  MOVFF  2E7,306
0B952:  MOVLB  0
0B954:  CALL   391E
....................       sector_erase_OF(FAB_HK_ADDRESS + SECT*num);                                //65536*num 
0B958:  CLRF   01
0B95A:  CLRF   02
0B95C:  MOVFF  01,03
0B960:  MOVFF  2E5,02
0B964:  CLRF   00
0B966:  CLRF   01
0B968:  MOVF   00,W
0B96A:  ADDWF  48,W
0B96C:  MOVLB  2
0B96E:  MOVWF  xE7
0B970:  MOVF   01,W
0B972:  ADDWFC 49,W
0B974:  MOVWF  xE8
0B976:  MOVF   xE5,W
0B978:  ADDWFC 4A,W
0B97A:  MOVWF  xE9
0B97C:  MOVF   03,W
0B97E:  ADDWFC 4B,W
0B980:  MOVWF  xEA
0B982:  MOVFF  FE8,309
0B986:  MOVFF  2E9,308
0B98A:  MOVFF  2E8,307
0B98E:  MOVFF  2E7,306
0B992:  MOVLB  0
0B994:  CALL   391E
....................       sector_erase_OF(HIGH_SAMP_HK_ADDRESS + SECT*num);                          //65536*num 
0B998:  CLRF   01
0B99A:  CLRF   02
0B99C:  MOVFF  01,03
0B9A0:  MOVFF  2E5,02
0B9A4:  CLRF   00
0B9A6:  CLRF   01
0B9A8:  MOVF   00,W
0B9AA:  ADDWF  5C,W
0B9AC:  MOVLB  2
0B9AE:  MOVWF  xE7
0B9B0:  MOVF   01,W
0B9B2:  ADDWFC 5D,W
0B9B4:  MOVWF  xE8
0B9B6:  MOVF   xE5,W
0B9B8:  ADDWFC 5E,W
0B9BA:  MOVWF  xE9
0B9BC:  MOVF   03,W
0B9BE:  ADDWFC 5F,W
0B9C0:  MOVWF  xEA
0B9C2:  MOVFF  FE8,309
0B9C6:  MOVFF  2E9,308
0B9CA:  MOVFF  2E8,307
0B9CE:  MOVFF  2E7,306
0B9D2:  MOVLB  0
0B9D4:  CALL   391E
....................        
....................       sector_erase_SCF(CAM_ADDRESS + SECT*num);                                  //65536*num 
0B9D8:  CLRF   01
0B9DA:  CLRF   02
0B9DC:  MOVFF  01,03
0B9E0:  MOVFF  2E5,02
0B9E4:  CLRF   00
0B9E6:  CLRF   01
0B9E8:  MOVF   00,W
0B9EA:  ADDWF  44,W
0B9EC:  MOVLB  2
0B9EE:  MOVWF  xE7
0B9F0:  MOVF   01,W
0B9F2:  ADDWFC 45,W
0B9F4:  MOVWF  xE8
0B9F6:  MOVF   xE5,W
0B9F8:  ADDWFC 46,W
0B9FA:  MOVWF  xE9
0B9FC:  MOVF   03,W
0B9FE:  ADDWFC 47,W
0BA00:  MOVWF  xEA
0BA02:  MOVFF  FE8,309
0BA06:  MOVFF  2E9,308
0BA0A:  MOVFF  2E8,307
0BA0E:  MOVFF  2E7,306
0BA12:  MOVLB  0
0BA14:  CALL   39BC
....................       sector_erase_SCF(FAB_HK_ADDRESS + SECT*num);                               //65536*num 
0BA18:  CLRF   01
0BA1A:  CLRF   02
0BA1C:  MOVFF  01,03
0BA20:  MOVFF  2E5,02
0BA24:  CLRF   00
0BA26:  CLRF   01
0BA28:  MOVF   00,W
0BA2A:  ADDWF  48,W
0BA2C:  MOVLB  2
0BA2E:  MOVWF  xE7
0BA30:  MOVF   01,W
0BA32:  ADDWFC 49,W
0BA34:  MOVWF  xE8
0BA36:  MOVF   xE5,W
0BA38:  ADDWFC 4A,W
0BA3A:  MOVWF  xE9
0BA3C:  MOVF   03,W
0BA3E:  ADDWFC 4B,W
0BA40:  MOVWF  xEA
0BA42:  MOVFF  FE8,309
0BA46:  MOVFF  2E9,308
0BA4A:  MOVFF  2E8,307
0BA4E:  MOVFF  2E7,306
0BA52:  MOVLB  0
0BA54:  CALL   39BC
....................       sector_erase_SCF(HIGH_SAMP_HK_ADDRESS + SECT*num);                         //65536*num 
0BA58:  CLRF   01
0BA5A:  CLRF   02
0BA5C:  MOVFF  01,03
0BA60:  MOVFF  2E5,02
0BA64:  CLRF   00
0BA66:  CLRF   01
0BA68:  MOVF   00,W
0BA6A:  ADDWF  5C,W
0BA6C:  MOVLB  2
0BA6E:  MOVWF  xE7
0BA70:  MOVF   01,W
0BA72:  ADDWFC 5D,W
0BA74:  MOVWF  xE8
0BA76:  MOVF   xE5,W
0BA78:  ADDWFC 5E,W
0BA7A:  MOVWF  xE9
0BA7C:  MOVF   03,W
0BA7E:  ADDWFC 5F,W
0BA80:  MOVWF  xEA
0BA82:  MOVFF  FE8,309
0BA86:  MOVFF  2E9,308
0BA8A:  MOVFF  2E8,307
0BA8E:  MOVFF  2E7,306
0BA92:  MOVLB  0
0BA94:  CALL   39BC
....................        
....................       sector_erase_SMF(CAM_ADDRESS + SECT*num);                                  //65536*num 
0BA98:  CLRF   01
0BA9A:  CLRF   02
0BA9C:  MOVFF  01,03
0BAA0:  MOVFF  2E5,02
0BAA4:  CLRF   00
0BAA6:  CLRF   01
0BAA8:  MOVF   00,W
0BAAA:  ADDWF  44,W
0BAAC:  MOVLB  2
0BAAE:  MOVWF  xE7
0BAB0:  MOVF   01,W
0BAB2:  ADDWFC 45,W
0BAB4:  MOVWF  xE8
0BAB6:  MOVF   xE5,W
0BAB8:  ADDWFC 46,W
0BABA:  MOVWF  xE9
0BABC:  MOVF   03,W
0BABE:  ADDWFC 47,W
0BAC0:  MOVWF  xEA
0BAC2:  MOVFF  FE8,309
0BAC6:  MOVFF  2E9,308
0BACA:  MOVFF  2E8,307
0BACE:  MOVFF  2E7,306
0BAD2:  MOVLB  0
0BAD4:  CALL   3A5A
....................       sector_erase_SMF(FAB_HK_ADDRESS + SECT*num);                               //65536*num 
0BAD8:  CLRF   01
0BADA:  CLRF   02
0BADC:  MOVFF  01,03
0BAE0:  MOVFF  2E5,02
0BAE4:  CLRF   00
0BAE6:  CLRF   01
0BAE8:  MOVF   00,W
0BAEA:  ADDWF  48,W
0BAEC:  MOVLB  2
0BAEE:  MOVWF  xE7
0BAF0:  MOVF   01,W
0BAF2:  ADDWFC 49,W
0BAF4:  MOVWF  xE8
0BAF6:  MOVF   xE5,W
0BAF8:  ADDWFC 4A,W
0BAFA:  MOVWF  xE9
0BAFC:  MOVF   03,W
0BAFE:  ADDWFC 4B,W
0BB00:  MOVWF  xEA
0BB02:  MOVFF  FE8,309
0BB06:  MOVFF  2E9,308
0BB0A:  MOVFF  2E8,307
0BB0E:  MOVFF  2E7,306
0BB12:  MOVLB  0
0BB14:  CALL   3A5A
....................       sector_erase_SMF(HIGH_SAMP_HK_ADDRESS + SECT*num);                         //65536*num 
0BB18:  CLRF   01
0BB1A:  CLRF   02
0BB1C:  MOVFF  01,03
0BB20:  MOVFF  2E5,02
0BB24:  CLRF   00
0BB26:  CLRF   01
0BB28:  MOVF   00,W
0BB2A:  ADDWF  5C,W
0BB2C:  MOVLB  2
0BB2E:  MOVWF  xE7
0BB30:  MOVF   01,W
0BB32:  ADDWFC 5D,W
0BB34:  MOVWF  xE8
0BB36:  MOVF   xE5,W
0BB38:  ADDWFC 5E,W
0BB3A:  MOVWF  xE9
0BB3C:  MOVF   03,W
0BB3E:  ADDWFC 5F,W
0BB40:  MOVWF  xEA
0BB42:  MOVFF  FE8,309
0BB46:  MOVFF  2E9,308
0BB4A:  MOVFF  2E8,307
0BB4E:  MOVFF  2E7,306
0BB52:  MOVLB  0
0BB54:  CALL   3A5A
0BB58:  MOVLB  2
0BB5A:  INCF   xE5,F
0BB5C:  BRA    B912
....................    } 
....................    output_high(PIN_C4);                                                          //COM_MUX COMSIDE 
0BB5E:  BCF    F94.4
0BB60:  BSF    F8B.4
....................    delay_ms(10000); 
0BB62:  MOVLW  28
0BB64:  MOVWF  xE7
0BB66:  MOVLW  FA
0BB68:  MOVLB  3
0BB6A:  MOVWF  x19
0BB6C:  MOVLB  0
0BB6E:  CALL   1F78
0BB72:  MOVLB  2
0BB74:  DECFSZ xE7,F
0BB76:  BRA    BB66
....................    fprintf(PC,"FLASH MEMORY ERASE DONE\r\n"); 
0BB78:  MOVLW  4A
0BB7A:  MOVWF  FF6
0BB7C:  MOVLW  0B
0BB7E:  MOVWF  FF7
0BB80:  MOVLW  00
0BB82:  MOVWF  FF8
0BB84:  MOVLB  0
0BB86:  CALL   362C
....................    for(int t=60; t>0; t--){ 
0BB8A:  MOVLW  3C
0BB8C:  MOVLB  2
0BB8E:  MOVWF  xE6
0BB90:  MOVF   xE6,F
0BB92:  BZ    BBF0
....................    fprintf(PC,"Remaining time: %d  \r", t); 
0BB94:  MOVLW  64
0BB96:  MOVWF  FF6
0BB98:  MOVLW  0B
0BB9A:  MOVWF  FF7
0BB9C:  MOVLW  00
0BB9E:  MOVWF  FF8
0BBA0:  MOVLW  10
0BBA2:  MOVLB  3
0BBA4:  MOVWF  x10
0BBA6:  MOVLB  0
0BBA8:  CALL   1C0C
0BBAC:  MOVFF  2E6,2EC
0BBB0:  MOVLW  18
0BBB2:  MOVLB  2
0BBB4:  MOVWF  xED
0BBB6:  MOVLB  0
0BBB8:  CALL   6E72
0BBBC:  MOVLW  76
0BBBE:  MOVWF  FF6
0BBC0:  MOVLW  0B
0BBC2:  MOVWF  FF7
0BBC4:  MOVLW  00
0BBC6:  MOVWF  FF8
0BBC8:  MOVLW  03
0BBCA:  MOVLB  3
0BBCC:  MOVWF  x10
0BBCE:  MOVLB  0
0BBD0:  CALL   1C0C
....................    delay_ms(1000); 
0BBD4:  MOVLW  04
0BBD6:  MOVLB  2
0BBD8:  MOVWF  xE7
0BBDA:  MOVLW  FA
0BBDC:  MOVLB  3
0BBDE:  MOVWF  x19
0BBE0:  MOVLB  0
0BBE2:  CALL   1F78
0BBE6:  MOVLB  2
0BBE8:  DECFSZ xE7,F
0BBEA:  BRA    BBDA
0BBEC:  DECF   xE6,F
0BBEE:  BRA    BB90
....................    } 
....................    //delay_ms(60000); 
....................    return; 
0BBF0:  MOVLB  0
0BBF2:  RETURN 0
.................... } 
.................... /* 
.................... //@@@@@@@@@@@@@@@@@@MISSION LOOP@@@@@@@@@@@@@@@@@@@@@@@@@@@@@@@@@@@@@@@@@@@@@@@ 
.................... void LOOP_FLAG_DATA_ADDRESS() 
.................... { 
....................     
....................    if(FLAG_DATA_ADDRESS > FLAG_DATA_ADDRESS_END) 
....................    { 
....................    } 
....................    return; 
.................... } 
....................  
.................... void LOOP_RSV_DATA_ADDRESS() 
.................... { 
....................    if(RSV_DATA_ADDRESS > RSV_DATA_ADDRESS_END) 
....................    { 
....................        
....................    } 
....................    return; 
.................... } 
.................... */ 
.................... void LOOP_SAT_LOG()                                                              //hace un loop en las posiciones de memoria para almacenar SAT_LOG 
.................... { 
....................    if(SAT_LOG >= SAT_LOG_END)                                                    //si la posicion de escritura de SAT_LOG alcanza a SAT_LOG_END 
*
03D9C:  MOVF   43,F
03D9E:  BNZ   3DBA
03DA0:  MOVF   42,W
03DA2:  SUBLW  06
03DA4:  BC    3E02
03DA6:  XORLW  FF
03DA8:  BNZ   3DBA
03DAA:  MOVF   41,W
03DAC:  SUBLW  FE
03DAE:  BC    3E02
03DB0:  XORLW  FF
03DB2:  BNZ   3DBA
03DB4:  MOVF   40,W
03DB6:  SUBLW  E9
03DB8:  BC    3E02
....................    { 
....................       sector_erase_OF(SECT*7);                                                   //borra un sector de la MAIN flash, 65536*7 
03DBA:  MOVLB  3
03DBC:  CLRF   x09
03DBE:  MOVLW  07
03DC0:  MOVWF  x08
03DC2:  CLRF   x07
03DC4:  CLRF   x06
03DC6:  MOVLB  0
03DC8:  RCALL  391E
....................        
....................       output_low(PIN_C4);                                                        //COM_MUX MAINSIDE 
03DCA:  BCF    F94.4
03DCC:  BCF    F8B.4
....................       sector_erase_SCF(SECT*7);                                                  //borra un sector de la COM flash,65536*7 
03DCE:  MOVLB  3
03DD0:  CLRF   x09
03DD2:  MOVLW  07
03DD4:  MOVWF  x08
03DD6:  CLRF   x07
03DD8:  CLRF   x06
03DDA:  MOVLB  0
03DDC:  RCALL  39BC
....................       output_high(PIN_C4);                                                       //CAM_MUX MAINSIDE 
03DDE:  BCF    F94.4
03DE0:  BSF    F8B.4
....................        
....................       output_low(PIN_A5);                                                        //CAM_MUX MAINSIDE 
03DE2:  BCF    F92.5
03DE4:  BCF    F89.5
....................       sector_erase_SMF(SECT*7);                                                  //borra un sector de la MISSION flash,65536*7 
03DE6:  MOVLB  3
03DE8:  CLRF   x09
03DEA:  MOVLW  07
03DEC:  MOVWF  x08
03DEE:  CLRF   x07
03DF0:  CLRF   x06
03DF2:  MOVLB  0
03DF4:  RCALL  3A5A
....................       SAT_LOG = SECT*7;                                                          //Cambia la direccion de SAT_LOG y mantiene el primer sector,65536*7 
03DF6:  CLRF   43
03DF8:  MOVLW  07
03DFA:  MOVWF  42
03DFC:  CLRF   41
03DFE:  CLRF   40
....................       STORE_ADRESS_DATA_TO_FLASH();                                              //guarda los datos de direcciones, sera en un nuevo sector si se cumple el ciclo de R/W 
03E00:  RCALL  3AF8
....................    } 
....................    //output_high(PIN_C4);//COM_MUX COMSIDE 
....................    return; 
03E02:  GOTO   3E08 (RETURN)
.................... } 
....................  
.................... void LOOP_CAM_ADDRESS()                                                          //hace un loop en las posiciones de memoria para almacenar CAM data 
.................... { 
....................    if(CAM_ADDRESS >= CAM_ADDRESS_END)                                            //si la posicion de escritura de CAM alcanza a CAM_ADDRESS_END 
*
06DD0:  MOVF   47,F
06DD2:  BNZ   6DDA
06DD4:  MOVF   46,W
06DD6:  SUBLW  5F
06DD8:  BC    6E2A
....................    { 
....................       sector_erase_OF(SECT*9);                                                   //borra 1 sector de la MAIN flash, 65536*9 
06DDA:  MOVLB  3
06DDC:  CLRF   x09
06DDE:  MOVLW  09
06DE0:  MOVWF  x08
06DE2:  CLRF   x07
06DE4:  CLRF   x06
06DE6:  MOVLB  0
06DE8:  CALL   391E
....................        
....................       output_low(PIN_C4);                                                        //COM_MUX MAINSIDE 
06DEC:  BCF    F94.4
06DEE:  BCF    F8B.4
....................       sector_erase_SCF(SECT*9);                                                  //borra 1 sector de la COM flash, 65536*9 
06DF0:  MOVLB  3
06DF2:  CLRF   x09
06DF4:  MOVLW  09
06DF6:  MOVWF  x08
06DF8:  CLRF   x07
06DFA:  CLRF   x06
06DFC:  MOVLB  0
06DFE:  CALL   39BC
....................       output_high(PIN_C4);                                                       //COM_MUX COMSIDE 
06E02:  BCF    F94.4
06E04:  BSF    F8B.4
....................        
....................       output_low(PIN_A5);                                                        //CAM_MUX MAINSIDE 
06E06:  BCF    F92.5
06E08:  BCF    F89.5
....................       sector_erase_SMF(SECT*9);                                                  //borra 1 sector de la MISSION flash, 65536*9 
06E0A:  MOVLB  3
06E0C:  CLRF   x09
06E0E:  MOVLW  09
06E10:  MOVWF  x08
06E12:  CLRF   x07
06E14:  CLRF   x06
06E16:  MOVLB  0
06E18:  CALL   3A5A
....................        
....................       CAM_ADDRESS = SECT*9;                                                      //CAM address se ubica ahora en el comienzo del espacio designado a CAM 
06E1C:  CLRF   47
06E1E:  MOVLW  09
06E20:  MOVWF  46
06E22:  CLRF   45
06E24:  CLRF   44
....................       STORE_ADRESS_DATA_TO_FLASH(); 
06E26:  CALL   3AF8
....................    } 
....................    return; 
06E2A:  RETURN 0
.................... } 
....................  
.................... void LOOP_FAB_HK_ADDRESS()                                                       //Rota las posiciones de guardado de los datos si llega al final del espacio asignado                                                        
*
03FEA:  MOVF   48,F
03FEC:  BNZ   3FFE
03FEE:  MOVF   49,F
03FF0:  BNZ   3FFE
03FF2:  MOVF   4A,F
03FF4:  BNZ   3FFE
03FF6:  MOVF   4B,F
03FF8:  BNZ   3FFE
03FFA:  MOVLW  00
03FFC:  BRA    4000
03FFE:  MOVLW  01
04000:  MOVLB  2
04002:  CLRF   xDF
04004:  CLRF   xDE
04006:  CLRF   xDD
04008:  MOVWF  xDC
.................... { 
....................    int32 checksum = FAB_HK_ADDRESS && 0x0000ffff; 
....................    if(FAB_HK_ADDRESS >= FAB_HK_ADDRESS_END)                                       
0400A:  MOVF   4B,W
0400C:  SUBLW  03
0400E:  BC    407A
04010:  XORLW  FF
04012:  BNZ   402E
04014:  MOVF   4A,W
04016:  SUBLW  47
04018:  BC    407A
0401A:  XORLW  FF
0401C:  BNZ   402E
0401E:  MOVF   49,W
04020:  SUBLW  FE
04022:  BC    407A
04024:  XORLW  FF
04026:  BNZ   402E
04028:  MOVF   48,W
0402A:  SUBLW  07
0402C:  BC    407A
....................    { 
....................       sector_erase_OF(SECT*98); 
0402E:  MOVLB  3
04030:  CLRF   x09
04032:  MOVLW  62
04034:  MOVWF  x08
04036:  CLRF   x07
04038:  CLRF   x06
0403A:  MOVLB  0
0403C:  RCALL  391E
....................        
....................       output_low(PIN_C4);                                                        //COM_MUX MAINSIDE 
0403E:  BCF    F94.4
04040:  BCF    F8B.4
....................       sector_erase_SCF(SECT*98); 
04042:  MOVLB  3
04044:  CLRF   x09
04046:  MOVLW  62
04048:  MOVWF  x08
0404A:  CLRF   x07
0404C:  CLRF   x06
0404E:  MOVLB  0
04050:  RCALL  39BC
....................       output_high(PIN_C4);                                                       //COM_MUX COMSIDE 
04052:  BCF    F94.4
04054:  BSF    F8B.4
....................        
....................       output_low(PIN_A5);                                                        //CAM_MUX MAINSIDE 
04056:  BCF    F92.5
04058:  BCF    F89.5
....................       sector_erase_SMF(SECT*98); 
0405A:  MOVLB  3
0405C:  CLRF   x09
0405E:  MOVLW  62
04060:  MOVWF  x08
04062:  CLRF   x07
04064:  CLRF   x06
04066:  MOVLB  0
04068:  RCALL  3A5A
....................        
....................       FAB_HK_ADDRESS = 65536*8;                                                  //la nueva direccion vuelve a ser el comienzo del espacio asignado 
0406A:  CLRF   4B
0406C:  MOVLW  08
0406E:  MOVWF  4A
04070:  CLRF   49
04072:  CLRF   48
....................       STORE_ADRESS_DATA_TO_FLASH();                                              //guarda los datos de direcciones y en un nuevo sector si se cumple el ciclo de R/W 
04074:  RCALL  3AF8
....................    }else if(65536 - checksum < 119){                                             //if value will be close to the sector 
04076:  BRA    4142
04078:  MOVLB  2
0407A:  MOVLW  00
0407C:  BSF    FD8.0
0407E:  SUBFWB xDC,W
04080:  MOVWF  xE0
04082:  MOVLW  00
04084:  SUBFWB xDD,W
04086:  MOVWF  xE1
04088:  MOVLW  01
0408A:  SUBFWB xDE,W
0408C:  MOVWF  xE2
0408E:  MOVLW  00
04090:  SUBFWB xDF,W
04092:  MOVWF  xE3
04094:  MOVF   xE3,F
04096:  BNZ   4144
04098:  MOVF   xE2,F
0409A:  BNZ   4144
0409C:  MOVF   xE1,F
0409E:  BNZ   4144
040A0:  MOVF   xE0,W
040A2:  SUBLW  76
040A4:  BNC   4144
....................       fprintf(PC,"erasing next sector\r\n"); 
040A6:  MOVLW  7A
040A8:  MOVWF  FF6
040AA:  MOVLW  0B
040AC:  MOVWF  FF7
040AE:  MOVLW  00
040B0:  MOVWF  FF8
040B2:  MOVLB  0
040B4:  CALL   362C
....................        
....................       sector_erase_OF(FAB_HK_ADDRESS + SECT);                                    //erase next sector in advance 
040B8:  MOVFF  48,2E0
040BC:  MOVLB  2
040BE:  MOVFF  49,2E1
040C2:  MOVLW  01
040C4:  ADDWF  4A,W
040C6:  MOVWF  xE2
040C8:  MOVLW  00
040CA:  ADDWFC 4B,W
040CC:  MOVWF  xE3
040CE:  MOVFF  FE8,309
040D2:  MOVFF  2E2,308
040D6:  MOVFF  49,307
040DA:  MOVFF  48,306
040DE:  MOVLB  0
040E0:  RCALL  391E
....................        
....................       output_low(PIN_C4);                                                        //COM_MUX MAINSIDE 
040E2:  BCF    F94.4
040E4:  BCF    F8B.4
....................       sector_erase_SCF(FAB_HK_ADDRESS + SECT); 
040E6:  MOVFF  48,2E0
040EA:  MOVLB  2
040EC:  MOVFF  49,2E1
040F0:  MOVLW  01
040F2:  ADDWF  4A,W
040F4:  MOVWF  xE2
040F6:  MOVLW  00
040F8:  ADDWFC 4B,W
040FA:  MOVWF  xE3
040FC:  MOVFF  FE8,309
04100:  MOVFF  2E2,308
04104:  MOVFF  49,307
04108:  MOVFF  48,306
0410C:  MOVLB  0
0410E:  RCALL  39BC
....................       output_high(PIN_C4);                                                       //COM_MUX COMSIDE 
04110:  BCF    F94.4
04112:  BSF    F8B.4
....................        
....................       output_low(PIN_A5);                                                        //CAM_MUX MAINSIDE 
04114:  BCF    F92.5
04116:  BCF    F89.5
....................       sector_erase_SMF(FAB_HK_ADDRESS + SECT); 
04118:  MOVFF  48,2E0
0411C:  MOVLB  2
0411E:  MOVFF  49,2E1
04122:  MOVLW  01
04124:  ADDWF  4A,W
04126:  MOVWF  xE2
04128:  MOVLW  00
0412A:  ADDWFC 4B,W
0412C:  MOVWF  xE3
0412E:  MOVFF  FE8,309
04132:  MOVFF  2E2,308
04136:  MOVFF  49,307
0413A:  MOVFF  48,306
0413E:  MOVLB  0
04140:  RCALL  3A5A
04142:  MOVLB  2
....................    } 
....................    return; 
04144:  MOVLB  0
04146:  RETURN 0
.................... } 
....................  
.................... void LOOP_FAB_CW_ADDRESS()                                                       //Rota las posiciones de guardado de los datos si llega al final del espacio asignado  
04148:  MOVF   4C,F
0414A:  BNZ   415C
0414C:  MOVF   4D,F
0414E:  BNZ   415C
04150:  MOVF   4E,F
04152:  BNZ   415C
04154:  MOVF   4F,F
04156:  BNZ   415C
04158:  MOVLW  00
0415A:  BRA    415E
0415C:  MOVLW  01
0415E:  MOVLB  2
04160:  CLRF   xDF
04162:  CLRF   xDE
04164:  CLRF   xDD
04166:  MOVWF  xDC
.................... { 
....................    int32 checksum = FAB_CW_ADDRESS && 0x0000ffff; 
....................    if(FAB_CW_ADDRESS >= FAB_CW_ADDRESS_END) 
04168:  MOVF   4F,W
0416A:  SUBLW  03
0416C:  BC    41E2
0416E:  XORLW  FF
04170:  BNZ   418C
04172:  MOVF   4E,W
04174:  SUBLW  70
04176:  BC    41E2
04178:  XORLW  FF
0417A:  BNZ   418C
0417C:  MOVF   4D,W
0417E:  SUBLW  FE
04180:  BC    41E2
04182:  XORLW  FF
04184:  BNZ   418C
04186:  MOVF   4C,W
04188:  SUBLW  F5
0418A:  BC    41E2
....................    {   
....................       sector_erase_OF(SECT*1098); 
0418C:  MOVLW  04
0418E:  MOVLB  3
04190:  MOVWF  x09
04192:  MOVLW  4A
04194:  MOVWF  x08
04196:  CLRF   x07
04198:  CLRF   x06
0419A:  MOVLB  0
0419C:  CALL   391E
....................        
....................       output_low(PIN_C4);                                                        //COM_MUX MAINSIDE 
041A0:  BCF    F94.4
041A2:  BCF    F8B.4
....................       sector_erase_SCF(SECT*1098); 
041A4:  MOVLW  04
041A6:  MOVLB  3
041A8:  MOVWF  x09
041AA:  MOVLW  4A
041AC:  MOVWF  x08
041AE:  CLRF   x07
041B0:  CLRF   x06
041B2:  MOVLB  0
041B4:  RCALL  39BC
....................       output_high(PIN_C4);                                                       //COM_MUX COMSIDE 
041B6:  BCF    F94.4
041B8:  BSF    F8B.4
....................        
....................       output_low(PIN_A5);                                                        //CAM_MUX MAINSIDE 
041BA:  BCF    F92.5
041BC:  BCF    F89.5
....................       sector_erase_SMF(SECT*1098); 
041BE:  MOVLW  04
041C0:  MOVLB  3
041C2:  MOVWF  x09
041C4:  MOVLW  4A
041C6:  MOVWF  x08
041C8:  CLRF   x07
041CA:  CLRF   x06
041CC:  MOVLB  0
041CE:  RCALL  3A5A
....................        
....................       FAB_CW_ADDRESS = SECT*1098; 
041D0:  MOVLW  04
041D2:  MOVWF  4F
041D4:  MOVLW  4A
041D6:  MOVWF  4E
041D8:  CLRF   4D
041DA:  CLRF   4C
....................       STORE_ADRESS_DATA_TO_FLASH(); 
041DC:  RCALL  3AF8
....................    }else if(SECT - checksum < 5){                                                //if value will be close to the sector 
041DE:  BRA    42B0
041E0:  MOVLB  2
041E2:  MOVLW  00
041E4:  BSF    FD8.0
041E6:  SUBFWB xDC,W
041E8:  MOVWF  xE0
041EA:  MOVLW  00
041EC:  SUBFWB xDD,W
041EE:  MOVWF  xE1
041F0:  MOVLW  01
041F2:  SUBFWB xDE,W
041F4:  MOVWF  xE2
041F6:  MOVLW  00
041F8:  SUBFWB xDF,W
041FA:  MOVWF  xE3
041FC:  MOVF   xE3,F
041FE:  BNZ   42B2
04200:  MOVF   xE2,F
04202:  BNZ   42B2
04204:  MOVF   xE1,F
04206:  BNZ   42B2
04208:  MOVF   xE0,W
0420A:  SUBLW  04
0420C:  BNC   42B2
....................       fprintf(PC,"erasing next sector\r\n"); 
0420E:  MOVLW  90
04210:  MOVWF  FF6
04212:  MOVLW  0B
04214:  MOVWF  FF7
04216:  MOVLW  00
04218:  MOVWF  FF8
0421A:  MOVLB  0
0421C:  CALL   362C
....................        
....................       sector_erase_OF(FAB_CW_ADDRESS + SECT);                                    //erase next sector in advance 
04220:  MOVFF  4C,2E0
04224:  MOVLB  2
04226:  MOVFF  4D,2E1
0422A:  MOVLW  01
0422C:  ADDWF  4E,W
0422E:  MOVWF  xE2
04230:  MOVLW  00
04232:  ADDWFC 4F,W
04234:  MOVWF  xE3
04236:  MOVFF  FE8,309
0423A:  MOVFF  2E2,308
0423E:  MOVFF  4D,307
04242:  MOVFF  4C,306
04246:  MOVLB  0
04248:  CALL   391E
....................        
....................       output_low(PIN_C4);                                                        //COM_MUX MAINSIDE 
0424C:  BCF    F94.4
0424E:  BCF    F8B.4
....................       sector_erase_SCF(FAB_CW_ADDRESS + SECT);                                   //erase next sector in advance 
04250:  MOVFF  4C,2E0
04254:  MOVLB  2
04256:  MOVFF  4D,2E1
0425A:  MOVLW  01
0425C:  ADDWF  4E,W
0425E:  MOVWF  xE2
04260:  MOVLW  00
04262:  ADDWFC 4F,W
04264:  MOVWF  xE3
04266:  MOVFF  FE8,309
0426A:  MOVFF  2E2,308
0426E:  MOVFF  4D,307
04272:  MOVFF  4C,306
04276:  MOVLB  0
04278:  CALL   39BC
....................       output_high(PIN_C4);                                                       //COM_MUX COMSIDE 
0427C:  BCF    F94.4
0427E:  BSF    F8B.4
....................        
....................       output_low(PIN_A5);                                                        //CAM_MUX MAINSIDE 
04280:  BCF    F92.5
04282:  BCF    F89.5
....................       sector_erase_SMF(FAB_CW_ADDRESS + SECT);                                   //erase next sector in advance 
04284:  MOVFF  4C,2E0
04288:  MOVLB  2
0428A:  MOVFF  4D,2E1
0428E:  MOVLW  01
04290:  ADDWF  4E,W
04292:  MOVWF  xE2
04294:  MOVLW  00
04296:  ADDWFC 4F,W
04298:  MOVWF  xE3
0429A:  MOVFF  FE8,309
0429E:  MOVFF  2E2,308
042A2:  MOVFF  4D,307
042A6:  MOVFF  4C,306
042AA:  MOVLB  0
042AC:  CALL   3A5A
042B0:  MOVLB  2
....................        
....................    } 
....................    return; 
042B2:  MOVLB  0
042B4:  RETURN 0
.................... } 
....................  
....................  
.................... void LOOP_ADCS_SENSOR_ADDRESS() 
.................... { 
....................    if(ADCS_SENSOR_ADDRESS >= ADCS_SENSOR_ADDRESS_END)                            //for 15min operation, data size will be more than 1sector 
*
0A2E4:  MOVF   53,W
0A2E6:  SUBLW  05
0A2E8:  BC    A362
0A2EA:  XORLW  FF
0A2EC:  BNZ   A308
0A2EE:  MOVF   52,W
0A2F0:  SUBLW  5E
0A2F2:  BC    A362
0A2F4:  XORLW  FF
0A2F6:  BNZ   A308
0A2F8:  MOVF   51,W
0A2FA:  SUBLW  C5
0A2FC:  BC    A362
0A2FE:  XORLW  FF
0A300:  BNZ   A308
0A302:  MOVF   50,W
0A304:  SUBLW  3F
0A306:  BC    A362
....................    { 
....................       sector_erase_OF(SECT*1140); 
0A308:  MOVLW  04
0A30A:  MOVLB  3
0A30C:  MOVWF  x09
0A30E:  MOVLW  74
0A310:  MOVWF  x08
0A312:  CLRF   x07
0A314:  CLRF   x06
0A316:  MOVLB  0
0A318:  CALL   391E
....................        
....................       output_low(PIN_C4);                                                        //COM_MUX MAINSIDE 
0A31C:  BCF    F94.4
0A31E:  BCF    F8B.4
....................       sector_erase_SCF(SECT*1140); 
0A320:  MOVLW  04
0A322:  MOVLB  3
0A324:  MOVWF  x09
0A326:  MOVLW  74
0A328:  MOVWF  x08
0A32A:  CLRF   x07
0A32C:  CLRF   x06
0A32E:  MOVLB  0
0A330:  CALL   39BC
....................       output_high(PIN_C4);                                                       //COM_MUX COMSIDE 
0A334:  BCF    F94.4
0A336:  BSF    F8B.4
....................        
....................       output_low(PIN_A5);                                                        //CAM_MUX MAINSIDE 
0A338:  BCF    F92.5
0A33A:  BCF    F89.5
....................       sector_erase_SMF(SECT*1140); 
0A33C:  MOVLW  04
0A33E:  MOVLB  3
0A340:  MOVWF  x09
0A342:  MOVLW  74
0A344:  MOVWF  x08
0A346:  CLRF   x07
0A348:  CLRF   x06
0A34A:  MOVLB  0
0A34C:  CALL   3A5A
....................        
....................       ADCS_SENSOR_ADDRESS = SECT*1140;                                           //keep first 2 sector forever 
0A350:  MOVLW  04
0A352:  MOVWF  53
0A354:  MOVLW  74
0A356:  MOVWF  52
0A358:  CLRF   51
0A35A:  CLRF   50
....................       STORE_ADRESS_DATA_TO_FLASH(); 
0A35C:  CALL   3AF8
....................    }else{                                                                        //if value will be close to the sector 
0A360:  BRA    A46A
....................       fprintf(PC,"erasing next sector\r\n"); 
0A362:  MOVLW  A6
0A364:  MOVWF  FF6
0A366:  MOVLW  0B
0A368:  MOVWF  FF7
0A36A:  MOVLW  00
0A36C:  MOVWF  FF8
0A36E:  CALL   362C
....................        
....................       int i; 
....................       for(i = 1; i < 10; i++) 
0A372:  MOVLW  01
0A374:  MOVLB  2
0A376:  MOVWF  xEB
0A378:  MOVF   xEB,W
0A37A:  SUBLW  09
0A37C:  BNC   A3C2
....................       { 
....................          sector_erase_OF(ADCS_SENSOR_ADDRESS + SECT*i);                          //erase next sector in advance 
0A37E:  CLRF   01
0A380:  CLRF   02
0A382:  MOVFF  01,03
0A386:  MOVFF  2EB,02
0A38A:  CLRF   00
0A38C:  CLRF   01
0A38E:  MOVF   00,W
0A390:  ADDWF  50,W
0A392:  MOVWF  xEC
0A394:  MOVF   01,W
0A396:  ADDWFC 51,W
0A398:  MOVWF  xED
0A39A:  MOVF   xEB,W
0A39C:  ADDWFC 52,W
0A39E:  MOVWF  xEE
0A3A0:  MOVF   03,W
0A3A2:  ADDWFC 53,W
0A3A4:  MOVWF  xEF
0A3A6:  MOVFF  FE8,309
0A3AA:  MOVFF  2EE,308
0A3AE:  MOVFF  2ED,307
0A3B2:  MOVFF  2EC,306
0A3B6:  MOVLB  0
0A3B8:  CALL   391E
0A3BC:  MOVLB  2
0A3BE:  INCF   xEB,F
0A3C0:  BRA    A378
....................       } 
....................        
....................       output_low(PIN_C4);                                                        //COM_MUX MAINSIDE 
0A3C2:  BCF    F94.4
0A3C4:  BCF    F8B.4
....................       for(i = 1; i < 10; i++) 
0A3C6:  MOVLW  01
0A3C8:  MOVWF  xEB
0A3CA:  MOVF   xEB,W
0A3CC:  SUBLW  09
0A3CE:  BNC   A414
....................       { 
....................          sector_erase_SCF(ADCS_SENSOR_ADDRESS + SECT*i);                         //erase next sector in advance 
0A3D0:  CLRF   01
0A3D2:  CLRF   02
0A3D4:  MOVFF  01,03
0A3D8:  MOVFF  2EB,02
0A3DC:  CLRF   00
0A3DE:  CLRF   01
0A3E0:  MOVF   00,W
0A3E2:  ADDWF  50,W
0A3E4:  MOVWF  xEC
0A3E6:  MOVF   01,W
0A3E8:  ADDWFC 51,W
0A3EA:  MOVWF  xED
0A3EC:  MOVF   xEB,W
0A3EE:  ADDWFC 52,W
0A3F0:  MOVWF  xEE
0A3F2:  MOVF   03,W
0A3F4:  ADDWFC 53,W
0A3F6:  MOVWF  xEF
0A3F8:  MOVFF  FE8,309
0A3FC:  MOVFF  2EE,308
0A400:  MOVFF  2ED,307
0A404:  MOVFF  2EC,306
0A408:  MOVLB  0
0A40A:  CALL   39BC
0A40E:  MOVLB  2
0A410:  INCF   xEB,F
0A412:  BRA    A3CA
....................       } 
....................       output_high(PIN_C4);                                                       //COM_MUX COMSIDE 
0A414:  BCF    F94.4
0A416:  BSF    F8B.4
....................        
....................       output_low(PIN_A5);                                                        //CAM_MUX MAINSIDE 
0A418:  BCF    F92.5
0A41A:  BCF    F89.5
....................       for(i = 1; i < 10; i++) 
0A41C:  MOVLW  01
0A41E:  MOVWF  xEB
0A420:  MOVF   xEB,W
0A422:  SUBLW  09
0A424:  BNC   A46A
....................       { 
....................          sector_erase_SMF(ADCS_SENSOR_ADDRESS + SECT*i);                         //erase next sector in advance 
0A426:  CLRF   01
0A428:  CLRF   02
0A42A:  MOVFF  01,03
0A42E:  MOVFF  2EB,02
0A432:  CLRF   00
0A434:  CLRF   01
0A436:  MOVF   00,W
0A438:  ADDWF  50,W
0A43A:  MOVWF  xEC
0A43C:  MOVF   01,W
0A43E:  ADDWFC 51,W
0A440:  MOVWF  xED
0A442:  MOVF   xEB,W
0A444:  ADDWFC 52,W
0A446:  MOVWF  xEE
0A448:  MOVF   03,W
0A44A:  ADDWFC 53,W
0A44C:  MOVWF  xEF
0A44E:  MOVFF  FE8,309
0A452:  MOVFF  2EE,308
0A456:  MOVFF  2ED,307
0A45A:  MOVFF  2EC,306
0A45E:  MOVLB  0
0A460:  CALL   3A5A
0A464:  MOVLB  2
0A466:  INCF   xEB,F
0A468:  BRA    A420
0A46A:  MOVLB  0
....................       } 
....................    } 
....................    return; 
0A46C:  GOTO   A4FC (RETURN)
.................... } 
....................  
.................... void LOOP_DC_STATUS_ADDRESS() 
.................... { 
....................    int32 checksum = DC_STATUS_ADDRESS && 0x00000fff; 
....................    if(DC_STATUS_ADDRESS >= DC_STATUS_ADDRESS_END) 
....................    { 
....................       SUBSECTOR_4KB_ERASE_OF(SECT*1639+4096); 
....................        
....................       output_low(PIN_C4);                                                        //COM_MUX MAINSIDE 
....................       SUBSECTOR_4KB_ERASE_SCF(SECT*16394096); 
....................       output_high(PIN_C4);                                                       //COM_MUX COMSIDE 
....................        
....................       output_low(PIN_A5);                                                        //CAM_MUX MAINSIDE 
....................       SUBSECTOR_4KB_ERASE_SMF(SECT*1639+4096); 
....................        
....................       DC_STATUS_ADDRESS = SECT*1639+4096;                                        //keep first 1 SUBSECTOR forever 
....................       STORE_ADRESS_DATA_TO_FLASH(); 
....................    }else if(4096 - checksum < 800){                                              //if value will be close to the sector 
....................       fprintf(PC,"erasing next sector\r\n"); 
....................        
....................       SUBSECTOR_4KB_ERASE_OF(DC_STATUS_ADDRESS + 4096);                          //erase next SUBSECTOR in advance 
....................        
....................       output_low(PIN_C4);                                                        //COM_MUX MAINSIDE 
....................       SUBSECTOR_4KB_ERASE_SCF(DC_STATUS_ADDRESS + 4096);                         //erase next SUBSECTOR in advance 
....................       output_high(PIN_C4);                                                       //COM_MUX COMSIDE 
....................        
....................       output_low(PIN_A5);                                                        //CAM_MUX MAINSIDE 
....................       SUBSECTOR_4KB_ERASE_SMF(DC_STATUS_ADDRESS + 4096);                         //erase next SUBSECTOR in advance 
....................    } 
....................    return; 
.................... } 
....................  
.................... void LOOP_HIGH_SAMP_HK_ADDRESS() 
.................... { 
....................    if(HIGH_SAMP_HK_ADDRESS >= HIGH_SAMP_HK_ADDRESS_END)                          //for 15min operation, data size will be more than 2sector 
*
07334:  MOVF   5F,W
07336:  SUBLW  06
07338:  BC    73AE
0733A:  XORLW  FF
0733C:  BNZ   7358
0733E:  MOVF   5E,W
07340:  SUBLW  FB
07342:  BC    73AE
07344:  XORLW  FF
07346:  BNZ   7358
07348:  MOVF   5D,W
0734A:  SUBLW  45
0734C:  BC    73AE
0734E:  XORLW  FF
07350:  BNZ   7358
07352:  MOVF   5C,W
07354:  SUBLW  7F
07356:  BC    73AE
....................    { 
....................       sector_erase_OF(SECT*1642);                                                //delet from 066A0000 (keep first 3 sectors) 
07358:  MOVLW  06
0735A:  MOVLB  3
0735C:  MOVWF  x09
0735E:  MOVLW  6A
07360:  MOVWF  x08
07362:  CLRF   x07
07364:  CLRF   x06
07366:  MOVLB  0
07368:  CALL   391E
....................        
....................       output_low(PIN_C4);                                                        //COM_MUX MAINSIDE 
0736C:  BCF    F94.4
0736E:  BCF    F8B.4
....................       sector_erase_SCF(SECT*1642); 
07370:  MOVLW  06
07372:  MOVLB  3
07374:  MOVWF  x09
07376:  MOVLW  6A
07378:  MOVWF  x08
0737A:  CLRF   x07
0737C:  CLRF   x06
0737E:  MOVLB  0
07380:  CALL   39BC
....................       output_high(PIN_C4);                                                       //COM_MUX COMSIDE 
07384:  BCF    F94.4
07386:  BSF    F8B.4
....................        
....................       output_low(PIN_A5);                                                        //CAM_MUX MAINSIDE 
07388:  BCF    F92.5
0738A:  BCF    F89.5
....................       sector_erase_SMF(SECT*1642); 
0738C:  MOVLW  06
0738E:  MOVLB  3
07390:  MOVWF  x09
07392:  MOVLW  6A
07394:  MOVWF  x08
07396:  CLRF   x07
07398:  CLRF   x06
0739A:  MOVLB  0
0739C:  CALL   3A5A
....................        
....................       HIGH_SAMP_HK_ADDRESS = SECT*1642;                                          //keep first 3 sector forever 
073A0:  MOVLW  06
073A2:  MOVWF  5F
073A4:  MOVLW  6A
073A6:  MOVWF  5E
073A8:  CLRF   5D
073AA:  CLRF   5C
....................    }else{                                                                        //if value will be close to the sector 
073AC:  BRA    7556
....................       fprintf(PC,"erasing next sector\r\n"); 
073AE:  MOVLW  D2
073B0:  MOVWF  FF6
073B2:  MOVLW  0B
073B4:  MOVWF  FF7
073B6:  MOVLW  00
073B8:  MOVWF  FF8
073BA:  CALL   362C
....................        
....................       sector_erase_OF(HIGH_SAMP_HK_ADDRESS + SECT);                              //erase next sector in advance 
073BE:  MOVFF  5C,2EB
073C2:  MOVLB  2
073C4:  MOVFF  5D,2EC
073C8:  MOVLW  01
073CA:  ADDWF  5E,W
073CC:  MOVWF  xED
073CE:  MOVLW  00
073D0:  ADDWFC 5F,W
073D2:  MOVWF  xEE
073D4:  MOVFF  FE8,309
073D8:  MOVFF  2ED,308
073DC:  MOVFF  5D,307
073E0:  MOVFF  5C,306
073E4:  MOVLB  0
073E6:  CALL   391E
....................       sector_erase_OF(HIGH_SAMP_HK_ADDRESS + SECT*2);                            //erase next sector in advance 
073EA:  MOVFF  5C,2EB
073EE:  MOVLB  2
073F0:  MOVFF  5D,2EC
073F4:  MOVLW  02
073F6:  ADDWF  5E,W
073F8:  MOVWF  xED
073FA:  MOVLW  00
073FC:  ADDWFC 5F,W
073FE:  MOVWF  xEE
07400:  MOVFF  FE8,309
07404:  MOVFF  2ED,308
07408:  MOVFF  5D,307
0740C:  MOVFF  5C,306
07410:  MOVLB  0
07412:  CALL   391E
....................       sector_erase_OF(HIGH_SAMP_HK_ADDRESS + SECT*3);                            //erase next sector in advance 
07416:  MOVFF  5C,2EB
0741A:  MOVLB  2
0741C:  MOVFF  5D,2EC
07420:  MOVLW  03
07422:  ADDWF  5E,W
07424:  MOVWF  xED
07426:  MOVLW  00
07428:  ADDWFC 5F,W
0742A:  MOVWF  xEE
0742C:  MOVFF  FE8,309
07430:  MOVFF  2ED,308
07434:  MOVFF  5D,307
07438:  MOVFF  5C,306
0743C:  MOVLB  0
0743E:  CALL   391E
....................        
....................       output_low(PIN_C4);                                                        //COM_MUX MAINSIDE 
07442:  BCF    F94.4
07444:  BCF    F8B.4
....................       sector_erase_SCF(HIGH_SAMP_HK_ADDRESS + SECT);                             //erase next sector in advance 
07446:  MOVFF  5C,2EB
0744A:  MOVLB  2
0744C:  MOVFF  5D,2EC
07450:  MOVLW  01
07452:  ADDWF  5E,W
07454:  MOVWF  xED
07456:  MOVLW  00
07458:  ADDWFC 5F,W
0745A:  MOVWF  xEE
0745C:  MOVFF  FE8,309
07460:  MOVFF  2ED,308
07464:  MOVFF  5D,307
07468:  MOVFF  5C,306
0746C:  MOVLB  0
0746E:  CALL   39BC
....................       sector_erase_SCF(HIGH_SAMP_HK_ADDRESS + SECT*2);                           //erase next sector in advance 
07472:  MOVFF  5C,2EB
07476:  MOVLB  2
07478:  MOVFF  5D,2EC
0747C:  MOVLW  02
0747E:  ADDWF  5E,W
07480:  MOVWF  xED
07482:  MOVLW  00
07484:  ADDWFC 5F,W
07486:  MOVWF  xEE
07488:  MOVFF  FE8,309
0748C:  MOVFF  2ED,308
07490:  MOVFF  5D,307
07494:  MOVFF  5C,306
07498:  MOVLB  0
0749A:  CALL   39BC
....................       sector_erase_SCF(HIGH_SAMP_HK_ADDRESS + SECT*3);                           //erase next sector in advance 
0749E:  MOVFF  5C,2EB
074A2:  MOVLB  2
074A4:  MOVFF  5D,2EC
074A8:  MOVLW  03
074AA:  ADDWF  5E,W
074AC:  MOVWF  xED
074AE:  MOVLW  00
074B0:  ADDWFC 5F,W
074B2:  MOVWF  xEE
074B4:  MOVFF  FE8,309
074B8:  MOVFF  2ED,308
074BC:  MOVFF  5D,307
074C0:  MOVFF  5C,306
074C4:  MOVLB  0
074C6:  CALL   39BC
....................       output_high(PIN_C4);                                                       //COM_MUX COMSIDE 
074CA:  BCF    F94.4
074CC:  BSF    F8B.4
....................        
....................       output_low(PIN_A5);                                                        //CAM_MUX MAINSIDE 
074CE:  BCF    F92.5
074D0:  BCF    F89.5
....................       sector_erase_SMF(HIGH_SAMP_HK_ADDRESS + SECT);                             //erase next sector in advance 
074D2:  MOVFF  5C,2EB
074D6:  MOVLB  2
074D8:  MOVFF  5D,2EC
074DC:  MOVLW  01
074DE:  ADDWF  5E,W
074E0:  MOVWF  xED
074E2:  MOVLW  00
074E4:  ADDWFC 5F,W
074E6:  MOVWF  xEE
074E8:  MOVFF  FE8,309
074EC:  MOVFF  2ED,308
074F0:  MOVFF  5D,307
074F4:  MOVFF  5C,306
074F8:  MOVLB  0
074FA:  CALL   3A5A
....................       sector_erase_SMF(HIGH_SAMP_HK_ADDRESS + SECT*2);                           //erase next sector in advance 
074FE:  MOVFF  5C,2EB
07502:  MOVLB  2
07504:  MOVFF  5D,2EC
07508:  MOVLW  02
0750A:  ADDWF  5E,W
0750C:  MOVWF  xED
0750E:  MOVLW  00
07510:  ADDWFC 5F,W
07512:  MOVWF  xEE
07514:  MOVFF  FE8,309
07518:  MOVFF  2ED,308
0751C:  MOVFF  5D,307
07520:  MOVFF  5C,306
07524:  MOVLB  0
07526:  CALL   3A5A
....................       sector_erase_SMF(HIGH_SAMP_HK_ADDRESS + SECT*3);                           //erase next sector in advance 
0752A:  MOVFF  5C,2EB
0752E:  MOVLB  2
07530:  MOVFF  5D,2EC
07534:  MOVLW  03
07536:  ADDWF  5E,W
07538:  MOVWF  xED
0753A:  MOVLW  00
0753C:  ADDWFC 5F,W
0753E:  MOVWF  xEE
07540:  MOVFF  FE8,309
07544:  MOVFF  2ED,308
07548:  MOVFF  5D,307
0754C:  MOVFF  5C,306
07550:  MOVLB  0
07552:  CALL   3A5A
....................    } 
....................    return; 
07556:  GOTO   7E88 (RETURN)
.................... } 
....................  
....................  
....................  
.................... //#include<reserve_function.c> 
.................... #include<SATELLITE_LOG.c> 
.................... void waiting(int32 counterval)                                                   //about 200000 : 1s 
.................... { 
....................    for(int32 num = 0; num < counterval; num++) 
*
01FA2:  MOVLB  3
01FA4:  CLRF   x0E
01FA6:  CLRF   x0D
01FA8:  CLRF   x0C
01FAA:  CLRF   x0B
01FAC:  MOVF   x0E,W
01FAE:  SUBWF  x0A,W
01FB0:  BNC   1FDC
01FB2:  BNZ   1FCA
01FB4:  MOVF   x0D,W
01FB6:  SUBWF  x09,W
01FB8:  BNC   1FDC
01FBA:  BNZ   1FCA
01FBC:  MOVF   x0C,W
01FBE:  SUBWF  x08,W
01FC0:  BNC   1FDC
01FC2:  BNZ   1FCA
01FC4:  MOVF   x07,W
01FC6:  SUBWF  x0B,W
01FC8:  BC    1FDC
....................    {} 
01FCA:  MOVLW  01
01FCC:  ADDWF  x0B,F
01FCE:  BTFSC  FD8.0
01FD0:  INCF   x0C,F
01FD2:  BTFSC  FD8.2
01FD4:  INCF   x0D,F
01FD6:  BTFSC  FD8.2
01FD8:  INCF   x0E,F
01FDA:  BRA    1FAC
....................    return; 
01FDC:  MOVLB  0
01FDE:  RETURN 0
.................... } 
....................  
.................... //--------RESET Function--------------------------------------------- 
....................  
....................  
.................... void DELETE_RESET()                                                              //funcion que pone a cero el vector reset_bffr[] 
.................... { 
....................    for(int8 num = 0; num < Reset_size; num++) 
*
01F4A:  MOVLB  3
01F4C:  CLRF   x07
01F4E:  MOVF   x07,W
01F50:  SUBLW  0A
01F52:  BNC   1F68
....................    { 
....................       reset_bffr[num] = 0; 
01F54:  CLRF   03
01F56:  MOVF   x07,W
01F58:  ADDLW  EC
01F5A:  MOVWF  FE9
01F5C:  MOVLW  00
01F5E:  ADDWFC 03,W
01F60:  MOVWF  FEA
01F62:  CLRF   FEF
01F64:  INCF   x07,F
01F66:  BRA    1F4E
....................    } 
....................    return; 
01F68:  MOVLB  0
01F6A:  RETURN 0
.................... } 
....................  
.................... void SEND_CMD_FOR_RESET_SATELLITE() 
.................... {   
....................    STORE_FLAG_INFO();                                                            //save flag data to flash memory 
*
07C9E:  CALL   5B0E
....................    /*maisun 
....................    Save_RSV();                                                                   //save in flash memory reserve_table[] content 
....................    */ 
....................    STORE_ADRESS_DATA_TO_FLASH(); 
07CA2:  CALL   3AF8
.................... // while(true) 
.................... // { 
....................       //fputc(0x27,PC); 
....................       fprintf(PC,"%x,",READ_DATA_BYTE_OF(FAB_HK_ADDRESS-122));                   //sec 
07CA6:  MOVLW  7A
07CA8:  SUBWF  48,W
07CAA:  MOVLB  2
07CAC:  MOVWF  xEC
07CAE:  MOVLW  00
07CB0:  SUBWFB 49,W
07CB2:  MOVWF  xED
07CB4:  MOVLW  00
07CB6:  SUBWFB 4A,W
07CB8:  MOVWF  xEE
07CBA:  MOVLW  00
07CBC:  SUBWFB 4B,W
07CBE:  MOVWF  xEF
07CC0:  MOVFF  FE8,31A
07CC4:  MOVFF  2EE,319
07CC8:  MOVFF  2ED,318
07CCC:  MOVFF  2EC,317
07CD0:  MOVLB  0
07CD2:  CALL   17B2
07CD6:  MOVFF  01,2EC
07CDA:  MOVFF  01,311
07CDE:  MOVLW  57
07CE0:  MOVLB  3
07CE2:  MOVWF  x12
07CE4:  MOVLB  0
07CE6:  CALL   1C3E
07CEA:  MOVLW  2C
07CEC:  BTFSS  F9E.4
07CEE:  BRA    7CEC
07CF0:  MOVWF  FAD
....................       fprintf(PC,"%x,",READ_DATA_BYTE_OF(FAB_HK_ADDRESS-121));                   //min 
07CF2:  MOVLW  79
07CF4:  SUBWF  48,W
07CF6:  MOVLB  2
07CF8:  MOVWF  xEC
07CFA:  MOVLW  00
07CFC:  SUBWFB 49,W
07CFE:  MOVWF  xED
07D00:  MOVLW  00
07D02:  SUBWFB 4A,W
07D04:  MOVWF  xEE
07D06:  MOVLW  00
07D08:  SUBWFB 4B,W
07D0A:  MOVWF  xEF
07D0C:  MOVFF  FE8,31A
07D10:  MOVFF  2EE,319
07D14:  MOVFF  2ED,318
07D18:  MOVFF  2EC,317
07D1C:  MOVLB  0
07D1E:  CALL   17B2
07D22:  MOVFF  01,2EC
07D26:  MOVFF  01,311
07D2A:  MOVLW  57
07D2C:  MOVLB  3
07D2E:  MOVWF  x12
07D30:  MOVLB  0
07D32:  CALL   1C3E
07D36:  MOVLW  2C
07D38:  BTFSS  F9E.4
07D3A:  BRA    7D38
07D3C:  MOVWF  FAD
....................       fprintf(PC,"%x,",READ_DATA_BYTE_OF(FAB_HK_ADDRESS-120));                   //hou 
07D3E:  MOVLW  78
07D40:  SUBWF  48,W
07D42:  MOVLB  2
07D44:  MOVWF  xEC
07D46:  MOVLW  00
07D48:  SUBWFB 49,W
07D4A:  MOVWF  xED
07D4C:  MOVLW  00
07D4E:  SUBWFB 4A,W
07D50:  MOVWF  xEE
07D52:  MOVLW  00
07D54:  SUBWFB 4B,W
07D56:  MOVWF  xEF
07D58:  MOVFF  FE8,31A
07D5C:  MOVFF  2EE,319
07D60:  MOVFF  2ED,318
07D64:  MOVFF  2EC,317
07D68:  MOVLB  0
07D6A:  CALL   17B2
07D6E:  MOVFF  01,2EC
07D72:  MOVFF  01,311
07D76:  MOVLW  57
07D78:  MOVLB  3
07D7A:  MOVWF  x12
07D7C:  MOVLB  0
07D7E:  CALL   1C3E
07D82:  MOVLW  2C
07D84:  BTFSS  F9E.4
07D86:  BRA    7D84
07D88:  MOVWF  FAD
....................       fprintf(PC,"%x",READ_DATA_BYTE_OF(FAB_HK_ADDRESS-119));                    //day H 
07D8A:  MOVLW  77
07D8C:  SUBWF  48,W
07D8E:  MOVLB  2
07D90:  MOVWF  xEC
07D92:  MOVLW  00
07D94:  SUBWFB 49,W
07D96:  MOVWF  xED
07D98:  MOVLW  00
07D9A:  SUBWFB 4A,W
07D9C:  MOVWF  xEE
07D9E:  MOVLW  00
07DA0:  SUBWFB 4B,W
07DA2:  MOVWF  xEF
07DA4:  MOVFF  FE8,31A
07DA8:  MOVFF  2EE,319
07DAC:  MOVFF  2ED,318
07DB0:  MOVFF  2EC,317
07DB4:  MOVLB  0
07DB6:  CALL   17B2
07DBA:  MOVFF  01,2EC
07DBE:  MOVFF  01,311
07DC2:  MOVLW  57
07DC4:  MOVLB  3
07DC6:  MOVWF  x12
07DC8:  MOVLB  0
07DCA:  CALL   1C3E
....................       fprintf(PC,"%x\r\n",READ_DATA_BYTE_OF(FAB_HK_ADDRESS-118));                //day L 
07DCE:  MOVLW  76
07DD0:  SUBWF  48,W
07DD2:  MOVLB  2
07DD4:  MOVWF  xEC
07DD6:  MOVLW  00
07DD8:  SUBWFB 49,W
07DDA:  MOVWF  xED
07DDC:  MOVLW  00
07DDE:  SUBWFB 4A,W
07DE0:  MOVWF  xEE
07DE2:  MOVLW  00
07DE4:  SUBWFB 4B,W
07DE6:  MOVWF  xEF
07DE8:  MOVFF  FE8,31A
07DEC:  MOVFF  2EE,319
07DF0:  MOVFF  2ED,318
07DF4:  MOVFF  2EC,317
07DF8:  MOVLB  0
07DFA:  CALL   17B2
07DFE:  MOVFF  01,2EC
07E02:  MOVFF  01,311
07E06:  MOVLW  57
07E08:  MOVLB  3
07E0A:  MOVWF  x12
07E0C:  MOVLB  0
07E0E:  CALL   1C3E
07E12:  MOVLW  0D
07E14:  BTFSS  F9E.4
07E16:  BRA    7E14
07E18:  MOVWF  FAD
07E1A:  MOVLW  0A
07E1C:  BTFSS  F9E.4
07E1E:  BRA    7E1C
07E20:  MOVWF  FAD
....................         for(int i = 0; i<100; i++) 
07E22:  MOVLB  2
07E24:  CLRF   xEB
07E26:  MOVF   xEB,W
07E28:  SUBLW  63
07E2A:  BNC   7E46
....................         { 
....................          fputc(0x27,reset);                                                      //send command for satellite reset 
07E2C:  MOVLW  27
07E2E:  MOVLB  0
07E30:  CALL   1F6C
....................          delay_ms(10); 
07E34:  MOVLW  0A
07E36:  MOVLB  3
07E38:  MOVWF  x19
07E3A:  MOVLB  0
07E3C:  CALL   1F78
07E40:  MOVLB  2
07E42:  INCF   xEB,F
07E44:  BRA    7E26
....................         } 
....................       //delay_ms(100);//if it is needed 
.................... //!      fputc(READ_DATA_BYTE_OF(FAB_HK_ADDRESS-122),reset); 
.................... //!      fputc(READ_DATA_BYTE_OF(FAB_HK_ADDRESS-121),reset); 
.................... //!      fputc(READ_DATA_BYTE_OF(FAB_HK_ADDRESS-120),reset); 
.................... //!      fputc(READ_DATA_BYTE_OF(FAB_HK_ADDRESS-119),reset); 
.................... //!      fputc(READ_DATA_BYTE_OF(FAB_HK_ADDRESS-118),reset); 
....................       RESET_DATA = 0; 
07E46:  MOVLB  0
07E48:  CLRF   xEB
....................       fprintf(PC,"Ready for reset"); 
07E4A:  MOVLW  E8
07E4C:  MOVWF  FF6
07E4E:  MOVLW  0B
07E50:  MOVWF  FF7
07E52:  MOVLW  00
07E54:  MOVWF  FF8
07E56:  CALL   362C
....................       delay_ms(1000); 
07E5A:  MOVLW  04
07E5C:  MOVLB  2
07E5E:  MOVWF  xEC
07E60:  MOVLW  FA
07E62:  MOVLB  3
07E64:  MOVWF  x19
07E66:  MOVLB  0
07E68:  CALL   1F78
07E6C:  MOVLB  2
07E6E:  DECFSZ xEC,F
07E70:  BRA    7E60
.................... // } 
....................    return; 
07E72:  MOVLB  0
07E74:  RETURN 0
.................... } 
....................  
.................... void RESET_SATELLITE()                                                           //if get reset command from reset, prepare for resetting 
.................... { 
....................    if(reset_flag == 1)                                                           //get ready for reset satellite 
07E76:  DECFSZ xF7,W
07E78:  BRA    7E7C
....................    { 
....................       SEND_CMD_FOR_RESET_SATELLITE();                                            //store flag, save RSV, store Address, send command and wait for reset 
07E7A:  RCALL  7C9E
....................    } 
....................    DELETE_RESET();                                                               //load zero in reset_bffr[] 
07E7C:  CALL   1F4A
....................    RESET_DATA = 0; 
07E80:  CLRF   xEB
....................    return; 
07E82:  RETURN 0
.................... } 
....................  
.................... void COLLECT_RESET_DATA()                                                        //funcion que envia el comando 0x28 al reset PIC y carga reset_bffr[] 
.................... { 
....................    DELETE_RESET();                                                               //pone a cero todas las posiciones del vector 
*
01FE0:  RCALL  1F4A
....................    RESET_DATA = 0; 
01FE2:  CLRF   xEB
....................    for(int m=0; m<10; m++) 
01FE4:  MOVLB  3
01FE6:  CLRF   x06
01FE8:  MOVF   x06,W
01FEA:  SUBLW  09
01FEC:  BNC   2022
....................    { 
....................       fputc(0x28,reset);                                                            //Envia el comando 0x28 en el puerto del reset PIC 
01FEE:  MOVLW  28
01FF0:  MOVLB  0
01FF2:  RCALL  1F6C
....................       delay_ms(10); 
01FF4:  MOVLW  0A
01FF6:  MOVLB  3
01FF8:  MOVWF  x19
01FFA:  MOVLB  0
01FFC:  RCALL  1F78
....................       waiting(10000);                                                               //wait aprox 0.5s para que el RESET PIC envie los datos por el UART (interrupcion) 
01FFE:  MOVLB  3
02000:  CLRF   x0A
02002:  CLRF   x09
02004:  MOVLW  27
02006:  MOVWF  x08
02008:  MOVLW  10
0200A:  MOVWF  x07
0200C:  MOVLB  0
0200E:  RCALL  1FA2
....................          if(RESET_bffr[0] == 0x8e) 
02010:  MOVF   xEC,W
02012:  SUBLW  8E
02014:  BNZ   201C
....................          { 
....................          break; 
02016:  MOVLB  3
02018:  BRA    2022
0201A:  MOVLB  0
....................          } 
0201C:  MOVLB  3
0201E:  INCF   x06,F
02020:  BRA    1FE8
....................    } 
....................    return; 
02022:  MOVLB  0
02024:  RETURN 0
.................... } 
....................  
....................  
.................... //@@@@@@@@@@@for satellite log@@@@@@@@@@@@@@@@@@@@@@@@@@@@@@@@@@@@@@@@@@@@@@@@@@ 
.................... #define logdata_size 11 
.................... int8 satellitelog[logdata_size] = {}; 
....................  
.................... void SAVE_SAT_LOG(int8 data1, int8 data2, int8 data3) 
.................... { 
....................    LOOP_SAT_LOG();                                                               //hace un loop en las posiciones de memoria para almacenar SAT_LOG 
*
03E06:  BRA    3D9C
....................    RESET_DATA = 0; 
03E08:  CLRF   xEB
....................    COLLECT_RESET_DATA();                                                         //carga el RESET_bffr[] con los datos del reset PIC 
03E0A:  CALL   1FE0
....................    if(RESET_bffr[0] == 0x8e) 
03E0E:  MOVF   xEC,W
03E10:  SUBLW  8E
03E12:  BTFSS  FD8.2
03E14:  BRA    3F40
....................    { 
....................       satellitelog[0] = 0xda;                                                    //header of the satellite log 
03E16:  MOVLW  DA
03E18:  MOVLB  1
03E1A:  MOVWF  x33
....................       satellitelog[1] = 0xda;                                                    //header of the satellite log 
03E1C:  MOVWF  x34
....................     
....................       satellitelog[2] = RESET_bffr[1]; 
03E1E:  MOVFF  ED,135
....................       satellitelog[3] = RESET_bffr[2]; 
03E22:  MOVFF  EE,136
....................       satellitelog[4] = RESET_bffr[3]; 
03E26:  MOVFF  EF,137
....................       satellitelog[5] = RESET_bffr[4]; 
03E2A:  MOVFF  F0,138
....................       satellitelog[6] = RESET_bffr[5]; 
03E2E:  MOVFF  F1,139
....................        
....................       satellitelog[7] = data1; 
03E32:  MOVFF  302,13A
....................       satellitelog[8] = data2; 
03E36:  MOVFF  303,13B
....................       satellitelog[9] = data3; 
03E3A:  MOVFF  304,13C
....................       satellitelog[10] = 0xef;                                                   //footer, fin del array 
03E3E:  MOVLW  EF
03E40:  MOVWF  x3D
....................        
....................       output_low(PIN_A5);                                                        //CAM_MUX main side 
03E42:  BCF    F92.5
03E44:  BCF    F89.5
....................       output_low(PIN_C4);                                                        //COM_MUX main side 
03E46:  BCF    F94.4
03E48:  BCF    F8B.4
....................       for(int i = 0; i < logdata_size; i++)                                      //guarda el dato en las tres Flash en la posicion de memoria indicada por SAT_LOG  
03E4A:  MOVLB  3
03E4C:  CLRF   x05
03E4E:  MOVF   x05,W
03E50:  SUBLW  0A
03E52:  BNC   3F1E
....................       { 
....................          WRITE_DATA_BYTE_OF(SAT_LOG + i,satellitelog[i]); 
03E54:  MOVF   x05,W
03E56:  ADDWF  40,W
03E58:  MOVWF  x06
03E5A:  MOVLW  00
03E5C:  ADDWFC 41,W
03E5E:  MOVWF  x07
03E60:  MOVLW  00
03E62:  ADDWFC 42,W
03E64:  MOVWF  x08
03E66:  MOVLW  00
03E68:  ADDWFC 43,W
03E6A:  MOVWF  x09
03E6C:  CLRF   03
03E6E:  MOVF   x05,W
03E70:  ADDLW  33
03E72:  MOVWF  FE9
03E74:  MOVLW  01
03E76:  ADDWFC 03,W
03E78:  MOVWF  FEA
03E7A:  MOVFF  FEF,315
03E7E:  MOVFF  309,314
03E82:  MOVFF  308,313
03E86:  MOVFF  307,312
03E8A:  MOVFF  306,311
03E8E:  MOVLB  0
03E90:  CALL   1A80
....................          WRITE_DATA_BYTE_SCF(SAT_LOG + i,satellitelog[i]); 
03E94:  MOVLB  3
03E96:  MOVF   x05,W
03E98:  ADDWF  40,W
03E9A:  MOVWF  x06
03E9C:  MOVLW  00
03E9E:  ADDWFC 41,W
03EA0:  MOVWF  x07
03EA2:  MOVLW  00
03EA4:  ADDWFC 42,W
03EA6:  MOVWF  x08
03EA8:  MOVLW  00
03EAA:  ADDWFC 43,W
03EAC:  MOVWF  x09
03EAE:  CLRF   03
03EB0:  MOVF   x05,W
03EB2:  ADDLW  33
03EB4:  MOVWF  FE9
03EB6:  MOVLW  01
03EB8:  ADDWFC 03,W
03EBA:  MOVWF  FEA
03EBC:  MOVFF  FEF,315
03EC0:  MOVFF  309,314
03EC4:  MOVFF  308,313
03EC8:  MOVFF  307,312
03ECC:  MOVFF  306,311
03ED0:  MOVLB  0
03ED2:  CALL   1B0C
....................          WRITE_DATA_BYTE_SMF(SAT_LOG + i,satellitelog[i]); 
03ED6:  MOVLB  3
03ED8:  MOVF   x05,W
03EDA:  ADDWF  40,W
03EDC:  MOVWF  x06
03EDE:  MOVLW  00
03EE0:  ADDWFC 41,W
03EE2:  MOVWF  x07
03EE4:  MOVLW  00
03EE6:  ADDWFC 42,W
03EE8:  MOVWF  x08
03EEA:  MOVLW  00
03EEC:  ADDWFC 43,W
03EEE:  MOVWF  x09
03EF0:  CLRF   03
03EF2:  MOVF   x05,W
03EF4:  ADDLW  33
03EF6:  MOVWF  FE9
03EF8:  MOVLW  01
03EFA:  ADDWFC 03,W
03EFC:  MOVWF  FEA
03EFE:  MOVFF  FEF,315
03F02:  MOVFF  309,314
03F06:  MOVFF  308,313
03F0A:  MOVFF  307,312
03F0E:  MOVFF  306,311
03F12:  MOVLB  0
03F14:  CALL   1B98
03F18:  MOVLB  3
03F1A:  INCF   x05,F
03F1C:  BRA    3E4E
....................       } 
....................       output_high(PIN_C4);                                                       //COM_MUX COM side 
03F1E:  BCF    F94.4
03F20:  BSF    F8B.4
....................       SAT_LOG = SAT_LOG + logdata_size; 
03F22:  MOVLW  0B
03F24:  ADDWF  40,F
03F26:  MOVLW  00
03F28:  ADDWFC 41,F
03F2A:  ADDWFC 42,F
03F2C:  ADDWFC 43,F
....................       fprintf(PC,"LOG saving done\r\n"); 
03F2E:  MOVLW  F8
03F30:  MOVWF  FF6
03F32:  MOVLW  0B
03F34:  MOVWF  FF7
03F36:  MOVLW  00
03F38:  MOVWF  FF8
03F3A:  MOVLB  0
03F3C:  CALL   362C
....................    } 
....................     
....................    return; 
03F40:  RETURN 0
.................... } 
....................  
....................  
....................  
....................  
.................... #include<FLASH_OPERATION.c>                                                      //erase or transfer 
....................  
....................  
.................... void REFRESH_SECTOR_OF(int8 data1,int8 data2,int8 data3,int8 data4) 
.................... { 
....................    fprintf(PC,"ERASE OF:%x%x%x%x\r\n",data1,data2,data3,data4); 
*
0A6A8:  MOVLW  0A
0A6AA:  MOVWF  FF6
0A6AC:  MOVLW  0C
0A6AE:  MOVWF  FF7
0A6B0:  MOVLW  00
0A6B2:  MOVWF  FF8
0A6B4:  MOVLW  09
0A6B6:  MOVLB  3
0A6B8:  MOVWF  x10
0A6BA:  MOVLB  0
0A6BC:  CALL   1C0C
0A6C0:  MOVFF  2F6,311
0A6C4:  MOVLW  57
0A6C6:  MOVLB  3
0A6C8:  MOVWF  x12
0A6CA:  MOVLB  0
0A6CC:  CALL   1C3E
0A6D0:  MOVFF  2F7,311
0A6D4:  MOVLW  57
0A6D6:  MOVLB  3
0A6D8:  MOVWF  x12
0A6DA:  MOVLB  0
0A6DC:  CALL   1C3E
0A6E0:  MOVFF  2F8,311
0A6E4:  MOVLW  57
0A6E6:  MOVLB  3
0A6E8:  MOVWF  x12
0A6EA:  MOVLB  0
0A6EC:  CALL   1C3E
0A6F0:  MOVFF  2F9,311
0A6F4:  MOVLW  57
0A6F6:  MOVLB  3
0A6F8:  MOVWF  x12
0A6FA:  MOVLB  0
0A6FC:  CALL   1C3E
0A700:  MOVLW  0D
0A702:  BTFSS  F9E.4
0A704:  BRA    A702
0A706:  MOVWF  FAD
0A708:  MOVLW  0A
0A70A:  BTFSS  F9E.4
0A70C:  BRA    A70A
0A70E:  MOVWF  FAD
....................    int32 address = make32(data1,data2,data3,data4); 
0A710:  MOVFF  2F6,2FD
0A714:  MOVFF  2F7,2FC
0A718:  MOVFF  2F8,2FB
0A71C:  MOVFF  2F9,2FA
....................    sector_erase_OF(address);                                                     //erase 1 sector 
0A720:  MOVFF  2FD,309
0A724:  MOVFF  2FC,308
0A728:  MOVFF  2FB,307
0A72C:  MOVFF  2FA,306
0A730:  CALL   391E
....................     
....................    int16 DATA = address/SECT;                                                    //maximum 2048, data almacena el nro de sector borrado 
....................    int8 D1 = DATA >> 8; 
....................    int8 D2 = DATA; 
0A734:  MOVFF  2FC,2FE
0A738:  MOVFF  2FD,2FF
0A73C:  MOVFF  2FF,300
0A740:  MOVFF  2FE,301
....................     
....................    SAVE_SAT_LOG(0xe0, D1, D2);                                                   //0xE0+16bit sector info 
0A744:  MOVLW  E0
0A746:  MOVLB  3
0A748:  MOVWF  x02
0A74A:  MOVFF  300,303
0A74E:  MOVFF  301,304
0A752:  MOVLB  0
0A754:  CALL   3E06
....................     
....................    return; 
0A758:  RETURN 0
.................... } 
.................... void REFRESH_SECTOR_SCF(int8 data1,int8 data2,int8 data3,int8 data4) 
.................... { 
....................    fprintf(PC,"ERASE SCF:%x%x%x%x\r\n",data1,data2,data3,data4); 
0A75A:  MOVLW  1E
0A75C:  MOVWF  FF6
0A75E:  MOVLW  0C
0A760:  MOVWF  FF7
0A762:  MOVLW  00
0A764:  MOVWF  FF8
0A766:  MOVLW  0A
0A768:  MOVLB  3
0A76A:  MOVWF  x10
0A76C:  MOVLB  0
0A76E:  CALL   1C0C
0A772:  MOVFF  2F6,311
0A776:  MOVLW  57
0A778:  MOVLB  3
0A77A:  MOVWF  x12
0A77C:  MOVLB  0
0A77E:  CALL   1C3E
0A782:  MOVFF  2F7,311
0A786:  MOVLW  57
0A788:  MOVLB  3
0A78A:  MOVWF  x12
0A78C:  MOVLB  0
0A78E:  CALL   1C3E
0A792:  MOVFF  2F8,311
0A796:  MOVLW  57
0A798:  MOVLB  3
0A79A:  MOVWF  x12
0A79C:  MOVLB  0
0A79E:  CALL   1C3E
0A7A2:  MOVFF  2F9,311
0A7A6:  MOVLW  57
0A7A8:  MOVLB  3
0A7AA:  MOVWF  x12
0A7AC:  MOVLB  0
0A7AE:  CALL   1C3E
0A7B2:  MOVLW  0D
0A7B4:  BTFSS  F9E.4
0A7B6:  BRA    A7B4
0A7B8:  MOVWF  FAD
0A7BA:  MOVLW  0A
0A7BC:  BTFSS  F9E.4
0A7BE:  BRA    A7BC
0A7C0:  MOVWF  FAD
....................    int32 address = make32(data1,data2,data3,data4); 
0A7C2:  MOVFF  2F6,2FD
0A7C6:  MOVFF  2F7,2FC
0A7CA:  MOVFF  2F8,2FB
0A7CE:  MOVFF  2F9,2FA
....................    output_low(PIN_C4);                                                           //multiplexor OBC side 
0A7D2:  BCF    F94.4
0A7D4:  BCF    F8B.4
....................    sector_erase_SCF(address);                                                    //erase 1 sector 
0A7D6:  MOVFF  2FD,309
0A7DA:  MOVFF  2FC,308
0A7DE:  MOVFF  2FB,307
0A7E2:  MOVFF  2FA,306
0A7E6:  CALL   39BC
....................    output_high(PIN_C4); 
0A7EA:  BCF    F94.4
0A7EC:  BSF    F8B.4
....................     
....................    int16 DATA = address/SECT;                                                    //maximum 2048, data almacena el nro de sector borrado 
....................    int8 D1 = DATA >> 8; 
....................    int8 D2 = DATA; 
0A7EE:  MOVFF  2FC,2FE
0A7F2:  MOVFF  2FD,2FF
0A7F6:  MOVFF  2FF,300
0A7FA:  MOVFF  2FE,301
....................     
....................    SAVE_SAT_LOG(0xe1, D1, D2);                                                   //0xE0+16bit sector info 
0A7FE:  MOVLW  E1
0A800:  MOVLB  3
0A802:  MOVWF  x02
0A804:  MOVFF  300,303
0A808:  MOVFF  301,304
0A80C:  MOVLB  0
0A80E:  CALL   3E06
....................    return; 
0A812:  RETURN 0
.................... } 
.................... void REFRESH_SECTOR_SMF(int8 data1,int8 data2,int8 data3,int8 data4) 
.................... { 
....................    fprintf(PC,"ERASE SMF:%x%x%x%x\r\n",data1,data2,data3,data4); 
*
06B96:  MOVLW  34
06B98:  MOVWF  FF6
06B9A:  MOVLW  0C
06B9C:  MOVWF  FF7
06B9E:  MOVLW  00
06BA0:  MOVWF  FF8
06BA2:  MOVLW  0A
06BA4:  MOVLB  3
06BA6:  MOVWF  x10
06BA8:  MOVLB  0
06BAA:  CALL   1C0C
06BAE:  MOVFF  2F6,311
06BB2:  MOVLW  57
06BB4:  MOVLB  3
06BB6:  MOVWF  x12
06BB8:  MOVLB  0
06BBA:  CALL   1C3E
06BBE:  MOVFF  2F7,311
06BC2:  MOVLW  57
06BC4:  MOVLB  3
06BC6:  MOVWF  x12
06BC8:  MOVLB  0
06BCA:  CALL   1C3E
06BCE:  MOVFF  2F8,311
06BD2:  MOVLW  57
06BD4:  MOVLB  3
06BD6:  MOVWF  x12
06BD8:  MOVLB  0
06BDA:  CALL   1C3E
06BDE:  MOVFF  2F9,311
06BE2:  MOVLW  57
06BE4:  MOVLB  3
06BE6:  MOVWF  x12
06BE8:  MOVLB  0
06BEA:  CALL   1C3E
06BEE:  MOVLW  0D
06BF0:  BTFSS  F9E.4
06BF2:  BRA    6BF0
06BF4:  MOVWF  FAD
06BF6:  MOVLW  0A
06BF8:  BTFSS  F9E.4
06BFA:  BRA    6BF8
06BFC:  MOVWF  FAD
....................    int32 address = make32(data1,data2,data3,data4); 
06BFE:  MOVFF  2F6,2FD
06C02:  MOVFF  2F7,2FC
06C06:  MOVFF  2F8,2FB
06C0A:  MOVFF  2F9,2FA
....................    output_low(PIN_A5);                                                           //multiplexor OBC side 
06C0E:  BCF    F92.5
06C10:  BCF    F89.5
....................    sector_erase_SMF(address);                                                    //erase 1 sector 
06C12:  MOVFF  2FD,309
06C16:  MOVFF  2FC,308
06C1A:  MOVFF  2FB,307
06C1E:  MOVFF  2FA,306
06C22:  CALL   3A5A
....................     
....................    int16 DATA = address/SECT;                                                    //maximum 2048, data almacena el nro de sector borrado 
....................    int8 D1 = DATA >> 8; 
....................    int8 D2 = DATA; 
06C26:  MOVFF  2FC,2FE
06C2A:  MOVFF  2FD,2FF
06C2E:  MOVFF  2FF,300
06C32:  MOVFF  2FE,301
....................     
....................    SAVE_SAT_LOG(0xe2, D1, D2);                                                   //0xE0+16bit sector info 
06C36:  MOVLW  E2
06C38:  MOVLB  3
06C3A:  MOVWF  x02
06C3C:  MOVFF  300,303
06C40:  MOVFF  301,304
06C44:  MOVLB  0
06C46:  CALL   3E06
....................    return; 
06C4A:  RETURN 0
.................... } 
....................  
....................  
....................  
....................  
....................  
.................... void TRANSFER_SECTOR_OF2SCF(int8 data1,int8 data2,int8 data3,int8 data4)         //command 0x12 
.................... { 
....................    REFRESH_SECTOR_SCF(data1,data2,data3,data4);                                  //erase 1 sector SCF 
*
0BBF4:  MOVFF  2E5,2F6
0BBF8:  MOVFF  2E6,2F7
0BBFC:  MOVFF  2E7,2F8
0BC00:  MOVFF  2E8,2F9
0BC04:  CALL   A75A
....................    delay_ms(500); 
0BC08:  MOVLW  02
0BC0A:  MOVLB  2
0BC0C:  MOVWF  xF5
0BC0E:  MOVLW  FA
0BC10:  MOVLB  3
0BC12:  MOVWF  x19
0BC14:  MOVLB  0
0BC16:  CALL   1F78
0BC1A:  MOVLB  2
0BC1C:  DECFSZ xF5,F
0BC1E:  BRA    BC0E
....................    fprintf(PC,"transfer OF2SCF:%x%x%x%x\r\n",data1,data2,data3,data4); 
0BC20:  MOVLW  4A
0BC22:  MOVWF  FF6
0BC24:  MOVLW  0C
0BC26:  MOVWF  FF7
0BC28:  MOVLW  00
0BC2A:  MOVWF  FF8
0BC2C:  MOVLW  10
0BC2E:  MOVLB  3
0BC30:  MOVWF  x10
0BC32:  MOVLB  0
0BC34:  CALL   1C0C
0BC38:  MOVFF  2E5,311
0BC3C:  MOVLW  57
0BC3E:  MOVLB  3
0BC40:  MOVWF  x12
0BC42:  MOVLB  0
0BC44:  CALL   1C3E
0BC48:  MOVFF  2E6,311
0BC4C:  MOVLW  57
0BC4E:  MOVLB  3
0BC50:  MOVWF  x12
0BC52:  MOVLB  0
0BC54:  CALL   1C3E
0BC58:  MOVFF  2E7,311
0BC5C:  MOVLW  57
0BC5E:  MOVLB  3
0BC60:  MOVWF  x12
0BC62:  MOVLB  0
0BC64:  CALL   1C3E
0BC68:  MOVFF  2E8,311
0BC6C:  MOVLW  57
0BC6E:  MOVLB  3
0BC70:  MOVWF  x12
0BC72:  MOVLB  0
0BC74:  CALL   1C3E
0BC78:  MOVLW  0D
0BC7A:  BTFSS  F9E.4
0BC7C:  BRA    BC7A
0BC7E:  MOVWF  FAD
0BC80:  MOVLW  0A
0BC82:  BTFSS  F9E.4
0BC84:  BRA    BC82
0BC86:  MOVWF  FAD
....................    int32 address = make32(data1,data2,data3,data4); 
0BC88:  MOVFF  2E5,2EC
0BC8C:  MOVFF  2E6,2EB
0BC90:  MOVFF  2E7,2EA
0BC94:  MOVFF  2E8,2E9
....................    address = address - (address%SECT);                                           //si la direccion no es exacta la de un sector, transfiere desde la direccion donde comienza el sector 
0BC98:  MOVLB  2
0BC9A:  MOVFF  2E9,00
0BC9E:  MOVFF  2EA,01
0BCA2:  CLRF   02
0BCA4:  CLRF   03
0BCA6:  MOVF   xE9,W
0BCA8:  SUBWF  xE9,F
0BCAA:  MOVF   xEA,W
0BCAC:  SUBWFB xEA,F
0BCAE:  MOVF   02,W
0BCB0:  SUBWFB xEB,F
0BCB2:  MOVF   03,W
0BCB4:  SUBWFB xEC,F
....................    output_low(PIN_C4);                                                           //OBC side 
0BCB6:  BCF    F94.4
0BCB8:  BCF    F8B.4
....................    for(int32 i = 0; i < SECT; i++) 
0BCBA:  CLRF   xF0
0BCBC:  CLRF   xEF
0BCBE:  CLRF   xEE
0BCC0:  CLRF   xED
0BCC2:  MOVF   xF0,F
0BCC4:  BNZ   BD42
0BCC6:  MOVF   xEF,W
0BCC8:  SUBLW  00
0BCCA:  BNC   BD42
....................    { 
....................       WRITE_DATA_BYTE_SCF(address + i, READ_DATA_BYTE_OF(address + i)); 
0BCCC:  MOVF   xED,W
0BCCE:  ADDWF  xE9,W
0BCD0:  MOVWF  xF5
0BCD2:  MOVF   xEE,W
0BCD4:  ADDWFC xEA,W
0BCD6:  MOVWF  xF6
0BCD8:  MOVF   xEF,W
0BCDA:  ADDWFC xEB,W
0BCDC:  MOVWF  xF7
0BCDE:  MOVF   xF0,W
0BCE0:  ADDWFC xEC,W
0BCE2:  MOVWF  xF8
0BCE4:  MOVF   xED,W
0BCE6:  ADDWF  xE9,W
0BCE8:  MOVWF  xF9
0BCEA:  MOVF   xEE,W
0BCEC:  ADDWFC xEA,W
0BCEE:  MOVWF  xFA
0BCF0:  MOVF   xEF,W
0BCF2:  ADDWFC xEB,W
0BCF4:  MOVWF  xFB
0BCF6:  MOVF   xF0,W
0BCF8:  ADDWFC xEC,W
0BCFA:  MOVWF  xFC
0BCFC:  MOVFF  FE8,31A
0BD00:  MOVFF  2FB,319
0BD04:  MOVFF  2FA,318
0BD08:  MOVFF  2F9,317
0BD0C:  MOVLB  0
0BD0E:  CALL   17B2
0BD12:  MOVFF  01,2F9
0BD16:  MOVFF  2F8,314
0BD1A:  MOVFF  2F7,313
0BD1E:  MOVFF  2F6,312
0BD22:  MOVFF  2F5,311
0BD26:  MOVFF  01,315
0BD2A:  CALL   1B0C
0BD2E:  MOVLW  01
0BD30:  MOVLB  2
0BD32:  ADDWF  xED,F
0BD34:  BTFSC  FD8.0
0BD36:  INCF   xEE,F
0BD38:  BTFSC  FD8.2
0BD3A:  INCF   xEF,F
0BD3C:  BTFSC  FD8.2
0BD3E:  INCF   xF0,F
0BD40:  BRA    BCC2
....................    } 
....................    delay_ms(100); 
0BD42:  MOVLW  64
0BD44:  MOVLB  3
0BD46:  MOVWF  x19
0BD48:  MOVLB  0
0BD4A:  CALL   1F78
....................    output_high(PIN_C4);                                                          //COM side 
0BD4E:  BCF    F94.4
0BD50:  BSF    F8B.4
....................     
....................    int16 DATA = address/SECT;                                                    //maximum 2048, data almacena el nro de sector copiado 
....................    int8 D1 = DATA >> 8; 
....................    int8 D2 = DATA; 
0BD52:  MOVFF  2EB,2F1
0BD56:  MOVFF  2EC,2F2
0BD5A:  MOVFF  2F2,2F3
0BD5E:  MOVFF  2F1,2F4
....................     
....................    SAVE_SAT_LOG(0x12, D1, D2);                                                   //0xE0+16bit sector info 
0BD62:  MOVLW  12
0BD64:  MOVLB  3
0BD66:  MOVWF  x02
0BD68:  MOVFF  2F3,303
0BD6C:  MOVFF  2F4,304
0BD70:  MOVLB  0
0BD72:  CALL   3E06
....................    return; 
0BD76:  RETURN 0
.................... } 
....................  
.................... void TRANSFER_SECTOR_OF2SMF(int8 data1,int8 data2,int8 data3,int8 data4) 
.................... { 
....................    REFRESH_SECTOR_SMF(data1,data2,data3,data4);                                  //erase 1 sector SMF 
0BD78:  MOVFF  2E5,2F6
0BD7C:  MOVFF  2E6,2F7
0BD80:  MOVFF  2E7,2F8
0BD84:  MOVFF  2E8,2F9
0BD88:  CALL   6B96
....................    delay_ms(500); 
0BD8C:  MOVLW  02
0BD8E:  MOVLB  2
0BD90:  MOVWF  xF5
0BD92:  MOVLW  FA
0BD94:  MOVLB  3
0BD96:  MOVWF  x19
0BD98:  MOVLB  0
0BD9A:  CALL   1F78
0BD9E:  MOVLB  2
0BDA0:  DECFSZ xF5,F
0BDA2:  BRA    BD92
....................    fprintf(PC,"transfer OF2SMF:%x%x%x%x\r\n",data1,data2,data3,data4); 
0BDA4:  MOVLW  66
0BDA6:  MOVWF  FF6
0BDA8:  MOVLW  0C
0BDAA:  MOVWF  FF7
0BDAC:  MOVLW  00
0BDAE:  MOVWF  FF8
0BDB0:  MOVLW  10
0BDB2:  MOVLB  3
0BDB4:  MOVWF  x10
0BDB6:  MOVLB  0
0BDB8:  CALL   1C0C
0BDBC:  MOVFF  2E5,311
0BDC0:  MOVLW  57
0BDC2:  MOVLB  3
0BDC4:  MOVWF  x12
0BDC6:  MOVLB  0
0BDC8:  CALL   1C3E
0BDCC:  MOVFF  2E6,311
0BDD0:  MOVLW  57
0BDD2:  MOVLB  3
0BDD4:  MOVWF  x12
0BDD6:  MOVLB  0
0BDD8:  CALL   1C3E
0BDDC:  MOVFF  2E7,311
0BDE0:  MOVLW  57
0BDE2:  MOVLB  3
0BDE4:  MOVWF  x12
0BDE6:  MOVLB  0
0BDE8:  CALL   1C3E
0BDEC:  MOVFF  2E8,311
0BDF0:  MOVLW  57
0BDF2:  MOVLB  3
0BDF4:  MOVWF  x12
0BDF6:  MOVLB  0
0BDF8:  CALL   1C3E
0BDFC:  MOVLW  0D
0BDFE:  BTFSS  F9E.4
0BE00:  BRA    BDFE
0BE02:  MOVWF  FAD
0BE04:  MOVLW  0A
0BE06:  BTFSS  F9E.4
0BE08:  BRA    BE06
0BE0A:  MOVWF  FAD
....................    int32 address = make32(data1,data2,data3,data4); 
0BE0C:  MOVFF  2E5,2EC
0BE10:  MOVFF  2E6,2EB
0BE14:  MOVFF  2E7,2EA
0BE18:  MOVFF  2E8,2E9
....................    address = address - (address%SECT);                                           //si la direccion no es exacta la de un sector, transfiere desde la direccion donde comienza el sector 
0BE1C:  MOVLB  2
0BE1E:  MOVFF  2E9,00
0BE22:  MOVFF  2EA,01
0BE26:  CLRF   02
0BE28:  CLRF   03
0BE2A:  MOVF   xE9,W
0BE2C:  SUBWF  xE9,F
0BE2E:  MOVF   xEA,W
0BE30:  SUBWFB xEA,F
0BE32:  MOVF   02,W
0BE34:  SUBWFB xEB,F
0BE36:  MOVF   03,W
0BE38:  SUBWFB xEC,F
....................    output_low(PIN_A5);                                                           //OBC side 
0BE3A:  BCF    F92.5
0BE3C:  BCF    F89.5
....................    for(int32 i = 0; i < SECT; i++) 
0BE3E:  CLRF   xF0
0BE40:  CLRF   xEF
0BE42:  CLRF   xEE
0BE44:  CLRF   xED
0BE46:  MOVF   xF0,F
0BE48:  BNZ   BEC6
0BE4A:  MOVF   xEF,W
0BE4C:  SUBLW  00
0BE4E:  BNC   BEC6
....................    { 
....................       WRITE_DATA_BYTE_SMF(address + i, READ_DATA_BYTE_OF(address + i)); 
0BE50:  MOVF   xED,W
0BE52:  ADDWF  xE9,W
0BE54:  MOVWF  xF5
0BE56:  MOVF   xEE,W
0BE58:  ADDWFC xEA,W
0BE5A:  MOVWF  xF6
0BE5C:  MOVF   xEF,W
0BE5E:  ADDWFC xEB,W
0BE60:  MOVWF  xF7
0BE62:  MOVF   xF0,W
0BE64:  ADDWFC xEC,W
0BE66:  MOVWF  xF8
0BE68:  MOVF   xED,W
0BE6A:  ADDWF  xE9,W
0BE6C:  MOVWF  xF9
0BE6E:  MOVF   xEE,W
0BE70:  ADDWFC xEA,W
0BE72:  MOVWF  xFA
0BE74:  MOVF   xEF,W
0BE76:  ADDWFC xEB,W
0BE78:  MOVWF  xFB
0BE7A:  MOVF   xF0,W
0BE7C:  ADDWFC xEC,W
0BE7E:  MOVWF  xFC
0BE80:  MOVFF  FE8,31A
0BE84:  MOVFF  2FB,319
0BE88:  MOVFF  2FA,318
0BE8C:  MOVFF  2F9,317
0BE90:  MOVLB  0
0BE92:  CALL   17B2
0BE96:  MOVFF  01,2F9
0BE9A:  MOVFF  2F8,314
0BE9E:  MOVFF  2F7,313
0BEA2:  MOVFF  2F6,312
0BEA6:  MOVFF  2F5,311
0BEAA:  MOVFF  01,315
0BEAE:  CALL   1B98
0BEB2:  MOVLW  01
0BEB4:  MOVLB  2
0BEB6:  ADDWF  xED,F
0BEB8:  BTFSC  FD8.0
0BEBA:  INCF   xEE,F
0BEBC:  BTFSC  FD8.2
0BEBE:  INCF   xEF,F
0BEC0:  BTFSC  FD8.2
0BEC2:  INCF   xF0,F
0BEC4:  BRA    BE46
....................    } 
....................    delay_ms(100); 
0BEC6:  MOVLW  64
0BEC8:  MOVLB  3
0BECA:  MOVWF  x19
0BECC:  MOVLB  0
0BECE:  CALL   1F78
....................     
....................    int16 DATA = address/SECT;                                                    //maximum 2048, data almacena el nro de sector copiado 
....................    int8 D1 = DATA >> 8; 
....................    int8 D2 = DATA; 
0BED2:  MOVFF  2EB,2F1
0BED6:  MOVFF  2EC,2F2
0BEDA:  MOVFF  2F2,2F3
0BEDE:  MOVFF  2F1,2F4
....................     
....................    SAVE_SAT_LOG(0x13, D1, D2);                                                   //0xE0+16bit sector info 
0BEE2:  MOVLW  13
0BEE4:  MOVLB  3
0BEE6:  MOVWF  x02
0BEE8:  MOVFF  2F3,303
0BEEC:  MOVFF  2F4,304
0BEF0:  MOVLB  0
0BEF2:  CALL   3E06
....................     
....................    return; 
0BEF6:  GOTO   CFC8 (RETURN)
.................... } 
....................  
....................  
.................... void TRANSFER_SECTOR_SCF2OF(int8 data1,int8 data2,int8 data3,int8 data4) 
.................... { 
....................    REFRESH_SECTOR_OF(data1,data2,data3,data4);                                   //erase 1 sector OBC flash 
0BEFA:  MOVFF  2E5,2F6
0BEFE:  MOVFF  2E6,2F7
0BF02:  MOVFF  2E7,2F8
0BF06:  MOVFF  2E8,2F9
0BF0A:  CALL   A6A8
....................    delay_ms(500); 
0BF0E:  MOVLW  02
0BF10:  MOVLB  2
0BF12:  MOVWF  xF5
0BF14:  MOVLW  FA
0BF16:  MOVLB  3
0BF18:  MOVWF  x19
0BF1A:  MOVLB  0
0BF1C:  CALL   1F78
0BF20:  MOVLB  2
0BF22:  DECFSZ xF5,F
0BF24:  BRA    BF14
....................    fprintf(PC,"transfer SCF2OF:%x%x%x%x\r\n",data1,data2,data3,data4); 
0BF26:  MOVLW  82
0BF28:  MOVWF  FF6
0BF2A:  MOVLW  0C
0BF2C:  MOVWF  FF7
0BF2E:  MOVLW  00
0BF30:  MOVWF  FF8
0BF32:  MOVLW  10
0BF34:  MOVLB  3
0BF36:  MOVWF  x10
0BF38:  MOVLB  0
0BF3A:  CALL   1C0C
0BF3E:  MOVFF  2E5,311
0BF42:  MOVLW  57
0BF44:  MOVLB  3
0BF46:  MOVWF  x12
0BF48:  MOVLB  0
0BF4A:  CALL   1C3E
0BF4E:  MOVFF  2E6,311
0BF52:  MOVLW  57
0BF54:  MOVLB  3
0BF56:  MOVWF  x12
0BF58:  MOVLB  0
0BF5A:  CALL   1C3E
0BF5E:  MOVFF  2E7,311
0BF62:  MOVLW  57
0BF64:  MOVLB  3
0BF66:  MOVWF  x12
0BF68:  MOVLB  0
0BF6A:  CALL   1C3E
0BF6E:  MOVFF  2E8,311
0BF72:  MOVLW  57
0BF74:  MOVLB  3
0BF76:  MOVWF  x12
0BF78:  MOVLB  0
0BF7A:  CALL   1C3E
0BF7E:  MOVLW  0D
0BF80:  BTFSS  F9E.4
0BF82:  BRA    BF80
0BF84:  MOVWF  FAD
0BF86:  MOVLW  0A
0BF88:  BTFSS  F9E.4
0BF8A:  BRA    BF88
0BF8C:  MOVWF  FAD
....................    int32 address = make32(data1,data2,data3,data4); 
0BF8E:  MOVFF  2E5,2EC
0BF92:  MOVFF  2E6,2EB
0BF96:  MOVFF  2E7,2EA
0BF9A:  MOVFF  2E8,2E9
....................    address = address - (address%SECT);                                           //si la direccion no es exacta la de un sector, transfiere desde la direccion donde comienza el sector 
0BF9E:  MOVLB  2
0BFA0:  MOVFF  2E9,00
0BFA4:  MOVFF  2EA,01
0BFA8:  CLRF   02
0BFAA:  CLRF   03
0BFAC:  MOVF   xE9,W
0BFAE:  SUBWF  xE9,F
0BFB0:  MOVF   xEA,W
0BFB2:  SUBWFB xEA,F
0BFB4:  MOVF   02,W
0BFB6:  SUBWFB xEB,F
0BFB8:  MOVF   03,W
0BFBA:  SUBWFB xEC,F
....................    output_low(PIN_C4);                                                           //SCF OBC side 
0BFBC:  BCF    F94.4
0BFBE:  BCF    F8B.4
....................    for(int32 i = 0; i < SECT; i++) 
0BFC0:  CLRF   xF0
0BFC2:  CLRF   xEF
0BFC4:  CLRF   xEE
0BFC6:  CLRF   xED
0BFC8:  MOVF   xF0,F
0BFCA:  BNZ   C048
0BFCC:  MOVF   xEF,W
0BFCE:  SUBLW  00
0BFD0:  BNC   C048
....................    { 
....................       WRITE_DATA_BYTE_OF(address + i, READ_DATA_BYTE_SCF(address + i)); 
0BFD2:  MOVF   xED,W
0BFD4:  ADDWF  xE9,W
0BFD6:  MOVWF  xF5
0BFD8:  MOVF   xEE,W
0BFDA:  ADDWFC xEA,W
0BFDC:  MOVWF  xF6
0BFDE:  MOVF   xEF,W
0BFE0:  ADDWFC xEB,W
0BFE2:  MOVWF  xF7
0BFE4:  MOVF   xF0,W
0BFE6:  ADDWFC xEC,W
0BFE8:  MOVWF  xF8
0BFEA:  MOVF   xED,W
0BFEC:  ADDWF  xE9,W
0BFEE:  MOVWF  xF9
0BFF0:  MOVF   xEE,W
0BFF2:  ADDWFC xEA,W
0BFF4:  MOVWF  xFA
0BFF6:  MOVF   xEF,W
0BFF8:  ADDWFC xEB,W
0BFFA:  MOVWF  xFB
0BFFC:  MOVF   xF0,W
0BFFE:  ADDWFC xEC,W
0C000:  MOVWF  xFC
0C002:  MOVFF  FE8,300
0C006:  MOVFF  2FB,2FF
0C00A:  MOVFF  2FA,2FE
0C00E:  MOVFF  2F9,2FD
0C012:  MOVLB  0
0C014:  CALL   186A
0C018:  MOVFF  01,2F9
0C01C:  MOVFF  2F8,314
0C020:  MOVFF  2F7,313
0C024:  MOVFF  2F6,312
0C028:  MOVFF  2F5,311
0C02C:  MOVFF  01,315
0C030:  CALL   1A80
0C034:  MOVLW  01
0C036:  MOVLB  2
0C038:  ADDWF  xED,F
0C03A:  BTFSC  FD8.0
0C03C:  INCF   xEE,F
0C03E:  BTFSC  FD8.2
0C040:  INCF   xEF,F
0C042:  BTFSC  FD8.2
0C044:  INCF   xF0,F
0C046:  BRA    BFC8
....................    } 
....................    delay_ms(100); 
0C048:  MOVLW  64
0C04A:  MOVLB  3
0C04C:  MOVWF  x19
0C04E:  MOVLB  0
0C050:  CALL   1F78
....................    output_high(PIN_C4); 
0C054:  BCF    F94.4
0C056:  BSF    F8B.4
....................     
....................    int16 DATA = address/SECT;                                                    //maximum 2048, data almacena el nro de sector copiado 
....................    int8 D1 = DATA >> 8; 
....................    int8 D2 = DATA; 
0C058:  MOVFF  2EB,2F1
0C05C:  MOVFF  2EC,2F2
0C060:  MOVFF  2F2,2F3
0C064:  MOVFF  2F1,2F4
....................     
....................    SAVE_SAT_LOG(0x21, D1, D2);                                                   //0xE0+16bit sector info 
0C068:  MOVLW  21
0C06A:  MOVLB  3
0C06C:  MOVWF  x02
0C06E:  MOVFF  2F3,303
0C072:  MOVFF  2F4,304
0C076:  MOVLB  0
0C078:  CALL   3E06
....................     
....................    return; 
0C07C:  RETURN 0
.................... } 
....................  
.................... void TRANSFER_SECTOR_SCF2SMF(int8 data1,int8 data2,int8 data3,int8 data4) 
.................... { 
....................    REFRESH_SECTOR_SMF(data1,data2,data3,data4);                                  //erase 1 sector SMF 
0C07E:  MOVFF  2E5,2F6
0C082:  MOVFF  2E6,2F7
0C086:  MOVFF  2E7,2F8
0C08A:  MOVFF  2E8,2F9
0C08E:  CALL   6B96
....................    delay_ms(500); 
0C092:  MOVLW  02
0C094:  MOVLB  2
0C096:  MOVWF  xF5
0C098:  MOVLW  FA
0C09A:  MOVLB  3
0C09C:  MOVWF  x19
0C09E:  MOVLB  0
0C0A0:  CALL   1F78
0C0A4:  MOVLB  2
0C0A6:  DECFSZ xF5,F
0C0A8:  BRA    C098
....................    fprintf(PC,"transfer SCF2SMF:%x%x%x%x\r\n",data1,data2,data3,data4); 
0C0AA:  MOVLW  9E
0C0AC:  MOVWF  FF6
0C0AE:  MOVLW  0C
0C0B0:  MOVWF  FF7
0C0B2:  MOVLW  00
0C0B4:  MOVWF  FF8
0C0B6:  MOVLW  11
0C0B8:  MOVLB  3
0C0BA:  MOVWF  x10
0C0BC:  MOVLB  0
0C0BE:  CALL   1C0C
0C0C2:  MOVFF  2E5,311
0C0C6:  MOVLW  57
0C0C8:  MOVLB  3
0C0CA:  MOVWF  x12
0C0CC:  MOVLB  0
0C0CE:  CALL   1C3E
0C0D2:  MOVFF  2E6,311
0C0D6:  MOVLW  57
0C0D8:  MOVLB  3
0C0DA:  MOVWF  x12
0C0DC:  MOVLB  0
0C0DE:  CALL   1C3E
0C0E2:  MOVFF  2E7,311
0C0E6:  MOVLW  57
0C0E8:  MOVLB  3
0C0EA:  MOVWF  x12
0C0EC:  MOVLB  0
0C0EE:  CALL   1C3E
0C0F2:  MOVFF  2E8,311
0C0F6:  MOVLW  57
0C0F8:  MOVLB  3
0C0FA:  MOVWF  x12
0C0FC:  MOVLB  0
0C0FE:  CALL   1C3E
0C102:  MOVLW  0D
0C104:  BTFSS  F9E.4
0C106:  BRA    C104
0C108:  MOVWF  FAD
0C10A:  MOVLW  0A
0C10C:  BTFSS  F9E.4
0C10E:  BRA    C10C
0C110:  MOVWF  FAD
....................    int32 address = make32(data1,data2,data3,data4); 
0C112:  MOVFF  2E5,2EC
0C116:  MOVFF  2E6,2EB
0C11A:  MOVFF  2E7,2EA
0C11E:  MOVFF  2E8,2E9
....................    address = address - (address%SECT);                                           //si la direccion no es exacta la de un sector, transfiere desde la direccion donde comienza el sector 
0C122:  MOVLB  2
0C124:  MOVFF  2E9,00
0C128:  MOVFF  2EA,01
0C12C:  CLRF   02
0C12E:  CLRF   03
0C130:  MOVF   xE9,W
0C132:  SUBWF  xE9,F
0C134:  MOVF   xEA,W
0C136:  SUBWFB xEA,F
0C138:  MOVF   02,W
0C13A:  SUBWFB xEB,F
0C13C:  MOVF   03,W
0C13E:  SUBWFB xEC,F
....................    output_low(PIN_C4);                                                           //SCF OBC side 
0C140:  BCF    F94.4
0C142:  BCF    F8B.4
....................    output_low(PIN_A5);                                                           //SMF OBC side 
0C144:  BCF    F92.5
0C146:  BCF    F89.5
....................    for(int32 i = 0; i < SECT; i++) 
0C148:  CLRF   xF0
0C14A:  CLRF   xEF
0C14C:  CLRF   xEE
0C14E:  CLRF   xED
0C150:  MOVF   xF0,F
0C152:  BNZ   C1D0
0C154:  MOVF   xEF,W
0C156:  SUBLW  00
0C158:  BNC   C1D0
....................    { 
....................       WRITE_DATA_BYTE_SMF(address + i, READ_DATA_BYTE_SCF(address + i)); 
0C15A:  MOVF   xED,W
0C15C:  ADDWF  xE9,W
0C15E:  MOVWF  xF5
0C160:  MOVF   xEE,W
0C162:  ADDWFC xEA,W
0C164:  MOVWF  xF6
0C166:  MOVF   xEF,W
0C168:  ADDWFC xEB,W
0C16A:  MOVWF  xF7
0C16C:  MOVF   xF0,W
0C16E:  ADDWFC xEC,W
0C170:  MOVWF  xF8
0C172:  MOVF   xED,W
0C174:  ADDWF  xE9,W
0C176:  MOVWF  xF9
0C178:  MOVF   xEE,W
0C17A:  ADDWFC xEA,W
0C17C:  MOVWF  xFA
0C17E:  MOVF   xEF,W
0C180:  ADDWFC xEB,W
0C182:  MOVWF  xFB
0C184:  MOVF   xF0,W
0C186:  ADDWFC xEC,W
0C188:  MOVWF  xFC
0C18A:  MOVFF  FE8,300
0C18E:  MOVFF  2FB,2FF
0C192:  MOVFF  2FA,2FE
0C196:  MOVFF  2F9,2FD
0C19A:  MOVLB  0
0C19C:  CALL   186A
0C1A0:  MOVFF  01,2F9
0C1A4:  MOVFF  2F8,314
0C1A8:  MOVFF  2F7,313
0C1AC:  MOVFF  2F6,312
0C1B0:  MOVFF  2F5,311
0C1B4:  MOVFF  01,315
0C1B8:  CALL   1B98
0C1BC:  MOVLW  01
0C1BE:  MOVLB  2
0C1C0:  ADDWF  xED,F
0C1C2:  BTFSC  FD8.0
0C1C4:  INCF   xEE,F
0C1C6:  BTFSC  FD8.2
0C1C8:  INCF   xEF,F
0C1CA:  BTFSC  FD8.2
0C1CC:  INCF   xF0,F
0C1CE:  BRA    C150
....................    } 
....................    delay_ms(100); 
0C1D0:  MOVLW  64
0C1D2:  MOVLB  3
0C1D4:  MOVWF  x19
0C1D6:  MOVLB  0
0C1D8:  CALL   1F78
....................    output_high(PIN_C4); 
0C1DC:  BCF    F94.4
0C1DE:  BSF    F8B.4
....................     
....................    int16 DATA = address/SECT;                                                    //maximum 2048, data almacena el nro de sector copiado 
....................    int8 D1 = DATA >> 8; 
....................    int8 D2 = DATA; 
0C1E0:  MOVFF  2EB,2F1
0C1E4:  MOVFF  2EC,2F2
0C1E8:  MOVFF  2F2,2F3
0C1EC:  MOVFF  2F1,2F4
....................     
....................    SAVE_SAT_LOG(0x23, D1, D2);                                                   //0xE0+16bit sector info 
0C1F0:  MOVLW  23
0C1F2:  MOVLB  3
0C1F4:  MOVWF  x02
0C1F6:  MOVFF  2F3,303
0C1FA:  MOVFF  2F4,304
0C1FE:  MOVLB  0
0C200:  CALL   3E06
....................     
....................    return; 
0C204:  GOTO   CFC8 (RETURN)
.................... } 
....................  
.................... void TRANSFER_SECTOR_SMF2OF(int8 data1,int8 data2,int8 data3,int8 data4) 
.................... { 
....................    REFRESH_SECTOR_OF(data1,data2,data3,data4);                                   //erase 1 sector OBC flash 
0C208:  MOVFF  2E5,2F6
0C20C:  MOVFF  2E6,2F7
0C210:  MOVFF  2E7,2F8
0C214:  MOVFF  2E8,2F9
0C218:  CALL   A6A8
....................    delay_ms(500); 
0C21C:  MOVLW  02
0C21E:  MOVLB  2
0C220:  MOVWF  xF5
0C222:  MOVLW  FA
0C224:  MOVLB  3
0C226:  MOVWF  x19
0C228:  MOVLB  0
0C22A:  CALL   1F78
0C22E:  MOVLB  2
0C230:  DECFSZ xF5,F
0C232:  BRA    C222
....................    fprintf(PC,"transfer SMF2OF:%x%x%x%x\r\n",data1,data2,data3,data4); 
0C234:  MOVLW  BA
0C236:  MOVWF  FF6
0C238:  MOVLW  0C
0C23A:  MOVWF  FF7
0C23C:  MOVLW  00
0C23E:  MOVWF  FF8
0C240:  MOVLW  10
0C242:  MOVLB  3
0C244:  MOVWF  x10
0C246:  MOVLB  0
0C248:  CALL   1C0C
0C24C:  MOVFF  2E5,311
0C250:  MOVLW  57
0C252:  MOVLB  3
0C254:  MOVWF  x12
0C256:  MOVLB  0
0C258:  CALL   1C3E
0C25C:  MOVFF  2E6,311
0C260:  MOVLW  57
0C262:  MOVLB  3
0C264:  MOVWF  x12
0C266:  MOVLB  0
0C268:  CALL   1C3E
0C26C:  MOVFF  2E7,311
0C270:  MOVLW  57
0C272:  MOVLB  3
0C274:  MOVWF  x12
0C276:  MOVLB  0
0C278:  CALL   1C3E
0C27C:  MOVFF  2E8,311
0C280:  MOVLW  57
0C282:  MOVLB  3
0C284:  MOVWF  x12
0C286:  MOVLB  0
0C288:  CALL   1C3E
0C28C:  MOVLW  0D
0C28E:  BTFSS  F9E.4
0C290:  BRA    C28E
0C292:  MOVWF  FAD
0C294:  MOVLW  0A
0C296:  BTFSS  F9E.4
0C298:  BRA    C296
0C29A:  MOVWF  FAD
....................    int32 address = make32(data1,data2,data3,data4); 
0C29C:  MOVFF  2E5,2EC
0C2A0:  MOVFF  2E6,2EB
0C2A4:  MOVFF  2E7,2EA
0C2A8:  MOVFF  2E8,2E9
....................    address = address - (address%SECT);                                           //si la direccion no es exacta la de un sector, transfiere desde la direccion donde comienza el sector 
0C2AC:  MOVLB  2
0C2AE:  MOVFF  2E9,00
0C2B2:  MOVFF  2EA,01
0C2B6:  CLRF   02
0C2B8:  CLRF   03
0C2BA:  MOVF   xE9,W
0C2BC:  SUBWF  xE9,F
0C2BE:  MOVF   xEA,W
0C2C0:  SUBWFB xEA,F
0C2C2:  MOVF   02,W
0C2C4:  SUBWFB xEB,F
0C2C6:  MOVF   03,W
0C2C8:  SUBWFB xEC,F
....................    output_low(PIN_A5);                                                           //SMF OBC side 
0C2CA:  BCF    F92.5
0C2CC:  BCF    F89.5
....................    for(int32 i = 0; i < SECT; i++) 
0C2CE:  CLRF   xF0
0C2D0:  CLRF   xEF
0C2D2:  CLRF   xEE
0C2D4:  CLRF   xED
0C2D6:  MOVF   xF0,F
0C2D8:  BNZ   C356
0C2DA:  MOVF   xEF,W
0C2DC:  SUBLW  00
0C2DE:  BNC   C356
....................    { 
....................       WRITE_DATA_BYTE_OF(address + i, READ_DATA_BYTE_SMF(address + i)); 
0C2E0:  MOVF   xED,W
0C2E2:  ADDWF  xE9,W
0C2E4:  MOVWF  xF5
0C2E6:  MOVF   xEE,W
0C2E8:  ADDWFC xEA,W
0C2EA:  MOVWF  xF6
0C2EC:  MOVF   xEF,W
0C2EE:  ADDWFC xEB,W
0C2F0:  MOVWF  xF7
0C2F2:  MOVF   xF0,W
0C2F4:  ADDWFC xEC,W
0C2F6:  MOVWF  xF8
0C2F8:  MOVF   xED,W
0C2FA:  ADDWF  xE9,W
0C2FC:  MOVWF  xF9
0C2FE:  MOVF   xEE,W
0C300:  ADDWFC xEA,W
0C302:  MOVWF  xFA
0C304:  MOVF   xEF,W
0C306:  ADDWFC xEB,W
0C308:  MOVWF  xFB
0C30A:  MOVF   xF0,W
0C30C:  ADDWFC xEC,W
0C30E:  MOVWF  xFC
0C310:  MOVFF  FE8,300
0C314:  MOVFF  2FB,2FF
0C318:  MOVFF  2FA,2FE
0C31C:  MOVFF  2F9,2FD
0C320:  MOVLB  0
0C322:  CALL   1926
0C326:  MOVFF  01,2F9
0C32A:  MOVFF  2F8,314
0C32E:  MOVFF  2F7,313
0C332:  MOVFF  2F6,312
0C336:  MOVFF  2F5,311
0C33A:  MOVFF  01,315
0C33E:  CALL   1A80
0C342:  MOVLW  01
0C344:  MOVLB  2
0C346:  ADDWF  xED,F
0C348:  BTFSC  FD8.0
0C34A:  INCF   xEE,F
0C34C:  BTFSC  FD8.2
0C34E:  INCF   xEF,F
0C350:  BTFSC  FD8.2
0C352:  INCF   xF0,F
0C354:  BRA    C2D6
....................    } 
....................    delay_ms(100); 
0C356:  MOVLW  64
0C358:  MOVLB  3
0C35A:  MOVWF  x19
0C35C:  MOVLB  0
0C35E:  CALL   1F78
....................     
....................    int16 DATA = address/SECT;                                                    //maximum 2048, data almacena el nro de sector copiado 
....................    int8 D1 = DATA >> 8; 
....................    int8 D2 = DATA; 
0C362:  MOVFF  2EB,2F1
0C366:  MOVFF  2EC,2F2
0C36A:  MOVFF  2F2,2F3
0C36E:  MOVFF  2F1,2F4
....................     
....................    SAVE_SAT_LOG(0x31, D1, D2);                                                   //0xE0+16bit sector info 
0C372:  MOVLW  31
0C374:  MOVLB  3
0C376:  MOVWF  x02
0C378:  MOVFF  2F3,303
0C37C:  MOVFF  2F4,304
0C380:  MOVLB  0
0C382:  CALL   3E06
....................     
....................    return; 
0C386:  GOTO   CFC8 (RETURN)
.................... } 
....................  
.................... void TRANSFER_SECTOR_SMF2SCF(int8 data1,int8 data2,int8 data3,int8 data4)        //0x32 
.................... { 
....................    REFRESH_SECTOR_SCF(data1,data2,data3,data4);                                  //erase 1 sector SCF 
0C38A:  MOVFF  2E5,2F6
0C38E:  MOVFF  2E6,2F7
0C392:  MOVFF  2E7,2F8
0C396:  MOVFF  2E8,2F9
0C39A:  CALL   A75A
....................    delay_ms(500); 
0C39E:  MOVLW  02
0C3A0:  MOVLB  2
0C3A2:  MOVWF  xF5
0C3A4:  MOVLW  FA
0C3A6:  MOVLB  3
0C3A8:  MOVWF  x19
0C3AA:  MOVLB  0
0C3AC:  CALL   1F78
0C3B0:  MOVLB  2
0C3B2:  DECFSZ xF5,F
0C3B4:  BRA    C3A4
....................    fprintf(PC,"transfer SMF2SCF:%x%x%x%x\r\n",data1,data2,data3,data4); 
0C3B6:  MOVLW  D6
0C3B8:  MOVWF  FF6
0C3BA:  MOVLW  0C
0C3BC:  MOVWF  FF7
0C3BE:  MOVLW  00
0C3C0:  MOVWF  FF8
0C3C2:  MOVLW  11
0C3C4:  MOVLB  3
0C3C6:  MOVWF  x10
0C3C8:  MOVLB  0
0C3CA:  CALL   1C0C
0C3CE:  MOVFF  2E5,311
0C3D2:  MOVLW  57
0C3D4:  MOVLB  3
0C3D6:  MOVWF  x12
0C3D8:  MOVLB  0
0C3DA:  CALL   1C3E
0C3DE:  MOVFF  2E6,311
0C3E2:  MOVLW  57
0C3E4:  MOVLB  3
0C3E6:  MOVWF  x12
0C3E8:  MOVLB  0
0C3EA:  CALL   1C3E
0C3EE:  MOVFF  2E7,311
0C3F2:  MOVLW  57
0C3F4:  MOVLB  3
0C3F6:  MOVWF  x12
0C3F8:  MOVLB  0
0C3FA:  CALL   1C3E
0C3FE:  MOVFF  2E8,311
0C402:  MOVLW  57
0C404:  MOVLB  3
0C406:  MOVWF  x12
0C408:  MOVLB  0
0C40A:  CALL   1C3E
0C40E:  MOVLW  0D
0C410:  BTFSS  F9E.4
0C412:  BRA    C410
0C414:  MOVWF  FAD
0C416:  MOVLW  0A
0C418:  BTFSS  F9E.4
0C41A:  BRA    C418
0C41C:  MOVWF  FAD
....................    int32 address = make32(data1,data2,data3,data4); 
0C41E:  MOVFF  2E5,2EC
0C422:  MOVFF  2E6,2EB
0C426:  MOVFF  2E7,2EA
0C42A:  MOVFF  2E8,2E9
....................    address = address - (address%SECT);                                           //si la direccion no es exacta la de un sector, transfiere desde la direccion donde comienza el sector 
0C42E:  MOVLB  2
0C430:  MOVFF  2E9,00
0C434:  MOVFF  2EA,01
0C438:  CLRF   02
0C43A:  CLRF   03
0C43C:  MOVF   xE9,W
0C43E:  SUBWF  xE9,F
0C440:  MOVF   xEA,W
0C442:  SUBWFB xEA,F
0C444:  MOVF   02,W
0C446:  SUBWFB xEB,F
0C448:  MOVF   03,W
0C44A:  SUBWFB xEC,F
....................    output_low(PIN_C4);                                                           //SCF OBC side 
0C44C:  BCF    F94.4
0C44E:  BCF    F8B.4
....................    output_low(PIN_A5);                                                           //SMF OBC side 
0C450:  BCF    F92.5
0C452:  BCF    F89.5
....................    for(int32 i = 0; i < SECT; i++) 
0C454:  CLRF   xF0
0C456:  CLRF   xEF
0C458:  CLRF   xEE
0C45A:  CLRF   xED
0C45C:  MOVF   xF0,F
0C45E:  BNZ   C4DC
0C460:  MOVF   xEF,W
0C462:  SUBLW  00
0C464:  BNC   C4DC
....................    { 
....................       WRITE_DATA_BYTE_SCF(address + i, READ_DATA_BYTE_SMF(address + i)); 
0C466:  MOVF   xED,W
0C468:  ADDWF  xE9,W
0C46A:  MOVWF  xF5
0C46C:  MOVF   xEE,W
0C46E:  ADDWFC xEA,W
0C470:  MOVWF  xF6
0C472:  MOVF   xEF,W
0C474:  ADDWFC xEB,W
0C476:  MOVWF  xF7
0C478:  MOVF   xF0,W
0C47A:  ADDWFC xEC,W
0C47C:  MOVWF  xF8
0C47E:  MOVF   xED,W
0C480:  ADDWF  xE9,W
0C482:  MOVWF  xF9
0C484:  MOVF   xEE,W
0C486:  ADDWFC xEA,W
0C488:  MOVWF  xFA
0C48A:  MOVF   xEF,W
0C48C:  ADDWFC xEB,W
0C48E:  MOVWF  xFB
0C490:  MOVF   xF0,W
0C492:  ADDWFC xEC,W
0C494:  MOVWF  xFC
0C496:  MOVFF  FE8,300
0C49A:  MOVFF  2FB,2FF
0C49E:  MOVFF  2FA,2FE
0C4A2:  MOVFF  2F9,2FD
0C4A6:  MOVLB  0
0C4A8:  CALL   1926
0C4AC:  MOVFF  01,2F9
0C4B0:  MOVFF  2F8,314
0C4B4:  MOVFF  2F7,313
0C4B8:  MOVFF  2F6,312
0C4BC:  MOVFF  2F5,311
0C4C0:  MOVFF  01,315
0C4C4:  CALL   1B0C
0C4C8:  MOVLW  01
0C4CA:  MOVLB  2
0C4CC:  ADDWF  xED,F
0C4CE:  BTFSC  FD8.0
0C4D0:  INCF   xEE,F
0C4D2:  BTFSC  FD8.2
0C4D4:  INCF   xEF,F
0C4D6:  BTFSC  FD8.2
0C4D8:  INCF   xF0,F
0C4DA:  BRA    C45C
....................    } 
....................    delay_ms(100); 
0C4DC:  MOVLW  64
0C4DE:  MOVLB  3
0C4E0:  MOVWF  x19
0C4E2:  MOVLB  0
0C4E4:  CALL   1F78
....................    output_high(PIN_C4);                                                          //SCF COM side 
0C4E8:  BCF    F94.4
0C4EA:  BSF    F8B.4
....................     
....................    int16 DATA = address/SECT;                                                    //maximum 2048, data almacena el nro de sector copiado 
....................    int8 D1 = DATA >> 8; 
....................    int8 D2 = DATA; 
0C4EC:  MOVFF  2EB,2F1
0C4F0:  MOVFF  2EC,2F2
0C4F4:  MOVFF  2F2,2F3
0C4F8:  MOVFF  2F1,2F4
....................     
....................    SAVE_SAT_LOG(0x32, D1, D2);                                                   //0xE0+16bit sector info 
0C4FC:  MOVLW  32
0C4FE:  MOVLB  3
0C500:  MOVWF  x02
0C502:  MOVFF  2F3,303
0C506:  MOVFF  2F4,304
0C50A:  MOVLB  0
0C50C:  CALL   3E06
....................    return; 
0C510:  RETURN 0
.................... } 
....................  
....................  
.................... #include<mainpic_function.c> 
.................... //caution 
.................... //port of kbhit in CAMTurn_OFF_BC Mission is PC-- 
.................... //TRANSFER_DATA_NBYTE_TOPC_SCF(65536,65536); is comment out-- 
.................... //adcs address test make32 function-- 
.................... // 
.................... //reset battery voltage 0x87, over 0x87 is nomal mode 
.................... //reset  
....................  
.................... static int16 currenttime = 0; 
....................  
.................... void GIVE_ACCESS_SCF_Nsec(int8 min) 
.................... { 
....................    fprintf(PC,"giving access to COM for %d min\r\n", min); 
*
0B32C:  MOVLW  F2
0B32E:  MOVWF  FF6
0B330:  MOVLW  0C
0B332:  MOVWF  FF7
0B334:  MOVLW  00
0B336:  MOVWF  FF8
0B338:  MOVLW  19
0B33A:  MOVLB  3
0B33C:  MOVWF  x10
0B33E:  MOVLB  0
0B340:  CALL   1C0C
0B344:  MOVFF  2E5,2EC
0B348:  MOVLW  18
0B34A:  MOVLB  2
0B34C:  MOVWF  xED
0B34E:  MOVLB  0
0B350:  CALL   6E72
0B354:  MOVLW  0D
0B356:  MOVWF  FF6
0B358:  MOVLW  0D
0B35A:  MOVWF  FF7
0B35C:  MOVLW  00
0B35E:  MOVWF  FF8
0B360:  MOVLW  06
0B362:  MOVLB  3
0B364:  MOVWF  x10
0B366:  MOVLB  0
0B368:  CALL   1C0C
....................    fputc(0x35,COM); 
0B36C:  MOVLW  35
0B36E:  CALL   42DC
....................    output_high(PIN_C4); 
0B372:  BCF    F94.4
0B374:  BSF    F8B.4
....................    if(min > 5)                                                                   //for accidentaly send the long time delay, maximum should be 5 min 
0B376:  MOVLB  2
0B378:  MOVF   xE5,W
0B37A:  SUBLW  05
0B37C:  BC    B382
....................    { 
....................       min = 5; 
0B37E:  MOVLW  05
0B380:  MOVWF  xE5
....................    } 
....................    for(int16 i = 0; i < min * 60; i++) 
0B382:  CLRF   xE7
0B384:  CLRF   xE6
0B386:  MOVF   xE5,W
0B388:  MULLW  3C
0B38A:  MOVF   FF3,W
0B38C:  MOVF   xE7,F
0B38E:  BNZ   B3CE
0B390:  SUBWF  xE6,W
0B392:  BC    B3CE
....................    { 
....................       delay_ms(1000);                                                            //wait 1 sec 
0B394:  MOVLW  04
0B396:  MOVWF  xE8
0B398:  MOVLW  FA
0B39A:  MOVLB  3
0B39C:  MOVWF  x19
0B39E:  MOVLB  0
0B3A0:  CALL   1F78
0B3A4:  MOVLB  2
0B3A6:  DECFSZ xE8,F
0B3A8:  BRA    B398
....................       if(in_bffr_main[4] == 0xab || CMD_FROM_PC[0] == 0xab) 
0B3AA:  MOVLB  0
0B3AC:  MOVF   x8A,W
0B3AE:  SUBLW  AB
0B3B0:  BZ    B3B8
0B3B2:  MOVF   x7E,W
0B3B4:  SUBLW  AB
0B3B6:  BNZ   B3C4
....................       { 
....................          CMD_FROM_PC[0] = 0; 
0B3B8:  CLRF   x7E
....................          CMD_FROM_PC[1] = 0; 
0B3BA:  CLRF   x7F
....................          PC_DATA = 0; 
0B3BC:  CLRF   x99
....................          break; 
0B3BE:  MOVLB  2
0B3C0:  BRA    B3CE
0B3C2:  MOVLB  0
....................       } 
0B3C4:  MOVLB  2
0B3C6:  INCF   xE6,F
0B3C8:  BTFSC  FD8.2
0B3CA:  INCF   xE7,F
0B3CC:  BRA    B386
....................    } 
....................    fprintf(PC,"\r\nBack to Nomal Operation\r\n"); 
0B3CE:  MOVLW  14
0B3D0:  MOVWF  FF6
0B3D2:  MOVLW  0D
0B3D4:  MOVWF  FF7
0B3D6:  MOVLW  00
0B3D8:  MOVWF  FF8
0B3DA:  MOVLB  0
0B3DC:  CALL   362C
....................    return; 
0B3E0:  RETURN 0
.................... } 
....................  
.................... //--------MAIN PIC Buffer------------------------------------------------------ 
.................... /* 
.................... void SerialDataReceive()                                                         //get buffer data one by one 
.................... { 
....................    int num = 0; 
....................    for(num = 0 ;num < 16; num++) 
....................    { 
....................     in_bffr_main[num] = fgetc(com); 
....................    }      
....................    return; 
.................... } 
.................... */ 
.................... void DELETE_CMD_FROM_PC() 
.................... { 
....................    for(int num = 0; num < 8; num++) 
*
0A176:  MOVLB  2
0A178:  CLRF   xDA
0A17A:  MOVF   xDA,W
0A17C:  SUBLW  07
0A17E:  BNC   A194
....................    { 
....................       CMD_FROM_PC[num] = 0; 
0A180:  CLRF   03
0A182:  MOVF   xDA,W
0A184:  ADDLW  7E
0A186:  MOVWF  FE9
0A188:  MOVLW  00
0A18A:  ADDWFC 03,W
0A18C:  MOVWF  FEA
0A18E:  CLRF   FEF
0A190:  INCF   xDA,F
0A192:  BRA    A17A
....................    } 
....................    return; 
0A194:  MOVLB  0
0A196:  RETURN 0
.................... } 
....................  
.................... void Delete_Buffer()                                                             //delete com command buffer 
*
04644:  MOVLB  2
04646:  CLRF   xFB
.................... { 
....................    int num = 0; 
....................    for(num = 0;num < 16; num++) 
04648:  CLRF   xFB
0464A:  MOVF   xFB,W
0464C:  SUBLW  0F
0464E:  BNC   4664
....................    { 
....................     in_bffr_main[num] = 0x00; 
04650:  CLRF   03
04652:  MOVF   xFB,W
04654:  ADDLW  86
04656:  MOVWF  FE9
04658:  MOVLW  00
0465A:  ADDWFC 03,W
0465C:  MOVWF  FEA
0465E:  CLRF   FEF
04660:  INCF   xFB,F
04662:  BRA    464A
....................    } 
....................    COM_DATA = 0; 
04664:  MOVLB  0
04666:  CLRF   x96
....................    return; 
04668:  RETURN 0
.................... } 
.................... /* 
.................... void Transfer_Buffer(int PORT_NUM)                                               //get buffer data one by one                                                                                 
.................... {                                                                                //1:PC 2:COM 3:RESET 
....................    int num = 0; 
....................    switch(PORT_NUM) 
....................    { 
....................       case 1: 
....................          for(;num < 16; num++) 
....................          { 
....................          fputc(in_bffr_main[num],PC); 
....................          } 
....................          break; 
....................       case 2: 
....................          for(;num < 16; num++) 
....................          { 
....................          fputc(in_bffr_main[num],COM); 
....................          } 
....................          break; 
....................       case 3: 
....................          for(;num < 16; num++) 
....................          { 
....................          fputc(in_bffr_main[num],RESET); 
....................          } 
....................          break; 
....................    } 
....................    return; 
.................... } 
....................  
.................... void TRANSFER_Buffer_OF(unsigned INT32 TO_ADRESS)                                //for testing 
.................... { 
....................    for (int i=0 ; i < 16 ; i++) 
....................    { 
....................       WRITE_DATA_BYTE_OF(TO_ADRESS, in_bffr_main[i]); 
....................       TO_ADRESS++; 
....................    } 
....................     
....................    return; 
.................... } 
.................... */ 
.................... //--------BC Function---------------------------------------------------------- 
....................  
.................... //unsigned int8 BC_temp_data[2] = {}; 
.................... unsigned int16 BC_temp_data_h = 0; 
.................... unsigned int16 BC_temp_data_l = 0; 
.................... unsigned int16 BC_TEMP = 0; 
.................... float  temp = 0; 
.................... float initial_temp = 0; 
.................... float MAXTEMP = 0; 
.................... int16 UNLEG2 = 0; 
....................  
.................... void BC_SETUP()                                                                  //Analog read configuration (AN9) 
.................... { 
....................    ANCON2= 0x01;                                                                 // PIN RC2 Analog enable 
*
02B56:  MOVLW  01
02B58:  MOVLB  E
02B5A:  MOVWF  x46
....................    ADCON1L = 0x00;                                                               // SAMP bit must be cleared by software to start conversion (ends sampling and starts converting) 
02B5C:  CLRF   FC0
....................    ADCHS0L = 0x09;                                                               // Connect AN9 as S/H+ input 
02B5E:  MOVLW  09
02B60:  MOVWF  x86
....................                                                                                  // AN9 is the input 
....................    ADCON2H = 0x00;                                                               //A/D control register 2H 
02B62:  CLRF   x8D
....................    ADRC = 1;                                                                     //RC Clock source 
02B64:  BSF    x8B.7
....................    ADCSS0L = 0;                                                                  //Sample select register 
02B66:  CLRF   x82
....................    ADCON3L = 0x02;                                                               // Conversion clock select bits, Tad = 3.2/Fosc 
02B68:  MOVLW  02
02B6A:  MOVWF  x8A
....................    //setup_adc(ADC_CLOCK_DIV_32);                                                //VSS_VDD 
....................    ADCON2L = 0;                                                                  //A/D control register 2L 
02B6C:  CLRF   x8C
....................    return; 
02B6E:  MOVLB  0
02B70:  RETURN 0
.................... } 
.................... /* 
.................... void BC_READ_TO_PC() 
.................... { 
....................    ADON = 1; 
....................    SAMP = 1; 
....................    delay_ms(100); 
....................     
....................    SAMP = 0; // start converting 
....................    while (!DONE){}; 
....................    delay_ms(100); 
....................    //BC_temp_data[0] = ADCBUF0H;//read_adc(); 
....................    //BC_temp_data[1] = ADCBUF0L; 
....................     
....................    BC_temp_data_h = ADCBUF0H; 
....................    BC_temp_data_l = ADCBUF0L; 
....................    //temp = ((data_h << 8 ) | data_l); 
....................    fprintf(PC,"data_l:%x \r\n", BC_temp_data_l); 
....................    fprintf(PC,"data_h:%x \r\n", BC_temp_data_h); 
....................    BC_TEMP = BC_temp_data_h | BC_temp_data_l; 
....................    //fprintf(PC,"temp:%f\r\n",temp); 
....................    temp = BC_TEMP/1024*3.31*100-50;    //VDD: 3.31V(MEASURED) 
....................    //fprintf(PC,"%1.1f \r\n", temp); 
....................    return; 
.................... } 
.................... */ 
.................... void CHECK_BC_TEMP()                                                             //lee la temperatura del BC y lo guarda en MAXTEMP 
.................... { 
....................    BC_SETUP();                                                                   //Analog read configuration (AN9) 
*
066E4:  CALL   2B56
....................    ADON = 1; 
066E8:  BSF    FC1.7
....................    SAMP = 1; 
066EA:  BSF    FC0.1
....................    delay_ms(10); 
066EC:  MOVLW  0A
066EE:  MOVLB  3
066F0:  MOVWF  x19
066F2:  MOVLB  0
066F4:  CALL   1F78
....................     
....................    SAMP = 0;                                                                     // start converting 
066F8:  BCF    FC0.1
....................    while (!DONE){}; 
066FA:  BTFSS  FC0.0
066FC:  BRA    66FA
....................    delay_ms(10); 
066FE:  MOVLW  0A
06700:  MOVLB  3
06702:  MOVWF  x19
06704:  MOVLB  0
06706:  CALL   1F78
....................    BC_temp_data_h = ADCBUF0H;                                                    //read_adc(); 
0670A:  MOVLB  1
0670C:  CLRF   x41
0670E:  MOVFF  FC3,140
....................    BC_temp_data_l = ADCBUF0L; 
06712:  CLRF   x43
06714:  MOVFF  FC2,142
....................    //fprintf(PC,"%x%x\r\n",ADCBUF0H,BC_temp_data_l); 
....................    BC_temp = BC_temp_data_h<<8 | BC_temp_data_l;                                 //convierte en un int16 
06718:  MOVFF  140,2F0
0671C:  MOVLB  2
0671E:  CLRF   xEF
06720:  MOVF   xEF,W
06722:  MOVLB  1
06724:  IORWF  x42,W
06726:  MOVWF  x44
06728:  MOVLB  2
0672A:  MOVF   xF0,W
0672C:  MOVLB  1
0672E:  IORWF  x43,W
06730:  MOVWF  x45
....................    //fprintf(PC,"HEX : %x%x\r\n",BC_temp>>8,BC_temp); 
....................  
....................    temp = BC_temp;                                                               //convierte a float 
06732:  MOVFF  145,2F0
06736:  MOVFF  144,2EF
0673A:  MOVLB  0
0673C:  BRA    6222
0673E:  MOVFF  03,149
06742:  MOVFF  02,148
06746:  MOVFF  01,147
0674A:  MOVFF  00,146
....................    //temp = temp/1024*3.25*100-50; 
....................    temp = (temp*3.3/1023); 
0674E:  MOVFF  149,2FF
06752:  MOVFF  148,2FE
06756:  MOVFF  147,2FD
0675A:  MOVFF  146,2FC
0675E:  MOVLW  33
06760:  MOVLB  3
06762:  MOVWF  x03
06764:  MOVWF  x02
06766:  MOVLW  53
06768:  MOVWF  x01
0676A:  MOVLW  80
0676C:  MOVWF  x00
0676E:  MOVLB  0
06770:  CALL   4E10
06774:  MOVFF  03,2F2
06778:  MOVFF  02,2F1
0677C:  MOVFF  01,2F0
06780:  MOVFF  00,2EF
06784:  MOVFF  03,2F6
06788:  MOVFF  02,2F5
0678C:  MOVFF  01,2F4
06790:  MOVFF  00,2F3
06794:  MOVLB  2
06796:  CLRF   xFA
06798:  MOVLW  C0
0679A:  MOVWF  xF9
0679C:  MOVLW  7F
0679E:  MOVWF  xF8
067A0:  MOVLW  88
067A2:  MOVWF  xF7
067A4:  MOVLB  0
067A6:  BRA    625A
067A8:  MOVFF  03,149
067AC:  MOVFF  02,148
067B0:  MOVFF  01,147
067B4:  MOVFF  00,146
....................    temp = temp*100-50; 
067B8:  MOVFF  149,2FF
067BC:  MOVFF  148,2FE
067C0:  MOVFF  147,2FD
067C4:  MOVFF  146,2FC
067C8:  MOVLB  3
067CA:  CLRF   x03
067CC:  CLRF   x02
067CE:  MOVLW  48
067D0:  MOVWF  x01
067D2:  MOVLW  85
067D4:  MOVWF  x00
067D6:  MOVLB  0
067D8:  CALL   4E10
067DC:  MOVFF  03,2F2
067E0:  MOVFF  02,2F1
067E4:  MOVFF  01,2F0
067E8:  MOVFF  00,2EF
067EC:  BSF    FD8.1
067EE:  MOVFF  03,2FB
067F2:  MOVFF  02,2FA
067F6:  MOVFF  01,2F9
067FA:  MOVFF  00,2F8
067FE:  MOVLB  2
06800:  CLRF   xFF
06802:  CLRF   xFE
06804:  MOVLW  48
06806:  MOVWF  xFD
06808:  MOVLW  84
0680A:  MOVWF  xFC
0680C:  MOVLB  0
0680E:  CALL   4F46
06812:  MOVFF  03,149
06816:  MOVFF  02,148
0681A:  MOVFF  01,147
0681E:  MOVFF  00,146
....................    fprintf(PC,"Current Temp: %1.1f\r\n",temp); 
06822:  MOVLW  30
06824:  MOVWF  FF6
06826:  MOVLW  0D
06828:  MOVWF  FF7
0682A:  MOVLW  00
0682C:  MOVWF  FF8
0682E:  MOVLW  0E
06830:  MOVLB  3
06832:  MOVWF  x10
06834:  MOVLB  0
06836:  CALL   1C0C
0683A:  MOVLW  89
0683C:  MOVWF  FE9
0683E:  MOVFF  149,2F2
06842:  MOVFF  148,2F1
06846:  MOVFF  147,2F0
0684A:  MOVFF  146,2EF
0684E:  MOVLW  01
06850:  MOVLB  2
06852:  MOVWF  xF3
06854:  MOVLB  0
06856:  RCALL  64C6
06858:  MOVLW  0D
0685A:  BTFSS  F9E.4
0685C:  BRA    685A
0685E:  MOVWF  FAD
06860:  MOVLW  0A
06862:  BTFSS  F9E.4
06864:  BRA    6862
06866:  MOVWF  FAD
....................     
....................    if(MAXTEMP < temp) 
06868:  MOVFF  151,2F6
0686C:  MOVFF  150,2F5
06870:  MOVFF  14F,2F4
06874:  MOVFF  14E,2F3
06878:  MOVFF  149,2FA
0687C:  MOVFF  148,2F9
06880:  MOVFF  147,2F8
06884:  MOVFF  146,2F7
06888:  RCALL  666A
0688A:  BNC   689C
....................    { 
....................       MAXTEMP = temp; 
0688C:  MOVFF  149,151
06890:  MOVFF  148,150
06894:  MOVFF  147,14F
06898:  MOVFF  146,14E
....................    } 
....................    fprintf(PC,"%f\r\n",temp); 
0689C:  MOVLW  89
0689E:  MOVWF  FE9
068A0:  MOVFF  149,2F2
068A4:  MOVFF  148,2F1
068A8:  MOVFF  147,2F0
068AC:  MOVFF  146,2EF
068B0:  MOVLW  02
068B2:  MOVLB  2
068B4:  MOVWF  xF3
068B6:  MOVLB  0
068B8:  RCALL  64C6
068BA:  MOVLW  0D
068BC:  BTFSS  F9E.4
068BE:  BRA    68BC
068C0:  MOVWF  FAD
068C2:  MOVLW  0A
068C4:  BTFSS  F9E.4
068C6:  BRA    68C4
068C8:  MOVWF  FAD
....................    return; 
068CA:  RETURN 0
.................... } 
....................  
.................... void MEASURE_BC_TEMP() 
.................... { 
....................    BC_SETUP();                                                                   //configuracion para lectura analogica 
*
04712:  CALL   2B56
....................    ADON = 1; 
04716:  BSF    FC1.7
....................    SAMP = 1; 
04718:  BSF    FC0.1
....................    delay_ms(1); 
0471A:  MOVLW  01
0471C:  MOVLB  3
0471E:  MOVWF  x19
04720:  MOVLB  0
04722:  CALL   1F78
....................     
....................    SAMP = 0;                                                                     // start converting 
04726:  BCF    FC0.1
....................    while (!DONE){}; 
04728:  BTFSS  FC0.0
0472A:  BRA    4728
....................    delay_ms(1); 
0472C:  MOVLW  01
0472E:  MOVLB  3
04730:  MOVWF  x19
04732:  MOVLB  0
04734:  CALL   1F78
....................    BC_temp_data_h = ADCBUF0H;                                                    //read_adc(); 
04738:  MOVLB  1
0473A:  CLRF   x41
0473C:  MOVFF  FC3,140
....................    BC_temp_data_l = ADCBUF0L; 
04740:  CLRF   x43
04742:  MOVFF  FC2,142
....................  
....................    return; 
04746:  MOVLB  0
04748:  RETURN 0
.................... } 
....................  
.................... void Turn_ON_BC() 
.................... { 
....................    output_high(PIN_D5);                                                          //BC switch ON, RD5=1 
*
068CC:  BCF    F95.5
068CE:  BSF    F8C.5
....................    return; 
068D0:  GOTO   68E8 (RETURN)
.................... } 
....................  
.................... void Turn_OFF_BC() 
.................... { 
....................    output_low(PIN_D5);                                                           //BC switch OFF, RD5=0 
*
02B84:  BCF    F95.5
02B86:  BCF    F8C.5
....................    return; 
02B88:  RETURN 0
.................... } 
....................  
.................... void BC_OPERATION()                                                              //Turn ON BC and read temperature 
.................... { 
....................    CHECK_BC_TEMP();                                                              //read BC temperature and save It in float MAXTEMP 
*
068D4:  RCALL  66E4
....................    initial_temp = MAXTEMP;                                                       //save temperature in initial_temp before turn_ON BC 
068D6:  MOVFF  151,14D
068DA:  MOVFF  150,14C
068DE:  MOVFF  14F,14B
068E2:  MOVFF  14E,14A
....................    //fprintf(PC,"INITIAL TEMPERATURE is %1.1f\r\n\r\n",initial_temp); 
....................    Turn_ON_BC();                                                                 //BC switch ON, RD5=1 
068E6:  BRA    68CC
....................    fprintf(PC,"Turned ON BC\r\n"); 
068E8:  MOVLW  46
068EA:  MOVWF  FF6
068EC:  MOVLW  0D
068EE:  MOVWF  FF7
068F0:  MOVLW  00
068F2:  MOVWF  FF8
068F4:  CALL   362C
....................    currenttime = 0; 
068F8:  MOVLB  1
068FA:  CLRF   x3F
068FC:  CLRF   x3E
....................    int8 counter = 0;    
068FE:  MOVLB  2
06900:  CLRF   xED
....................    while(currenttime < 30)                                                       //turn ON BC for 30 sec 
06902:  MOVLB  1
06904:  MOVF   x3F,F
06906:  BNZ   69B0
06908:  MOVF   x3E,W
0690A:  SUBLW  1D
0690C:  BNC   69B0
....................    { 
....................       for(int i = 0; i < 10; i++) 
0690E:  MOVLB  2
06910:  CLRF   xEE
06912:  MOVF   xEE,W
06914:  SUBLW  09
06916:  BNC   6984
....................       { 
....................          COLLECT_RESET_DATA();                                                   //envia comando al reset PIC pidiendo RESET DATA 
06918:  MOVLB  0
0691A:  CALL   1FE0
....................          if(reset_bffr[0] == 0x8e) 
0691E:  MOVF   xEC,W
06920:  SUBLW  8E
06922:  BNZ   697E
....................          { 
....................             for(i = 0; i < 10; i++);                                             //muestra el array recibido 
06924:  MOVLB  2
06926:  CLRF   xEE
06928:  MOVF   xEE,W
0692A:  SUBLW  09
0692C:  BNC   6932
0692E:  INCF   xEE,F
06930:  BRA    6928
....................             { 
....................                fprintf(PC,"%x,",reset_bffr[i]); 
06932:  CLRF   03
06934:  MOVF   xEE,W
06936:  ADDLW  EC
06938:  MOVWF  FE9
0693A:  MOVLW  00
0693C:  ADDWFC 03,W
0693E:  MOVWF  FEA
06940:  MOVFF  FEF,311
06944:  MOVLW  57
06946:  MOVLB  3
06948:  MOVWF  x12
0694A:  MOVLB  0
0694C:  CALL   1C3E
06950:  MOVLW  2C
06952:  BTFSS  F9E.4
06954:  BRA    6952
06956:  MOVWF  FAD
....................             } 
....................             fprintf(PC,"%x\r\n",reset_bffr[10]); 
06958:  MOVFF  F6,311
0695C:  MOVLW  57
0695E:  MOVLB  3
06960:  MOVWF  x12
06962:  MOVLB  0
06964:  CALL   1C3E
06968:  MOVLW  0D
0696A:  BTFSS  F9E.4
0696C:  BRA    696A
0696E:  MOVWF  FAD
06970:  MOVLW  0A
06972:  BTFSS  F9E.4
06974:  BRA    6972
06976:  MOVWF  FAD
....................             break; 
06978:  MOVLB  2
0697A:  BRA    6984
0697C:  MOVLB  0
....................          } 
0697E:  MOVLB  2
06980:  INCF   xEE,F
06982:  BRA    6912
....................       } 
....................       CHECK_BC_TEMP();                                                           //read BC temperature and save It in float MAXTEMP 
06984:  MOVLB  0
06986:  RCALL  66E4
....................       UNLEG2 = UNLEG2 + RESET_bffr[10];                                          //add the unleg2 current every second 
06988:  MOVF   xF6,W
0698A:  MOVLB  1
0698C:  ADDWF  x52,F
0698E:  MOVLW  00
06990:  ADDWFC x53,F
....................       counter++; 
06992:  MOVLB  2
06994:  INCF   xED,F
....................       delay_ms(900); 
06996:  MOVLW  04
06998:  MOVWF  xEF
0699A:  MOVLW  E1
0699C:  MOVLB  3
0699E:  MOVWF  x19
069A0:  MOVLB  0
069A2:  CALL   1F78
069A6:  MOVLB  2
069A8:  DECFSZ xEF,F
069AA:  BRA    699A
069AC:  BRA    6902
069AE:  MOVLB  1
....................    } 
....................        
....................    Turn_OFF_BC();                                                                //BC switch OFF, RD5=0 
069B0:  MOVLB  0
069B2:  CALL   2B84
....................    fprintf(PC,"Turned OFF BC\r\n"); 
069B6:  MOVLW  56
069B8:  MOVWF  FF6
069BA:  MOVLW  0D
069BC:  MOVWF  FF7
069BE:  MOVLW  00
069C0:  MOVWF  FF8
069C2:  CALL   362C
....................    delay_ms(500); 
069C6:  MOVLW  02
069C8:  MOVLB  2
069CA:  MOVWF  xEF
069CC:  MOVLW  FA
069CE:  MOVLB  3
069D0:  MOVWF  x19
069D2:  MOVLB  0
069D4:  CALL   1F78
069D8:  MOVLB  2
069DA:  DECFSZ xEF,F
069DC:  BRA    69CC
....................    CHECK_BC_TEMP();                                                              //lee la temperatura del BC y lo guarda en float MAXTEMP 
069DE:  MOVLB  0
069E0:  RCALL  66E4
....................    if(MAXTEMP-initial_temp > 5)                                                  //pone en HIGH bandera si hubo incremento de temperatura 
069E2:  BSF    FD8.1
069E4:  MOVFF  151,2FB
069E8:  MOVFF  150,2FA
069EC:  MOVFF  14F,2F9
069F0:  MOVFF  14E,2F8
069F4:  MOVFF  14D,2FF
069F8:  MOVFF  14C,2FE
069FC:  MOVFF  14B,2FD
06A00:  MOVFF  14A,2FC
06A04:  CALL   4F46
06A08:  MOVFF  03,2F2
06A0C:  MOVFF  02,2F1
06A10:  MOVFF  01,2F0
06A14:  MOVFF  00,2EF
06A18:  MOVLB  2
06A1A:  CLRF   xF6
06A1C:  CLRF   xF5
06A1E:  MOVLW  20
06A20:  MOVWF  xF4
06A22:  MOVLW  81
06A24:  MOVWF  xF3
06A26:  MOVFF  03,2FA
06A2A:  MOVFF  02,2F9
06A2E:  MOVFF  01,2F8
06A32:  MOVFF  00,2F7
06A36:  MOVLB  0
06A38:  RCALL  666A
06A3A:  BNC   6A40
....................    { 
....................       ANT_DEP_STATUS = 1; 
06A3C:  MOVLW  01
06A3E:  MOVWF  x7B
....................    } 
....................    fprintf(PC,"MAXIMUM TEMPERATURE is %1.1f\r\n\r\n",MAXTEMP); 
06A40:  MOVLW  66
06A42:  MOVWF  FF6
06A44:  MOVLW  0D
06A46:  MOVWF  FF7
06A48:  MOVLW  00
06A4A:  MOVWF  FF8
06A4C:  MOVLW  17
06A4E:  MOVLB  3
06A50:  MOVWF  x10
06A52:  MOVLB  0
06A54:  CALL   1C0C
06A58:  MOVLW  89
06A5A:  MOVWF  FE9
06A5C:  MOVFF  151,2F2
06A60:  MOVFF  150,2F1
06A64:  MOVFF  14F,2F0
06A68:  MOVFF  14E,2EF
06A6C:  MOVLW  01
06A6E:  MOVLB  2
06A70:  MOVWF  xF3
06A72:  MOVLB  0
06A74:  RCALL  64C6
06A76:  MOVLW  82
06A78:  MOVWF  FF6
06A7A:  MOVLW  0D
06A7C:  MOVWF  FF7
06A7E:  MOVLW  00
06A80:  MOVWF  FF8
06A82:  MOVLW  04
06A84:  MOVLB  3
06A86:  MOVWF  x10
06A88:  MOVLB  0
06A8A:  CALL   1C0C
....................    MAXTEMP = 0; 
06A8E:  MOVLB  1
06A90:  CLRF   x51
06A92:  CLRF   x50
06A94:  CLRF   x4F
06A96:  CLRF   x4E
....................    initial_temp = 0; 
06A98:  CLRF   x4D
06A9A:  CLRF   x4C
06A9C:  CLRF   x4B
06A9E:  CLRF   x4A
....................    return; 
06AA0:  MOVLB  0
06AA2:  RETURN 0
.................... } 
....................  
.................... void CLEAR_BC_FLAG() 
.................... { 
....................    BC_ATTEMPT_FLAG = 0; 
*
0B1F8:  CLRF   x68
....................    fprintf(PC,"\r\nBC Attempt Flag clear done\r\n"); 
0B1FA:  MOVLW  88
0B1FC:  MOVWF  FF6
0B1FE:  MOVLW  0D
0B200:  MOVWF  FF7
0B202:  MOVLW  00
0B204:  MOVWF  FF8
0B206:  CALL   362C
....................    return; 
0B20A:  RETURN 0
.................... } 
....................  
.................... void MAKE_BC_FLAG_1() 
.................... { 
....................    BC_ATTEMPT_FLAG = 1; 
0B20C:  MOVLW  01
0B20E:  MOVWF  x68
....................    fprintf(PC,"\r\nBC Attempt Flag:1\r\n"); 
0B210:  MOVLW  A8
0B212:  MOVWF  FF6
0B214:  MOVLW  0D
0B216:  MOVWF  FF7
0B218:  MOVLW  00
0B21A:  MOVWF  FF8
0B21C:  CALL   362C
....................    return; 
0B220:  RETURN 0
.................... } 
....................  
.................... void MAKE_BC_FLAG_2() 
.................... { 
....................    BC_ATTEMPT_FLAG = 2; 
0B222:  MOVLW  02
0B224:  MOVWF  x68
....................    fprintf(PC,"\r\nBC Attempt Flag:2\r\n"); 
0B226:  MOVLW  BE
0B228:  MOVWF  FF6
0B22A:  MOVLW  0D
0B22C:  MOVWF  FF7
0B22E:  MOVLW  00
0B230:  MOVWF  FF8
0B232:  CALL   362C
....................    return; 
0B236:  RETURN 0
.................... } 
....................  
.................... void MAKE_BC_FLAG_3() 
.................... { 
....................    BC_ATTEMPT_FLAG = 3; 
0B238:  MOVLW  03
0B23A:  MOVWF  x68
....................    fprintf(PC,"\r\nBC Attempt Flag:3\r\n"); 
0B23C:  MOVLW  D4
0B23E:  MOVWF  FF6
0B240:  MOVLW  0D
0B242:  MOVWF  FF7
0B244:  MOVLW  00
0B246:  MOVWF  FF8
0B248:  CALL   362C
....................    return; 
0B24C:  RETURN 0
.................... } 
....................  
.................... void MAKE_BC_FLAG_4() 
.................... { 
....................    BC_ATTEMPT_FLAG = 4; 
0B24E:  MOVLW  04
0B250:  MOVWF  x68
....................    fprintf(PC,"\r\nBC Attempt Flag:4\r\n"); 
0B252:  MOVLW  EA
0B254:  MOVWF  FF6
0B256:  MOVLW  0D
0B258:  MOVWF  FF7
0B25A:  MOVLW  00
0B25C:  MOVWF  FF8
0B25E:  CALL   362C
....................    return; 
0B262:  RETURN 0
.................... } 
....................  
.................... void Antenna_Deploy() 
.................... { 
....................    fprintf(PC,"Ant Dep Attempt No: %x\r\n",BC_ATTEMPT_FLAG); 
*
06AA4:  MOVLW  00
06AA6:  MOVWF  FF6
06AA8:  MOVLW  0E
06AAA:  MOVWF  FF7
06AAC:  MOVLW  00
06AAE:  MOVWF  FF8
06AB0:  MOVLW  14
06AB2:  MOVLB  3
06AB4:  MOVWF  x10
06AB6:  MOVLB  0
06AB8:  CALL   1C0C
06ABC:  MOVFF  68,311
06AC0:  MOVLW  57
06AC2:  MOVLB  3
06AC4:  MOVWF  x12
06AC6:  MOVLB  0
06AC8:  CALL   1C3E
06ACC:  MOVLW  0D
06ACE:  BTFSS  F9E.4
06AD0:  BRA    6ACE
06AD2:  MOVWF  FAD
06AD4:  MOVLW  0A
06AD6:  BTFSS  F9E.4
06AD8:  BRA    6AD6
06ADA:  MOVWF  FAD
....................     
....................    if(BC_ATTEMPT_FLAG < 4 && BC_ATTEMPT_FLAG != 0)                               //SE REPETIRA 3 VECES MAS LUEGO DEL PRIMER DESPLIEGUE, SEA EXITOSO O NO 
06ADC:  MOVF   x68,W
06ADE:  SUBLW  03
06AE0:  BNC   6B92
06AE2:  MOVF   x68,F
06AE4:  BZ    6B92
....................    { 
....................       //SAVE_SAT_LOG(0xBC,BC_ATTEMPT_FLAG,BC_ATTEMPT_FLAG); 
....................       fprintf(PC,"BC command sent to RESET PIC\r\n"); 
06AE6:  MOVLW  1A
06AE8:  MOVWF  FF6
06AEA:  MOVLW  0E
06AEC:  MOVWF  FF7
06AEE:  MOVLW  00
06AF0:  MOVWF  FF8
06AF2:  CALL   362C
....................       for(int num = 0; num < 50; num++) 
06AF6:  MOVLB  2
06AF8:  CLRF   xDA
06AFA:  MOVF   xDA,W
06AFC:  SUBLW  31
06AFE:  BNC   6B1A
....................       { 
....................          fputc(0xBC,reset); 
06B00:  MOVLW  BC
06B02:  MOVLB  0
06B04:  CALL   1F6C
....................          delay_ms(10); 
06B08:  MOVLW  0A
06B0A:  MOVLB  3
06B0C:  MOVWF  x19
06B0E:  MOVLB  0
06B10:  CALL   1F78
06B14:  MOVLB  2
06B16:  INCF   xDA,F
06B18:  BRA    6AFA
....................       } 
....................       delay_ms(1000); 
06B1A:  MOVLW  04
06B1C:  MOVWF  xDB
06B1E:  MOVLW  FA
06B20:  MOVLB  3
06B22:  MOVWF  x19
06B24:  MOVLB  0
06B26:  CALL   1F78
06B2A:  MOVLB  2
06B2C:  DECFSZ xDB,F
06B2E:  BRA    6B1E
....................       if(reset_bffr[0] == 0xCB)                                                  //check the headear of reset respond 
06B30:  MOVLB  0
06B32:  MOVF   xEC,W
06B34:  SUBLW  CB
06B36:  BNZ   6B92
....................       { 
....................          RESET_DATA = 0; 
06B38:  CLRF   xEB
....................          BC_OPERATION();                                                         //Turn ON BC for 30s and read temperature 
06B3A:  RCALL  68D4
....................          BC_ATTEMPT_FLAG++;                                                      //increase attempt Flag 
06B3C:  INCF   x68,F
....................          STORE_FLAG_INFO();                                                      //save flag data to flash memory 
06B3E:  CALL   5B0E
....................          WRITE_FLAG_to_EEPROM();                                                 //guarda los flags en la EEPROM a partir de la direccion 0x18000 (75%) 
06B42:  CALL   5D22
....................          STORE_ADRESS_DATA_TO_FLASH();                                           //guarda los datos de direcciones, en un nuevo sector si se cumple el ciclo de R/W 
06B46:  CALL   3AF8
....................          reset_bffr[0] = 0; 
06B4A:  CLRF   xEC
....................          CMD_FROM_PC[1] = 0; 
06B4C:  CLRF   x7F
....................          RESET_DATA = 0; 
06B4E:  CLRF   xEB
....................          delay_ms(1000); 
06B50:  MOVLW  04
06B52:  MOVLB  2
06B54:  MOVWF  xDB
06B56:  MOVLW  FA
06B58:  MOVLB  3
06B5A:  MOVWF  x19
06B5C:  MOVLB  0
06B5E:  CALL   1F78
06B62:  MOVLB  2
06B64:  DECFSZ xDB,F
06B66:  BRA    6B56
....................          delay_ms(20000);                                                        //wait until RESET goes back to nomal loop 
06B68:  MOVLW  50
06B6A:  MOVWF  xDB
06B6C:  MOVLW  FA
06B6E:  MOVLB  3
06B70:  MOVWF  x19
06B72:  MOVLB  0
06B74:  CALL   1F78
06B78:  MOVLB  2
06B7A:  DECFSZ xDB,F
06B7C:  BRA    6B6C
....................          SAVE_SAT_LOG(0xBC,BC_ATTEMPT_FLAG,BC_ATTEMPT_FLAG); 
06B7E:  MOVLW  BC
06B80:  MOVLB  3
06B82:  MOVWF  x02
06B84:  MOVFF  68,303
06B88:  MOVFF  68,304
06B8C:  MOVLB  0
06B8E:  CALL   3E06
....................       } 
....................    } 
....................    return; 
06B92:  GOTO   DAF6 (RETURN)
.................... } 
....................  
.................... //--------FAB HK collection---------------------------------------------------- 
.................... #define HK_size 124                                                              //HK FORMAT ARRAY SIZE 
.................... #define CW_size 5                                                                //CW FORMAT ARRAY SIZE 
.................... #define HIGH_SAMP_HK_size 124                                                    //High Sampling HK FORMAT ARRAY SIZE 
.................... #define FAB_SENSOR_size 45                                                       //HK FAB Part 
....................  
.................... static unsigned int8 CW_FORMAT[CW_size] = {}; 
.................... unsigned int8 in_HK[FAB_SENSOR_size] = {}; 
.................... unsigned int8 HKDATA[HK_size] ={}; 
.................... unsigned int8 ACK_for_COM[24] = {0xAA,0,0,0,0,0,0,0,0,0, 
....................                                  0,0,0,0,0,0,0,0,0,0, 
....................                                  0,0,0,0xBB}; 
.................... //int8 in_High_HK[HIGH_SAMP_HK_size] = {}; 
.................... BYTE FAB_DATA = 0; 
.................... //int t; 
.................... static int8 FAB_MEASUERING_FLAG= 0; 
.................... static int8 HIGH_SAMP_FAB_MEASUERING_FLAG = 0; 
.................... int32 FAB_FLAG = 0; 
.................... int8 CHECK_FAB_RESPONSE = 0; 
....................  
.................... #define buffer_from_FAB  (in_bffr_main[0]==0x33) 
....................  
.................... void REFLESH_CW_ACK_for_COM()                                                    //carga con 0x00 el array ACK_for_COM[7] 
.................... { 
....................    for(int i = 1; i < 7; i++) 
*
042B6:  MOVLW  01
042B8:  MOVLB  2
042BA:  MOVWF  xFD
042BC:  MOVF   xFD,W
042BE:  SUBLW  06
042C0:  BNC   42D6
....................    { 
....................       ACK_for_COM[i] = 0x00; 
042C2:  CLRF   03
042C4:  MOVF   xFD,W
042C6:  ADDLW  02
042C8:  MOVWF  FE9
042CA:  MOVLW  02
042CC:  ADDWFC 03,W
042CE:  MOVWF  FEA
042D0:  CLRF   FEF
042D2:  INCF   xFD,F
042D4:  BRA    42BC
....................    } 
....................    return; 
042D6:  MOVLB  0
042D8:  GOTO   4562 (RETURN)
.................... } 
....................  
.................... void REFLESH_MSN_ACK_for_COM()                                                   //clear array ACK_for_COM[i] from position 12 to 22 
.................... { 
....................    for(int i = 12; i < 23; i++) 
*
07F70:  MOVLW  0C
07F72:  MOVLB  2
07F74:  MOVWF  xE8
07F76:  MOVF   xE8,W
07F78:  SUBLW  16
07F7A:  BNC   7F90
....................    { 
....................       ACK_for_COM[i] = 0x00; 
07F7C:  CLRF   03
07F7E:  MOVF   xE8,W
07F80:  ADDLW  02
07F82:  MOVWF  FE9
07F84:  MOVLW  02
07F86:  ADDWFC 03,W
07F88:  MOVWF  FEA
07F8A:  CLRF   FEF
07F8C:  INCF   xE8,F
07F8E:  BRA    7F76
....................    } 
....................    return; 
07F90:  MOVLB  0
07F92:  GOTO   7F98 (RETURN)
.................... } 
....................  
.................... void CW_RESPOND()                                                                //carga el array ACK_for_COM[] con el dato del array CW_FORMAT[] y envia a COM PIC 
.................... { 
....................    REFLESH_CW_ACK_for_COM();                                                     //carga con 0x00 el array ACK_for_COM[] desde la pos 1 a la 6 
*
04560:  BRA    42B6
....................    delay_ms(100); 
04562:  MOVLW  64
04564:  MOVLB  3
04566:  MOVWF  x19
04568:  MOVLB  0
0456A:  CALL   1F78
....................    ACK_for_COM[0] = 0xAA; 
0456E:  MOVLW  AA
04570:  MOVLB  2
04572:  MOVWF  x02
....................    ACK_for_COM[1] = 0x50; 
04574:  MOVLW  50
04576:  MOVWF  x03
....................    ACK_for_COM[2] = CW_FORMAT[0]; 
04578:  MOVFF  154,204
....................    ACK_for_COM[3] = CW_FORMAT[1]; 
0457C:  MOVFF  155,205
....................    ACK_for_COM[4] = CW_FORMAT[2]; 
04580:  MOVFF  156,206
....................    ACK_for_COM[5] = CW_FORMAT[3]; 
04584:  MOVFF  157,207
....................    ACK_for_COM[6] = CW_FORMAT[4]; 
04588:  MOVFF  158,208
....................    ACK_for_COM[23] = 0xBB; 
0458C:  MOVLW  BB
0458E:  MOVWF  x19
....................    for(int a = 0; a < 24; a++)                                                   //send the latest CW data to COM PIC 
04590:  CLRF   xFB
04592:  MOVF   xFB,W
04594:  SUBLW  17
04596:  BNC   45B6
....................    { 
....................       fputc(ACK_for_COM[a],COM); 
04598:  CLRF   03
0459A:  MOVF   xFB,W
0459C:  ADDLW  02
0459E:  MOVWF  FE9
045A0:  MOVLW  02
045A2:  ADDWFC 03,W
045A4:  MOVWF  FEA
045A6:  MOVFF  FEF,2FD
045AA:  MOVF   xFD,W
045AC:  MOVLB  0
045AE:  RCALL  42DC
045B0:  MOVLB  2
045B2:  INCF   xFB,F
045B4:  BRA    4592
....................    } 
....................    MBP_SYNC();                                                                   //Send time data to MBP for syncronization 
045B6:  MOVLB  0
045B8:  BRA    43E4
....................    fprintf(PC,"\r\nCW ANS:"); 
045BA:  MOVLW  3A
045BC:  MOVWF  FF6
045BE:  MOVLW  0E
045C0:  MOVWF  FF7
045C2:  MOVLW  00
045C4:  MOVWF  FF8
045C6:  CALL   362C
....................    for(a = 0; a < 23; a++)                                                       //send the latest CW data to PC 
045CA:  MOVLB  2
045CC:  CLRF   xFB
045CE:  MOVF   xFB,W
045D0:  SUBLW  16
045D2:  BNC   4600
....................    { 
....................       fprintf(PC,"%x,",ACK_for_COM[a]); 
045D4:  CLRF   03
045D6:  MOVF   xFB,W
045D8:  ADDLW  02
045DA:  MOVWF  FE9
045DC:  MOVLW  02
045DE:  ADDWFC 03,W
045E0:  MOVWF  FEA
045E2:  MOVFF  FEF,311
045E6:  MOVLW  57
045E8:  MOVLB  3
045EA:  MOVWF  x12
045EC:  MOVLB  0
045EE:  CALL   1C3E
045F2:  MOVLW  2C
045F4:  BTFSS  F9E.4
045F6:  BRA    45F4
045F8:  MOVWF  FAD
045FA:  MOVLB  2
045FC:  INCF   xFB,F
045FE:  BRA    45CE
....................    } 
....................    fprintf(PC,"%x\r\n",ACK_for_COM[23]); 
04600:  MOVFF  219,311
04604:  MOVLW  57
04606:  MOVLB  3
04608:  MOVWF  x12
0460A:  MOVLB  0
0460C:  CALL   1C3E
04610:  MOVLW  0D
04612:  BTFSS  F9E.4
04614:  BRA    4612
04616:  MOVWF  FAD
04618:  MOVLW  0A
0461A:  BTFSS  F9E.4
0461C:  BRA    461A
0461E:  MOVWF  FAD
....................     
....................    for(int k = 14; k < 23; k++)                                                   //clear RSV part 
04620:  MOVLW  0E
04622:  MOVLB  2
04624:  MOVWF  xFC
04626:  MOVF   xFC,W
04628:  SUBLW  16
0462A:  BNC   4640
....................    { 
....................       ACK_for_COM[k] = 0x00; 
0462C:  CLRF   03
0462E:  MOVF   xFC,W
04630:  ADDLW  02
04632:  MOVWF  FE9
04634:  MOVLW  02
04636:  ADDWFC 03,W
04638:  MOVWF  FEA
0463A:  CLRF   FEF
0463C:  INCF   xFC,F
0463E:  BRA    4626
....................    } 
....................    return; 
04640:  MOVLB  0
04642:  RETURN 0
.................... } 
....................  
.................... void CHECK_50_and_CW_RESPOND()                                                   //verifica si llego comando 0x50 desde COM PIC y envia CW al COM 
.................... { 
....................    if(in_bffr_main[4] == 0x50) 
*
0466A:  MOVF   x8A,W
0466C:  SUBLW  50
0466E:  BNZ   4676
....................    { 
....................       CW_RESPOND();                                                              //carga el array ACK_for_COM[] con el dato del array CW_FORMAT[] y envia a COM PIC 
04670:  RCALL  4560
....................       Delete_Buffer();                                                           //delete in_bffr_main[] (com command buffer) 
04672:  RCALL  4644
....................       COM_DATA = 0;                                                              //flag to cero 
04674:  CLRF   x96
....................    } 
....................    return; 
04676:  RETURN 0
.................... } 
....................  
.................... /* 
.................... //--------ADCS MISSION--------------------------------------------------------- 
.................... ////////////////////////////////////////////////// 
.................... //ADCS MISSION ID: 0x45                         // 
.................... //ADCS MISSION DATA COLLECT: 55                 // 
.................... //ADCS SENSOR SAMPLING: 0x34                    //   
.................... //ADCS ACK: 0x55                                // 
.................... //ADCS Finish Storing: 0x67                     // 
.................... ////////////////////////////////////////////////// 
.................... */ 
....................  
.................... #define TLE_size 77                                                              //TLE FORMAT ARRAY SIZE 
.................... unsigned int8 TLE[TLE_size] = {0xAA,0X00,0X00,0X00,0X00,0X00,0X00,0X00,0X00,0X00, //TLE data array 
....................                                0X00,0X00,0X00,0X00,0X00,0X00,0X00,0X00,0X00,0X00, 
....................                                0X00,0X00,0X00,0X00,0X00,0X00,0X00,0X00,0X00,0X00, 
....................                                0X00,0X00,0X00,0X00,0X00,0X00,0X00,0X00,0X00,0X00, 
....................                                0X00,0X00,0X00,0X00,0X00,0X00,0X00,0X00,0X00,0X00, 
....................                                0X00,0X00,0X00,0X00,0X00,0X00,0X00,0X00,0X00,0X00, 
....................                                0X00,0X00,0X00,0X00,0X00,0X00,0X00,0X00,0X00,0X00, 
....................                                0X00,0X00,0X00,0X00,0X00,0X00,0xBB}; 
....................                                   
.................... void Turn_On_ADCS() 
.................... { 
....................    output_high(PIN_D6);                                                          //ADCS switch ON, RD6=1 
*
02B78:  BCF    F95.6
02B7A:  BSF    F8C.6
....................    return; 
02B7C:  RETURN 0
.................... } 
....................  
.................... void Turn_Off_ADCS() 
.................... { 
....................    output_low(PIN_D6);                                                           //ADCS switch OFF, RD6=0 
*
0A4EE:  BCF    F95.6
0A4F0:  BCF    F8C.6
....................    return; 
0A4F2:  RETURN 0
.................... } 
.................... /* 
.................... void Send_Command_to_ADCS(int8 data)                                             //testing for EM integration 
.................... { 
....................    fputc(data,ADCS); 
....................    return; 
.................... } 
.................... */ 
.................... void DELETE_ADCS_SENSOR() 
.................... { 
....................    for(int a = 0; a < ADCS_SENSOR_SIZE; a++) 
*
0A470:  MOVLB  2
0A472:  CLRF   xEB
0A474:  MOVF   xEB,W
0A476:  SUBLW  4D
0A478:  BNC   A48E
....................    { 
....................       ADCS_SENSOR_DATA[a] = 0; 
0A47A:  CLRF   03
0A47C:  MOVF   xEB,W
0A47E:  ADDLW  9B
0A480:  MOVWF  FE9
0A482:  MOVLW  00
0A484:  ADDWFC 03,W
0A486:  MOVWF  FEA
0A488:  CLRF   FEF
0A48A:  INCF   xEB,F
0A48C:  BRA    A474
....................    } 
....................    return; 
0A48E:  MOVLB  0
0A490:  GOTO   A49E (RETURN)
.................... } 
....................  
.................... void ADCS_SETTINGS()                                                             //initiallize 
.................... { 
....................    output_high(PIN_C4);                                                          //flash COM side 
0A494:  BCF    F94.4
0A496:  BSF    F8B.4
....................    Delete_Buffer();                                                              //delete in_bffr_main[] (com command buffer) 
0A498:  CALL   4644
....................    DELETE_ADCS_SENSOR();                                                         //delet ADCS_SENSOR_DATA[] array 
0A49C:  BRA    A470
....................    return; 
0A49E:  GOTO   A4FE (RETURN)
.................... } 
....................  
.................... void CHECK_ACK_FROM_ADCS_10k()                                                     //Wait ACK from DC for 10s 
.................... { 
....................    for(int32 num = 0; num < 1000000; num++)  
0A4A2:  MOVLB  2
0A4A4:  CLRF   xEE
0A4A6:  CLRF   xED
0A4A8:  CLRF   xEC
0A4AA:  CLRF   xEB
0A4AC:  MOVF   xEE,F
0A4AE:  BNZ   A4EA
0A4B0:  MOVF   xED,W
0A4B2:  SUBLW  0F
0A4B4:  BNC   A4EA
0A4B6:  BNZ   A4C6
0A4B8:  MOVF   xEC,W
0A4BA:  SUBLW  42
0A4BC:  BNC   A4EA
0A4BE:  BNZ   A4C6
0A4C0:  MOVF   xEB,W
0A4C2:  SUBLW  3F
0A4C4:  BNC   A4EA
....................    { 
....................       if(kbhit(ADCS))                                                              
0A4C6:  BTFSC  F85.6
0A4C8:  BRA    A4D8
....................       { 
....................          ADCS_ACK = fgetc(ADCS);                                                    //PC    
0A4CA:  MOVLB  0
0A4CC:  CALL   4A94
0A4D0:  MOVFF  01,E9
....................          break; 
0A4D4:  MOVLB  2
0A4D6:  BRA    A4EA
....................       } 
0A4D8:  MOVLW  01
0A4DA:  ADDWF  xEB,F
0A4DC:  BTFSC  FD8.0
0A4DE:  INCF   xEC,F
0A4E0:  BTFSC  FD8.2
0A4E2:  INCF   xED,F
0A4E4:  BTFSC  FD8.2
0A4E6:  INCF   xEE,F
0A4E8:  BRA    A4AC
....................       //delay_ms(1); 
....................    } 
....................    return; 
0A4EA:  MOVLB  0
0A4EC:  RETURN 0
.................... } 
.................... /* 
.................... void DISPLAY_ADCS_SENSOR_TO_PC()//for testing 
.................... { 
....................    for(int b = 0; b < ADCS_SENSOR_SIZE; b++)//for checking 
....................    { 
....................       fputc(ADCS_SENSOR_DATA[b],PC); 
....................    } 
....................    return; 
.................... } 
....................  
.................... void Get_ADCS_MISSION_Data() 
.................... { 
....................     
....................    Delete_ADCS_SENSOR(); //initialize 
....................    CHECK_50_and_CW_RESPOND(); 
....................    fputc(0x55,ADCS); 
....................    fputc(0x55,PC); 
....................    int i = 0; 
....................    for(int32 num = 0; num < 1000000 ;num++) 
....................    { 
....................       if(kbhit(ADCS) && fgetc(ADCS) == 0x67) 
....................       { 
....................          for(num = 0; num < 10000; num++) 
....................          { 
....................             if(Kbhit(ADCS)) 
....................             { 
....................                ADCS_SENSOR_DATA[i] = fgetc(ADCS); 
....................                i++; 
....................                if(i == 60) 
....................                { 
....................                   break; 
....................                } 
....................             } 
....................          } 
....................          ADCS_ACK = 0x67; 
....................          break; 
....................       } 
....................    } 
....................    if(num == 1000000) 
....................    { 
....................       fprintf(PC,"NO DATA\r\n"); 
....................    } 
....................    CHECK_50_and_CW_RESPOND(); 
....................    return; 
.................... } 
....................  
.................... int8 compare_before_after(int32 beginning, int32 end) 
.................... { 
....................    int8 data[12] = {}; 
....................    for(int i = 0; i < 6; i++) 
....................    { 
....................       data[i] = READ_DATA_BYTE_OF(beginning+222+10+i); 
....................    } 
....................    for(i = 0; i < 6; i++) 
....................    { 
....................       data[i+6] = READ_DATA_BYTE_OF(end-101+i); 
....................    } 
....................    signed int16 Bx = make16(data[0],data[1]); 
....................    signed int16 By = make16(data[2],data[3]); 
....................    signed int16 Bz = make16(data[4],data[5]); 
....................     
....................    signed int16 Ax = make16(data[6],data[7]); 
....................    signed int16 Ay = make16(data[8],data[9]); 
....................    signed int16 Az = make16(data[10],data[11]); 
....................     
....................    signed int16 Total_B = Bx + By + Bz; 
....................    signed int16 Total_A = Ax + Ay + Az; 
....................    Total_B = abs(Total_B); 
....................    Total_A = abs(Total_A); 
....................    fprintf(PC,"%lx,%lx,%lx\r\n",Bx,By,Bz); 
....................    fprintf(PC,"%lx,%lx,%lx\r\n",Ax,Ay,Az); 
....................    fprintf(PC,"%lud,%lud\r\n",Total_B,Total_A); 
....................    if(Total_B >= Total_A) 
....................    { 
....................       return 1;//declease --> continue 
....................    }else{ 
....................       return 0;//inclease --> stop 
....................    } 
.................... } 
.................... */ 
.................... void GET_ADCS_SENSOR_DATA()                                                      //after that, method will changed (ADCS make format and just send to MAIN PIC) 
.................... { 
....................    CHECK_50_and_CW_RESPOND(); 
*
04ADE:  RCALL  466A
....................    fputc(0x34,adcs);                                                             //send command (just collect sensor) 
04AE0:  MOVLW  34
04AE2:  MOVLB  2
04AE4:  MOVWF  xF7
04AE6:  MOVLB  0
04AE8:  RCALL  4A4E
....................    //delay_ms(700); 
....................    ADCS_ACK = 0; 
04AEA:  CLRF   xE9
....................    for(int32 num = 0; num < 1000000; num++) 
04AEC:  MOVLB  2
04AEE:  CLRF   xF1
04AF0:  CLRF   xF0
04AF2:  CLRF   xEF
04AF4:  CLRF   xEE
04AF6:  MOVF   xF1,F
04AF8:  BNZ   4B32
04AFA:  MOVF   xF0,W
04AFC:  SUBLW  0F
04AFE:  BNC   4B32
04B00:  BNZ   4B10
04B02:  MOVF   xEF,W
04B04:  SUBLW  42
04B06:  BNC   4B32
04B08:  BNZ   4B10
04B0A:  MOVF   xEE,W
04B0C:  SUBLW  3F
04B0E:  BNC   4B32
....................    { 
....................       if(kbhit(ADCS)) 
04B10:  BTFSC  F85.6
04B12:  BRA    4B20
....................       { 
....................          ADCS_ACK = fgetc(ADCS); 
04B14:  MOVLB  0
04B16:  RCALL  4A94
04B18:  MOVFF  01,E9
....................          break; 
04B1C:  MOVLB  2
04B1E:  BRA    4B32
....................       } 
04B20:  MOVLW  01
04B22:  ADDWF  xEE,F
04B24:  BTFSC  FD8.0
04B26:  INCF   xEF,F
04B28:  BTFSC  FD8.2
04B2A:  INCF   xF0,F
04B2C:  BTFSC  FD8.2
04B2E:  INCF   xF1,F
04B30:  BRA    4AF6
....................        
....................    } 
....................    int8 counter = 0; 
04B32:  CLRF   xF2
....................    if(ADCS_ACK == 0x55)                                                          //acknowledge 
04B34:  MOVLB  0
04B36:  MOVF   xE9,W
04B38:  SUBLW  55
04B3A:  BNZ   4BAA
....................    { 
....................       for(int32 num = 0; num < 1000000; num++) 
04B3C:  MOVLB  2
04B3E:  CLRF   xF6
04B40:  CLRF   xF5
04B42:  CLRF   xF4
04B44:  CLRF   xF3
04B46:  MOVF   xF6,F
04B48:  BNZ   4BA8
04B4A:  MOVF   xF5,W
04B4C:  SUBLW  0F
04B4E:  BNC   4BA8
04B50:  BNZ   4B60
04B52:  MOVF   xF4,W
04B54:  SUBLW  42
04B56:  BNC   4BA8
04B58:  BNZ   4B60
04B5A:  MOVF   xF3,W
04B5C:  SUBLW  3F
04B5E:  BNC   4BA8
....................       { 
....................          if(kbhit(ADCS)) 
04B60:  BTFSC  F85.6
04B62:  BRA    4B96
....................          { 
....................             ADCS_SENSOR_DATA[counter] = fgetc(ADCS); 
04B64:  CLRF   03
04B66:  MOVF   xF2,W
04B68:  ADDLW  9B
04B6A:  MOVWF  FE9
04B6C:  MOVLW  00
04B6E:  ADDWFC 03,W
04B70:  MOVWF  FEA
04B72:  MOVFF  FEA,2FA
04B76:  MOVFF  FE9,2F9
04B7A:  MOVLB  0
04B7C:  RCALL  4A94
04B7E:  MOVFF  2FA,FEA
04B82:  MOVFF  2F9,FE9
04B86:  MOVFF  01,FEF
....................             counter++; 
04B8A:  MOVLB  2
04B8C:  INCF   xF2,F
....................             if(counter == 61) 
04B8E:  MOVF   xF2,W
04B90:  SUBLW  3D
04B92:  BNZ   4B96
....................             { 
....................                break; 
04B94:  BRA    4BA8
....................             } 
....................          } 
04B96:  MOVLW  01
04B98:  ADDWF  xF3,F
04B9A:  BTFSC  FD8.0
04B9C:  INCF   xF4,F
04B9E:  BTFSC  FD8.2
04BA0:  INCF   xF5,F
04BA2:  BTFSC  FD8.2
04BA4:  INCF   xF6,F
04BA6:  BRA    4B46
04BA8:  MOVLB  0
....................       } 
....................    } 
....................    CHECK_50_and_CW_RESPOND(); 
04BAA:  RCALL  466A
....................    if(ADCS_SENSOR_DATA[0] == 0x57) 
04BAC:  MOVF   x9B,W
04BAE:  SUBLW  57
04BB0:  BNZ   4BC4
....................    { 
....................       fprintf(PC,"\r\nADCS DATA received\r\n");    
04BB2:  MOVLW  44
04BB4:  MOVWF  FF6
04BB6:  MOVLW  0E
04BB8:  MOVWF  FF7
04BBA:  MOVLW  00
04BBC:  MOVWF  FF8
04BBE:  CALL   362C
....................    }else{ 
04BC2:  BRA    4BD8
....................       fprintf(PC,"\r\nADCS DATA not received\r\n"); 
04BC4:  MOVLW  5C
04BC6:  MOVWF  FF6
04BC8:  MOVLW  0E
04BCA:  MOVWF  FF7
04BCC:  MOVLW  00
04BCE:  MOVWF  FF8
04BD0:  CALL   362C
....................       ADCS_ACK_COMMING = 0; 
04BD4:  CLRF   xEA
....................       ADCS_ACK = 0; 
04BD6:  CLRF   xE9
....................    } 
....................    return; 
04BD8:  RETURN 0
.................... } 
....................  
.................... /////////TLE JOIN PART///////////// 
.................... void ADCS_TLE_JOIN(int8 seq,int8 data1,int8 data2,int8 data3,int8 data4,int8 data5)  //join and save TLE data 
*
0A814:  MOVLB  2
0A816:  CLRF   xF0
.................... { 
.................... int pos=0;    
....................    switch(seq) 
0A818:  MOVLW  01
0A81A:  SUBWF  xEA,W
0A81C:  ADDLW  F1
0A81E:  BC    A8A2
0A820:  ADDLW  0F
0A822:  MOVLB  0
0A824:  GOTO   AB0C
....................    { 
....................       case 0x01: 
....................          pos=1;  
0A828:  MOVLW  01
0A82A:  MOVLB  2
0A82C:  MOVWF  xF0
....................          break; 
0A82E:  BRA    A8A2
....................       case 0x02: 
....................          pos=6;  
0A830:  MOVLW  06
0A832:  MOVLB  2
0A834:  MOVWF  xF0
....................          break; 
0A836:  BRA    A8A2
....................       case 0x03: 
....................          pos=11;  
0A838:  MOVLW  0B
0A83A:  MOVLB  2
0A83C:  MOVWF  xF0
....................          break; 
0A83E:  BRA    A8A2
....................       case 0x04: 
....................          pos=16;  
0A840:  MOVLW  10
0A842:  MOVLB  2
0A844:  MOVWF  xF0
....................          break; 
0A846:  BRA    A8A2
....................       case 0x05: 
....................          pos=21;  
0A848:  MOVLW  15
0A84A:  MOVLB  2
0A84C:  MOVWF  xF0
....................          break; 
0A84E:  BRA    A8A2
....................       case 0x06: 
....................          pos=26;  
0A850:  MOVLW  1A
0A852:  MOVLB  2
0A854:  MOVWF  xF0
....................          break; 
0A856:  BRA    A8A2
....................       case 0x07: 
....................          pos=31;  
0A858:  MOVLW  1F
0A85A:  MOVLB  2
0A85C:  MOVWF  xF0
....................          break; 
0A85E:  BRA    A8A2
....................       case 0x08: 
....................          pos=36;  
0A860:  MOVLW  24
0A862:  MOVLB  2
0A864:  MOVWF  xF0
....................          break; 
0A866:  BRA    A8A2
....................       case 0x09: 
....................          pos=41;  
0A868:  MOVLW  29
0A86A:  MOVLB  2
0A86C:  MOVWF  xF0
....................          break; 
0A86E:  BRA    A8A2
....................       case 0x0A: 
....................          pos=46;  
0A870:  MOVLW  2E
0A872:  MOVLB  2
0A874:  MOVWF  xF0
....................          break; 
0A876:  BRA    A8A2
....................       case 0x0B: 
....................          pos=51;  
0A878:  MOVLW  33
0A87A:  MOVLB  2
0A87C:  MOVWF  xF0
....................          break; 
0A87E:  BRA    A8A2
....................       case 0x0C: 
....................          pos=56;  
0A880:  MOVLW  38
0A882:  MOVLB  2
0A884:  MOVWF  xF0
....................          break; 
0A886:  BRA    A8A2
....................       case 0x0D: 
....................          pos=61;  
0A888:  MOVLW  3D
0A88A:  MOVLB  2
0A88C:  MOVWF  xF0
....................          break; 
0A88E:  BRA    A8A2
....................       case 0x0E: 
....................          pos=66;  
0A890:  MOVLW  42
0A892:  MOVLB  2
0A894:  MOVWF  xF0
....................          break; 
0A896:  BRA    A8A2
....................       case 0x0F: 
....................          pos=71;  
0A898:  MOVLW  47
0A89A:  MOVLB  2
0A89C:  MOVWF  xF0
....................          break; 
0A89E:  BRA    A8A2
0A8A0:  MOVLB  2
....................    } 
....................  
....................    output_low(PIN_C4); 
0A8A2:  BCF    F94.4
0A8A4:  BCF    F8B.4
....................    output_low(PIN_A5); 
0A8A6:  BCF    F92.5
0A8A8:  BCF    F89.5
....................    delay_ms(100); 
0A8AA:  MOVLW  64
0A8AC:  MOVLB  3
0A8AE:  MOVWF  x19
0A8B0:  MOVLB  0
0A8B2:  CALL   1F78
....................    for(int c = 0; c < TLE_size; c++)                                           // Read TLE data from flash and put in TLE[] array 
0A8B6:  MOVLB  2
0A8B8:  CLRF   xF1
0A8BA:  MOVF   xF1,W
0A8BC:  SUBLW  4C
0A8BE:  BNC   A914
....................       { 
....................          TLE[c]=READ_DATA_BYTE_OF(ADCS_TLE_ADDRESS+c); 
0A8C0:  CLRF   03
0A8C2:  MOVF   xF1,W
0A8C4:  ADDLW  22
0A8C6:  MOVWF  01
0A8C8:  MOVLW  02
0A8CA:  ADDWFC 03,F
0A8CC:  MOVFF  01,2F4
0A8D0:  MOVFF  03,2F5
0A8D4:  MOVF   xF1,W
0A8D6:  ADDWF  54,W
0A8D8:  MOVWF  xF6
0A8DA:  MOVLW  00
0A8DC:  ADDWFC 55,W
0A8DE:  MOVWF  xF7
0A8E0:  MOVLW  00
0A8E2:  ADDWFC 56,W
0A8E4:  MOVWF  xF8
0A8E6:  MOVLW  00
0A8E8:  ADDWFC 57,W
0A8EA:  MOVWF  xF9
0A8EC:  MOVFF  FE8,31A
0A8F0:  MOVFF  2F8,319
0A8F4:  MOVFF  2F7,318
0A8F8:  MOVFF  2F6,317
0A8FC:  MOVLB  0
0A8FE:  CALL   17B2
0A902:  MOVFF  2F5,FEA
0A906:  MOVFF  2F4,FE9
0A90A:  MOVFF  01,FEF
0A90E:  MOVLB  2
0A910:  INCF   xF1,F
0A912:  BRA    A8BA
....................       } 
....................       REFRESH_SECTOR_OF(0x06,0x65,0x00,0x00);                                    // Clear flash memory TO SAVE NEW DATA 
0A914:  MOVLW  06
0A916:  MOVWF  xF6
0A918:  MOVLW  65
0A91A:  MOVWF  xF7
0A91C:  CLRF   xF8
0A91E:  CLRF   xF9
0A920:  MOVLB  0
0A922:  RCALL  A6A8
....................       REFRESH_SECTOR_SCF(0x06,0x65,0x00,0x00); 
0A924:  MOVLW  06
0A926:  MOVLB  2
0A928:  MOVWF  xF6
0A92A:  MOVLW  65
0A92C:  MOVWF  xF7
0A92E:  CLRF   xF8
0A930:  CLRF   xF9
0A932:  MOVLB  0
0A934:  RCALL  A75A
....................       REFRESH_SECTOR_SMF(0x06,0x65,0x00,0x00); 
0A936:  MOVLW  06
0A938:  MOVLB  2
0A93A:  MOVWF  xF6
0A93C:  MOVLW  65
0A93E:  MOVWF  xF7
0A940:  CLRF   xF8
0A942:  CLRF   xF9
0A944:  MOVLB  0
0A946:  CALL   6B96
....................        
....................       TLE[0] = 0xAA; 
0A94A:  MOVLW  AA
0A94C:  MOVLB  2
0A94E:  MOVWF  x22
....................       TLE[pos] = data1;                                                          //update TLE[] array data 
0A950:  CLRF   03
0A952:  MOVF   xF0,W
0A954:  ADDLW  22
0A956:  MOVWF  FE9
0A958:  MOVLW  02
0A95A:  ADDWFC 03,W
0A95C:  MOVWF  FEA
0A95E:  MOVFF  2EB,FEF
....................       TLE[pos+1] = data2;                                                       
0A962:  MOVLW  01
0A964:  ADDWF  xF0,W
0A966:  CLRF   03
0A968:  ADDLW  22
0A96A:  MOVWF  FE9
0A96C:  MOVLW  02
0A96E:  ADDWFC 03,W
0A970:  MOVWF  FEA
0A972:  MOVFF  2EC,FEF
....................       TLE[pos+2] = data3;                                                       
0A976:  MOVLW  02
0A978:  ADDWF  xF0,W
0A97A:  CLRF   03
0A97C:  ADDLW  22
0A97E:  MOVWF  FE9
0A980:  MOVLW  02
0A982:  ADDWFC 03,W
0A984:  MOVWF  FEA
0A986:  MOVFF  2ED,FEF
....................       TLE[pos+3] = data4;                                                       
0A98A:  MOVLW  03
0A98C:  ADDWF  xF0,W
0A98E:  CLRF   03
0A990:  ADDLW  22
0A992:  MOVWF  FE9
0A994:  MOVLW  02
0A996:  ADDWFC 03,W
0A998:  MOVWF  FEA
0A99A:  MOVFF  2EE,FEF
....................       TLE[pos+4] = data5; 
0A99E:  MOVLW  04
0A9A0:  ADDWF  xF0,W
0A9A2:  CLRF   03
0A9A4:  ADDLW  22
0A9A6:  MOVWF  FE9
0A9A8:  MOVLW  02
0A9AA:  ADDWFC 03,W
0A9AC:  MOVWF  FEA
0A9AE:  MOVFF  2EF,FEF
....................       TLE[TLE_size] = 0xBB; 
0A9B2:  MOVLW  BB
0A9B4:  MOVWF  x6F
....................        
....................    for(int i = 0; i < TLE_size; i++)                                             // save everything to flash memory 
0A9B6:  CLRF   xF2
0A9B8:  MOVF   xF2,W
0A9BA:  SUBLW  4C
0A9BC:  BNC   AA88
....................       { 
....................          WRITE_DATA_BYTE_OF(ADCS_TLE_ADDRESS + i,TLE[i]); 
0A9BE:  MOVF   xF2,W
0A9C0:  ADDWF  54,W
0A9C2:  MOVWF  xF4
0A9C4:  MOVLW  00
0A9C6:  ADDWFC 55,W
0A9C8:  MOVWF  xF5
0A9CA:  MOVLW  00
0A9CC:  ADDWFC 56,W
0A9CE:  MOVWF  xF6
0A9D0:  MOVLW  00
0A9D2:  ADDWFC 57,W
0A9D4:  MOVWF  xF7
0A9D6:  CLRF   03
0A9D8:  MOVF   xF2,W
0A9DA:  ADDLW  22
0A9DC:  MOVWF  FE9
0A9DE:  MOVLW  02
0A9E0:  ADDWFC 03,W
0A9E2:  MOVWF  FEA
0A9E4:  MOVFF  FEF,315
0A9E8:  MOVFF  2F7,314
0A9EC:  MOVFF  2F6,313
0A9F0:  MOVFF  2F5,312
0A9F4:  MOVFF  2F4,311
0A9F8:  MOVLB  0
0A9FA:  CALL   1A80
....................          WRITE_DATA_BYTE_SCF(ADCS_TLE_ADDRESS + i,TLE[i]); 
0A9FE:  MOVLB  2
0AA00:  MOVF   xF2,W
0AA02:  ADDWF  54,W
0AA04:  MOVWF  xF4
0AA06:  MOVLW  00
0AA08:  ADDWFC 55,W
0AA0A:  MOVWF  xF5
0AA0C:  MOVLW  00
0AA0E:  ADDWFC 56,W
0AA10:  MOVWF  xF6
0AA12:  MOVLW  00
0AA14:  ADDWFC 57,W
0AA16:  MOVWF  xF7
0AA18:  CLRF   03
0AA1A:  MOVF   xF2,W
0AA1C:  ADDLW  22
0AA1E:  MOVWF  FE9
0AA20:  MOVLW  02
0AA22:  ADDWFC 03,W
0AA24:  MOVWF  FEA
0AA26:  MOVFF  FEF,315
0AA2A:  MOVFF  2F7,314
0AA2E:  MOVFF  2F6,313
0AA32:  MOVFF  2F5,312
0AA36:  MOVFF  2F4,311
0AA3A:  MOVLB  0
0AA3C:  CALL   1B0C
....................          WRITE_DATA_BYTE_SMF(ADCS_TLE_ADDRESS + i,TLE[i]); 
0AA40:  MOVLB  2
0AA42:  MOVF   xF2,W
0AA44:  ADDWF  54,W
0AA46:  MOVWF  xF4
0AA48:  MOVLW  00
0AA4A:  ADDWFC 55,W
0AA4C:  MOVWF  xF5
0AA4E:  MOVLW  00
0AA50:  ADDWFC 56,W
0AA52:  MOVWF  xF6
0AA54:  MOVLW  00
0AA56:  ADDWFC 57,W
0AA58:  MOVWF  xF7
0AA5A:  CLRF   03
0AA5C:  MOVF   xF2,W
0AA5E:  ADDLW  22
0AA60:  MOVWF  FE9
0AA62:  MOVLW  02
0AA64:  ADDWFC 03,W
0AA66:  MOVWF  FEA
0AA68:  MOVFF  FEF,315
0AA6C:  MOVFF  2F7,314
0AA70:  MOVFF  2F6,313
0AA74:  MOVFF  2F5,312
0AA78:  MOVFF  2F4,311
0AA7C:  MOVLB  0
0AA7E:  CALL   1B98
0AA82:  MOVLB  2
0AA84:  INCF   xF2,F
0AA86:  BRA    A9B8
....................       } 
....................  
....................    fprintf(PC,"\r\nTLE:\r\n"); 
0AA88:  MOVLW  78
0AA8A:  MOVWF  FF6
0AA8C:  MOVLW  0E
0AA8E:  MOVWF  FF7
0AA90:  MOVLW  00
0AA92:  MOVWF  FF8
0AA94:  MOVLB  0
0AA96:  CALL   362C
....................    for(int p = 0; p < TLE_size; p++)                                                 // print TLE data 
0AA9A:  MOVLB  2
0AA9C:  CLRF   xF3
0AA9E:  MOVF   xF3,W
0AAA0:  SUBLW  4C
0AAA2:  BNC   AAF4
....................       { 
....................          fprintf(PC,"%x,",READ_DATA_BYTE_OF(ADCS_TLE_ADDRESS+p)); 
0AAA4:  MOVF   xF3,W
0AAA6:  ADDWF  54,W
0AAA8:  MOVWF  xF4
0AAAA:  MOVLW  00
0AAAC:  ADDWFC 55,W
0AAAE:  MOVWF  xF5
0AAB0:  MOVLW  00
0AAB2:  ADDWFC 56,W
0AAB4:  MOVWF  xF6
0AAB6:  MOVLW  00
0AAB8:  ADDWFC 57,W
0AABA:  MOVWF  xF7
0AABC:  MOVFF  FE8,31A
0AAC0:  MOVFF  2F6,319
0AAC4:  MOVFF  2F5,318
0AAC8:  MOVFF  2F4,317
0AACC:  MOVLB  0
0AACE:  CALL   17B2
0AAD2:  MOVFF  01,2F4
0AAD6:  MOVFF  01,311
0AADA:  MOVLW  57
0AADC:  MOVLB  3
0AADE:  MOVWF  x12
0AAE0:  MOVLB  0
0AAE2:  CALL   1C3E
0AAE6:  MOVLW  2C
0AAE8:  BTFSS  F9E.4
0AAEA:  BRA    AAE8
0AAEC:  MOVWF  FAD
0AAEE:  MOVLB  2
0AAF0:  INCF   xF3,F
0AAF2:  BRA    AA9E
....................       } 
....................       fprintf(PC,"\r\n"); 
0AAF4:  MOVLW  0D
0AAF6:  BTFSS  F9E.4
0AAF8:  BRA    AAF6
0AAFA:  MOVWF  FAD
0AAFC:  MOVLW  0A
0AAFE:  BTFSS  F9E.4
0AB00:  BRA    AAFE
0AB02:  MOVWF  FAD
....................    output_high(PIN_C4); 
0AB04:  BCF    F94.4
0AB06:  BSF    F8B.4
....................    return; 
0AB08:  MOVLB  0
0AB0A:  RETURN 0
....................  
.................... } 
....................  
....................  
.................... void Delete_in_HK()                                                              //Borra el array in_HK[118] 
.................... { 
....................    int num; 
....................    for(num = 0; num < HK_size; num++) 
*
03FC8:  MOVLB  2
03FCA:  CLRF   xEC
03FCC:  MOVF   xEC,W
03FCE:  SUBLW  7B
03FD0:  BNC   3FE6
....................    { 
....................       in_HK[num] = 0; 
03FD2:  CLRF   03
03FD4:  MOVF   xEC,W
03FD6:  ADDLW  59
03FD8:  MOVWF  FE9
03FDA:  MOVLW  01
03FDC:  ADDWFC 03,W
03FDE:  MOVWF  FEA
03FE0:  CLRF   FEF
03FE2:  INCF   xEC,F
03FE4:  BRA    3FCC
....................    } 
....................    return; 
03FE6:  MOVLB  0
03FE8:  RETURN 0
.................... } 
.................... ////////////////////////////////////// 
.................... void Delete_HKDATA()                                                             //funcion que borra el array HKDATA[118] 
.................... { 
....................    int num; 
....................    for(num = 0; num < HK_size; num++) 
*
046F0:  MOVLB  2
046F2:  CLRF   xFB
046F4:  MOVF   xFB,W
046F6:  SUBLW  7B
046F8:  BNC   470E
....................    { 
....................       HKDATA[num] = 0; 
046FA:  CLRF   03
046FC:  MOVF   xFB,W
046FE:  ADDLW  86
04700:  MOVWF  FE9
04702:  MOVLW  01
04704:  ADDWFC 03,W
04706:  MOVWF  FEA
04708:  CLRF   FEF
0470A:  INCF   xFB,F
0470C:  BRA    46F4
....................    } 
....................    return; 
0470E:  MOVLB  0
04710:  RETURN 0
.................... } 
....................  
.................... void Delete_CWFORMAT()                                                           //borra el array CW_FORMAT[5] 
.................... { 
....................    for(int num = 0; num < CW_size; num++) 
*
04C58:  MOVLB  2
04C5A:  CLRF   xEC
04C5C:  MOVF   xEC,W
04C5E:  SUBLW  04
04C60:  BNC   4C76
....................    { 
....................       CW_FORMAT[num] = 0; 
04C62:  CLRF   03
04C64:  MOVF   xEC,W
04C66:  ADDLW  54
04C68:  MOVWF  FE9
04C6A:  MOVLW  01
04C6C:  ADDWFC 03,W
04C6E:  MOVWF  FEA
04C70:  CLRF   FEF
04C72:  INCF   xEC,F
04C74:  BRA    4C5C
....................    } 
....................    return; 
04C76:  MOVLB  0
04C78:  RETURN 0
.................... } 
....................  
.................... int8 CHECK_SUNSHINE(int8 current) 
.................... { 
....................    if(current > EX_PANEL_THRESHHOLD) 
*
04CC4:  MOVLB  2
04CC6:  MOVF   xEC,W
04CC8:  SUBLW  14
04CCA:  BC    4CD4
....................    { 
....................       return 1; 
04CCC:  MOVLW  01
04CCE:  MOVWF  01
04CD0:  BRA    4CD8
....................    }else{ 
04CD2:  BRA    4CD8
....................       return 0; 
04CD4:  MOVLW  00
04CD6:  MOVWF  01
....................    } 
04CD8:  MOVLB  0
04CDA:  RETURN 0
.................... } 
....................  
.................... int8 CONVERT_16bit_GYRO_to_8bit_X(int8 HIGH_8bit, int8 LOW_8bit)//caribrated for X 
*
0520C:  MOVFF  2EC,2EF
05210:  MOVFF  2ED,2EE
05214:  MOVFF  2EF,2F5
05218:  MOVFF  2EE,2F4
0521C:  RCALL  4DC0
0521E:  MOVFF  03,2FF
05222:  MOVFF  02,2FE
05226:  MOVFF  01,2FD
0522A:  MOVFF  00,2FC
0522E:  MOVLW  29
05230:  MOVLB  3
05232:  MOVWF  x03
05234:  MOVLW  5C
05236:  MOVWF  x02
05238:  MOVLW  0F
0523A:  MOVWF  x01
0523C:  MOVLW  78
0523E:  MOVWF  x00
05240:  MOVLB  0
05242:  RCALL  4E10
05244:  MOVFF  03,2F7
05248:  MOVFF  02,2F6
0524C:  MOVFF  01,2F5
05250:  MOVFF  00,2F4
05254:  BSF    FD8.1
05256:  MOVFF  03,2FB
0525A:  MOVFF  02,2FA
0525E:  MOVFF  01,2F9
05262:  MOVFF  00,2F8
05266:  MOVLW  DB
05268:  MOVLB  2
0526A:  MOVWF  xFF
0526C:  MOVLW  BF
0526E:  MOVWF  xFE
05270:  MOVLW  72
05272:  MOVWF  xFD
05274:  MOVLW  7B
05276:  MOVWF  xFC
05278:  MOVLB  0
0527A:  RCALL  4F46
0527C:  MOVFF  03,2F3
05280:  MOVFF  02,2F2
05284:  MOVFF  01,2F1
05288:  MOVFF  00,2F0
.................... { 
....................    signed int16 row_data = make16(HIGH_8bit, LOW_8bit); 
....................    float ang_v = row_data*0.00875-0.11853; 
....................    /*fprintf(PC,"ang:%.4f\r\n",ang_v);*/ 
....................    return (int8)ang_v;  
0528C:  MOVFF  2F3,2F7
05290:  MOVFF  2F2,2F6
05294:  MOVFF  2F1,2F5
05298:  MOVFF  2F0,2F4
0529C:  RCALL  51D0
0529E:  MOVF   01,W
052A0:  GOTO   53E0 (RETURN)
.................... } 
....................  
.................... int8 CONVERT_16bit_GYRO_to_8bit_Y(int8 HIGH_8bit, int8 LOW_8bit)//caribrated for Y 
052A4:  MOVFF  2EC,2EF
052A8:  MOVFF  2ED,2EE
052AC:  MOVFF  2EF,2F5
052B0:  MOVFF  2EE,2F4
052B4:  RCALL  4DC0
052B6:  MOVFF  03,2FF
052BA:  MOVFF  02,2FE
052BE:  MOVFF  01,2FD
052C2:  MOVFF  00,2FC
052C6:  MOVLW  29
052C8:  MOVLB  3
052CA:  MOVWF  x03
052CC:  MOVLW  5C
052CE:  MOVWF  x02
052D0:  MOVLW  0F
052D2:  MOVWF  x01
052D4:  MOVLW  78
052D6:  MOVWF  x00
052D8:  MOVLB  0
052DA:  RCALL  4E10
052DC:  MOVFF  03,2F7
052E0:  MOVFF  02,2F6
052E4:  MOVFF  01,2F5
052E8:  MOVFF  00,2F4
052EC:  BSF    FD8.1
052EE:  MOVFF  03,2FB
052F2:  MOVFF  02,2FA
052F6:  MOVFF  01,2F9
052FA:  MOVFF  00,2F8
052FE:  MOVLW  98
05300:  MOVLB  2
05302:  MOVWF  xFF
05304:  MOVLW  69
05306:  MOVWF  xFE
05308:  MOVLW  7B
0530A:  MOVWF  xFD
0530C:  MOVLW  7C
0530E:  MOVWF  xFC
05310:  MOVLB  0
05312:  RCALL  4F46
05314:  MOVFF  03,2F3
05318:  MOVFF  02,2F2
0531C:  MOVFF  01,2F1
05320:  MOVFF  00,2F0
.................... { 
....................    signed int16 row_data = make16(HIGH_8bit, LOW_8bit); 
....................    float ang_v = row_data*0.00875-0.24552; 
....................    /*fprintf(PC,"ang:%.4f\r\n",ang_v);*/ 
....................    return (int8)ang_v;  
05324:  MOVFF  2F3,2F7
05328:  MOVFF  2F2,2F6
0532C:  MOVFF  2F1,2F5
05330:  MOVFF  2F0,2F4
05334:  RCALL  51D0
05336:  MOVF   01,W
05338:  GOTO   53EE (RETURN)
.................... } 
....................  
.................... int8 CONVERT_16bit_GYRO_to_8bit_Z(int8 HIGH_8bit, int8 LOW_8bit)//caribrated for Z 
0533C:  MOVFF  2EC,2EF
05340:  MOVFF  2ED,2EE
05344:  MOVFF  2EF,2F5
05348:  MOVFF  2EE,2F4
0534C:  RCALL  4DC0
0534E:  MOVFF  03,2FF
05352:  MOVFF  02,2FE
05356:  MOVFF  01,2FD
0535A:  MOVFF  00,2FC
0535E:  MOVLW  29
05360:  MOVLB  3
05362:  MOVWF  x03
05364:  MOVLW  5C
05366:  MOVWF  x02
05368:  MOVLW  0F
0536A:  MOVWF  x01
0536C:  MOVLW  78
0536E:  MOVWF  x00
05370:  MOVLB  0
05372:  RCALL  4E10
05374:  MOVFF  03,2F7
05378:  MOVFF  02,2F6
0537C:  MOVFF  01,2F5
05380:  MOVFF  00,2F4
05384:  BSF    FD8.1
05386:  MOVFF  03,2FB
0538A:  MOVFF  02,2FA
0538E:  MOVFF  01,2F9
05392:  MOVFF  00,2F8
05396:  MOVLW  CF
05398:  MOVLB  2
0539A:  MOVWF  xFF
0539C:  MOVLW  49
0539E:  MOVWF  xFE
053A0:  MOVLW  4F
053A2:  MOVWF  xFD
053A4:  MOVLW  7D
053A6:  MOVWF  xFC
053A8:  MOVLB  0
053AA:  RCALL  4F46
053AC:  MOVFF  03,2F3
053B0:  MOVFF  02,2F2
053B4:  MOVFF  01,2F1
053B8:  MOVFF  00,2F0
.................... { 
....................    signed int16 row_data = make16(HIGH_8bit, LOW_8bit); 
....................    float ang_v = row_data*0.00875-0.40486; 
....................    /*fprintf(PC,"ang:%.4f\r\n",ang_v);*/ 
....................    return (int8)ang_v;  
053BC:  MOVFF  2F3,2F7
053C0:  MOVFF  2F2,2F6
053C4:  MOVFF  2F1,2F5
053C8:  MOVFF  2F0,2F4
053CC:  RCALL  51D0
053CE:  MOVF   01,W
053D0:  GOTO   53FC (RETURN)
.................... } 
....................  
.................... int8 OPERATION_MODE_VALUE(int8 Bat_Vol) 
.................... {//0x94HKDATA[116]  
....................    if(Bat_Vol > 0x94){//more than 3.8 
*
04C7A:  MOVLB  2
04C7C:  MOVF   xEC,W
04C7E:  SUBLW  94
04C80:  BC    4C92
....................       OPERATION_MODE = 0x11; 
04C82:  MOVLW  11
04C84:  MOVLB  0
04C86:  MOVWF  x98
....................       return 96; 
04C88:  MOVLW  60
04C8A:  MOVWF  01
04C8C:  BRA    4CBC
....................    }else if((Bat_Vol > 0x88) && (Bat_Vol <= 0x94)){//3.5 to 3.8 
04C8E:  BRA    4CBC
04C90:  MOVLB  2
04C92:  MOVF   xEC,W
04C94:  SUBLW  88
04C96:  BC    4CAE
04C98:  MOVF   xEC,W
04C9A:  SUBLW  94
04C9C:  BNC   4CAE
....................       OPERATION_MODE = 0x10; 
04C9E:  MOVLW  10
04CA0:  MOVLB  0
04CA2:  MOVWF  x98
....................       return 64; 
04CA4:  MOVLW  40
04CA6:  MOVWF  01
04CA8:  BRA    4CBC
....................    }else if(Bat_Vol <= 0x88){//less than 3.5 
04CAA:  BRA    4CBC
04CAC:  MOVLB  2
04CAE:  MOVF   xEC,W
04CB0:  SUBLW  88
04CB2:  BNC   4CBE
....................       OPERATION_MODE = 0x00; 
04CB4:  MOVLB  0
04CB6:  CLRF   x98
....................       return 16; 
04CB8:  MOVLW  10
04CBA:  MOVWF  01
04CBC:  MOVLB  2
....................    } 
04CBE:  MOVLB  0
04CC0:  GOTO   4D0E (RETURN)
.................... } 
....................  
.................... void MAKE_CW1_FORMAT()                                                            
.................... { 
....................    Delete_CWFORMAT();                                                            //borra el array CW_FORMAT[5] 
*
04CDC:  RCALL  4C58
....................     
....................    CW_FORMAT[0] = HKDATA[44];                                                    //battery voltage 
04CDE:  MOVFF  1B2,154
....................    CW_FORMAT[1] = HKDATA[45]<<4|HKDATA[46]>>4;                                   //battery current 
04CE2:  MOVLB  1
04CE4:  SWAPF  xB3,W
04CE6:  MOVLB  2
04CE8:  MOVWF  xEC
04CEA:  MOVLW  F0
04CEC:  ANDWF  xEC,F
04CEE:  MOVLB  1
04CF0:  SWAPF  xB4,W
04CF2:  MOVWF  00
04CF4:  MOVLW  0F
04CF6:  ANDWF  00,F
04CF8:  MOVF   00,W
04CFA:  MOVLB  2
04CFC:  IORWF  xEC,W
04CFE:  MOVLB  1
04D00:  MOVWF  x55
....................    CW_FORMAT[2] = HKDATA[47];                                                    //battery temp 
04D02:  MOVFF  1B5,156
....................     
.................... //   CW_FORMAT[3] = CW_FORMAT[3];//0:CW1 
.................... //   CW_FORMAT[3] = CW_FORMAT[3] + RESERVE_CHECK * 64; 
....................    CW_FORMAT[3] = CW_FORMAT[3] + OPERATION_MODE_VALUE(HKDATA[116]);              //96(=64+32-->0x01100000):nomal, 64(0x01000000):low, 16(0x00100000):safe 
04D06:  MOVFF  1FA,2EC
04D0A:  MOVLB  0
04D0C:  BRA    4C7A
04D0E:  MOVF   01,W
04D10:  MOVLB  1
04D12:  ADDWF  x57,F
....................    KILL_FLAG_FAB = (HKDATA[49] & 0x10)>>4; 
04D14:  MOVF   xB7,W
04D16:  ANDLW  10
04D18:  MOVWF  00
04D1A:  SWAPF  00,W
04D1C:  MOVLB  0
04D1E:  MOVWF  x76
04D20:  MOVLW  0F
04D22:  ANDWF  x76,F
....................    KILL_FLAG_MAIN = HKDATA[49] & 0x01; 
04D24:  MOVLB  1
04D26:  MOVF   xB7,W
04D28:  ANDLW  01
04D2A:  MOVLB  0
04D2C:  MOVWF  x75
....................    CW_FORMAT[3] = CW_FORMAT[3] + KILL_FLAG_MAIN * 16; 
04D2E:  MOVF   x75,W
04D30:  MULLW  10
04D32:  MOVF   FF3,W
04D34:  MOVLB  1
04D36:  ADDWF  x57,F
....................    CW_FORMAT[3] = CW_FORMAT[3] + KILL_FLAG_FAB * 8; 
04D38:  MOVLB  0
04D3A:  MOVF   x76,W
04D3C:  MULLW  08
04D3E:  MOVF   FF3,W
04D40:  MOVLB  1
04D42:  ADDWF  x57,F
....................    CW_FORMAT[3] = CW_FORMAT[3] + ANT_DEP_STATUS * 4; 
04D44:  MOVLB  0
04D46:  MOVF   x7B,W
04D48:  MULLW  04
04D4A:  MOVF   FF3,W
04D4C:  MOVLB  1
04D4E:  ADDWF  x57,F
....................    CW_FORMAT[3] = CW_FORMAT[3] + CHECK_SUNSHINE(HKDATA[34]) * 2;                 //+Y Panel (new axis definition) 
04D50:  MOVFF  1A8,2EC
04D54:  MOVLB  0
04D56:  RCALL  4CC4
04D58:  BCF    FD8.0
04D5A:  RLCF   01,W
04D5C:  MOVLB  1
04D5E:  ADDWF  x57,F
....................    CW_FORMAT[3] = CW_FORMAT[3] + CHECK_SUNSHINE(HKDATA[35]) * 1;                 //+X Panel (new axis definition) 
04D60:  MOVFF  1A9,2EC
04D64:  MOVLB  0
04D66:  RCALL  4CC4
04D68:  MOVF   01,W
04D6A:  MOVLB  1
04D6C:  ADDWF  x57,F
....................     
....................    CW_FORMAT[4] = CW_FORMAT[4] + CHECK_SUNSHINE(HKDATA[36]) * 128;               //-Z Panel (new axis definition) 
04D6E:  MOVFF  1AA,2EC
04D72:  MOVLB  0
04D74:  RCALL  4CC4
04D76:  MOVF   01,W
04D78:  MULLW  80
04D7A:  MOVF   FF3,W
04D7C:  MOVLB  1
04D7E:  ADDWF  x58,F
....................    CW_FORMAT[4] = CW_FORMAT[4] + CHECK_SUNSHINE(HKDATA[37]) * 64;                //-X Panel (new axis definition) 
04D80:  MOVFF  1AB,2EC
04D84:  MOVLB  0
04D86:  RCALL  4CC4
04D88:  MOVF   01,W
04D8A:  MULLW  40
04D8C:  MOVF   FF3,W
04D8E:  MOVLB  1
04D90:  ADDWF  x58,F
....................    CW_FORMAT[4] = CW_FORMAT[4] + CHECK_SUNSHINE(HKDATA[38]) * 32;                //+Z Panel (new axis definition) 
04D92:  MOVFF  1AC,2EC
04D96:  MOVLB  0
04D98:  RCALL  4CC4
04D9A:  MOVF   01,W
04D9C:  MULLW  20
04D9E:  MOVF   FF3,W
04DA0:  MOVLB  1
04DA2:  ADDWF  x58,F
....................    CW_FORMAT[4] = CW_FORMAT[4] + (HKDATA[4] & 0b00011111);                       //time data 
04DA4:  MOVF   x8A,W
04DA6:  ANDLW  1F
04DA8:  ADDWF  x58,F
....................     
....................    CW_IDENTIFIER = 0; 
04DAA:  MOVLB  0
04DAC:  CLRF   x97
....................    CHECK_50_and_CW_RESPOND(); 
04DAE:  RCALL  466A
....................    ACK_for_COM[0] = 0xAA;                                                        //for safety (this byte should be always 0) 
04DB0:  MOVLW  AA
04DB2:  MOVLB  2
04DB4:  MOVWF  x02
....................    ACK_for_COM[23] = 0xBB;                                                       //for safety (this byte should be always 0) 
04DB6:  MOVLW  BB
04DB8:  MOVWF  x19
....................    return; 
04DBA:  MOVLB  0
04DBC:  GOTO   548E (RETURN)
.................... } 
.................... void MAKE_CW2_FORMAT()                                                            
.................... { 
....................    Delete_CWFORMAT(); 
*
053D4:  RCALL  4C58
....................    //CHECK_50_and_CW_RESPOND(); 
....................    CW_FORMAT[0] = CONVERT_16bit_GYRO_to_8bit_X(HKDATA[59], HKDATA[60]);          //GYRO X axis 
053D6:  MOVFF  1C1,2EC
053DA:  MOVFF  1C2,2ED
053DE:  BRA    520C
053E0:  MOVFF  01,154
....................    CW_FORMAT[1] = CONVERT_16bit_GYRO_to_8bit_Y(HKDATA[61], HKDATA[62]);          //GYRO Y axis 
053E4:  MOVFF  1C3,2EC
053E8:  MOVFF  1C4,2ED
053EC:  BRA    52A4
053EE:  MOVFF  01,155
....................    CW_FORMAT[2] = CONVERT_16bit_GYRO_to_8bit_Z(HKDATA[63], HKDATA[64]);          //GYRO Z axis 
053F2:  MOVFF  1C5,2EC
053F6:  MOVFF  1C6,2ED
053FA:  BRA    533C
053FC:  MOVFF  01,156
....................     
....................    CW_FORMAT[3] = CW_FORMAT[3] + 128;                                            //1:CW2 
05400:  MOVLW  80
05402:  MOVLB  1
05404:  ADDWF  x57,F
....................    CW_FORMAT[3] = CW_FORMAT[3] + FIRST_HSSC_DONE * 64;                           //High Sampling Sensor Collection Flag 0:not done, 1:done 
05406:  MOVLB  0
05408:  MOVF   x77,W
0540A:  MULLW  40
0540C:  MOVF   FF3,W
0540E:  MOVLB  1
05410:  ADDWF  x57,F
....................    CW_FORMAT[3] = CW_FORMAT[3] + AUTO_CAM_DONE * 32;                             //AUTO CAM MISSION DONE 0:not done, 1:done 
05412:  MOVLB  0
05414:  MOVF   x78,W
05416:  MULLW  20
05418:  MOVF   FF3,W
0541A:  MOVLB  1
0541C:  ADDWF  x57,F
....................    CW_FORMAT[3] = CW_FORMAT[3] + AUTO_MBP_DONE * 16;                             //AUTO MBP MISSION DONE 0:not done, 1:done 
0541E:  MOVLB  0
05420:  MOVF   x79,W
05422:  MULLW  10
05424:  MOVF   FF3,W
05426:  MOVLB  1
05428:  ADDWF  x57,F
....................    CW_FORMAT[3] = CW_FORMAT[3] + AUTO_ADCS_DONE * 8;                             //AUTO ADCS MISSION DONE 0:not done, 1:done 
0542A:  MOVLB  0
0542C:  MOVF   x7A,W
0542E:  MULLW  08
05430:  MOVF   FF3,W
05432:  MOVLB  1
05434:  ADDWF  x57,F
....................    CW_FORMAT[3] = CW_FORMAT[3] + HKDATA[48] * 4;                                 //Heater 0:OFF, 1:ON 
05436:  MOVF   xB6,W
05438:  MULLW  04
0543A:  MOVF   FF3,W
0543C:  ADDWF  x57,F
....................    CW_FORMAT[3] = CW_FORMAT[3] + RESERVE_CHECK * 2;                              //RSV Flag 
0543E:  BCF    FD8.0
05440:  MOVLB  0
05442:  RLCF   x6B,W
05444:  MOVLB  1
05446:  ADDWF  x57,F
....................    CW_FORMAT[3] = CW_FORMAT[3] + UPLINK_SUCCESS;                                 //UPLINK SUCCESS 
05448:  MOVLB  0
0544A:  MOVF   x7C,W
0544C:  MOVLB  1
0544E:  ADDWF  x57,F
....................     
....................    CW_FORMAT[4] = HKDATA[20]<<4|HKDATA[21]>>4;                                   //BPB_TEMP 
05450:  SWAPF  x9A,W
05452:  MOVLB  2
05454:  MOVWF  xEC
05456:  MOVLW  F0
05458:  ANDWF  xEC,F
0545A:  MOVLB  1
0545C:  SWAPF  x9B,W
0545E:  MOVWF  00
05460:  MOVLW  0F
05462:  ANDWF  00,F
05464:  MOVF   00,W
05466:  MOVLB  2
05468:  IORWF  xEC,W
0546A:  MOVLB  1
0546C:  MOVWF  x58
....................  
....................    CW_IDENTIFIER = 1; 
0546E:  MOVLW  01
05470:  MOVLB  0
05472:  MOVWF  x97
....................    CHECK_50_and_CW_RESPOND(); 
05474:  CALL   466A
....................    ACK_for_COM[0] = 0xAA;                                                        //for safety (this byte should be always 0) 
05478:  MOVLW  AA
0547A:  MOVLB  2
0547C:  MOVWF  x02
....................    ACK_for_COM[23] = 0xBB;                                                       //for safety (this byte should be always 0) 
0547E:  MOVLW  BB
05480:  MOVWF  x19
....................     
....................    return; 
05482:  MOVLB  0
05484:  GOTO   5492 (RETURN)
.................... } 
....................  
.................... void MAKE_CW_FORMAT() 
.................... { 
....................    if(CW_IDENTIFIER) 
05488:  MOVF   x97,F
0548A:  BZ    5490
....................    { 
....................       MAKE_CW1_FORMAT(); 
0548C:  BRA    4CDC
....................    }else{ 
0548E:  BRA    5492
....................       MAKE_CW2_FORMAT(); 
05490:  BRA    53D4
....................    } 
05492:  RETURN 0
.................... } 
....................  
.................... void Send_COMMAND_TO_FAB(int8 cmd)                                               //funcion que envia comandos al FAB 
.................... { 
....................    fputc(cmd,FAB);                                                               //se indica el dato y el puerto 
*
04684:  MOVLB  2
04686:  MOVF   xFD,W
04688:  MOVLB  0
0468A:  RCALL  4678
....................    return; 
0468C:  RETURN 0
.................... } 
....................  
.................... void COMMAND_TO_FAB(int32 delaytime)                                             //envia comando al FAB para pedir datos 
.................... { 
....................    FAB_DATA = 0; 
0468E:  MOVLB  2
04690:  CLRF   x1A
....................    enable_interrupts(INT_rda3);                                                  //Habilita interrupcion UART FAB para cargar el vector in_HK[] 
04692:  BSF    F61.5
....................    Send_Command_to_FAB(0x61);                                                    //send command to fab 
04694:  MOVLW  61
04696:  MOVWF  xFD
04698:  MOVLB  0
0469A:  RCALL  4684
....................    /*fprintf(PC,"Command to FAB sent\r\n");*/  
....................    int32 a = 0; 
0469C:  MOVLB  2
0469E:  CLRF   xFC
046A0:  CLRF   xFB
046A2:  CLRF   xFA
046A4:  CLRF   xF9
....................    while(FAB_DATA == 0){                                                         //Espera a que la bandera FAB_DATA se ponga en alto 
046A6:  MOVF   x1A,F
046A8:  BNZ   46D6
....................       a++;                                                                       //la bandera se pone en alto cuando se recibe un dato en el UART 
046AA:  MOVLW  01
046AC:  ADDWF  xF9,F
046AE:  BTFSC  FD8.0
046B0:  INCF   xFA,F
046B2:  BTFSC  FD8.2
046B4:  INCF   xFB,F
046B6:  BTFSC  FD8.2
046B8:  INCF   xFC,F
....................       if(a > 50000) 
046BA:  MOVF   xFC,F
046BC:  BNZ   46D2
046BE:  MOVF   xFB,F
046C0:  BNZ   46D2
046C2:  MOVF   xFA,W
046C4:  SUBLW  C2
046C6:  BC    46D4
046C8:  XORLW  FF
046CA:  BNZ   46D2
046CC:  MOVF   xF9,W
046CE:  SUBLW  50
046D0:  BC    46D4
....................       { 
....................          break; 
046D2:  BRA    46D6
....................       } 
046D4:  BRA    46A6
....................    } 
....................    waiting(delaytime);                                                           //funcion de espera 
046D6:  MOVFF  2F8,30A
046DA:  MOVFF  2F7,309
046DE:  MOVFF  2F6,308
046E2:  MOVFF  2F5,307
046E6:  MOVLB  0
046E8:  CALL   1FA2
....................    disable_interrupts(INT_rda3);                                                 //desabilita interrupcion del UART FAB 
046EC:  BCF    F61.5
....................    return; 
046EE:  RETURN 0
.................... } 
.................... /* 
.................... int8 ACK_FROM_FAB() 
.................... { 
....................    int8 ack; 
....................    ack = fgetc(CAM); 
....................    return ack; 
.................... } 
....................  
....................  
....................  
....................  
....................  
....................  
....................  
....................  
....................  
.................... */ 
.................... void SAVE_HKDATA_TO_SCF(unsigned int32 Memory_Adress) 
.................... { 
....................    output_low(PIN_C4); 
*
0551C:  BCF    F94.4
0551E:  BCF    F8B.4
....................    for(int8 num = 0; num < HK_size; num++) 
05520:  MOVLB  2
05522:  CLRF   xF4
05524:  MOVF   xF4,W
05526:  SUBLW  7B
05528:  BNC   5570
....................    { 
....................       WRITE_DATA_BYTE_SCF(Memory_Adress+num, HKDATA[num]); 
0552A:  MOVF   xF4,W
0552C:  ADDWF  xF0,W
0552E:  MOVWF  xF5
05530:  MOVLW  00
05532:  ADDWFC xF1,W
05534:  MOVWF  xF6
05536:  MOVLW  00
05538:  ADDWFC xF2,W
0553A:  MOVWF  xF7
0553C:  MOVLW  00
0553E:  ADDWFC xF3,W
05540:  MOVWF  xF8
05542:  CLRF   03
05544:  MOVF   xF4,W
05546:  ADDLW  86
05548:  MOVWF  FE9
0554A:  MOVLW  01
0554C:  ADDWFC 03,W
0554E:  MOVWF  FEA
05550:  MOVFF  FEF,315
05554:  MOVFF  2F8,314
05558:  MOVFF  2F7,313
0555C:  MOVFF  2F6,312
05560:  MOVFF  2F5,311
05564:  MOVLB  0
05566:  CALL   1B0C
0556A:  MOVLB  2
0556C:  INCF   xF4,F
0556E:  BRA    5524
....................    } 
....................    output_high(PIN_C4); 
05570:  BCF    F94.4
05572:  BSF    F8B.4
....................    return; 
05574:  MOVLB  0
05576:  GOTO   558C (RETURN)
.................... } 
....................  
.................... void Send_HKDATA_to_SCF(int32 adress) 
.................... { 
....................    Save_HKDATA_to_SCF(adress);  //save HK to COM PIC 
0557A:  MOVFF  2EF,2F3
0557E:  MOVFF  2EE,2F2
05582:  MOVFF  2ED,2F1
05586:  MOVFF  2EC,2F0
0558A:  BRA    551C
....................    CHECK_50_and_CW_RESPOND(); 
0558C:  CALL   466A
....................    return; 
05590:  RETURN 0
.................... } 
....................  
.................... void SAVE_HKDATA_TO_SMF(unsigned int32 Memory_Adress) 
.................... { 
....................    output_low(PIN_A5); 
05592:  BCF    F92.5
05594:  BCF    F89.5
....................    for(int8 num = 0; num < HK_size; num++) 
05596:  MOVLB  2
05598:  CLRF   xF4
0559A:  MOVF   xF4,W
0559C:  SUBLW  7B
0559E:  BNC   55E6
....................    { 
....................       WRITE_DATA_BYTE_SMF(Memory_Adress+num, HKDATA[num]); 
055A0:  MOVF   xF4,W
055A2:  ADDWF  xF0,W
055A4:  MOVWF  xF5
055A6:  MOVLW  00
055A8:  ADDWFC xF1,W
055AA:  MOVWF  xF6
055AC:  MOVLW  00
055AE:  ADDWFC xF2,W
055B0:  MOVWF  xF7
055B2:  MOVLW  00
055B4:  ADDWFC xF3,W
055B6:  MOVWF  xF8
055B8:  CLRF   03
055BA:  MOVF   xF4,W
055BC:  ADDLW  86
055BE:  MOVWF  FE9
055C0:  MOVLW  01
055C2:  ADDWFC 03,W
055C4:  MOVWF  FEA
055C6:  MOVFF  FEF,315
055CA:  MOVFF  2F8,314
055CE:  MOVFF  2F7,313
055D2:  MOVFF  2F6,312
055D6:  MOVFF  2F5,311
055DA:  MOVLB  0
055DC:  CALL   1B98
055E0:  MOVLB  2
055E2:  INCF   xF4,F
055E4:  BRA    559A
....................    } 
....................    return; 
055E6:  MOVLB  0
055E8:  GOTO   55FE (RETURN)
.................... } 
.................... void Send_HKDATA_to_SMF(int32 adress) 
.................... { 
....................    Save_HKDATA_to_SMF(adress);  //save HK to COM PIC 
055EC:  MOVFF  2EF,2F3
055F0:  MOVFF  2EE,2F2
055F4:  MOVFF  2ED,2F1
055F8:  MOVFF  2EC,2F0
055FC:  BRA    5592
....................    CHECK_50_and_CW_RESPOND(); 
055FE:  CALL   466A
....................    return; 
05602:  RETURN 0
.................... } 
....................  
.................... void SAVE_HKDATA_TO_OF(unsigned int32 Memory_Adress) 
.................... { 
....................    int num; 
....................    for(num = 0; num < HK_size; num++) 
05604:  MOVLB  2
05606:  CLRF   xF4
05608:  MOVF   xF4,W
0560A:  SUBLW  7B
0560C:  BNC   5654
....................    { 
....................       WRITE_DATA_BYTE_OF(Memory_Adress+num, HKDATA[num]); 
0560E:  MOVF   xF4,W
05610:  ADDWF  xF0,W
05612:  MOVWF  xF5
05614:  MOVLW  00
05616:  ADDWFC xF1,W
05618:  MOVWF  xF6
0561A:  MOVLW  00
0561C:  ADDWFC xF2,W
0561E:  MOVWF  xF7
05620:  MOVLW  00
05622:  ADDWFC xF3,W
05624:  MOVWF  xF8
05626:  CLRF   03
05628:  MOVF   xF4,W
0562A:  ADDLW  86
0562C:  MOVWF  FE9
0562E:  MOVLW  01
05630:  ADDWFC 03,W
05632:  MOVWF  FEA
05634:  MOVFF  FEF,315
05638:  MOVFF  2F8,314
0563C:  MOVFF  2F7,313
05640:  MOVFF  2F6,312
05644:  MOVFF  2F5,311
05648:  MOVLB  0
0564A:  CALL   1A80
0564E:  MOVLB  2
05650:  INCF   xF4,F
05652:  BRA    5608
....................    } 
....................    return; 
05654:  MOVLB  0
05656:  GOTO   566C (RETURN)
.................... } 
.................... void Send_HKDATA_to_OF(int32 adress) 
.................... { 
....................    Save_HKDATA_to_OF(adress);  //save HK to COM PIC 
0565A:  MOVFF  2EF,2F3
0565E:  MOVFF  2EE,2F2
05662:  MOVFF  2ED,2F1
05666:  MOVFF  2EC,2F0
0566A:  BRA    5604
....................    CHECK_50_and_CW_RESPOND(); 
0566C:  CALL   466A
....................    return; 
05670:  RETURN 0
.................... } 
....................  
.................... void SAVE_CWFORMAT_TO_SCF(unsigned int32 Memory_Adress) 
.................... { 
....................    output_low(PIN_C4); 
05672:  BCF    F94.4
05674:  BCF    F8B.4
....................    for(int8 num = 0; num < CW_size; num++) 
05676:  MOVLB  2
05678:  CLRF   xF4
0567A:  MOVF   xF4,W
0567C:  SUBLW  04
0567E:  BNC   56C6
....................    { 
....................       WRITE_DATA_BYTE_SCF(Memory_Adress+num, CW_FORMAT[num]); 
05680:  MOVF   xF4,W
05682:  ADDWF  xF0,W
05684:  MOVWF  xF5
05686:  MOVLW  00
05688:  ADDWFC xF1,W
0568A:  MOVWF  xF6
0568C:  MOVLW  00
0568E:  ADDWFC xF2,W
05690:  MOVWF  xF7
05692:  MOVLW  00
05694:  ADDWFC xF3,W
05696:  MOVWF  xF8
05698:  CLRF   03
0569A:  MOVF   xF4,W
0569C:  ADDLW  54
0569E:  MOVWF  FE9
056A0:  MOVLW  01
056A2:  ADDWFC 03,W
056A4:  MOVWF  FEA
056A6:  MOVFF  FEF,315
056AA:  MOVFF  2F8,314
056AE:  MOVFF  2F7,313
056B2:  MOVFF  2F6,312
056B6:  MOVFF  2F5,311
056BA:  MOVLB  0
056BC:  CALL   1B0C
056C0:  MOVLB  2
056C2:  INCF   xF4,F
056C4:  BRA    567A
....................    } 
....................    output_high(PIN_C4); 
056C6:  BCF    F94.4
056C8:  BSF    F8B.4
....................    return; 
056CA:  MOVLB  0
056CC:  RETURN 0
.................... } 
.................... void SEND_CWFORMAT_TO_SCF(int32 adress) 
.................... { 
....................    SAVE_CWFORMAT_TO_SCF(adress);                                                 //save HK to COM PIC 
056CE:  MOVFF  2EF,2F3
056D2:  MOVFF  2EE,2F2
056D6:  MOVFF  2ED,2F1
056DA:  MOVFF  2EC,2F0
056DE:  RCALL  5672
....................    CHECK_50_and_CW_RESPOND(); 
056E0:  CALL   466A
....................    return; 
056E4:  RETURN 0
.................... } 
....................  
.................... void SAVE_CWFORMAT_TO_SMF(unsigned int32 Memory_Adress) 
.................... { 
....................    output_low(PIN_A5); 
056E6:  BCF    F92.5
056E8:  BCF    F89.5
....................    for(int8 num = 0; num < CW_size; num++) 
056EA:  MOVLB  2
056EC:  CLRF   xF4
056EE:  MOVF   xF4,W
056F0:  SUBLW  04
056F2:  BNC   573A
....................    { 
....................       WRITE_DATA_BYTE_SMF(Memory_Adress+num, CW_FORMAT[num]); 
056F4:  MOVF   xF4,W
056F6:  ADDWF  xF0,W
056F8:  MOVWF  xF5
056FA:  MOVLW  00
056FC:  ADDWFC xF1,W
056FE:  MOVWF  xF6
05700:  MOVLW  00
05702:  ADDWFC xF2,W
05704:  MOVWF  xF7
05706:  MOVLW  00
05708:  ADDWFC xF3,W
0570A:  MOVWF  xF8
0570C:  CLRF   03
0570E:  MOVF   xF4,W
05710:  ADDLW  54
05712:  MOVWF  FE9
05714:  MOVLW  01
05716:  ADDWFC 03,W
05718:  MOVWF  FEA
0571A:  MOVFF  FEF,315
0571E:  MOVFF  2F8,314
05722:  MOVFF  2F7,313
05726:  MOVFF  2F6,312
0572A:  MOVFF  2F5,311
0572E:  MOVLB  0
05730:  CALL   1B98
05734:  MOVLB  2
05736:  INCF   xF4,F
05738:  BRA    56EE
....................    } 
....................    return; 
0573A:  MOVLB  0
0573C:  GOTO   5752 (RETURN)
.................... } 
.................... void SEND_CWFORMAT_TO_SMF(int32 adress) 
.................... { 
....................    SAVE_CWFORMAT_TO_SMF(adress);  //save HK to COM PIC 
05740:  MOVFF  2EF,2F3
05744:  MOVFF  2EE,2F2
05748:  MOVFF  2ED,2F1
0574C:  MOVFF  2EC,2F0
05750:  BRA    56E6
....................    CHECK_50_and_CW_RESPOND(); 
05752:  CALL   466A
....................    fprintf(PC,"\r\nCW SAVED\r\n"); 
05756:  MOVLW  82
05758:  MOVWF  FF6
0575A:  MOVLW  0E
0575C:  MOVWF  FF7
0575E:  MOVLW  00
05760:  MOVWF  FF8
05762:  CALL   362C
....................    return; 
05766:  RETURN 0
.................... } 
....................  
.................... void SAVE_CWFORMAT_TO_OF(unsigned int32 Memory_Adress) 
.................... { 
....................    for(int8 num = 0; num < CW_size; num++) 
....................    { 
....................       WRITE_DATA_BYTE_OF(Memory_Adress+num, CW_FORMAT[num]); 
....................    } 
....................    return; 
.................... } 
.................... void SEND_CWFORMAT_TO_OF(int32 adress) 
.................... { 
....................    SAVE_CWFORMAT_TO_SCF(adress);                                                 //save HK to COM PIC 
*
057E4:  MOVFF  2EF,2F3
057E8:  MOVFF  2EE,2F2
057EC:  MOVFF  2ED,2F1
057F0:  MOVFF  2EC,2F0
057F4:  RCALL  5672
....................    TRANSFER_DATA_NBYTE_TOPC_OF(adress,CW_size);                                  //for checking whether the data saved correctly 
057F6:  MOVFF  2EF,2F3
057FA:  MOVFF  2EE,2F2
057FE:  MOVFF  2ED,2F1
05802:  MOVFF  2EC,2F0
05806:  MOVLB  2
05808:  CLRF   xF7
0580A:  CLRF   xF6
0580C:  CLRF   xF5
0580E:  MOVLW  05
05810:  MOVWF  xF4
05812:  MOVLB  0
05814:  BRA    5770
....................    CHECK_50_and_CW_RESPOND(); 
05816:  CALL   466A
....................    return; 
0581A:  RETURN 0
.................... } 
....................  
.................... void CHECK_HKDATA(int8 in,int32 delaytime)                                       //funcion que carga el array HKDATA[] 
.................... { 
....................    fprintf(PC,"GET SENSOR DATA\r\n"); 
*
0474A:  MOVLW  90
0474C:  MOVWF  FF6
0474E:  MOVLW  0E
04750:  MOVWF  FF7
04752:  MOVLW  00
04754:  MOVWF  FF8
04756:  CALL   362C
....................    Delete_HKDATA();                                                              //borra el array HKDATA[] 
0475A:  RCALL  46F0
....................    waiting(delaytime);                                                           //espera 
0475C:  MOVFF  2F9,30A
04760:  MOVFF  2F8,309
04764:  MOVFF  2F7,308
04768:  MOVFF  2F6,307
0476C:  CALL   1FA2
....................    CHECK_50_and_CW_RESPOND(); 
04770:  RCALL  466A
....................    for(int num = 1; num < 11 - in; num++)                                        //[FAB] +X,-Y,-Z,+Y,-Xtemp_high,low(array[10] to [17]) 
04772:  MOVLW  01
04774:  MOVLB  2
04776:  MOVWF  xFA
04778:  MOVLW  0B
0477A:  BSF    FD8.0
0477C:  SUBFWB xF5,W
0477E:  SUBWF  xFA,W
04780:  BC    47EA
....................    { 
....................       HKDATA[num + 5+4] = in_HK[num + 2 - in];                                   //coloca los datos enviados por el FAB en el array HKDATA[] desde la posicion 10 al 17 
04782:  MOVLW  05
04784:  ADDWF  xFA,W
04786:  ADDLW  04
04788:  CLRF   03
0478A:  ADDLW  86
0478C:  MOVWF  01
0478E:  MOVLW  01
04790:  ADDWFC 03,F
04792:  MOVFF  03,2FC
04796:  MOVLW  02
04798:  ADDWF  xFA,W
0479A:  BSF    FD8.0
0479C:  SUBFWB xF5,W
0479E:  CLRF   03
047A0:  ADDLW  59
047A2:  MOVWF  FE9
047A4:  MOVLW  01
047A6:  ADDWFC 03,W
047A8:  MOVWF  FEA
047AA:  MOVFF  FEF,2FD
047AE:  MOVFF  2FC,FEA
047B2:  MOVFF  01,FE9
047B6:  MOVFF  2FD,FEF
....................      /* fputc(HKDATA[num + 5+4],PC); */                                              //imprime los datos desde la posicion 10 hasta 19 
....................       fprintf(PC,"%x,",HKDATA[num + 5+4]); 
047BA:  MOVLW  05
047BC:  ADDWF  xFA,W
047BE:  ADDLW  04
047C0:  CLRF   03
047C2:  ADDLW  86
047C4:  MOVWF  FE9
047C6:  MOVLW  01
047C8:  ADDWFC 03,W
047CA:  MOVWF  FEA
047CC:  MOVFF  FEF,311
047D0:  MOVLW  57
047D2:  MOVLB  3
047D4:  MOVWF  x12
047D6:  MOVLB  0
047D8:  CALL   1C3E
047DC:  MOVLW  2C
047DE:  BTFSS  F9E.4
047E0:  BRA    47DE
047E2:  MOVWF  FAD
047E4:  MOVLB  2
047E6:  INCF   xFA,F
047E8:  BRA    4778
....................    } 
....................     
....................    MEASURE_BC_TEMP();                                                            //lectura analogica y carga de la variable BC_temp_data_h y BC_temp_data_l 
047EA:  MOVLB  0
047EC:  RCALL  4712
....................    CHECK_50_and_CW_RESPOND();    
047EE:  RCALL  466A
....................    HKDATA[14+4] = BC_temp_data_h;                                                //+X temp high[18] 
047F0:  MOVFF  140,198
....................    HKDATA[15+4] = BC_temp_data_l;                                                //+X temp low[19] 
047F4:  MOVFF  142,199
....................     
....................    for(num = 9; num < FAB_SENSOR_size - 2; num++)                                //[FAB] from CPLD temp to Kill status(array[20] to [49]) 
047F8:  MOVLW  09
047FA:  MOVLB  2
047FC:  MOVWF  xFA
047FE:  MOVF   xFA,W
04800:  SUBLW  2A
04802:  BNC   486C
....................    { 
....................       HKDATA[num + 7+4] = in_HK[num + 2 - in]; 
04804:  MOVLW  07
04806:  ADDWF  xFA,W
04808:  ADDLW  04
0480A:  CLRF   03
0480C:  ADDLW  86
0480E:  MOVWF  01
04810:  MOVLW  01
04812:  ADDWFC 03,F
04814:  MOVFF  03,2FC
04818:  MOVLW  02
0481A:  ADDWF  xFA,W
0481C:  BSF    FD8.0
0481E:  SUBFWB xF5,W
04820:  CLRF   03
04822:  ADDLW  59
04824:  MOVWF  FE9
04826:  MOVLW  01
04828:  ADDWFC 03,W
0482A:  MOVWF  FEA
0482C:  MOVFF  FEF,2FD
04830:  MOVFF  2FC,FEA
04834:  MOVFF  01,FE9
04838:  MOVFF  2FD,FEF
....................       /*fputc(HKDATA[num + 7+4],PC);*/                                           //imprime los datos desde la posicion 20 hasta 49 
....................       fprintf(PC,"%x,",HKDATA[num + 7+4]); 
0483C:  MOVLW  07
0483E:  ADDWF  xFA,W
04840:  ADDLW  04
04842:  CLRF   03
04844:  ADDLW  86
04846:  MOVWF  FE9
04848:  MOVLW  01
0484A:  ADDWFC 03,W
0484C:  MOVWF  FEA
0484E:  MOVFF  FEF,311
04852:  MOVLW  57
04854:  MOVLB  3
04856:  MOVWF  x12
04858:  MOVLB  0
0485A:  CALL   1C3E
0485E:  MOVLW  2C
04860:  BTFSS  F9E.4
04862:  BRA    4860
04864:  MOVWF  FAD
04866:  MOVLB  2
04868:  INCF   xFA,F
0486A:  BRA    47FE
....................    } 
....................    FAB_DATA = 0;                                                                 //pone a cero la bandera 
0486C:  CLRF   x1A
....................    return; 
0486E:  MOVLB  0
04870:  RETURN 0
.................... } 
....................  
.................... void VERIFY_FABDATA(int32 delaytime1,int32 delaytime2) 
.................... { 
....................    for(int8 num = 0; num < 3; num++) 
04872:  MOVLB  2
04874:  CLRF   xF4
04876:  MOVF   xF4,W
04878:  SUBLW  02
0487A:  BNC   4920
....................    { 
....................       COMMAND_TO_FAB(delaytime1);                                                //funcion que envia comando al FAB y carga el array in_HK[] 
0487C:  MOVFF  2EF,2F8
04880:  MOVFF  2EE,2F7
04884:  MOVFF  2ED,2F6
04888:  MOVFF  2EC,2F5
0488C:  MOVLB  0
0488E:  RCALL  468E
....................       CHECK_50_and_CW_RESPOND(); 
04890:  RCALL  466A
....................       //FAB_DATA = 0; 
....................       if(in_HK[0] == 0x33)                                                       //gather sensor data by interrupt 
04892:  MOVLB  1
04894:  MOVF   x59,W
04896:  SUBLW  33
04898:  BNZ   48C2
....................       { 
....................          CHECK_HKDATA(2,delaytime2);                                             //funcion que carga el array HKDATA[118]  
0489A:  MOVLW  02
0489C:  MOVLB  2
0489E:  MOVWF  xF5
048A0:  MOVFF  2F3,2F9
048A4:  MOVFF  2F2,2F8
048A8:  MOVFF  2F1,2F7
048AC:  MOVFF  2F0,2F6
048B0:  MOVLB  0
048B2:  RCALL  474A
....................          CHECK_50_and_CW_RESPOND(); 
048B4:  RCALL  466A
....................          CHECK_FAB_RESPONSE = 1;                                                 //1 is succeeded to get response from FAB 
048B6:  MOVLW  01
048B8:  MOVLB  2
048BA:  MOVWF  x21
....................          break; 
048BC:  BRA    4920
....................       }else if(in_HK[1] == 0x33){ 
048BE:  BRA    4918
048C0:  MOVLB  1
048C2:  MOVF   x5A,W
048C4:  SUBLW  33
048C6:  BNZ   48F0
....................          //delay_ms(200); 
....................          CHECK_HKDATA(1,delaytime2); 
048C8:  MOVLW  01
048CA:  MOVLB  2
048CC:  MOVWF  xF5
048CE:  MOVFF  2F3,2F9
048D2:  MOVFF  2F2,2F8
048D6:  MOVFF  2F1,2F7
048DA:  MOVFF  2F0,2F6
048DE:  MOVLB  0
048E0:  RCALL  474A
....................          CHECK_50_and_CW_RESPOND(); 
048E2:  RCALL  466A
....................          CHECK_FAB_RESPONSE = 1;                                                 //1 is succeeded to get response from FAB 
048E4:  MOVLW  01
048E6:  MOVLB  2
048E8:  MOVWF  x21
....................          break; 
048EA:  BRA    4920
....................       }else if(in_HK[2] == 0x33){ 
048EC:  BRA    4918
048EE:  MOVLB  1
048F0:  MOVF   x5B,W
048F2:  SUBLW  33
048F4:  BNZ   491A
....................          //delay_ms(200); 
....................          CHECK_HKDATA(0,delaytime2); 
048F6:  MOVLB  2
048F8:  CLRF   xF5
048FA:  MOVFF  2F3,2F9
048FE:  MOVFF  2F2,2F8
04902:  MOVFF  2F1,2F7
04906:  MOVFF  2F0,2F6
0490A:  MOVLB  0
0490C:  RCALL  474A
....................          CHECK_50_and_CW_RESPOND(); 
0490E:  RCALL  466A
....................          CHECK_FAB_RESPONSE = 1;                                                 //1 is succeeded to get response from FAB 
04910:  MOVLW  01
04912:  MOVLB  2
04914:  MOVWF  x21
....................          break; 
04916:  BRA    4920
04918:  MOVLB  1
....................       } 
0491A:  MOVLB  2
0491C:  INCF   xF4,F
0491E:  BRA    4876
....................    } 
....................    return; 
04920:  MOVLB  0
04922:  RETURN 0
.................... } 
....................  
....................  
....................  
....................  
.................... void GET_RESET_DATA()                                                            //funcion que carga el array HKDATA con los datos del Reset PIC 
.................... { 
....................    RESET_DATA = 0; 
04924:  CLRF   xEB
....................    for(int i = 0; i < 6; i++) 
04926:  MOVLB  2
04928:  CLRF   xEC
0492A:  MOVF   xEC,W
0492C:  SUBLW  05
0492E:  BNC   4948
....................    { 
....................       COLLECT_RESET_DATA(); 
04930:  MOVLB  0
04932:  CALL   1FE0
....................       if(reset_bffr[0] == 0x8e) 
04936:  MOVF   xEC,W
04938:  SUBLW  8E
0493A:  BNZ   4942
....................       { 
....................          break; 
0493C:  MOVLB  2
0493E:  BRA    4948
04940:  MOVLB  0
....................       } 
04942:  MOVLB  2
04944:  INCF   xEC,F
04946:  BRA    492A
....................    }    
....................    CHECK_50_and_CW_RESPOND(); 
04948:  MOVLB  0
0494A:  RCALL  466A
....................    if(RESET_bffr[0] == 0x8e)                                                     //si el byte de cabecera es el correcto 
0494C:  MOVF   xEC,W
0494E:  SUBLW  8E
04950:  BNZ   4A38
....................    { 
....................       fprintf(PC,"\r\nRESET DATA OBTAINED\r\n"); 
04952:  MOVLW  A2
04954:  MOVWF  FF6
04956:  MOVLW  0E
04958:  MOVWF  FF7
0495A:  MOVLW  00
0495C:  MOVWF  FF8
0495E:  CALL   362C
....................       for(int num = 0; num < 5; num++)                                           //carga el array HKDATA con timedata en las posiciones 2 al 6 
04962:  MOVLB  2
04964:  CLRF   xED
04966:  MOVF   xED,W
04968:  SUBLW  04
0496A:  BNC   49CC
....................       { 
....................          HKDATA[num + 2] = reset_bffr[num + 1]; 
0496C:  MOVLW  02
0496E:  ADDWF  xED,W
04970:  CLRF   03
04972:  ADDLW  86
04974:  MOVWF  01
04976:  MOVLW  01
04978:  ADDWFC 03,F
0497A:  MOVFF  03,2EF
0497E:  MOVLW  01
04980:  ADDWF  xED,W
04982:  CLRF   03
04984:  ADDLW  EC
04986:  MOVWF  FE9
04988:  MOVLW  00
0498A:  ADDWFC 03,W
0498C:  MOVWF  FEA
0498E:  MOVFF  FEF,2F0
04992:  MOVFF  2EF,FEA
04996:  MOVFF  01,FE9
0499A:  MOVFF  2F0,FEF
....................          /* 
....................          fputc(HKDATA[num + 2],PC); 
....................          */ 
....................          fprintf(PC,"%x,",HKDATA[num + 2]);                                      //parte del test con serial monitor 
0499E:  MOVLW  02
049A0:  ADDWF  xED,W
049A2:  CLRF   03
049A4:  ADDLW  86
049A6:  MOVWF  FE9
049A8:  MOVLW  01
049AA:  ADDWFC 03,W
049AC:  MOVWF  FEA
049AE:  MOVFF  FEF,311
049B2:  MOVLW  57
049B4:  MOVLB  3
049B6:  MOVWF  x12
049B8:  MOVLB  0
049BA:  CALL   1C3E
049BE:  MOVLW  2C
049C0:  BTFSS  F9E.4
049C2:  BRA    49C0
049C4:  MOVWF  FAD
049C6:  MOVLB  2
049C8:  INCF   xED,F
049CA:  BRA    4966
....................       } 
....................     
....................       for(num = 0; num < 5; num++)                                               //carga el array HKDATA con reset sensor data en las posiciones 110 al 114 
049CC:  CLRF   xED
049CE:  MOVF   xED,W
049D0:  SUBLW  04
049D2:  BNC   4A34
....................       { 
....................          HKDATA[num + 116] = reset_bffr[num + 6];                                //carga el HKDATA[] con los datos del reset[] 
049D4:  MOVLW  74
049D6:  ADDWF  xED,W
049D8:  CLRF   03
049DA:  ADDLW  86
049DC:  MOVWF  01
049DE:  MOVLW  01
049E0:  ADDWFC 03,F
049E2:  MOVFF  03,2EF
049E6:  MOVLW  06
049E8:  ADDWF  xED,W
049EA:  CLRF   03
049EC:  ADDLW  EC
049EE:  MOVWF  FE9
049F0:  MOVLW  00
049F2:  ADDWFC 03,W
049F4:  MOVWF  FEA
049F6:  MOVFF  FEF,2F0
049FA:  MOVFF  2EF,FEA
049FE:  MOVFF  01,FE9
04A02:  MOVFF  2F0,FEF
....................          /* 
....................          fputc(HKDATA[num + 116],PC); 
....................          */ 
....................          fprintf(PC,"%x,",HKDATA[num + 116]);                                    //parte del test con serial monitor 
04A06:  MOVLW  74
04A08:  ADDWF  xED,W
04A0A:  CLRF   03
04A0C:  ADDLW  86
04A0E:  MOVWF  FE9
04A10:  MOVLW  01
04A12:  ADDWFC 03,W
04A14:  MOVWF  FEA
04A16:  MOVFF  FEF,311
04A1A:  MOVLW  57
04A1C:  MOVLB  3
04A1E:  MOVWF  x12
04A20:  MOVLB  0
04A22:  CALL   1C3E
04A26:  MOVLW  2C
04A28:  BTFSS  F9E.4
04A2A:  BRA    4A28
04A2C:  MOVWF  FAD
04A2E:  MOVLB  2
04A30:  INCF   xED,F
04A32:  BRA    49CE
....................       } 
....................    }else{ 
04A34:  BRA    4A4A
04A36:  MOVLB  0
....................       fprintf(PC,"\r\nRESET DATA NO OBTAINED\r\n"); 
04A38:  MOVLW  BA
04A3A:  MOVWF  FF6
04A3C:  MOVLW  0E
04A3E:  MOVWF  FF7
04A40:  MOVLW  00
04A42:  MOVWF  FF8
04A44:  CALL   362C
04A48:  MOVLB  2
....................    } 
....................    //Delete_Reset(); 
....................    return; 
04A4A:  MOVLB  0
04A4C:  RETURN 0
.................... } 
....................  
.................... void MAKE_ADCS_HKDATA()                                                          //carga en el array HKDATA[] los datos del ADCS en las posiciones 53 al 106 
.................... { 
....................    GET_ADCS_SENSOR_DATA();                                                       //funcion que carga el array ADCS_SENSOR_DATA[] con los datos del ADCS 
*
04BDA:  RCALL  4ADE
....................    CHECK_50_and_CW_RESPOND();    
04BDC:  RCALL  466A
....................    for(int num = 53; num < 113; num++)                                           //12byte(MAG6,GYRO6)+48byte(GPS) = 60 
04BDE:  MOVLW  35
04BE0:  MOVLB  2
04BE2:  MOVWF  xEC
04BE4:  MOVF   xEC,W
04BE6:  SUBLW  70
04BE8:  BNC   4C1E
....................    { 
....................       HKDATA[num] = ADCS_SENSOR_DATA[num - 52];                                  //ADCS[1] to ADCS[60] 
04BEA:  CLRF   03
04BEC:  MOVF   xEC,W
04BEE:  ADDLW  86
04BF0:  MOVWF  01
04BF2:  MOVLW  01
04BF4:  ADDWFC 03,F
04BF6:  MOVFF  03,2EF
04BFA:  MOVLW  34
04BFC:  SUBWF  xEC,W
04BFE:  CLRF   03
04C00:  ADDLW  9B
04C02:  MOVWF  FE9
04C04:  MOVLW  00
04C06:  ADDWFC 03,W
04C08:  MOVWF  FEA
04C0A:  MOVFF  FEF,2F0
04C0E:  MOVFF  2EF,FEA
04C12:  MOVFF  01,FE9
04C16:  MOVFF  2F0,FEF
04C1A:  INCF   xEC,F
04C1C:  BRA    4BE4
....................    } 
....................    for(int n = 1; n < 61; n++)                                             // SHOW IN SERIAL MONITOR 12byte(MAG6,GYRO6)+48byte(GPS) = 60 
04C1E:  MOVLW  01
04C20:  MOVWF  xED
04C22:  MOVF   xED,W
04C24:  SUBLW  3C
04C26:  BNC   4C54
....................    { 
....................       fprintf(PC,"%x,",ADCS_SENSOR_DATA[n]);                                    //ADCS[1] to ADCS[60] 
04C28:  CLRF   03
04C2A:  MOVF   xED,W
04C2C:  ADDLW  9B
04C2E:  MOVWF  FE9
04C30:  MOVLW  00
04C32:  ADDWFC 03,W
04C34:  MOVWF  FEA
04C36:  MOVFF  FEF,311
04C3A:  MOVLW  57
04C3C:  MOVLB  3
04C3E:  MOVWF  x12
04C40:  MOVLB  0
04C42:  CALL   1C3E
04C46:  MOVLW  2C
04C48:  BTFSS  F9E.4
04C4A:  BRA    4C48
04C4C:  MOVWF  FAD
04C4E:  MOVLB  2
04C50:  INCF   xED,F
04C52:  BRA    4C22
....................                                  
....................    } 
....................     
.................... //!   for(num = 65; num < 107; num++)                                            //60byte(GPS) 
.................... //!   { 
.................... //!      HKDATA[num] = ADCS_SENSOR_DATA[num - 34];//HKDATA[54] = ADCS_SENSOR_DATA[21]-->ADCS[21] to ADCS[62] 
.................... //!   } 
....................    return; 
04C54:  MOVLB  0
04C56:  RETURN 0
.................... } 
....................  
.................... void DISPLAY_CW()                                                                //funcion que imprime el array CW_FORMAT[] 
.................... { 
....................    fprintf(PC,"\r\nCW:\r\n"); 
*
054C4:  MOVLW  D6
054C6:  MOVWF  FF6
054C8:  MOVLW  0E
054CA:  MOVWF  FF7
054CC:  MOVLW  00
054CE:  MOVWF  FF8
054D0:  CALL   362C
....................    for(int8 i = 0; i < 5; i++) 
054D4:  MOVLB  2
054D6:  CLRF   xDC
054D8:  MOVF   xDC,W
054DA:  SUBLW  04
054DC:  BNC   5502
....................    { 
....................       fprintf(PC,"%x",CW_FORMAT[i]); 
054DE:  CLRF   03
054E0:  MOVF   xDC,W
054E2:  ADDLW  54
054E4:  MOVWF  FE9
054E6:  MOVLW  01
054E8:  ADDWFC 03,W
054EA:  MOVWF  FEA
054EC:  MOVFF  FEF,311
054F0:  MOVLW  57
054F2:  MOVLB  3
054F4:  MOVWF  x12
054F6:  MOVLB  0
054F8:  CALL   1C3E
054FC:  MOVLB  2
054FE:  INCF   xDC,F
05500:  BRA    54D8
....................    } 
....................    fprintf(PC,"\r\n"); 
05502:  MOVLW  0D
05504:  BTFSS  F9E.4
05506:  BRA    5504
05508:  MOVWF  FAD
0550A:  MOVLW  0A
0550C:  BTFSS  F9E.4
0550E:  BRA    550C
05510:  MOVWF  FAD
....................    CHECK_50_and_CW_RESPOND();    
05512:  MOVLB  0
05514:  CALL   466A
....................    return; 
05518:  GOTO   5988 (RETURN)
.................... } 
....................  
.................... void SET_IDENTIFIER() 
.................... { 
....................    CHECK_50_and_CW_RESPOND(); 
*
05494:  CALL   466A
....................    HKDATA[0] = 0x33; 
05498:  MOVLW  33
0549A:  MOVLB  1
0549C:  MOVWF  x86
....................    HKDATA[1] = 0x33; 
0549E:  MOVWF  x87
....................    HKDATA[7] = 0xAA; 
054A0:  MOVLW  AA
054A2:  MOVWF  x8D
....................    HKDATA[8] = 0xAA; 
054A4:  MOVWF  x8E
....................    HKDATA[9] = 0xAA; 
054A6:  MOVWF  x8F
....................    HKDATA[50] = 0xBB; 
054A8:  MOVLW  BB
054AA:  MOVWF  xB8
....................    HKDATA[51] = 0xBB; 
054AC:  MOVWF  xB9
....................    HKDATA[52] = 0xBB; 
054AE:  MOVWF  xBA
....................    HKDATA[113] = 0xCC; 
054B0:  MOVLW  CC
054B2:  MOVWF  xF7
....................    HKDATA[114] = 0xCC; 
054B4:  MOVWF  xF8
....................    HKDATA[115] = 0xCC; 
054B6:  MOVWF  xF9
....................    HKDATA[122] = 0x44; 
054B8:  MOVLW  44
054BA:  MOVLB  2
054BC:  MOVWF  x00
....................    HKDATA[123] = 0x44; 
054BE:  MOVWF  x01
....................    return; 
054C0:  MOVLB  0
054C2:  RETURN 0
.................... } 
....................  
.................... void FAB_TEST_OPERATION() 
.................... { 
....................    Delete_in_HK();                                                               //Borra el array in_HK[124] 
*
0581C:  CALL   3FC8
....................    LOOP_FAB_HK_ADDRESS();                                                        //Rota las posiciones de guardado de los datos si llega al final del espacio asignado  
05820:  CALL   3FEA
....................    LOOP_FAB_CW_ADDRESS();                                                        //Rota las posiciones de guardado de los datos si llega al final del espacio asignado 
05824:  CALL   4148
....................    CHECK_50_and_CW_RESPOND();                                                    //verifica si llego comando 0x50 desde COM PIC y envia CW al COM 
05828:  CALL   466A
....................    LOOP_FAB_HK_ADDRESS();                                                        //Rota las posiciones de guardado de los datos si llega al final del espacio asignado 
0582C:  CALL   3FEA
....................    CHECK_50_and_CW_RESPOND();                                                    //verifica si llego comando 0x50 desde COM PIC y envia CW al COM 
05830:  CALL   466A
....................    LOOP_FAB_CW_ADDRESS();                                                        //Rota las posiciones de guardado de los datos si llega al final del espacio asignado 
05834:  CALL   4148
....................    CHECK_50_and_CW_RESPOND();                                                    //verifica si llego comando 0x50 desde COM PIC y envia CW al COM 
05838:  CALL   466A
....................    Turn_ON_ADCS();                                                               //turn ON ADCS, RD6 = HIGH                                                                
0583C:  CALL   2B78
....................    //fprintf(PC,"FAB communication start\r\n"); 
....................    waiting(200000);                                                              //wait function, about 200.000=1s 
05840:  MOVLB  3
05842:  CLRF   x0A
05844:  MOVLW  03
05846:  MOVWF  x09
05848:  MOVLW  0D
0584A:  MOVWF  x08
0584C:  MOVLW  40
0584E:  MOVWF  x07
05850:  MOVLB  0
05852:  CALL   1FA2
....................    FAB_MEASUERING_FLAG++;                                                        //count until 7(it means 10 min) 
05856:  MOVLB  2
05858:  INCF   x1B,F
....................    FAB_DATA = 0;                                                                 //for initialize 
0585A:  CLRF   x1A
....................     
.................... //   fprintf(PC,"SENDING COMMAND TO FAB\r\n"); 
....................    CHECK_50_and_CW_RESPOND();                                                    //verifica si llego comando 0x50 desde COM PIC y envia CW al COM 
0585C:  MOVLB  0
0585E:  CALL   466A
....................    VERIFY_FABDATA(130000,2000);//delaytime1 and delaytime2                       //envia comando al FAB y Carga el array in_HK[] con los datos del FAB 
05862:  MOVLB  2
05864:  CLRF   xEF
05866:  MOVLW  01
05868:  MOVWF  xEE
0586A:  MOVLW  FB
0586C:  MOVWF  xED
0586E:  MOVLW  D0
05870:  MOVWF  xEC
05872:  CLRF   xF3
05874:  CLRF   xF2
05876:  MOVLW  07
05878:  MOVWF  xF1
0587A:  MOVLW  D0
0587C:  MOVWF  xF0
0587E:  MOVLB  0
05880:  CALL   4872
....................    CHECK_50_and_CW_RESPOND(); 
05884:  CALL   466A
....................     
....................    GET_RESET_DATA();                                                             //envia comando al reset PIC y Carga el array HKDATA[] con los datos del Reset PIC 
05888:  CALL   4924
....................     
....................    MAKE_ADCS_HKDATA();                                                           //carga en el array HKDATA[] los datos del ADCS en las posiciones 53 al 106 
0588C:  CALL   4BDA
....................     
.................... // Turn_OFF_ADCS();                                                              //ADCS switch OFF, RD6=0 
....................    CHECK_50_and_CW_RESPOND(); 
05890:  CALL   466A
....................    MAKE_CW_FORMAT();                                                             //make CW format 
05894:  RCALL  5488
....................    CHECK_50_and_CW_RESPOND();    
05896:  CALL   466A
....................    SET_IDENTIFIER();                                                             //carga el HKDATA[] con los identificadores   
0589A:  RCALL  5494
....................    if(CHECK_FAB_RESPONSE)                                                        //Si HKDATA[] se cargo con los datos del FAB y realizado el CW format 
0589C:  MOVLB  2
0589E:  MOVF   x21,F
058A0:  BTFSC  FD8.2
058A2:  BRA    5A36
....................    { 
....................       fprintf(PC,"\r\nCollecting HK and Making CWFormat Done\r\n"); 
058A4:  MOVLW  DE
058A6:  MOVWF  FF6
058A8:  MOVLW  0E
058AA:  MOVWF  FF7
058AC:  MOVLW  00
058AE:  MOVWF  FF8
058B0:  MOVLB  0
058B2:  CALL   362C
....................  
....................       fprintf(PC,"\r\nHK data:\r\n"); 
058B6:  MOVLW  0A
058B8:  MOVWF  FF6
058BA:  MOVLW  0F
058BC:  MOVWF  FF7
058BE:  MOVLW  00
058C0:  MOVWF  FF8
058C2:  CALL   362C
....................  
....................       CHECK_50_and_CW_RESPOND(); 
058C6:  CALL   466A
....................        
....................       for(int num = 0; num < 65; num++)                                          //array[0] to [64](until gyro data) 
058CA:  MOVLB  2
058CC:  CLRF   xDA
058CE:  MOVF   xDA,W
058D0:  SUBLW  40
058D2:  BNC   5900
....................       { 
....................          fprintf(PC,"%x,",HKDATA[num]); 
058D4:  CLRF   03
058D6:  MOVF   xDA,W
058D8:  ADDLW  86
058DA:  MOVWF  FE9
058DC:  MOVLW  01
058DE:  ADDWFC 03,W
058E0:  MOVWF  FEA
058E2:  MOVFF  FEF,311
058E6:  MOVLW  57
058E8:  MOVLB  3
058EA:  MOVWF  x12
058EC:  MOVLB  0
058EE:  CALL   1C3E
058F2:  MOVLW  2C
058F4:  BTFSS  F9E.4
058F6:  BRA    58F4
058F8:  MOVWF  FAD
058FA:  MOVLB  2
058FC:  INCF   xDA,F
058FE:  BRA    58CE
....................       } 
....................       CHECK_50_and_CW_RESPOND(); 
05900:  MOVLB  0
05902:  CALL   466A
....................       for(num = 65; num < 113; num++)                                            //GPS 60 byte should be shown as char type 
05906:  MOVLW  41
05908:  MOVLB  2
0590A:  MOVWF  xDA
0590C:  MOVF   xDA,W
0590E:  SUBLW  70
05910:  BNC   593E
....................       { 
....................          //fputc(HKDATA[num],PC); 
....................          fprintf(PC,"%x,",HKDATA[num]);                                          //solo para test 
05912:  CLRF   03
05914:  MOVF   xDA,W
05916:  ADDLW  86
05918:  MOVWF  FE9
0591A:  MOVLW  01
0591C:  ADDWFC 03,W
0591E:  MOVWF  FEA
05920:  MOVFF  FEF,311
05924:  MOVLW  57
05926:  MOVLB  3
05928:  MOVWF  x12
0592A:  MOVLB  0
0592C:  CALL   1C3E
05930:  MOVLW  2C
05932:  BTFSS  F9E.4
05934:  BRA    5932
05936:  MOVWF  FAD
05938:  MOVLB  2
0593A:  INCF   xDA,F
0593C:  BRA    590C
....................       } 
....................       CHECK_50_and_CW_RESPOND(); 
0593E:  MOVLB  0
05940:  CALL   466A
....................       for(num = 113; num < HK_Size; num++)                                       //array[113] to [124] 
05944:  MOVLW  71
05946:  MOVLB  2
05948:  MOVWF  xDA
0594A:  MOVF   xDA,W
0594C:  SUBLW  7B
0594E:  BNC   5980
....................       { 
....................          fprintf(PC,",%x",HKDATA[num]); 
05950:  CLRF   03
05952:  MOVF   xDA,W
05954:  ADDLW  86
05956:  MOVWF  FE9
05958:  MOVLW  01
0595A:  ADDWFC 03,W
0595C:  MOVWF  FEA
0595E:  MOVFF  FEF,2DC
05962:  MOVLW  2C
05964:  BTFSS  F9E.4
05966:  BRA    5964
05968:  MOVWF  FAD
0596A:  MOVFF  2DC,311
0596E:  MOVLW  57
05970:  MOVLB  3
05972:  MOVWF  x12
05974:  MOVLB  0
05976:  CALL   1C3E
0597A:  MOVLB  2
0597C:  INCF   xDA,F
0597E:  BRA    594A
....................       }      
....................       CHECK_50_and_CW_RESPOND(); 
05980:  MOVLB  0
05982:  CALL   466A
....................        
....................       DISPLAY_CW();                                                              //funcion que imprime el array CW_FORMAT[] 
05986:  BRA    54C4
....................       CHECK_FAB_RESPONSE = 0;                                                    //bandera FAB a cero      
05988:  MOVLB  2
0598A:  CLRF   x21
....................       output_low(PIN_C4);                                                        //COM Flash memory Main side 
0598C:  BCF    F94.4
0598E:  BCF    F8B.4
....................       output_low(PIN_A5); 
05990:  BCF    F92.5
05992:  BCF    F89.5
....................       //sector_erase_SCF(65536*50); 
....................       //sector_erase_SCF(65536*51); 
....................       SEND_HKDATA_to_SCF(FAB_HK_ADDRESS);                                        //guarda en COM flash el array HKDATA[] 
05994:  MOVFF  4B,2EF
05998:  MOVFF  4A,2EE
0599C:  MOVFF  49,2ED
059A0:  MOVFF  48,2EC
059A4:  MOVLB  0
059A6:  RCALL  557A
....................       SEND_HKDATA_to_SMF(FAB_HK_ADDRESS); 
059A8:  MOVFF  4B,2EF
059AC:  MOVFF  4A,2EE
059B0:  MOVFF  49,2ED
059B4:  MOVFF  48,2EC
059B8:  RCALL  55EC
....................       SEND_HKDATA_to_OF(FAB_HK_ADDRESS);                                         //guarda en Main flash el array HKDATA[] 
059BA:  MOVFF  4B,2EF
059BE:  MOVFF  4A,2EE
059C2:  MOVFF  49,2ED
059C6:  MOVFF  48,2EC
059CA:  RCALL  565A
....................       SEND_CWFORMAT_TO_SCF(FAB_CW_ADDRESS);                                      //guarda en COM flash el array CWFORMAT[] 
059CC:  MOVFF  4F,2EF
059D0:  MOVFF  4E,2EE
059D4:  MOVFF  4D,2ED
059D8:  MOVFF  4C,2EC
059DC:  RCALL  56CE
....................       SEND_CWFORMAT_TO_SMF(FAB_CW_ADDRESS); 
059DE:  MOVFF  4F,2EF
059E2:  MOVFF  4E,2EE
059E6:  MOVFF  4D,2ED
059EA:  MOVFF  4C,2EC
059EE:  RCALL  5740
....................       SEND_CWFORMAT_TO_OF(FAB_CW_ADDRESS);                                       //guarda en Main flash el array CWFORMAT[] 
059F0:  MOVFF  4F,2EF
059F4:  MOVFF  4E,2EE
059F8:  MOVFF  4D,2ED
059FC:  MOVFF  4C,2EC
05A00:  RCALL  57E4
....................       FAB_HK_ADDRESS = FAB_HK_ADDRESS + HK_size;                                 //prepare for next storing address 
05A02:  MOVLW  7C
05A04:  ADDWF  48,F
05A06:  MOVLW  00
05A08:  ADDWFC 49,F
05A0A:  ADDWFC 4A,F
05A0C:  ADDWFC 4B,F
....................       FAB_CW_ADDRESS = FAB_CW_ADDRESS + CW_size;                                 //prepare for next storing address 
05A0E:  MOVLW  05
05A10:  ADDWF  4C,F
05A12:  MOVLW  00
05A14:  ADDWFC 4D,F
05A16:  ADDWFC 4E,F
05A18:  ADDWFC 4F,F
....................       fprintf(PC,"\r\nSENSORS DATA SAVED ON FLASH\r\n"); 
05A1A:  MOVLW  18
05A1C:  MOVWF  FF6
05A1E:  MOVLW  0F
05A20:  MOVWF  FF7
05A22:  MOVLW  00
05A24:  MOVWF  FF8
05A26:  CALL   362C
....................       output_high(PIN_C4);                                                       //COM Flash memory COM side 
05A2A:  BCF    F94.4
05A2C:  BSF    F8B.4
....................       CHECK_50_and_CW_RESPOND(); 
05A2E:  CALL   466A
....................    }else{ 
05A32:  BRA    5B0C
05A34:  MOVLB  2
....................       SEND_HKDATA_to_SCF(FAB_HK_ADDRESS);                                        //guarda en COM flash el array HKDATA[] 
05A36:  MOVFF  4B,2EF
05A3A:  MOVFF  4A,2EE
05A3E:  MOVFF  49,2ED
05A42:  MOVFF  48,2EC
05A46:  MOVLB  0
05A48:  RCALL  557A
....................       SEND_HKDATA_to_SMF(FAB_HK_ADDRESS); 
05A4A:  MOVFF  4B,2EF
05A4E:  MOVFF  4A,2EE
05A52:  MOVFF  49,2ED
05A56:  MOVFF  48,2EC
05A5A:  RCALL  55EC
....................       SEND_HKDATA_to_OF(FAB_HK_ADDRESS);                                         //guarda en Main flash el array HKDATA[] 
05A5C:  MOVFF  4B,2EF
05A60:  MOVFF  4A,2EE
05A64:  MOVFF  49,2ED
05A68:  MOVFF  48,2EC
05A6C:  RCALL  565A
....................       SEND_CWFORMAT_TO_SCF(FAB_CW_ADDRESS);                                      //guarda en COM flash el array CWFORMAT[] 
05A6E:  MOVFF  4F,2EF
05A72:  MOVFF  4E,2EE
05A76:  MOVFF  4D,2ED
05A7A:  MOVFF  4C,2EC
05A7E:  RCALL  56CE
....................       SEND_CWFORMAT_TO_SMF(FAB_CW_ADDRESS); 
05A80:  MOVFF  4F,2EF
05A84:  MOVFF  4E,2EE
05A88:  MOVFF  4D,2ED
05A8C:  MOVFF  4C,2EC
05A90:  RCALL  5740
....................       SEND_CWFORMAT_TO_OF(FAB_CW_ADDRESS);                                       //guarda en Main flash el array CWFORMAT[] 
05A92:  MOVFF  4F,2EF
05A96:  MOVFF  4E,2EE
05A9A:  MOVFF  4D,2ED
05A9E:  MOVFF  4C,2EC
05AA2:  RCALL  57E4
....................       FAB_HK_ADDRESS = FAB_HK_ADDRESS + HK_size;                                 //prepare for next storing address 
05AA4:  MOVLW  7C
05AA6:  ADDWF  48,F
05AA8:  MOVLW  00
05AAA:  ADDWFC 49,F
05AAC:  ADDWFC 4A,F
05AAE:  ADDWFC 4B,F
....................       FAB_CW_ADDRESS = FAB_CW_ADDRESS + CW_size;                                 //prepare for next storing address 
05AB0:  MOVLW  05
05AB2:  ADDWF  4C,F
05AB4:  MOVLW  00
05AB6:  ADDWFC 4D,F
05AB8:  ADDWFC 4E,F
05ABA:  ADDWFC 4F,F
....................       fprintf(PC,"NO RESPONSE FROM FAB\r\n\r\n");   
05ABC:  MOVLW  38
05ABE:  MOVWF  FF6
05AC0:  MOVLW  0F
05AC2:  MOVWF  FF7
05AC4:  MOVLW  00
05AC6:  MOVWF  FF8
05AC8:  CALL   362C
....................       CHECK_50_and_CW_RESPOND(); 
05ACC:  CALL   466A
....................       for(int num = 0; num < HK_size; num++) 
05AD0:  MOVLB  2
05AD2:  CLRF   xDB
05AD4:  MOVF   xDB,W
05AD6:  SUBLW  7B
05AD8:  BNC   5B06
....................       { 
....................          fprintf(PC,"%x,",HKDATA[num]); 
05ADA:  CLRF   03
05ADC:  MOVF   xDB,W
05ADE:  ADDLW  86
05AE0:  MOVWF  FE9
05AE2:  MOVLW  01
05AE4:  ADDWFC 03,W
05AE6:  MOVWF  FEA
05AE8:  MOVFF  FEF,311
05AEC:  MOVLW  57
05AEE:  MOVLB  3
05AF0:  MOVWF  x12
05AF2:  MOVLB  0
05AF4:  CALL   1C3E
05AF8:  MOVLW  2C
05AFA:  BTFSS  F9E.4
05AFC:  BRA    5AFA
05AFE:  MOVWF  FAD
05B00:  MOVLB  2
05B02:  INCF   xDB,F
05B04:  BRA    5AD4
....................       } 
....................       CHECK_50_and_CW_RESPOND(); 
05B06:  MOVLB  0
05B08:  CALL   466A
....................     
....................    } 
....................     
....................    return; 
05B0C:  RETURN 0
.................... } 
.................... /* 
.................... void SAVE_ADCS_INITIAL_and_FINAL(int32 ADDRESS) 
.................... { 
....................    output_low(PIN_C4); 
....................    output_low(PIN_A5); 
....................    for(int i = 0; i < 90; i++)//put initial 90byte(9byte for time + 81byte for MSN) 
....................    { 
....................       WRITE_DATA_BYTE_OF(ADCS_SENSOR_ADDRESS+i,READ_DATA_BYTE_OF(ADDRESS+i)); 
....................    } 
....................    for(i = 0; i < 90; i++)//put initial 90byte(9byte for time + 81byte for MSN) 
....................    { 
....................       WRITE_DATA_BYTE_SCF(ADCS_SENSOR_ADDRESS+i,READ_DATA_BYTE_OF(ADDRESS+i)); 
....................    } 
....................    for(i = 0; i < 90; i++)//put initial 90byte(9byte for time + 81byte for MSN) 
....................    { 
....................       WRITE_DATA_BYTE_SMF(ADCS_SENSOR_ADDRESS+i,READ_DATA_BYTE_OF(ADDRESS+i)); 
....................    } 
....................     
....................    ADCS_SENSOR_ADDRESS = ADCS_SENSOR_ADDRESS + 90; 
....................     
....................    for(i = 0; i < 81; i++)//put final 81 byte 
....................    { 
....................       WRITE_DATA_BYTE_OF(ADCS_SENSOR_ADDRESS+i,READ_DATA_BYTE_OF(ADCS_SENSOR_ADDRESS-171+i)); 
....................    } 
....................    for(i = 0; i < 81; i++)//put final 81 byte 
....................    { 
....................       WRITE_DATA_BYTE_SCF(ADCS_SENSOR_ADDRESS+i,READ_DATA_BYTE_OF(ADCS_SENSOR_ADDRESS-171+i)); 
....................    } 
....................    for(i = 0; i < 81; i++)//put final 81 byte 
....................    { 
....................       WRITE_DATA_BYTE_SMF(ADCS_SENSOR_ADDRESS+i,READ_DATA_BYTE_OF(ADCS_SENSOR_ADDRESS-171+i)); 
....................    } 
....................    ADCS_SENSOR_ADDRESS = ADCS_SENSOR_ADDRESS + 81; 
....................    output_high(PIN_C4); 
....................    return; 
.................... } 
....................  
.................... void GET_INITIAL_TIME() 
.................... { 
....................    COLLECT_RESET_DATA(); 
....................     
....................    WRITE_DATA_BYTE_OF(ADCS_SENSOR_ADDRESS,0xdd);//header 
....................    WRITE_DATA_BYTE_OF(ADCS_SENSOR_ADDRESS + 1,0xdd);//header 
....................    for(int i = 1; i < 6; i++){ 
....................       WRITE_DATA_BYTE_OF(ADCS_SENSOR_ADDRESS+1+i,reset_bffr[i]); 
....................    } 
....................    WRITE_DATA_BYTE_OF(ADCS_SENSOR_ADDRESS + 7,0xdd);//footer 
....................    WRITE_DATA_BYTE_OF(ADCS_SENSOR_ADDRESS + 8,0xdd);//footer 
....................     
....................    output_low(PIN_C4);//COM_MUX MAINSIDE 
....................    WRITE_DATA_BYTE_SCF(ADCS_SENSOR_ADDRESS,0xdd);//header 
....................    WRITE_DATA_BYTE_SCF(ADCS_SENSOR_ADDRESS + 1,0xdd);//header 
....................    for(i = 1; i < 6; i++){ 
....................       WRITE_DATA_BYTE_SCF(ADCS_SENSOR_ADDRESS+1+i,reset_bffr[i]); 
....................    } 
....................    WRITE_DATA_BYTE_SCF(ADCS_SENSOR_ADDRESS + 7,0xdd);//footer 
....................    WRITE_DATA_BYTE_SCF(ADCS_SENSOR_ADDRESS + 8,0xdd);//footer 
....................    output_high(PIN_C4); 
....................     
....................    output_low(PIN_A5);//CAM_MUX MAINSIDE 
....................    WRITE_DATA_BYTE_SMF(ADCS_SENSOR_ADDRESS,0xdd);//heade 
....................    WRITE_DATA_BYTE_SMF(ADCS_SENSOR_ADDRESS + 1,0xdd);//header 
....................    for(i = 1; i < 6; i++){ 
....................       WRITE_DATA_BYTE_SMF(ADCS_SENSOR_ADDRESS+1+i,reset_bffr[i]); 
....................    } 
....................    WRITE_DATA_BYTE_SMF(ADCS_SENSOR_ADDRESS + 7,0xdd);//footer 
....................    WRITE_DATA_BYTE_SMF(ADCS_SENSOR_ADDRESS + 8,0xdd);//footer 
....................     
....................    ADCS_SENSOR_ADDRESS = ADCS_SENSOR_ADDRESS + 9;//total 9byte for time info 
....................    //5 byte time info and 2 byte header and 2 byte footer 
....................    return; 
.................... } 
.................... */ 
.................... //@@@@@@@@@@@@@@@@@@@@@@@@@@@@@@@@@@@@@@@@@@@@@@@@@@@@@@@@@@@@@@@@@@@@@@@@@@@@@@@@@@@@@@@@@@@@@@@@@@@@@@@@@@ 
.................... /*void GET_ADCS_MSN_DATA() 
.................... { 
....................    int a = 1; 
....................    if(kbhit(ADCS)&&fgetc(ADCS) == 0x57) 
....................    { 
....................       for(int32 n= 0; n < 300000; n++) 
....................       { 
....................          if(kbhit(ADCS)) 
....................          { 
....................             ADCS_SENSOR_DATA[a] = fgetc(ADCS);//[1] to [72] 
....................             a++;//after input everything, a = 73 
....................          } 
....................          if(a == 73) 
....................          { 
....................             break; 
....................          } 
....................       } 
....................       for(int i = 76; i > 70 ; i--)//6 byte [76] to [70] --> Duty XYZ 
....................       { 
....................          ADCS_SENSOR_DATA[i] = ADCS_SENSOR_DATA[i-4];//ADCS_SENSOR_DATA[76] is ADCS_SENSOR_DATA[72] 
....................       } 
....................       for(i = 68; i > 20 ; i--)//48 byte [68] to [21] --> GPS 
....................       { 
....................          ADCS_SENSOR_DATA[i] = ADCS_SENSOR_DATA[i-2];//ADCS_SENSOR_DATA[68] is ADCS_SENSOR_DATA[66] 
....................       } 
....................           
....................       ADCS_SENSOR_DATA[0] = 0x57; 
....................       ADCS_SENSOR_DATA[19] = 0xee; 
....................       ADCS_SENSOR_DATA[20] = 0xee; 
....................       ADCS_SENSOR_DATA[69] = 0x58; 
....................       ADCS_SENSOR_DATA[70] = 0x58; 
....................       ADCS_SENSOR_DATA[77] = 0x59; 
....................              
....................       int8 a = (int8)(currenttime >> 8); 
....................       int8 b = (int8)(currenttime); 
....................       output_low(PIN_C4); 
....................       output_low(PIN_A5); 
....................       WRITE_DATA_BYTE_OF(ADCS_SENSOR_ADDRESS,0x56);//header 
....................       WRITE_DATA_BYTE_SCF(ADCS_SENSOR_ADDRESS,0x56);//header 
....................       WRITE_DATA_BYTE_SMF(ADCS_SENSOR_ADDRESS,0x56);//header 
....................              
....................       WRITE_DATA_BYTE_OF(ADCS_SENSOR_ADDRESS+1,a); 
....................       WRITE_DATA_BYTE_OF(ADCS_SENSOR_ADDRESS+2,b); 
....................       WRITE_DATA_BYTE_SCF(ADCS_SENSOR_ADDRESS+1,a); 
....................       WRITE_DATA_BYTE_SCF(ADCS_SENSOR_ADDRESS+2,b); 
....................       WRITE_DATA_BYTE_SMF(ADCS_SENSOR_ADDRESS+1,a); 
....................       WRITE_DATA_BYTE_SMF(ADCS_SENSOR_ADDRESS+2,b); 
....................       for(i = 0; i < ADCS_SENSOR_SIZE; i++)// save everything to frash memory 
....................       { 
....................          WRITE_DATA_BYTE_OF(ADCS_SENSOR_ADDRESS + 3 + i,ADCS_SENSOR_DATA[i]); 
....................          WRITE_DATA_BYTE_SCF(ADCS_SENSOR_ADDRESS + 3 + i,ADCS_SENSOR_DATA[i]); 
....................          WRITE_DATA_BYTE_SMF(ADCS_SENSOR_ADDRESS + 3 + i,ADCS_SENSOR_DATA[i]); 
....................       } 
....................       output_high(PIN_C4); 
....................       fprintf(PC,"\r\n%ld,",currenttime); 
....................       fprintf(PC,"%x",READ_DATA_BYTE_OF(ADCS_SENSOR_ADDRESS+3));//ack 
....................       fprintf(PC,","); 
....................              
....................       for(i = 4; i < 22; i++)// show the data-->Magnetometer XYZ, Gyro XYZ, Cur sensor XYZ 
....................       { 
....................          fprintf(PC,"%x",READ_DATA_BYTE_OF(ADCS_SENSOR_ADDRESS+i)); 
....................          i++; 
....................          fprintf(PC,"%x,",READ_DATA_BYTE_OF(ADCS_SENSOR_ADDRESS+i)); 
....................          ADCS_SENSOR_DATA[i] = 0; 
....................       } 
....................              
....................       fprintf(PC,"%x",READ_DATA_BYTE_OF(ADCS_SENSOR_ADDRESS+22));//0xEE 
....................       fprintf(PC,"%x",READ_DATA_BYTE_OF(ADCS_SENSOR_ADDRESS+23));//0xEE 
....................       fprintf(PC,","); 
....................              
....................       for(i = 24; i < 72; i++)// show the data(GPS)-->48byte 
....................       { 
....................          //fprintf(PC,"%c",READ_DATA_BYTE_OF(ADCS_SENSOR_ADDRESS+i)); 
....................          fputc(READ_DATA_BYTE_OF(ADCS_SENSOR_ADDRESS+i),PC); 
....................          ADCS_SENSOR_DATA[i] = 0; 
....................       } 
....................              
....................       fprintf(PC,","); 
....................       fprintf(PC,"%x",READ_DATA_BYTE_OF(ADCS_SENSOR_ADDRESS+84));//0x58 
....................       fprintf(PC,"%x",READ_DATA_BYTE_OF(ADCS_SENSOR_ADDRESS+85));//0x58 
....................       fprintf(PC,","); 
....................              
....................       for(i = 74; i < ADCS_SENSOR_SIZE+2; i++)// show the duty data-->6byte 
....................       { 
....................          fprintf(PC,"%x,",(READ_DATA_BYTE_OF(ADCS_SENSOR_ADDRESS+i))); 
....................          ADCS_SENSOR_DATA[i] = 0; 
....................          i++; 
....................          fprintf(PC,"%x,",(READ_DATA_BYTE_OF(ADCS_SENSOR_ADDRESS+i))); 
....................          ADCS_SENSOR_DATA[i] = 0; 
....................       } 
....................       ADCS_SENSOR_ADDRESS = ADCS_SENSOR_ADDRESS + ADCS_SENSOR_SIZE + 3; 
....................    } 
....................    return; 
.................... }*/ 
.................... //@@@@@@@@@@@@@@@@@@@@@@@@@@@@@@@@@@@@@@@@@@@@@@@@@@@@@@@@@@@@@@@@@@@@@@@@@@@@@@@@@@@@@@@@@@@@@@@@@@@@@@@@@@ 
....................  
....................  
....................  
.................... int32 beginning_of_operation = 0; 
.................... //OPERATION_MODE 
.................... /*#define NOMAL_ADCS_MSN 0x22*/ 
.................... #define NOMAL_ADCS_MSN 0x78                                                      //comando esperado por hisatsugu 
.................... #define AUTO_ADCS_MSN 0x27 
.................... void ADCS_TEST_OPERATION(unsigned int16 duration, int8 OPERATION_MODE)           //Integration Testing With ADCS 
*
0A4F4:  MOVLB  2
0A4F6:  CLRF   xEA
.................... { 
....................    int8 count = 0; 
....................    LOOP_ADCS_SENSOR_ADDRESS(); 
0A4F8:  MOVLB  0
0A4FA:  BRA    A2E4
....................    ADCS_SETTINGS(); 
0A4FC:  BRA    A494
....................    beginning_of_operation = ADCS_SENSOR_ADDRESS; 
0A4FE:  MOVFF  53,272
0A502:  MOVFF  52,271
0A506:  MOVFF  51,270
0A50A:  MOVFF  50,26F
....................     
.................... /*   GET_INITIAL_TIME(); */ 
....................    fprintf(PC,"Turn On ADCS \r\n"); 
0A50E:  MOVLW  52
0A510:  MOVWF  FF6
0A512:  MOVLW  0F
0A514:  MOVWF  FF7
0A516:  MOVLW  00
0A518:  MOVWF  FF8
0A51A:  CALL   362C
....................    Turn_On_ADCS();                                                               //Turn on ADCS 
0A51E:  CALL   2B78
....................    /*delay_ms(8000);*/ 
....................     
....................    fputc(0x21,ADCS);                                                             //ADCS hand shake 
0A522:  MOVLW  21
0A524:  MOVLB  2
0A526:  MOVWF  xF7
0A528:  MOVLB  0
0A52A:  CALL   4A4E
....................  
....................    CHECK_ACK_FROM_ADCS_10k(); 
0A52E:  RCALL  A4A2
....................    if(ADCS_ACK == 0x55)                                                            //Success ACK 
0A530:  MOVF   xE9,W
0A532:  SUBLW  55
0A534:  BNZ   A562
....................    { 
....................       fprintf(PC,"Received ACK From ADCS\r\n"); 
0A536:  MOVLW  62
0A538:  MOVWF  FF6
0A53A:  MOVLW  0F
0A53C:  MOVWF  FF7
0A53E:  MOVLW  00
0A540:  MOVWF  FF8
0A542:  CALL   362C
....................       //delay_ms(1000); 
....................       ADCS_ACK = 0; 
0A546:  CLRF   xE9
....................       fputc(OPERATION_MODE,adcs);                                                   //for execute stabilize mission 
0A548:  MOVFF  2E9,2F7
0A54C:  CALL   4A4E
....................       fprintf(PC,"Sent OPERATION MODE to ADCS\r\n"); 
0A550:  MOVLW  7C
0A552:  MOVWF  FF6
0A554:  MOVLW  0F
0A556:  MOVWF  FF7
0A558:  MOVLW  00
0A55A:  MOVWF  FF8
0A55C:  CALL   362C
....................    }else{ 
0A560:  BRA    A574
....................       ADCS_ACK = 0; 
0A562:  CLRF   xE9
....................       fprintf(PC,"FAILURED GETTING ACK From ADCS\r\n"); 
0A564:  MOVLW  9A
0A566:  MOVWF  FF6
0A568:  MOVLW  0F
0A56A:  MOVWF  FF7
0A56C:  MOVLW  00
0A56E:  MOVWF  FF8
0A570:  CALL   362C
....................    } 
....................     
....................  
....................  
....................    CMD_FROM_PC[0] = 0;                                                           //prepare to get MAIN command 
0A574:  CLRF   x7E
....................    PC_DATA = 0;                                                                  //prepare to get MAIN command 
0A576:  CLRF   x99
....................    currenttime = 0;                                                              //prepare to measure the operation time 
0A578:  MOVLB  1
0A57A:  CLRF   x3F
0A57C:  CLRF   x3E
....................    while(true) 
....................    { 
....................     /*  for(int safe = 0; safe < 100; safe++) 
....................       { 
....................          GET_ADCS_MSN_DATA(); 
....................       }*/ 
....................       if(currenttime > duration)                                                 //600-->600 seconds (10min) 
0A57E:  MOVLB  2
0A580:  MOVF   xE8,W
0A582:  MOVLB  1
0A584:  SUBWF  x3F,W
0A586:  BNC   A5B0
0A588:  BNZ   A59A
0A58A:  MOVF   x3E,W
0A58C:  MOVLB  2
0A58E:  SUBWF  xE7,W
0A590:  BTFSS  FD8.0
0A592:  BRA    A598
0A594:  MOVLB  1
0A596:  BRA    A5B0
0A598:  MOVLB  1
....................       { 
....................          fprintf(PC,"done\r\n"); 
0A59A:  MOVLW  BC
0A59C:  MOVWF  FF6
0A59E:  MOVLW  0F
0A5A0:  MOVWF  FF7
0A5A2:  MOVLW  00
0A5A4:  MOVWF  FF8
0A5A6:  MOVLB  0
0A5A8:  CALL   362C
....................          break; 
0A5AC:  BRA    A60A
0A5AE:  MOVLB  1
....................       } 
....................     /*  for(safe = 0; safe < 100; safe++) 
....................       { 
....................          GET_ADCS_MSN_DATA(); 
....................       }*/ 
....................       if((currenttime%90)==0) 
0A5B0:  MOVFF  13F,2EC
0A5B4:  MOVFF  13E,2EB
0A5B8:  MOVLB  2
0A5BA:  CLRF   xEE
0A5BC:  MOVLW  5A
0A5BE:  MOVWF  xED
0A5C0:  MOVLB  0
0A5C2:  CALL   70D0
0A5C6:  MOVFF  00,2EB
0A5CA:  MOVLB  2
0A5CC:  MOVFF  03,2EC
0A5D0:  MOVF   xEB,F
0A5D2:  BNZ   A5E0
0A5D4:  MOVF   xEC,F
0A5D6:  BNZ   A5E0
....................       { 
....................          COLLECT_RESET_DATA(); 
0A5D8:  MOVLB  0
0A5DA:  CALL   1FE0
0A5DE:  MOVLB  2
....................       } 
....................        
....................      /* for(safe = 0; safe < 100; safe++) 
....................       { 
....................          GET_ADCS_MSN_DATA(); 
....................       }*/ 
....................        
....................       if(CMD_FROM_PC[0] == 0xab) 
0A5E0:  MOVLB  0
0A5E2:  MOVF   x7E,W
0A5E4:  SUBLW  AB
0A5E6:  BNZ   A600
....................       { 
....................          CMD_FROM_PC[0] = 0; 
0A5E8:  CLRF   x7E
....................          PC_DATA = 0; 
0A5EA:  CLRF   x99
....................          Turn_off_ADCS(); 
0A5EC:  RCALL  A4EE
....................          fprintf(PC,"Stop ADCS Mission\r\n"); 
0A5EE:  MOVLW  C4
0A5F0:  MOVWF  FF6
0A5F2:  MOVLW  0F
0A5F4:  MOVWF  FF7
0A5F6:  MOVLW  00
0A5F8:  MOVWF  FF8
0A5FA:  CALL   362C
....................          break; 
0A5FE:  BRA    A60A
....................       } 
....................      /* for(safe = 0; safe < 100; safe++) 
....................       { 
....................          GET_ADCS_MSN_DATA(); 
....................       }*/ 
....................       RESET_SATELLITE();                                                         //if reset pic send command for resetting the satellite, OBC will response soon 
0A600:  CALL   7E76
0A604:  MOVLB  1
0A606:  BRA    A57E
0A608:  MOVLB  0
....................    }   
....................    Turn_OFF_ADCS();                                                              //turn off ADCS OCP 
0A60A:  RCALL  A4EE
....................    fprintf(PC,"\r\n\r\nTurned_OFF_ADCS\r\n\r\n\r\n");                                                        
0A60C:  MOVLW  D8
0A60E:  MOVWF  FF6
0A610:  MOVLW  0F
0A612:  MOVWF  FF7
0A614:  MOVLW  00
0A616:  MOVWF  FF8
0A618:  CALL   362C
....................    fprintf(PC,"%lx",beginning_of_operation); 
0A61C:  MOVFF  272,311
0A620:  MOVLW  57
0A622:  MOVLB  3
0A624:  MOVWF  x12
0A626:  MOVLB  0
0A628:  CALL   1C3E
0A62C:  MOVFF  271,311
0A630:  MOVLW  57
0A632:  MOVLB  3
0A634:  MOVWF  x12
0A636:  MOVLB  0
0A638:  CALL   1C3E
0A63C:  MOVFF  270,311
0A640:  MOVLW  57
0A642:  MOVLB  3
0A644:  MOVWF  x12
0A646:  MOVLB  0
0A648:  CALL   1C3E
0A64C:  MOVFF  26F,311
0A650:  MOVLW  57
0A652:  MOVLB  3
0A654:  MOVWF  x12
0A656:  MOVLB  0
0A658:  CALL   1C3E
....................    delay_ms(1000); 
0A65C:  MOVLW  04
0A65E:  MOVLB  2
0A660:  MOVWF  xEB
0A662:  MOVLW  FA
0A664:  MOVLB  3
0A666:  MOVWF  x19
0A668:  MOVLB  0
0A66A:  CALL   1F78
0A66E:  MOVLB  2
0A670:  DECFSZ xEB,F
0A672:  BRA    A662
....................    Turn_On_ADCS(); 
0A674:  MOVLB  0
0A676:  CALL   2B78
....................    fprintf(PC,"\r\n\r\nTurned_ON_ADCS\r\n\r\n\r\n"); 
0A67A:  MOVLW  F2
0A67C:  MOVWF  FF6
0A67E:  MOVLW  0F
0A680:  MOVWF  FF7
0A682:  MOVLW  00
0A684:  MOVWF  FF8
0A686:  CALL   362C
....................    //ADCS debe estar siempre encendido 
....................  /*  SAVE_ADCS_INITIAL_and_FINAL(beginning_of_operation); 
....................    output_low(PIN_C4); 
....................    for(int32 num = 0; num < 81+90; num++) 
....................    { 
....................       fprintf(PC,"%x",READ_DATA_BYTE_SCF(beginning_of_operation + num)); 
....................    } 
....................    //TRANSFER_DATA_NBYTE_TOPC_SCF(ADCS_SENSOR_ADDRESS-ATTEMPT_TIME*100, ATTEMPT_TIME*100); 
....................    output_high(PIN_C4);*/ 
....................    RESET_SATELLITE();                                                            //if reset pic send command for resetting the satellite, OBC will response soon 
0A68A:  CALL   7E76
....................    if(count > 89) 
0A68E:  MOVLB  2
0A690:  MOVF   xEA,W
0A692:  SUBLW  59
0A694:  BC    A6A2
....................    { 
....................       count = 0; 
0A696:  CLRF   xEA
....................       COLLECT_RESET_DATA(); 
0A698:  MOVLB  0
0A69A:  CALL   1FE0
....................    }else{ 
0A69E:  BRA    A6A6
0A6A0:  MOVLB  2
....................       count++; 
0A6A2:  INCF   xEA,F
0A6A4:  MOVLB  0
....................    }  
....................    return; 
0A6A6:  RETURN 0
.................... } 
....................  
.................... void ADCS_TLE_TRANSFER()                                                         //send TLE data to ADCS 
.................... { 
....................  
....................    fprintf(PC,"Turn On ADCS \r\n"); 
*
0AB4A:  MOVLW  0C
0AB4C:  MOVWF  FF6
0AB4E:  MOVLW  10
0AB50:  MOVWF  FF7
0AB52:  MOVLW  00
0AB54:  MOVWF  FF8
0AB56:  CALL   362C
....................    Turn_On_ADCS();                                                               //Turn on ADCS 
0AB5A:  CALL   2B78
....................    /*delay_ms(8000);*/ 
....................    for(int c = 0; c < TLE_size; c++)                                           // Read TLE data from flash and put in TLE[] array 
0AB5E:  MOVLB  2
0AB60:  CLRF   xE5
0AB62:  MOVF   xE5,W
0AB64:  SUBLW  4C
0AB66:  BNC   ABBC
....................       { 
....................          TLE[c]=READ_DATA_BYTE_OF(ADCS_TLE_ADDRESS+c); 
0AB68:  CLRF   03
0AB6A:  MOVF   xE5,W
0AB6C:  ADDLW  22
0AB6E:  MOVWF  01
0AB70:  MOVLW  02
0AB72:  ADDWFC 03,F
0AB74:  MOVFF  01,2E7
0AB78:  MOVFF  03,2E8
0AB7C:  MOVF   xE5,W
0AB7E:  ADDWF  54,W
0AB80:  MOVWF  xE9
0AB82:  MOVLW  00
0AB84:  ADDWFC 55,W
0AB86:  MOVWF  xEA
0AB88:  MOVLW  00
0AB8A:  ADDWFC 56,W
0AB8C:  MOVWF  xEB
0AB8E:  MOVLW  00
0AB90:  ADDWFC 57,W
0AB92:  MOVWF  xEC
0AB94:  MOVFF  FE8,31A
0AB98:  MOVFF  2EB,319
0AB9C:  MOVFF  2EA,318
0ABA0:  MOVFF  2E9,317
0ABA4:  MOVLB  0
0ABA6:  CALL   17B2
0ABAA:  MOVFF  2E8,FEA
0ABAE:  MOVFF  2E7,FE9
0ABB2:  MOVFF  01,FEF
0ABB6:  MOVLB  2
0ABB8:  INCF   xE5,F
0ABBA:  BRA    AB62
....................       } 
....................     
....................    fputc(0x21,ADCS);                                                             //ADCS hand shake 
0ABBC:  MOVLW  21
0ABBE:  MOVWF  xF7
0ABC0:  MOVLB  0
0ABC2:  CALL   4A4E
....................  
....................    CHECK_ACK_FROM_ADCS_10k(); 
0ABC6:  RCALL  A4A2
....................    if(ADCS_ACK == 0x55)                                                            //Success ACK 
0ABC8:  MOVF   xE9,W
0ABCA:  SUBLW  55
0ABCC:  BNZ   AC1C
....................    { 
....................       fprintf(PC,"Received ACK From ADCS\r\n"); 
0ABCE:  MOVLW  1C
0ABD0:  MOVWF  FF6
0ABD2:  MOVLW  10
0ABD4:  MOVWF  FF7
0ABD6:  MOVLW  00
0ABD8:  MOVWF  FF8
0ABDA:  CALL   362C
....................       //delay_ms(1000); 
....................       ADCS_ACK = 0;       
0ABDE:  CLRF   xE9
....................       for(int t = 0; t < TLE_size; t++)                                           // Read TLE data from flash and put in TLE[] array 
0ABE0:  MOVLB  2
0ABE2:  CLRF   xE6
0ABE4:  MOVF   xE6,W
0ABE6:  SUBLW  4C
0ABE8:  BNC   AC08
....................       { 
....................          fputc(TLE[t],ADCS); 
0ABEA:  CLRF   03
0ABEC:  MOVF   xE6,W
0ABEE:  ADDLW  22
0ABF0:  MOVWF  FE9
0ABF2:  MOVLW  02
0ABF4:  ADDWFC 03,W
0ABF6:  MOVWF  FEA
0ABF8:  MOVFF  FEF,2F7
0ABFC:  MOVLB  0
0ABFE:  CALL   4A4E
0AC02:  MOVLB  2
0AC04:  INCF   xE6,F
0AC06:  BRA    ABE4
....................       } 
....................       fprintf(PC,"Sent TLE data to ADCS\r\n"); 
0AC08:  MOVLW  36
0AC0A:  MOVWF  FF6
0AC0C:  MOVLW  10
0AC0E:  MOVWF  FF7
0AC10:  MOVLW  00
0AC12:  MOVWF  FF8
0AC14:  MOVLB  0
0AC16:  CALL   362C
....................    }else{ 
0AC1A:  BRA    AC2E
....................       ADCS_ACK = 0; 
0AC1C:  CLRF   xE9
....................       fprintf(PC,"FAILURED GETTING ACK From ADCS\r\n"); 
0AC1E:  MOVLW  4E
0AC20:  MOVWF  FF6
0AC22:  MOVLW  10
0AC24:  MOVWF  FF7
0AC26:  MOVLW  00
0AC28:  MOVWF  FF8
0AC2A:  CALL   362C
....................    } 
....................    CMD_FROM_PC[0] = 0;                                                           //prepare to get MAIN command 
0AC2E:  CLRF   x7E
....................    PC_DATA = 0;                                                                  //prepare to get MAIN command 
0AC30:  CLRF   x99
....................    return; 
0AC32:  RETURN 0
.................... } 
....................  
....................  
.................... //--------HIGH SAMPLING HK collection------------------------------------------ 
....................  
.................... void CHECK_HIGH_SAMP_FABDATA(int8 in)                                            //FAB sensor data collect 
.................... { 
....................    fprintf(PC,"\r\nFAB DATA OBTAINED\r\n"); 
*
0767A:  MOVLW  70
0767C:  MOVWF  FF6
0767E:  MOVLW  10
07680:  MOVWF  FF7
07682:  MOVLW  00
07684:  MOVWF  FF8
07686:  CALL   362C
....................    Delete_HKDATA(); 
0768A:  CALL   46F0
....................    for(int num = 1; num < 11; num++)                                             //Collect HK DATA 
0768E:  MOVLW  01
07690:  MOVLB  2
07692:  MOVWF  xF2
07694:  MOVF   xF2,W
07696:  SUBLW  0A
07698:  BNC   76FE
....................    { 
....................       HKDATA[num + 5+4] = in_HK[num + 2 - in]; 
0769A:  MOVLW  05
0769C:  ADDWF  xF2,W
0769E:  ADDLW  04
076A0:  CLRF   03
076A2:  ADDLW  86
076A4:  MOVWF  01
076A6:  MOVLW  01
076A8:  ADDWFC 03,F
076AA:  MOVFF  03,2F4
076AE:  MOVLW  02
076B0:  ADDWF  xF2,W
076B2:  BSF    FD8.0
076B4:  SUBFWB xF1,W
076B6:  CLRF   03
076B8:  ADDLW  59
076BA:  MOVWF  FE9
076BC:  MOVLW  01
076BE:  ADDWFC 03,W
076C0:  MOVWF  FEA
076C2:  MOVFF  FEF,2F5
076C6:  MOVFF  2F4,FEA
076CA:  MOVFF  01,FE9
076CE:  MOVFF  2F5,FEF
....................       fprintf(PC, "%x,", HKDATA[num]); 
076D2:  CLRF   03
076D4:  MOVF   xF2,W
076D6:  ADDLW  86
076D8:  MOVWF  FE9
076DA:  MOVLW  01
076DC:  ADDWFC 03,W
076DE:  MOVWF  FEA
076E0:  MOVFF  FEF,311
076E4:  MOVLW  57
076E6:  MOVLB  3
076E8:  MOVWF  x12
076EA:  MOVLB  0
076EC:  CALL   1C3E
076F0:  MOVLW  2C
076F2:  BTFSS  F9E.4
076F4:  BRA    76F2
076F6:  MOVWF  FAD
076F8:  MOVLB  2
076FA:  INCF   xF2,F
076FC:  BRA    7694
....................    } 
....................    MEASURE_BC_TEMP(); 
076FE:  MOVLB  0
07700:  CALL   4712
....................    HKDATA[18] = BC_temp_data_h;                                                  //-X Panel Temp 
07704:  MOVFF  140,198
....................    HKDATA[19] = BC_temp_data_l;                                                  //-X Panel Temp 
07708:  MOVFF  142,199
....................    for(num = 9; num < FAB_SENSOR_size - 2; num++)                                //[FAB] from CPLD temp to Kill status(array[20] to [49]) 
0770C:  MOVLW  09
0770E:  MOVLB  2
07710:  MOVWF  xF2
07712:  MOVF   xF2,W
07714:  SUBLW  2A
07716:  BNC   7780
....................    { 
....................       HKDATA[num + 7+4] = in_HK[num + 2 - in]; 
07718:  MOVLW  07
0771A:  ADDWF  xF2,W
0771C:  ADDLW  04
0771E:  CLRF   03
07720:  ADDLW  86
07722:  MOVWF  01
07724:  MOVLW  01
07726:  ADDWFC 03,F
07728:  MOVFF  03,2F4
0772C:  MOVLW  02
0772E:  ADDWF  xF2,W
07730:  BSF    FD8.0
07732:  SUBFWB xF1,W
07734:  CLRF   03
07736:  ADDLW  59
07738:  MOVWF  FE9
0773A:  MOVLW  01
0773C:  ADDWFC 03,W
0773E:  MOVWF  FEA
07740:  MOVFF  FEF,2F5
07744:  MOVFF  2F4,FEA
07748:  MOVFF  01,FE9
0774C:  MOVFF  2F5,FEF
....................       fprintf(PC, "%x,", HKDATA[num + 7+4]); 
07750:  MOVLW  07
07752:  ADDWF  xF2,W
07754:  ADDLW  04
07756:  CLRF   03
07758:  ADDLW  86
0775A:  MOVWF  FE9
0775C:  MOVLW  01
0775E:  ADDWFC 03,W
07760:  MOVWF  FEA
07762:  MOVFF  FEF,311
07766:  MOVLW  57
07768:  MOVLB  3
0776A:  MOVWF  x12
0776C:  MOVLB  0
0776E:  CALL   1C3E
07772:  MOVLW  2C
07774:  BTFSS  F9E.4
07776:  BRA    7774
07778:  MOVWF  FAD
0777A:  MOVLB  2
0777C:  INCF   xF2,F
0777E:  BRA    7712
....................    } 
....................    FAB_DATA = 0; 
07780:  CLRF   x1A
07782:  MOVLB  0
07784:  RETURN 0
.................... } 
....................  
.................... void VERIFY_HIGH_SAMP_FABDATA(int32 delaytime) 
.................... { 
....................    for(int8 num = 0; num < 3; num++) 
07786:  MOVLB  2
07788:  CLRF   xF0
0778A:  MOVF   xF0,W
0778C:  SUBLW  02
0778E:  BNC   7800
....................    { 
....................       COMMAND_TO_FAB(delaytime); 
07790:  MOVFF  2EF,2F8
07794:  MOVFF  2EE,2F7
07798:  MOVFF  2ED,2F6
0779C:  MOVFF  2EC,2F5
077A0:  MOVLB  0
077A2:  CALL   468E
....................       //FAB_DATA = 0; 
....................       //waiting(1000); 
....................       if(in_HK[0] == 0x33)                                                       //gather sensor data by interrupt 
077A6:  MOVLB  1
077A8:  MOVF   x59,W
077AA:  SUBLW  33
077AC:  BNZ   77C4
....................       { 
....................          CHECK_HIGH_SAMP_FABDATA(2); 
077AE:  MOVLW  02
077B0:  MOVLB  2
077B2:  MOVWF  xF1
077B4:  MOVLB  0
077B6:  RCALL  767A
....................          CHECK_FAB_RESPONSE = 1;                                                 //1 is succeeded to get response from FAB 
077B8:  MOVLW  01
077BA:  MOVLB  2
077BC:  MOVWF  x21
....................          break; 
077BE:  BRA    7800
....................       }else if(in_HK[1] == 0x33){ 
077C0:  BRA    77F6
077C2:  MOVLB  1
077C4:  MOVF   x5A,W
077C6:  SUBLW  33
077C8:  BNZ   77E0
....................          //delay_ms(200); 
....................          CHECK_HIGH_SAMP_FABDATA(1); 
077CA:  MOVLW  01
077CC:  MOVLB  2
077CE:  MOVWF  xF1
077D0:  MOVLB  0
077D2:  RCALL  767A
....................          CHECK_FAB_RESPONSE = 1;                                                 //1 is succeeded to get response from FAB 
077D4:  MOVLW  01
077D6:  MOVLB  2
077D8:  MOVWF  x21
....................          break; 
077DA:  BRA    7800
....................       }else if(in_HK[2] == 0x33){ 
077DC:  BRA    77F6
077DE:  MOVLB  1
077E0:  MOVF   x5B,W
077E2:  SUBLW  33
077E4:  BNZ   77F8
....................          //delay_ms(200); 
....................          CHECK_HIGH_SAMP_FABDATA(0); 
077E6:  MOVLB  2
077E8:  CLRF   xF1
077EA:  MOVLB  0
077EC:  RCALL  767A
....................          CHECK_FAB_RESPONSE = 1;                                                 //1 is succeeded to get response from FAB 
077EE:  MOVLW  01
077F0:  MOVLB  2
077F2:  MOVWF  x21
....................          break; 
077F4:  BRA    7800
077F6:  MOVLB  1
....................       } 
....................       FAB_DATA = 0; 
077F8:  MOVLB  2
077FA:  CLRF   x1A
077FC:  INCF   xF0,F
077FE:  BRA    778A
....................    } 
....................    return; 
07800:  MOVLB  0
07802:  GOTO   7A9A (RETURN)
.................... } 
....................  
....................  
....................  
.................... void GET_HIGH_SAMP_RESET_DATA() 
.................... { 
....................    RESET_DATA = 0; 
07806:  CLRF   xEB
....................    COLLECT_RESET_DATA(); 
07808:  CALL   1FE0
....................    if(RESET_bffr[0] == 0x8e) 
0780C:  MOVF   xEC,W
0780E:  SUBLW  8E
07810:  BNZ   78E0
....................    { 
....................       fprintf(PC,"GET RESET\r\n"); 
07812:  MOVLW  86
07814:  MOVWF  FF6
07816:  MOVLW  10
07818:  MOVWF  FF7
0781A:  MOVLW  00
0781C:  MOVWF  FF8
0781E:  CALL   362C
....................       for(int num = 0; num < 5; num++)                                           //timedata 
07822:  MOVLB  2
07824:  CLRF   xEC
07826:  MOVF   xEC,W
07828:  SUBLW  04
0782A:  BNC   7880
....................       { 
....................          HKDATA[num + 2] = reset_bffr[num + 1]; 
0782C:  MOVLW  02
0782E:  ADDWF  xEC,W
07830:  CLRF   03
07832:  ADDLW  86
07834:  MOVWF  01
07836:  MOVLW  01
07838:  ADDWFC 03,F
0783A:  MOVFF  03,2EE
0783E:  MOVLW  01
07840:  ADDWF  xEC,W
07842:  CLRF   03
07844:  ADDLW  EC
07846:  MOVWF  FE9
07848:  MOVLW  00
0784A:  ADDWFC 03,W
0784C:  MOVWF  FEA
0784E:  MOVFF  FEF,2EF
07852:  MOVFF  2EE,FEA
07856:  MOVFF  01,FE9
0785A:  MOVFF  2EF,FEF
....................          fputc(HKDATA[num + 2],PC); 
0785E:  MOVLW  02
07860:  ADDWF  xEC,W
07862:  CLRF   03
07864:  ADDLW  86
07866:  MOVWF  FE9
07868:  MOVLW  01
0786A:  ADDWFC 03,W
0786C:  MOVWF  FEA
0786E:  MOVFF  FEF,2ED
07872:  MOVF   xED,W
07874:  MOVLB  0
07876:  CALL   5768
0787A:  MOVLB  2
0787C:  INCF   xEC,F
0787E:  BRA    7826
....................       } 
....................     
....................       for(num = 0; num < 5; num++)                                               //reset sensor data 
07880:  CLRF   xEC
07882:  MOVF   xEC,W
07884:  SUBLW  04
07886:  BNC   78DC
....................       { 
....................          HKDATA[num + 116] = reset_bffr[num + 6];                                //HKDATA[116] = reset[6] 
07888:  MOVLW  74
0788A:  ADDWF  xEC,W
0788C:  CLRF   03
0788E:  ADDLW  86
07890:  MOVWF  01
07892:  MOVLW  01
07894:  ADDWFC 03,F
07896:  MOVFF  03,2EE
0789A:  MOVLW  06
0789C:  ADDWF  xEC,W
0789E:  CLRF   03
078A0:  ADDLW  EC
078A2:  MOVWF  FE9
078A4:  MOVLW  00
078A6:  ADDWFC 03,W
078A8:  MOVWF  FEA
078AA:  MOVFF  FEF,2EF
078AE:  MOVFF  2EE,FEA
078B2:  MOVFF  01,FE9
078B6:  MOVFF  2EF,FEF
....................          fputc(HKDATA[num + 116],PC); 
078BA:  MOVLW  74
078BC:  ADDWF  xEC,W
078BE:  CLRF   03
078C0:  ADDLW  86
078C2:  MOVWF  FE9
078C4:  MOVLW  01
078C6:  ADDWFC 03,W
078C8:  MOVWF  FEA
078CA:  MOVFF  FEF,2ED
078CE:  MOVF   xED,W
078D0:  MOVLB  0
078D2:  CALL   5768
078D6:  MOVLB  2
078D8:  INCF   xEC,F
078DA:  BRA    7882
....................       } 
....................    }else{ 
078DC:  BRA    78F2
078DE:  MOVLB  0
....................       fprintf(PC,"NO RESET\r\n"); 
078E0:  MOVLW  92
078E2:  MOVWF  FF6
078E4:  MOVLW  10
078E6:  MOVWF  FF7
078E8:  MOVLW  00
078EA:  MOVWF  FF8
078EC:  CALL   362C
078F0:  MOVLB  2
....................    } 
078F2:  MOVLB  0
078F4:  GOTO   7A9C (RETURN)
....................    //Delete_Reset(); 
.................... } 
....................  
.................... void MAKE_HIGH_SAMP_ADCS_FORMAT() 
.................... { 
....................    GET_ADCS_SENSOR_DATA(); 
078F8:  CALL   4ADE
....................    for(int num = 53; num < 113; num++)                                           //12byte+48byte = 60 byte 
078FC:  MOVLW  35
078FE:  MOVLB  2
07900:  MOVWF  xEC
07902:  MOVF   xEC,W
07904:  SUBLW  70
07906:  BNC   793C
....................    { 
....................       HKDATA[num] = ADCS_SENSOR_DATA[num - 52];                                  //ADCS[1] to ADCS[60] 
07908:  CLRF   03
0790A:  MOVF   xEC,W
0790C:  ADDLW  86
0790E:  MOVWF  01
07910:  MOVLW  01
07912:  ADDWFC 03,F
07914:  MOVFF  03,2EE
07918:  MOVLW  34
0791A:  SUBWF  xEC,W
0791C:  CLRF   03
0791E:  ADDLW  9B
07920:  MOVWF  FE9
07922:  MOVLW  00
07924:  ADDWFC 03,W
07926:  MOVWF  FEA
07928:  MOVFF  FEF,2EF
0792C:  MOVFF  2EE,FEA
07930:  MOVFF  01,FE9
07934:  MOVFF  2EF,FEF
07938:  INCF   xEC,F
0793A:  BRA    7902
....................    } 
.................... //!   for(num = 65; num < 107; num++) 
.................... //!   { 
.................... //!      HKDATA[num] = ADCS_SENSOR_DATA[num - 34];//HKDATA[54] = ADCS_SENSOR_DATA[21] 
.................... //!   } 
....................    return; 
0793C:  MOVLB  0
0793E:  GOTO   7A9E (RETURN)
.................... } 
.................... /* 
.................... void MAKE_HIGH_SAMPLING_FORMAT() 
.................... { 
....................    CHECK_50_and_CW_RESPOND(); 
....................    if(in_HK[0] == 0x33)//gather sensor data by interrupt 
....................    { 
....................       CHECK_HIGH_SAMP_FABDATA(2); 
....................       CHECK_FAB_RESPONSE = 1; //1 is succeeded to get response from FAB 
....................    }else if(in_HK[1] == 0x33){ 
....................       CHECK_HIGH_SAMP_FABDATA(1); 
....................       CHECK_FAB_RESPONSE = 1; //1 is succeeded to get response from FAB 
....................    }else if(in_HK[2] == 0x33){; 
....................       CHECK_HIGH_SAMP_FABDATA(0); 
....................       CHECK_FAB_RESPONSE = 1; //1 is succeeded to get response from FAB 
....................    } 
....................  
....................    CHECK_50_and_CW_RESPOND(); 
....................    if(RESET_bffr[0] == 0x8e) 
....................    { 
....................       for(int num = 0; num < 5; num++)//timedata 
....................       { 
....................          HKDATA[num] = reset_bffr[num + 1]; 
....................          //fputc(HKDATA[num],PC); 
....................       } 
....................     
....................       for(num = 0; num < 5; num++)//reset sensor data 
....................       { 
....................          HKDATA[num + 91] = reset_bffr[num + 6]; 
....................          //fputc(HKDATA[num + 91],PC); 
....................       } 
....................    } 
....................     
....................    CHECK_50_and_CW_RESPOND(); 
....................    for(int num = 0; num < 12; num++)//put into sensor array 
....................    { 
....................       HKDATA[num + 38] = ADCS_SENSOR_DATA[num]; 
....................    } 
....................    for(num = 0; num < 41; num++)//put into sensor array 
....................    { 
....................       HKDATA[num + 50] = ADCS_SENSOR_DATA[num + 21]; 
....................    } 
....................    return; 
.................... } 
.................... */ 
.................... void SAVE_HIGH_SAMP_DATA_TO_EACH_MEMORY() 
.................... { 
....................    output_low(PIN_C4); 
*
0755A:  BCF    F94.4
0755C:  BCF    F8B.4
....................    CHECK_50_and_CW_RESPOND(); 
0755E:  CALL   466A
....................    for(int i = 0; i < HIGH_SAMP_HK_size; i++) 
07562:  MOVLB  2
07564:  CLRF   xEC
07566:  MOVF   xEC,W
07568:  SUBLW  7B
0756A:  BNC   75B2
....................    { 
....................       WRITE_DATA_BYTE_SCF(HIGH_SAMP_HK_ADDRESS + i,HKDATA[i]); 
0756C:  MOVF   xEC,W
0756E:  ADDWF  5C,W
07570:  MOVWF  xED
07572:  MOVLW  00
07574:  ADDWFC 5D,W
07576:  MOVWF  xEE
07578:  MOVLW  00
0757A:  ADDWFC 5E,W
0757C:  MOVWF  xEF
0757E:  MOVLW  00
07580:  ADDWFC 5F,W
07582:  MOVWF  xF0
07584:  CLRF   03
07586:  MOVF   xEC,W
07588:  ADDLW  86
0758A:  MOVWF  FE9
0758C:  MOVLW  01
0758E:  ADDWFC 03,W
07590:  MOVWF  FEA
07592:  MOVFF  FEF,315
07596:  MOVFF  2F0,314
0759A:  MOVFF  2EF,313
0759E:  MOVFF  2EE,312
075A2:  MOVFF  2ED,311
075A6:  MOVLB  0
075A8:  CALL   1B0C
075AC:  MOVLB  2
075AE:  INCF   xEC,F
075B0:  BRA    7566
....................    } 
....................    output_high(PIN_C4);  
075B2:  BCF    F94.4
075B4:  BSF    F8B.4
....................     
....................    CHECK_50_and_CW_RESPOND(); 
075B6:  MOVLB  0
075B8:  CALL   466A
....................    for(i = 0; i < HIGH_SAMP_HK_size; i++) 
075BC:  MOVLB  2
075BE:  CLRF   xEC
075C0:  MOVF   xEC,W
075C2:  SUBLW  7B
075C4:  BNC   760C
....................    { 
....................       WRITE_DATA_BYTE_OF(HIGH_SAMP_HK_ADDRESS + i,HKDATA[i]); 
075C6:  MOVF   xEC,W
075C8:  ADDWF  5C,W
075CA:  MOVWF  xED
075CC:  MOVLW  00
075CE:  ADDWFC 5D,W
075D0:  MOVWF  xEE
075D2:  MOVLW  00
075D4:  ADDWFC 5E,W
075D6:  MOVWF  xEF
075D8:  MOVLW  00
075DA:  ADDWFC 5F,W
075DC:  MOVWF  xF0
075DE:  CLRF   03
075E0:  MOVF   xEC,W
075E2:  ADDLW  86
075E4:  MOVWF  FE9
075E6:  MOVLW  01
075E8:  ADDWFC 03,W
075EA:  MOVWF  FEA
075EC:  MOVFF  FEF,315
075F0:  MOVFF  2F0,314
075F4:  MOVFF  2EF,313
075F8:  MOVFF  2EE,312
075FC:  MOVFF  2ED,311
07600:  MOVLB  0
07602:  CALL   1A80
07606:  MOVLB  2
07608:  INCF   xEC,F
0760A:  BRA    75C0
....................    } 
....................     
....................    CHECK_50_and_CW_RESPOND(); 
0760C:  MOVLB  0
0760E:  CALL   466A
....................    output_low(PIN_A5); 
07612:  BCF    F92.5
07614:  BCF    F89.5
....................    for(i = 0; i < HIGH_SAMP_HK_size; i++) 
07616:  MOVLB  2
07618:  CLRF   xEC
0761A:  MOVF   xEC,W
0761C:  SUBLW  7B
0761E:  BNC   7666
....................    { 
....................       WRITE_DATA_BYTE_SMF(HIGH_SAMP_HK_ADDRESS + i,HKDATA[i]); 
07620:  MOVF   xEC,W
07622:  ADDWF  5C,W
07624:  MOVWF  xED
07626:  MOVLW  00
07628:  ADDWFC 5D,W
0762A:  MOVWF  xEE
0762C:  MOVLW  00
0762E:  ADDWFC 5E,W
07630:  MOVWF  xEF
07632:  MOVLW  00
07634:  ADDWFC 5F,W
07636:  MOVWF  xF0
07638:  CLRF   03
0763A:  MOVF   xEC,W
0763C:  ADDLW  86
0763E:  MOVWF  FE9
07640:  MOVLW  01
07642:  ADDWFC 03,W
07644:  MOVWF  FEA
07646:  MOVFF  FEF,315
0764A:  MOVFF  2F0,314
0764E:  MOVFF  2EF,313
07652:  MOVFF  2EE,312
07656:  MOVFF  2ED,311
0765A:  MOVLB  0
0765C:  CALL   1B98
07660:  MOVLB  2
07662:  INCF   xEC,F
07664:  BRA    761A
....................    }   
....................     
....................    CHECK_50_and_CW_RESPOND(); 
07666:  MOVLB  0
07668:  CALL   466A
....................    HIGH_SAMP_HK_ADDRESS = HIGH_SAMP_HK_ADDRESS + HIGH_SAMP_HK_size;              //prepare for next storing address 
0766C:  MOVLW  7C
0766E:  ADDWF  5C,F
07670:  MOVLW  00
07672:  ADDWFC 5D,F
07674:  ADDWFC 5E,F
07676:  ADDWFC 5F,F
....................     
....................    return; 
07678:  RETURN 0
.................... } 
....................  
.................... void HIGH_SAMP_FAB_OPERATION() 
.................... { 
....................    Turn_ON_ADCS(); 
*
07942:  CALL   2B78
....................    CHECK_50_and_CW_RESPOND(); 
07946:  CALL   466A
....................    HIGH_SAMP_FAB_MEASUERING_FLAG++;                                              //count until 90(it means 10 min) 
0794A:  MOVLB  2
0794C:  INCF   x1C,F
....................    //disable_interrupts(INT_rda2); 
....................    if(HIGH_SAMP_FAB_MEASUERING_FLAG > 17)                                        //HIGH_SAMP_FAB_MEASUERING_FLAG=18 --> 18*5 = 90 (sec) 
0794E:  MOVF   x1C,W
07950:  SUBLW  11
07952:  BTFSC  FD8.0
07954:  BRA    7A7E
....................       { 
....................           
....................          CHECK_50_and_CW_RESPOND(); 
07956:  MOVLB  0
07958:  CALL   466A
....................           
....................          fprintf(PC,"\r\n\90sec\r\n"); 
0795C:  MOVLW  9E
0795E:  MOVWF  FF6
07960:  MOVLW  10
07962:  MOVWF  FF7
07964:  MOVLW  00
07966:  MOVWF  FF8
07968:  CALL   362C
....................          Delete_in_HK();                                                         //delet HK array 
0796C:  CALL   3FC8
....................          VERIFY_FABDATA(10000,10);                                               //envia comando al FAB y Carga el array in_HK[] con los datos del FAB 
07970:  MOVLB  2
07972:  CLRF   xEF
07974:  CLRF   xEE
07976:  MOVLW  27
07978:  MOVWF  xED
0797A:  MOVLW  10
0797C:  MOVWF  xEC
0797E:  CLRF   xF3
07980:  CLRF   xF2
07982:  CLRF   xF1
07984:  MOVLW  0A
07986:  MOVWF  xF0
07988:  MOVLB  0
0798A:  CALL   4872
....................          GET_RESET_DATA();                                                       //funcion que carga el array HKDATA con los datos del Reset PIC 
0798E:  CALL   4924
....................          MAKE_ADCS_HKDATA();                                                     //carga en el array HKDATA[] los datos del ADCS en las posiciones 53 al 106 
07992:  CALL   4BDA
....................          SET_IDENTIFIER(); 
07996:  CALL   5494
....................          MAKE_CW_FORMAT(); 
0799A:  CALL   5488
....................          output_low(PIN_C4); 
0799E:  BCF    F94.4
079A0:  BCF    F8B.4
....................          output_low(PIN_A5); 
079A2:  BCF    F92.5
079A4:  BCF    F89.5
....................           
....................          SEND_HKDATA_to_SCF(FAB_HK_ADDRESS);                                     //save HK in COM flash memory 
079A6:  MOVFF  4B,2EF
079AA:  MOVFF  4A,2EE
079AE:  MOVFF  49,2ED
079B2:  MOVFF  48,2EC
079B6:  CALL   557A
....................          SEND_HKDATA_to_SMF(FAB_HK_ADDRESS);                                     //save HK in Mission flash memory 
079BA:  MOVFF  4B,2EF
079BE:  MOVFF  4A,2EE
079C2:  MOVFF  49,2ED
079C6:  MOVFF  48,2EC
079CA:  CALL   55EC
....................          SEND_HKDATA_to_OF(FAB_HK_ADDRESS);                                      //save HK in OBC flash memory 
079CE:  MOVFF  4B,2EF
079D2:  MOVFF  4A,2EE
079D6:  MOVFF  49,2ED
079DA:  MOVFF  48,2EC
079DE:  CALL   565A
....................          SEND_CWFORMAT_TO_SCF(FAB_CW_ADDRESS); 
079E2:  MOVFF  4F,2EF
079E6:  MOVFF  4E,2EE
079EA:  MOVFF  4D,2ED
079EE:  MOVFF  4C,2EC
079F2:  CALL   56CE
....................          SEND_CWFORMAT_TO_SMF(FAB_CW_ADDRESS); 
079F6:  MOVFF  4F,2EF
079FA:  MOVFF  4E,2EE
079FE:  MOVFF  4D,2ED
07A02:  MOVFF  4C,2EC
07A06:  CALL   5740
....................          SEND_CWFORMAT_TO_OF(FAB_CW_ADDRESS); 
07A0A:  MOVFF  4F,2EF
07A0E:  MOVFF  4E,2EE
07A12:  MOVFF  4D,2ED
07A16:  MOVFF  4C,2EC
07A1A:  CALL   57E4
....................           
....................          CHECK_50_and_CW_RESPOND(); 
07A1E:  CALL   466A
....................          FAB_HK_ADDRESS = FAB_HK_ADDRESS + HK_size;                              //prepare for next storing address 
07A22:  MOVLW  7C
07A24:  ADDWF  48,F
07A26:  MOVLW  00
07A28:  ADDWFC 49,F
07A2A:  ADDWFC 4A,F
07A2C:  ADDWFC 4B,F
....................          FAB_CW_ADDRESS = FAB_CW_ADDRESS + CW_size;                              //prepare for next storing address 
07A2E:  MOVLW  05
07A30:  ADDWF  4C,F
07A32:  MOVLW  00
07A34:  ADDWFC 4D,F
07A36:  ADDWFC 4E,F
07A38:  ADDWFC 4F,F
....................           
....................          SAVE_HIGH_SAMP_DATA_TO_EACH_MEMORY(); 
07A3A:  RCALL  755A
....................           
....................          CHECK_50_and_CW_RESPOND(); 
07A3C:  CALL   466A
....................           
....................          fprintf(PC,"\r\nCOUNT:%d\r\n",HIGH_SAMP_FAB_MEASUERING_FLAG); 
07A40:  MOVLW  A8
07A42:  MOVWF  FF6
07A44:  MOVLW  10
07A46:  MOVWF  FF7
07A48:  MOVLW  00
07A4A:  MOVWF  FF8
07A4C:  MOVLW  08
07A4E:  MOVLB  3
07A50:  MOVWF  x10
07A52:  MOVLB  0
07A54:  CALL   1C0C
07A58:  MOVFF  21C,2EC
07A5C:  MOVLW  18
07A5E:  MOVLB  2
07A60:  MOVWF  xED
07A62:  MOVLB  0
07A64:  CALL   6E72
07A68:  MOVLW  0D
07A6A:  BTFSS  F9E.4
07A6C:  BRA    7A6A
07A6E:  MOVWF  FAD
07A70:  MOVLW  0A
07A72:  BTFSS  F9E.4
07A74:  BRA    7A72
07A76:  MOVWF  FAD
....................          HIGH_SAMP_FAB_MEASUERING_FLAG = 0; 
07A78:  MOVLB  2
07A7A:  CLRF   x1C
....................           
....................       }else{ 
07A7C:  BRA    7BB0
....................          Delete_in_HK();                                                         //delet HK array 
07A7E:  MOVLB  0
07A80:  CALL   3FC8
....................          GET_RESET_DATA();                                                       //funcion que carga el array HKDATA con los datos del Reset PIC 
07A84:  CALL   4924
....................          VERIFY_HIGH_SAMP_FABDATA(10000);                                        //get FAB data    
07A88:  MOVLB  2
07A8A:  CLRF   xEF
07A8C:  CLRF   xEE
07A8E:  MOVLW  27
07A90:  MOVWF  xED
07A92:  MOVLW  10
07A94:  MOVWF  xEC
07A96:  MOVLB  0
07A98:  BRA    7786
....................          GET_HIGH_SAMP_RESET_DATA();                                             //get reset data 
07A9A:  BRA    7806
....................          MAKE_HIGH_SAMP_ADCS_FORMAT();                                           //get ADCS data 
07A9C:  BRA    78F8
....................          SET_IDENTIFIER(); 
07A9E:  CALL   5494
....................          //MAKE_CW_FORMAT(); 
....................                
....................          fprintf(PC,"\r\n"); 
07AA2:  MOVLW  0D
07AA4:  BTFSS  F9E.4
07AA6:  BRA    7AA4
07AA8:  MOVWF  FAD
07AAA:  MOVLW  0A
07AAC:  BTFSS  F9E.4
07AAE:  BRA    7AAC
07AB0:  MOVWF  FAD
....................          for(int num = 0; num < 65; num++)                                       //array[0] to [64](until gyro data) 
07AB2:  MOVLB  2
07AB4:  CLRF   xEB
07AB6:  MOVF   xEB,W
07AB8:  SUBLW  40
07ABA:  BNC   7AE8
....................          { 
....................             fprintf(PC,"%x,",HKDATA[num]); 
07ABC:  CLRF   03
07ABE:  MOVF   xEB,W
07AC0:  ADDLW  86
07AC2:  MOVWF  FE9
07AC4:  MOVLW  01
07AC6:  ADDWFC 03,W
07AC8:  MOVWF  FEA
07ACA:  MOVFF  FEF,311
07ACE:  MOVLW  57
07AD0:  MOVLB  3
07AD2:  MOVWF  x12
07AD4:  MOVLB  0
07AD6:  CALL   1C3E
07ADA:  MOVLW  2C
07ADC:  BTFSS  F9E.4
07ADE:  BRA    7ADC
07AE0:  MOVWF  FAD
07AE2:  MOVLB  2
07AE4:  INCF   xEB,F
07AE6:  BRA    7AB6
....................          } 
....................          CHECK_50_and_CW_RESPOND(); 
07AE8:  MOVLB  0
07AEA:  CALL   466A
....................          for(num = 65; num < 113; num++) 
07AEE:  MOVLW  41
07AF0:  MOVLB  2
07AF2:  MOVWF  xEB
07AF4:  MOVF   xEB,W
07AF6:  SUBLW  70
07AF8:  BNC   7B26
....................          { 
....................           //fputc(HKDATA[num],PC); 
....................             fprintf(PC,"%x,",HKDATA[num]); 
07AFA:  CLRF   03
07AFC:  MOVF   xEB,W
07AFE:  ADDLW  86
07B00:  MOVWF  FE9
07B02:  MOVLW  01
07B04:  ADDWFC 03,W
07B06:  MOVWF  FEA
07B08:  MOVFF  FEF,311
07B0C:  MOVLW  57
07B0E:  MOVLB  3
07B10:  MOVWF  x12
07B12:  MOVLB  0
07B14:  CALL   1C3E
07B18:  MOVLW  2C
07B1A:  BTFSS  F9E.4
07B1C:  BRA    7B1A
07B1E:  MOVWF  FAD
07B20:  MOVLB  2
07B22:  INCF   xEB,F
07B24:  BRA    7AF4
....................          } 
....................          CHECK_50_and_CW_RESPOND(); 
07B26:  MOVLB  0
07B28:  CALL   466A
....................          for(num = 113; num < HK_Size; num++) 
07B2C:  MOVLW  71
07B2E:  MOVLB  2
07B30:  MOVWF  xEB
07B32:  MOVF   xEB,W
07B34:  SUBLW  7B
07B36:  BNC   7B68
....................          { 
....................             fprintf(PC,",%x",HKDATA[num]); 
07B38:  CLRF   03
07B3A:  MOVF   xEB,W
07B3C:  ADDLW  86
07B3E:  MOVWF  FE9
07B40:  MOVLW  01
07B42:  ADDWFC 03,W
07B44:  MOVWF  FEA
07B46:  MOVFF  FEF,2EC
07B4A:  MOVLW  2C
07B4C:  BTFSS  F9E.4
07B4E:  BRA    7B4C
07B50:  MOVWF  FAD
07B52:  MOVFF  2EC,311
07B56:  MOVLW  57
07B58:  MOVLB  3
07B5A:  MOVWF  x12
07B5C:  MOVLB  0
07B5E:  CALL   1C3E
07B62:  MOVLB  2
07B64:  INCF   xEB,F
07B66:  BRA    7B32
....................          }  
....................          CHECK_50_and_CW_RESPOND(); 
07B68:  MOVLB  0
07B6A:  CALL   466A
....................           
....................          fprintf(PC,"\r\nCOUNT:%d\r\n",HIGH_SAMP_FAB_MEASUERING_FLAG); 
07B6E:  MOVLW  B6
07B70:  MOVWF  FF6
07B72:  MOVLW  10
07B74:  MOVWF  FF7
07B76:  MOVLW  00
07B78:  MOVWF  FF8
07B7A:  MOVLW  08
07B7C:  MOVLB  3
07B7E:  MOVWF  x10
07B80:  MOVLB  0
07B82:  CALL   1C0C
07B86:  MOVFF  21C,2EC
07B8A:  MOVLW  18
07B8C:  MOVLB  2
07B8E:  MOVWF  xED
07B90:  MOVLB  0
07B92:  CALL   6E72
07B96:  MOVLW  0D
07B98:  BTFSS  F9E.4
07B9A:  BRA    7B98
07B9C:  MOVWF  FAD
07B9E:  MOVLW  0A
07BA0:  BTFSS  F9E.4
07BA2:  BRA    7BA0
07BA4:  MOVWF  FAD
....................          CHECK_FAB_RESPONSE = 0; 
07BA6:  MOVLB  2
07BA8:  CLRF   x21
....................          SAVE_HIGH_SAMP_DATA_TO_EACH_MEMORY(); 
07BAA:  MOVLB  0
07BAC:  RCALL  755A
07BAE:  MOVLB  2
....................       }     
....................       //Delete_in_HK(); 
....................  
....................    FAB_DATA = 0; 
07BB0:  CLRF   x1A
....................    output_high(PIN_C4); 
07BB2:  BCF    F94.4
07BB4:  BSF    F8B.4
....................  
....................    return; 
07BB6:  MOVLB  0
07BB8:  GOTO   7ED2 (RETURN)
.................... } 
....................  
....................  
.................... //--------CAM MISSION---------------------------------------------------------- 
.................... //#define STORE_TO_SING AA 
.................... ////////////////////////////////////////////////// 
.................... //CAM MISSION ID: 0x54                          // 
.................... //CAM ACK: 0x61                                 // 
.................... //CAM Finish Storing: 0x62                      // 
.................... ////////////////////////////////////////////////// 
....................  
.................... int8 CAM_ACK = 0; 
....................  
....................  
.................... void Turn_On_CAM() 
.................... { 
....................    output_high(PIN_D7); 
*
06C4C:  BCF    F95.7
06C4E:  BSF    F8C.7
....................    return; 
06C50:  GOTO   6C98 (RETURN)
.................... } 
....................  
.................... void Turn_Off_CAM() 
.................... { 
....................    output_low(PIN_D7); 
*
02B72:  BCF    F95.7
02B74:  BCF    F8C.7
....................    return; 
02B76:  RETURN 0
.................... } 
....................  
.................... void Send_Command_to_CAM(int8 data)                                              //testing for EM integration 
.................... { 
....................    fputc(data,CAM); 
*
06CFC:  MOVFF  2E6,2E7
06D00:  RCALL  6CB6
....................    fprintf(PC,"Command:%x\r\n",data); 
06D02:  MOVLW  C4
06D04:  MOVWF  FF6
06D06:  MOVLW  10
06D08:  MOVWF  FF7
06D0A:  MOVLW  00
06D0C:  MOVWF  FF8
06D0E:  MOVLW  08
06D10:  MOVLB  3
06D12:  MOVWF  x10
06D14:  MOVLB  0
06D16:  CALL   1C0C
06D1A:  MOVFF  2E6,311
06D1E:  MOVLW  57
06D20:  MOVLB  3
06D22:  MOVWF  x12
06D24:  MOVLB  0
06D26:  CALL   1C3E
06D2A:  MOVLW  0D
06D2C:  BTFSS  F9E.4
06D2E:  BRA    6D2C
06D30:  MOVWF  FAD
06D32:  MOVLW  0A
06D34:  BTFSS  F9E.4
06D36:  BRA    6D34
06D38:  MOVWF  FAD
....................    return; 
06D3A:  RETURN 0
.................... } 
....................  
.................... void CAM_SETTINGS() 
.................... { 
....................    //disable_interrupts(INT_rda);                                                // Main to PC 
....................    fprintf(PC,"CAM Start operation\r\n"); 
*
06C54:  MOVLW  D2
06C56:  MOVWF  FF6
06C58:  MOVLW  10
06C5A:  MOVWF  FF7
06C5C:  MOVLW  00
06C5E:  MOVWF  FF8
06C60:  CALL   362C
....................    COM_ONEBYTE_COMMAND = 0; 
06C64:  CLRF   x9A
....................    fprintf(PC,"Deleting 1 sector SMF Address 00080000\r\n"); 
06C66:  MOVLW  E8
06C68:  MOVWF  FF6
06C6A:  MOVLW  10
06C6C:  MOVWF  FF7
06C6E:  MOVLW  00
06C70:  MOVWF  FF8
06C72:  CALL   362C
....................    REFRESH_SECTOR_SMF(0x00,0x08,0x00,0x00);                                      //clear 1 sector MISSION flash CAM PART 
06C76:  MOVLB  2
06C78:  CLRF   xF6
06C7A:  MOVLW  08
06C7C:  MOVWF  xF7
06C7E:  CLRF   xF8
06C80:  CLRF   xF9
06C82:  MOVLB  0
06C84:  RCALL  6B96
....................    output_high(PIN_A5);                                                          //turn on MUX (give access to CAM) 
06C86:  BCF    F92.5
06C88:  BSF    F89.5
....................    delay_ms(100); 
06C8A:  MOVLW  64
06C8C:  MOVLB  3
06C8E:  MOVWF  x19
06C90:  MOVLB  0
06C92:  CALL   1F78
....................    Turn_On_CAM();                                                                //Turn on CAM 
06C96:  BRA    6C4C
....................    fprintf(PC,"Turned On CAM and MUX CAM side\r\n"); 
06C98:  MOVLW  12
06C9A:  MOVWF  FF6
06C9C:  MOVLW  11
06C9E:  MOVWF  FF7
06CA0:  MOVLW  00
06CA2:  MOVWF  FF8
06CA4:  CALL   362C
....................    delay_ms(10); 
06CA8:  MOVLW  0A
06CAA:  MOVLB  3
06CAC:  MOVWF  x19
06CAE:  MOVLB  0
06CB0:  CALL   1F78
....................    return; 
06CB4:  RETURN 0
.................... } 
....................  
.................... void CHECK_ACK_FROM_CAM_10k()                                                    //check 10000 times (keep listening about 10 sec) 
.................... { 
....................    for(int32 num = 0; num < 1000000; num++)  
*
06D86:  MOVLB  2
06D88:  CLRF   xE9
06D8A:  CLRF   xE8
06D8C:  CLRF   xE7
06D8E:  CLRF   xE6
06D90:  MOVF   xE9,F
06D92:  BNZ   6DCC
06D94:  MOVF   xE8,W
06D96:  SUBLW  0F
06D98:  BNC   6DCC
06D9A:  BNZ   6DAA
06D9C:  MOVF   xE7,W
06D9E:  SUBLW  42
06DA0:  BNC   6DCC
06DA2:  BNZ   6DAA
06DA4:  MOVF   xE6,W
06DA6:  SUBLW  3F
06DA8:  BNC   6DCC
....................    { 
....................       if(kbhit(CAM))                                                             //kbhit(PC) 
06DAA:  BTFSC  F86.3
06DAC:  BRA    6DBA
....................       { 
....................          CAM_ACK = fgetc(CAM);                                                   //PC    
06DAE:  MOVLB  0
06DB0:  RCALL  6D3C
06DB2:  MOVFF  01,273
....................          break; 
06DB6:  MOVLB  2
06DB8:  BRA    6DCC
....................       } 
06DBA:  MOVLW  01
06DBC:  ADDWF  xE6,F
06DBE:  BTFSC  FD8.0
06DC0:  INCF   xE7,F
06DC2:  BTFSC  FD8.2
06DC4:  INCF   xE8,F
06DC6:  BTFSC  FD8.2
06DC8:  INCF   xE9,F
06DCA:  BRA    6D90
....................       //delay_ms(1); 
....................    } 
....................    return; 
06DCC:  MOVLB  0
06DCE:  RETURN 0
.................... } 
....................  
.................... void CHECK_ACK_FROM_CAM_30k()                                                    //check 30000 times (keep listening about 30 sec) 
.................... { 
....................    for(int32 num = 0; num < 3000000; num++)  
....................    { 
....................       if(kbhit(CAM))                                                             //kbhit(PC) 
....................       { 
....................          CAM_ACK = fgetc(CAM);                                                   //PC    
....................          break; 
....................       } 
....................       //delay_ms(1); 
....................    } 
....................    return; 
.................... } 
....................  
.................... void CHECK_ACK_FROM_CAM_200k()                                                   //check 200000 times(keep listening about 200 sec) 
.................... { 
....................    for(int32 num = 0; num < 40000000; num++)  
*
06E2C:  MOVLB  2
06E2E:  CLRF   xE9
06E30:  CLRF   xE8
06E32:  CLRF   xE7
06E34:  CLRF   xE6
06E36:  MOVF   xE9,W
06E38:  SUBLW  02
06E3A:  BNC   6E6E
06E3C:  BNZ   6E4C
06E3E:  MOVF   xE8,W
06E40:  SUBLW  62
06E42:  BNC   6E6E
06E44:  BNZ   6E4C
06E46:  MOVF   xE7,W
06E48:  SUBLW  59
06E4A:  BNC   6E6E
....................    { 
....................       if(kbhit(CAM))                                                             //kbhit(PC) 
06E4C:  BTFSC  F86.3
06E4E:  BRA    6E5C
....................       { 
....................          CAM_ACK = fgetc(CAM);                                                   //PC 
06E50:  MOVLB  0
06E52:  RCALL  6D3C
06E54:  MOVFF  01,273
....................          break; 
06E58:  MOVLB  2
06E5A:  BRA    6E6E
....................       } 
06E5C:  MOVLW  01
06E5E:  ADDWF  xE6,F
06E60:  BTFSC  FD8.0
06E62:  INCF   xE7,F
06E64:  BTFSC  FD8.2
06E66:  INCF   xE8,F
06E68:  BTFSC  FD8.2
06E6A:  INCF   xE9,F
06E6C:  BRA    6E36
....................       //delay_ms(1); 
....................    } 
....................    return; 
06E6E:  MOVLB  0
06E70:  RETURN 0
.................... } 
.................... /* 
.................... int8 ACK_from_CAM() 
.................... { 
....................    int8 ack; 
....................    ack = fgetc(CAM | PC); 
....................    return ack; 
.................... } 
....................  
.................... void Transfer_Photo() //transfer photo from Shared Mission Flash to Shared COM Flash 
.................... { 
....................    output_low(PIN_A5); 
....................    output_low(PIN_C4); 
....................    TRANSFER_DATA_NBYTE_SMFtoSCF(0,CAM_ADDRESS,65536); //from: sector0, to: sector1, datasize: 64kbyte(this value is for testing) 
....................    CAM_ADDRESS = CAM_ADDRESS + 65536; 
....................    return; 
.................... } 
.................... */ 
.................... void CAM_TEST_OPERATION(int8 mode)                                               //Integration Testing With CAM 
.................... { 
....................    CAM_SETTINGS();                                                               //Turn ON CAM, delete 1 sector SCF address 00080000, MUX CAM side 
*
08326:  CALL   6C54
....................    delay_ms(5000);                                                               //Time is necessary for CAM to be ready 
0832A:  MOVLW  14
0832C:  MOVLB  2
0832E:  MOVWF  xE6
08330:  MOVLW  FA
08332:  MOVLB  3
08334:  MOVWF  x19
08336:  MOVLB  0
08338:  CALL   1F78
0833C:  MOVLB  2
0833E:  DECFSZ xE6,F
08340:  BRA    8330
....................  
....................  
....................    fprintf(PC,"Sending hand shake Command to CAM\r\n"); 
08342:  MOVLW  34
08344:  MOVWF  FF6
08346:  MOVLW  11
08348:  MOVWF  FF7
0834A:  MOVLW  00
0834C:  MOVWF  FF8
0834E:  MOVLB  0
08350:  CALL   362C
....................    delay_ms(10); 
08354:  MOVLW  0A
08356:  MOVLB  3
08358:  MOVWF  x19
0835A:  MOVLB  0
0835C:  CALL   1F78
....................    Send_Command_to_CAM(0x54);                                                    //CAM MISSION ID 
08360:  MOVLW  54
08362:  MOVLB  2
08364:  MOVWF  xE6
08366:  MOVLB  0
08368:  CALL   6CFC
....................    //fputc(0x54,PC); 
....................    CHECK_ACK_FROM_CAM_10k();                                                     //keep listening about 10 sec 
0836C:  CALL   6D86
....................     
....................    if(CAM_ACK == 0x61)                                                           //CAM ACK 
08370:  MOVLB  2
08372:  MOVF   x73,W
08374:  SUBLW  61
08376:  BTFSS  FD8.2
08378:  BRA    8616
....................    { 
....................       CAM_ACK = 0; 
0837A:  CLRF   x73
....................       LOOP_CAM_ADDRESS();                                                        //hace un loop en las posiciones de memoria para almacenar CAM data 
0837C:  MOVLB  0
0837E:  CALL   6DD0
....................       fprintf(PC,"ACK received from CAM\r\n\r\n"); 
08382:  MOVLW  58
08384:  MOVWF  FF6
08386:  MOVLW  11
08388:  MOVWF  FF7
0838A:  MOVLW  00
0838C:  MOVWF  FF8
0838E:  CALL   362C
....................       //delay_ms(1000); 
....................       fprintf(PC,"Sending CAM MODE data\r\n"); 
08392:  MOVLW  72
08394:  MOVWF  FF6
08396:  MOVLW  11
08398:  MOVWF  FF7
0839A:  MOVLW  00
0839C:  MOVWF  FF8
0839E:  CALL   362C
....................       fputc(mode,CAM); 
083A2:  MOVFF  2E5,2E7
083A6:  CALL   6CB6
....................       CHECK_ACK_FROM_CAM_10k();                                                  //keep listening about 10 sec 
083AA:  CALL   6D86
....................       if(CAM_ACK == mode) 
083AE:  MOVLB  2
083B0:  MOVF   xE5,W
083B2:  SUBWF  x73,W
083B4:  BTFSS  FD8.2
083B6:  BRA    8614
....................       { 
....................             fprintf(PC,"Capturing and saving in SFM...\r\n\r\n"); 
083B8:  MOVLW  8A
083BA:  MOVWF  FF6
083BC:  MOVLW  11
083BE:  MOVWF  FF7
083C0:  MOVLW  00
083C2:  MOVWF  FF8
083C4:  MOVLB  0
083C6:  CALL   362C
....................           
....................          CHECK_ACK_FROM_CAM_200k();                                              //keep listening about 200 sec 
083CA:  CALL   6E2C
....................           
....................          if(CAM_ACK == 0x62)                                                     //CAM Finish Storing 
083CE:  MOVLB  2
083D0:  MOVF   x73,W
083D2:  SUBLW  62
083D4:  BTFSS  FD8.2
083D6:  BRA    85FE
....................          { 
....................             CAM_ACK = 0; 
083D8:  CLRF   x73
....................             fprintf(PC,"PHOTO SAVING DONE\r\n");    
083DA:  MOVLW  AE
083DC:  MOVWF  FF6
083DE:  MOVLW  11
083E0:  MOVWF  FF7
083E2:  MOVLW  00
083E4:  MOVWF  FF8
083E6:  MOVLB  0
083E8:  CALL   362C
....................             output_low(PIN_A5);                                                  //Mission Flash MUX Main side 
083EC:  BCF    F92.5
083EE:  BCF    F89.5
....................             delay_ms(10); 
083F0:  MOVLW  0A
083F2:  MOVLB  3
083F4:  MOVWF  x19
083F6:  MOVLB  0
083F8:  CALL   1F78
....................             //TRANSFER_DATA_NBYTE_TOPC_SMF(0x00000000,256);                      //for checking 
....................             output_low(PIN_C4);                                                  //COM Flash MUX Main side 
083FC:  BCF    F94.4
083FE:  BCF    F8B.4
....................             delay_ms(10); 
08400:  MOVLW  0A
08402:  MOVLB  3
08404:  MOVWF  x19
08406:  MOVLB  0
08408:  CALL   1F78
....................             fprintf(PC,"Read and Transfer data from SMF TO SCF and OF Start\r\n"); 
0840C:  MOVLW  C2
0840E:  MOVWF  FF6
08410:  MOVLW  11
08412:  MOVWF  FF7
08414:  MOVLW  00
08416:  MOVWF  FF8
08418:  CALL   362C
....................             delay_ms(1000); 
0841C:  MOVLW  04
0841E:  MOVLB  2
08420:  MOVWF  xE6
08422:  MOVLW  FA
08424:  MOVLB  3
08426:  MOVWF  x19
08428:  MOVLB  0
0842A:  CALL   1F78
0842E:  MOVLB  2
08430:  DECFSZ xE6,F
08432:  BRA    8422
....................              
....................             if(mode == 0xB0 || mode == 0xB1 || mode == 0xB2)                     //if CAM data size will be 2sectors 
08434:  MOVF   xE5,W
08436:  SUBLW  B0
08438:  BZ    8446
0843A:  MOVF   xE5,W
0843C:  SUBLW  B1
0843E:  BZ    8446
08440:  MOVF   xE5,W
08442:  SUBLW  B2
08444:  BNZ   851E
....................             { 
....................                sector_erase_SCF(CAM_ADDRESS);                                    //delete 1st sector 
08446:  MOVFF  47,309
0844A:  MOVFF  46,308
0844E:  MOVFF  45,307
08452:  MOVFF  44,306
08456:  MOVLB  0
08458:  CALL   39BC
....................                sector_erase_SCF(CAM_ADDRESS + 65536);                            //delete 2nd sector 
0845C:  MOVFF  44,2E6
08460:  MOVLB  2
08462:  MOVFF  45,2E7
08466:  MOVLW  01
08468:  ADDWF  46,W
0846A:  MOVWF  xE8
0846C:  MOVLW  00
0846E:  ADDWFC 47,W
08470:  MOVWF  xE9
08472:  MOVFF  FE8,309
08476:  MOVFF  2E8,308
0847A:  MOVFF  45,307
0847E:  MOVFF  44,306
08482:  MOVLB  0
08484:  CALL   39BC
....................                TRANSFER_DATA_NBYTE_SMFtoSCF(0x00080000,CAM_ADDRESS,80000);       //From(SMF): sector8, To(SCF): sector indicated by CAM_ADDRESS 
08488:  MOVLB  2
0848A:  CLRF   xE9
0848C:  MOVLW  08
0848E:  MOVWF  xE8
08490:  CLRF   xE7
08492:  CLRF   xE6
08494:  MOVFF  47,2ED
08498:  MOVFF  46,2EC
0849C:  MOVFF  45,2EB
084A0:  MOVFF  44,2EA
084A4:  CLRF   xF1
084A6:  MOVLW  01
084A8:  MOVWF  xF0
084AA:  MOVLW  38
084AC:  MOVWF  xEF
084AE:  MOVLW  80
084B0:  MOVWF  xEE
084B2:  MOVLB  0
084B4:  RCALL  8188
....................                TRANSFER_DATA_NBYTE_SMFtoOF(0x00080000,CAM_ADDRESS,80000);        //From(SMF): sector8, To(SCF): sector indicated by CAM_ADDRESS 
084B6:  MOVLB  2
084B8:  CLRF   xE9
084BA:  MOVLW  08
084BC:  MOVWF  xE8
084BE:  CLRF   xE7
084C0:  CLRF   xE6
084C2:  MOVFF  47,2ED
084C6:  MOVFF  46,2EC
084CA:  MOVFF  45,2EB
084CE:  MOVFF  44,2EA
084D2:  CLRF   xF1
084D4:  MOVLW  01
084D6:  MOVWF  xF0
084D8:  MOVLW  38
084DA:  MOVWF  xEF
084DC:  MOVLW  80
084DE:  MOVWF  xEE
084E0:  MOVLB  0
084E2:  RCALL  821A
....................                TRANSFER_DATA_NBYTE_TOPC_SCF(CAM_ADDRESS,90000);                  //From(SCF): FROM CAM_ADDRESS To PC 
084E4:  MOVFF  47,2E9
084E8:  MOVFF  46,2E8
084EC:  MOVFF  45,2E7
084F0:  MOVFF  44,2E6
084F4:  MOVLB  2
084F6:  CLRF   xED
084F8:  MOVLW  01
084FA:  MOVWF  xEC
084FC:  MOVLW  5F
084FE:  MOVWF  xEB
08500:  MOVLW  90
08502:  MOVWF  xEA
08504:  MOVLB  0
08506:  RCALL  82AC
....................                CAM_ADDRESS = CAM_ADDRESS + 65536*2;                              //se ubica en la nueva posicion, dos sectores adelante 
08508:  MOVLW  02
0850A:  ADDWF  46,F
0850C:  MOVLW  00
0850E:  ADDWFC 47,F
....................                delay_ms(10); 
08510:  MOVLW  0A
08512:  MOVLB  3
08514:  MOVWF  x19
08516:  MOVLB  0
08518:  CALL   1F78
0851C:  MOVLB  2
....................             } 
....................             if(mode == 0xA0 || mode == 0xA1 || mode == 0xA2) 
0851E:  MOVF   xE5,W
08520:  SUBLW  A0
08522:  BZ    8530
08524:  MOVF   xE5,W
08526:  SUBLW  A1
08528:  BZ    8530
0852A:  MOVF   xE5,W
0852C:  SUBLW  A2
0852E:  BNZ   85FC
....................             { 
....................                sector_erase_SCF(CAM_ADDRESS);                                    //delete 1st sector 
08530:  MOVFF  47,309
08534:  MOVFF  46,308
08538:  MOVFF  45,307
0853C:  MOVFF  44,306
08540:  MOVLB  0
08542:  CALL   39BC
....................                sector_erase_SCF(CAM_ADDRESS + 65536);                            //delete 2nd sector 
08546:  MOVFF  44,2E6
0854A:  MOVLB  2
0854C:  MOVFF  45,2E7
08550:  MOVLW  01
08552:  ADDWF  46,W
08554:  MOVWF  xE8
08556:  MOVLW  00
08558:  ADDWFC 47,W
0855A:  MOVWF  xE9
0855C:  MOVFF  FE8,309
08560:  MOVFF  2E8,308
08564:  MOVFF  45,307
08568:  MOVFF  44,306
0856C:  MOVLB  0
0856E:  CALL   39BC
....................                TRANSFER_DATA_NBYTE_SMFtoSCF(0x00080000,CAM_ADDRESS,65536);       //From(SMF): sector8, To(SCF): sector indicated by CAM_ADDRESS 
08572:  MOVLB  2
08574:  CLRF   xE9
08576:  MOVLW  08
08578:  MOVWF  xE8
0857A:  CLRF   xE7
0857C:  CLRF   xE6
0857E:  MOVFF  47,2ED
08582:  MOVFF  46,2EC
08586:  MOVFF  45,2EB
0858A:  MOVFF  44,2EA
0858E:  CLRF   xF1
08590:  MOVLW  01
08592:  MOVWF  xF0
08594:  CLRF   xEF
08596:  CLRF   xEE
08598:  MOVLB  0
0859A:  RCALL  8188
....................                TRANSFER_DATA_NBYTE_SMFtoOF(0x00080000,CAM_ADDRESS,65536);        //From(SMF): sector8, To(SCF): sector indicated by CAM_ADDRESS 
0859C:  MOVLB  2
0859E:  CLRF   xE9
085A0:  MOVLW  08
085A2:  MOVWF  xE8
085A4:  CLRF   xE7
085A6:  CLRF   xE6
085A8:  MOVFF  47,2ED
085AC:  MOVFF  46,2EC
085B0:  MOVFF  45,2EB
085B4:  MOVFF  44,2EA
085B8:  CLRF   xF1
085BA:  MOVLW  01
085BC:  MOVWF  xF0
085BE:  CLRF   xEF
085C0:  CLRF   xEE
085C2:  MOVLB  0
085C4:  RCALL  821A
....................                TRANSFER_DATA_NBYTE_TOPC_SCF(CAM_ADDRESS,65536); 
085C6:  MOVFF  47,2E9
085CA:  MOVFF  46,2E8
085CE:  MOVFF  45,2E7
085D2:  MOVFF  44,2E6
085D6:  MOVLB  2
085D8:  CLRF   xED
085DA:  MOVLW  01
085DC:  MOVWF  xEC
085DE:  CLRF   xEB
085E0:  CLRF   xEA
085E2:  MOVLB  0
085E4:  RCALL  82AC
....................                CAM_ADDRESS = CAM_ADDRESS + 65536; 
085E6:  MOVLW  01
085E8:  ADDWF  46,F
085EA:  MOVLW  00
085EC:  ADDWFC 47,F
....................                delay_ms(10); 
085EE:  MOVLW  0A
085F0:  MOVLB  3
085F2:  MOVWF  x19
085F4:  MOVLB  0
085F6:  CALL   1F78
085FA:  MOVLB  2
....................             } 
....................              
....................          }else{ 
085FC:  BRA    8614
....................             CAM_ACK = 0; 
085FE:  CLRF   x73
....................             fprintf(PC,"CAM DATA SAVING FAILURED\r\n"); 
08600:  MOVLW  F8
08602:  MOVWF  FF6
08604:  MOVLW  11
08606:  MOVWF  FF7
08608:  MOVLW  00
0860A:  MOVWF  FF8
0860C:  MOVLB  0
0860E:  CALL   362C
08612:  MOVLB  2
....................          }    
....................       }    
....................  
....................    }else{ 
08614:  BRA    862C
....................       CAM_ACK = 0; 
08616:  CLRF   x73
....................       fprintf(PC,"CAM ACK FAILURED\r\n"); 
08618:  MOVLW  14
0861A:  MOVWF  FF6
0861C:  MOVLW  12
0861E:  MOVWF  FF7
08620:  MOVLW  00
08622:  MOVWF  FF8
08624:  MOVLB  0
08626:  CALL   362C
0862A:  MOVLB  2
....................    } 
....................    
....................    Turn_Off_CAM(); 
0862C:  MOVLB  0
0862E:  CALL   2B72
....................    fprintf(PC,"Turned OFF CAM\r\n"); 
08632:  MOVLW  28
08634:  MOVWF  FF6
08636:  MOVLW  12
08638:  MOVWF  FF7
0863A:  MOVLW  00
0863C:  MOVWF  FF8
0863E:  CALL   362C
....................    output_high(PIN_C4); //Give Access to COM PIC 
08642:  BCF    F94.4
08644:  BSF    F8B.4
....................    //fputc(0x69,COM);  
....................    //enable_interrupts(INT_rda);   // Main to PC 
....................    return; 
08646:  RETURN 0
.................... } 
....................  
.................... void CAM_DEPLOYMENT_OPERATION(int8 mode) 
.................... { 
....................    CAM_SETTINGS();                                                               //Turn ON CAM, delete 1 sector SCF address 00080000, MUX CAM side 
*
06F50:  RCALL  6C54
....................    delay_ms(5000);                                                               //Time is necessary for CAM to be ready 
06F52:  MOVLW  14
06F54:  MOVLB  2
06F56:  MOVWF  xDC
06F58:  MOVLW  FA
06F5A:  MOVLB  3
06F5C:  MOVWF  x19
06F5E:  MOVLB  0
06F60:  CALL   1F78
06F64:  MOVLB  2
06F66:  DECFSZ xDC,F
06F68:  BRA    6F58
....................    fprintf(PC,"Sending hand shake Command to CAM\r\n"); 
06F6A:  MOVLW  3A
06F6C:  MOVWF  FF6
06F6E:  MOVLW  12
06F70:  MOVWF  FF7
06F72:  MOVLW  00
06F74:  MOVWF  FF8
06F76:  MOVLB  0
06F78:  CALL   362C
....................    delay_ms(10); 
06F7C:  MOVLW  0A
06F7E:  MOVLB  3
06F80:  MOVWF  x19
06F82:  MOVLB  0
06F84:  CALL   1F78
....................    Send_Command_to_CAM(0x54);                                                    //CAM MISSION ID 
06F88:  MOVLW  54
06F8A:  MOVLB  2
06F8C:  MOVWF  xE6
06F8E:  MOVLB  0
06F90:  RCALL  6CFC
....................    CHECK_ACK_FROM_CAM_10k();                                                     //keep listening about 10 sec 
06F92:  RCALL  6D86
....................    if(CAM_ACK == 0x61)                                                           //CAM ACK 
06F94:  MOVLB  2
06F96:  MOVF   x73,W
06F98:  SUBLW  61
06F9A:  BTFSS  FD8.2
06F9C:  BRA    708E
....................    { 
....................       fprintf(PC,"ACK received from CAM\r\n\r\n"); 
06F9E:  MOVLW  5E
06FA0:  MOVWF  FF6
06FA2:  MOVLW  12
06FA4:  MOVWF  FF7
06FA6:  MOVLW  00
06FA8:  MOVWF  FF8
06FAA:  MOVLB  0
06FAC:  CALL   362C
....................       CAM_ACK = 0;       
06FB0:  MOVLB  2
06FB2:  CLRF   x73
....................       for(int a = 0; a < 1; a++)                                               //deployment capture repetition 
06FB4:  CLRF   xDB
06FB6:  MOVF   xDB,F
06FB8:  BNZ   708C
....................       { 
....................          LOOP_CAM_ADDRESS();                                                    //hace un loop en las posiciones de memoria para almacenar CAM data 
06FBA:  MOVLB  0
06FBC:  RCALL  6DD0
....................          fprintf(PC,"Sending CAM MODE data\r\n"); 
06FBE:  MOVLW  78
06FC0:  MOVWF  FF6
06FC2:  MOVLW  12
06FC4:  MOVWF  FF7
06FC6:  MOVLW  00
06FC8:  MOVWF  FF8
06FCA:  CALL   362C
....................          delay_ms(2000);                                                         //for CAM to go waiting for OBC cmnd 
06FCE:  MOVLW  08
06FD0:  MOVLB  2
06FD2:  MOVWF  xDC
06FD4:  MOVLW  FA
06FD6:  MOVLB  3
06FD8:  MOVWF  x19
06FDA:  MOVLB  0
06FDC:  CALL   1F78
06FE0:  MOVLB  2
06FE2:  DECFSZ xDC,F
06FE4:  BRA    6FD4
....................          fputc(mode,CAM); 
06FE6:  MOVFF  2DA,2E7
06FEA:  MOVLB  0
06FEC:  RCALL  6CB6
....................          CHECK_ACK_FROM_CAM_10k();                                              //keep listening about 10 sec 
06FEE:  RCALL  6D86
....................             if(CAM_ACK == mode) 
06FF0:  MOVLB  2
06FF2:  MOVF   xDA,W
06FF4:  SUBWF  x73,W
06FF6:  BNZ   7088
....................             { 
....................                fprintf(PC,"Capturing and saving in SFM...\r\n\r\n"); 
06FF8:  MOVLW  90
06FFA:  MOVWF  FF6
06FFC:  MOVLW  12
06FFE:  MOVWF  FF7
07000:  MOVLW  00
07002:  MOVWF  FF8
07004:  MOVLB  0
07006:  CALL   362C
....................                CHECK_ACK_FROM_CAM_200k();                                       //keep listening about 200 sec 
0700A:  RCALL  6E2C
....................                //CHECK_ACK_FROM_CAM_30k();                                         //keep listening about 30 sec 
....................                   if(CAM_ACK == 0x62)                                           //CAM Finish Storing 
0700C:  MOVLB  2
0700E:  MOVF   x73,W
07010:  SUBLW  62
07012:  BNZ   7072
....................                   { 
....................                      CAM_ACK = 0; 
07014:  CLRF   x73
....................                      fprintf(PC,"PHOTO %d SAVING DONE\r\n",a+1);                     
07016:  MOVLW  01
07018:  ADDWF  xDB,W
0701A:  MOVWF  xDC
0701C:  MOVLW  B4
0701E:  MOVWF  FF6
07020:  MOVLW  12
07022:  MOVWF  FF7
07024:  MOVLW  00
07026:  MOVWF  FF8
07028:  MOVLW  06
0702A:  MOVLB  3
0702C:  MOVWF  x10
0702E:  MOVLB  0
07030:  CALL   1C0C
07034:  MOVFF  2DC,2EC
07038:  MOVLW  18
0703A:  MOVLB  2
0703C:  MOVWF  xED
0703E:  MOVLB  0
07040:  RCALL  6E72
07042:  MOVLW  BC
07044:  MOVWF  FF6
07046:  MOVLW  12
07048:  MOVWF  FF7
0704A:  MOVLW  00
0704C:  MOVWF  FF8
0704E:  MOVLW  0E
07050:  MOVLB  3
07052:  MOVWF  x10
07054:  MOVLB  0
07056:  CALL   1C0C
....................                      CAM_ADDRESS = CAM_ADDRESS + 65536;                          //se ubica en la nueva posicion, 10 sectores adelante 
0705A:  MOVLW  01
0705C:  ADDWF  46,F
0705E:  MOVLW  00
07060:  ADDWFC 47,F
....................                      //sector_erase_SCF(CAM_ADDRESS); 
....................                      delay_ms(10); 
07062:  MOVLW  0A
07064:  MOVLB  3
07066:  MOVWF  x19
07068:  MOVLB  0
0706A:  CALL   1F78
....................        
....................                   }else{ 
0706E:  BRA    7086
07070:  MOVLB  2
....................                      CAM_ACK = 0; 
07072:  CLRF   x73
....................                      fprintf(PC,"CAM DATA SAVING FAILURED\r\n"); 
07074:  MOVLW  CC
07076:  MOVWF  FF6
07078:  MOVLW  12
0707A:  MOVWF  FF7
0707C:  MOVLW  00
0707E:  MOVWF  FF8
07080:  MOVLB  0
07082:  CALL   362C
07086:  MOVLB  2
....................                   }    
....................             }    
07088:  INCF   xDB,F
0708A:  BRA    6FB6
....................          } 
....................    }else{ 
0708C:  BRA    70A4
....................       CAM_ACK = 0; 
0708E:  CLRF   x73
....................       fprintf(PC,"CAM ACK FAILURED\r\n"); 
07090:  MOVLW  E8
07092:  MOVWF  FF6
07094:  MOVLW  12
07096:  MOVWF  FF7
07098:  MOVLW  00
0709A:  MOVWF  FF8
0709C:  MOVLB  0
0709E:  CALL   362C
070A2:  MOVLB  2
....................    } 
....................    output_low(PIN_A5);                                                           //Mission Flash MUX Main side 
070A4:  BCF    F92.5
070A6:  BCF    F89.5
....................    delay_ms(10); 
070A8:  MOVLW  0A
070AA:  MOVLB  3
070AC:  MOVWF  x19
070AE:  MOVLB  0
070B0:  CALL   1F78
....................    Turn_Off_CAM(); 
070B4:  CALL   2B72
....................    fprintf(PC,"Turned OFF CAM\r\n"); 
070B8:  MOVLW  FC
070BA:  MOVWF  FF6
070BC:  MOVLW  12
070BE:  MOVWF  FF7
070C0:  MOVLW  00
070C2:  MOVWF  FF8
070C4:  CALL   362C
....................    output_high(PIN_C4);                                                          //Give Access to COM PIC 
070C8:  BCF    F94.4
070CA:  BSF    F8B.4
....................    return; 
070CC:  GOTO   DB0E (RETURN)
.................... } 
....................  
....................  
.................... //--------Mission Boss PIC Data Collection---------------------------------------------- 
....................  
.................... int8 DC_ACK = 0; 
.................... int8 MBP_DATA[83] = {}; 
....................  
.................... void Turn_On_MBP() 
.................... { 
....................    output_high(PIN_F5); 
*
02B7E:  BCF    F97.5
02B80:  BSF    F8E.5
....................    return; 
02B82:  RETURN 0
.................... } 
....................  
.................... void Turn_Off_MBP() 
.................... { 
....................    output_low(PIN_F5); 
*
0B036:  BCF    F97.5
0B038:  BCF    F8E.5
....................    return; 
0B03A:  GOTO   B128 (RETURN)
.................... } 
....................  
.................... void CHECK_ACK_FROM_DC_10k()                                                     //Wait ACK from DC for 10s 
.................... { 
....................    for(int32 num = 0; num < 1000000; num++)  
*
04378:  MOVLB  3
0437A:  CLRF   x00
0437C:  MOVLB  2
0437E:  CLRF   xFF
04380:  CLRF   xFE
04382:  CLRF   xFD
04384:  MOVLB  3
04386:  MOVF   x00,F
04388:  BNZ   43E0
0438A:  MOVLB  2
0438C:  MOVF   xFF,W
0438E:  SUBLW  0F
04390:  BTFSC  FD8.0
04392:  BRA    4398
04394:  MOVLB  3
04396:  BRA    43E0
04398:  BNZ   43B4
0439A:  MOVF   xFE,W
0439C:  SUBLW  42
0439E:  BTFSC  FD8.0
043A0:  BRA    43A6
043A2:  MOVLB  3
043A4:  BRA    43E0
043A6:  BNZ   43B4
043A8:  MOVF   xFD,W
043AA:  SUBLW  3F
043AC:  BTFSC  FD8.0
043AE:  BRA    43B4
043B0:  MOVLB  3
043B2:  BRA    43E0
....................    { 
....................       if(kbhit(DC))                                                             //kbhit(PC) 
043B4:  BTFSC  F86.1
043B6:  BRA    43C6
....................       { 
....................          DC_ACK = fgetc(DC);                                                    //PC    
043B8:  MOVLB  0
043BA:  RCALL  432E
043BC:  MOVFF  01,274
....................          break; 
043C0:  MOVLB  3
043C2:  BRA    43E0
043C4:  MOVLB  2
....................       } 
043C6:  MOVLW  01
043C8:  ADDWF  xFD,F
043CA:  BTFSC  FD8.0
043CC:  INCF   xFE,F
043CE:  BTFSC  FD8.2
043D0:  INCF   xFF,F
043D2:  BTFSS  FD8.2
043D4:  BRA    43DC
043D6:  MOVLB  3
043D8:  INCF   x00,F
043DA:  MOVLB  2
043DC:  BRA    4384
043DE:  MOVLB  3
....................       //delay_ms(1); 
....................    } 
....................    return; 
043E0:  MOVLB  0
043E2:  RETURN 0
.................... } 
....................  
.................... void DELETE_MBP_DATA()                                                           //Clear MBP array to receive data 
.................... { 
....................    for(int8 i = 0; i < 81; i++) 
*
0AC5A:  MOVLB  2
0AC5C:  CLRF   xF6
0AC5E:  MOVF   xF6,W
0AC60:  SUBLW  50
0AC62:  BNC   AC78
....................    { 
....................       MBP_DATA[i] = 0; 
0AC64:  CLRF   03
0AC66:  MOVF   xF6,W
0AC68:  ADDLW  75
0AC6A:  MOVWF  FE9
0AC6C:  MOVLW  02
0AC6E:  ADDWFC 03,W
0AC70:  MOVWF  FEA
0AC72:  CLRF   FEF
0AC74:  INCF   xF6,F
0AC76:  BRA    AC5E
....................    } 
....................    return; 
0AC78:  MOVLB  0
0AC7A:  GOTO   AE96 (RETURN)
.................... } 
....................  
.................... void GET_MBP_DATA(int16 transf_size) 
*
0AD82:  MOVLB  2
0AD84:  CLRF   xF9
0AD86:  CLRF   xF8
0AD88:  CLRF   xFA
.................... { 
....................    int16 n = 0; 
....................    int8 input = 0; 
....................    for(int32 i = 0; i < 99000000; i++)                                            //1000000 
0AD8A:  CLRF   xFE
0AD8C:  CLRF   xFD
0AD8E:  CLRF   xFC
0AD90:  CLRF   xFB
0AD92:  MOVF   xFE,W
0AD94:  SUBLW  05
0AD96:  BNC   AE3A
0AD98:  BNZ   ADB0
0AD9A:  MOVF   xFD,W
0AD9C:  SUBLW  E6
0AD9E:  BNC   AE3A
0ADA0:  BNZ   ADB0
0ADA2:  MOVF   xFC,W
0ADA4:  SUBLW  9E
0ADA6:  BNC   AE3A
0ADA8:  BNZ   ADB0
0ADAA:  MOVF   xFB,W
0ADAC:  SUBLW  BF
0ADAE:  BNC   AE3A
....................    {                                                                              //99000000 es tiempo suficiente para transferir un sector 
....................       if(kbhit(DC)) 
0ADB0:  BTFSC  F86.1
0ADB2:  BRA    AE28
....................       { 
....................          input = fgetc(DC);                                                      //get data from MBP 
0ADB4:  MOVLB  0
0ADB6:  CALL   432E
0ADBA:  MOVFF  01,2FA
....................          WRITE_DATA_BYTE_OF(DC_STATUS_ADDRESS,input);                            //Save data on OF, SCF, SMF 
0ADBE:  MOVFF  5B,314
0ADC2:  MOVFF  5A,313
0ADC6:  MOVFF  59,312
0ADCA:  MOVFF  58,311
0ADCE:  MOVFF  2FA,315
0ADD2:  CALL   1A80
....................          WRITE_DATA_BYTE_SCF(DC_STATUS_ADDRESS,input); 
0ADD6:  MOVFF  5B,314
0ADDA:  MOVFF  5A,313
0ADDE:  MOVFF  59,312
0ADE2:  MOVFF  58,311
0ADE6:  MOVFF  2FA,315
0ADEA:  CALL   1B0C
....................          WRITE_DATA_BYTE_SMF(DC_STATUS_ADDRESS,input); 
0ADEE:  MOVFF  5B,314
0ADF2:  MOVFF  5A,313
0ADF6:  MOVFF  59,312
0ADFA:  MOVFF  58,311
0ADFE:  MOVFF  2FA,315
0AE02:  CALL   1B98
....................          n++; 
0AE06:  MOVLB  2
0AE08:  INCF   xF8,F
0AE0A:  BTFSC  FD8.2
0AE0C:  INCF   xF9,F
....................          DC_STATUS_ADDRESS = DC_STATUS_ADDRESS + 1; 
0AE0E:  MOVLW  01
0AE10:  ADDWF  58,F
0AE12:  MOVLW  00
0AE14:  ADDWFC 59,F
0AE16:  ADDWFC 5A,F
0AE18:  ADDWFC 5B,F
....................          if(n==transf_size)                                                      //sale del for cuando se completa la cantidad de bytes 
0AE1A:  MOVF   xF6,W
0AE1C:  SUBWF  xF8,W
0AE1E:  BNZ   AE28
0AE20:  MOVF   xF7,W
0AE22:  SUBWF  xF9,W
0AE24:  BNZ   AE28
....................          { 
....................          break; 
0AE26:  BRA    AE3A
....................          } 
....................       } 
0AE28:  MOVLW  01
0AE2A:  ADDWF  xFB,F
0AE2C:  BTFSC  FD8.0
0AE2E:  INCF   xFC,F
0AE30:  BTFSC  FD8.2
0AE32:  INCF   xFD,F
0AE34:  BTFSC  FD8.2
0AE36:  INCF   xFE,F
0AE38:  BRA    AD92
....................    } 
....................  
....................    DC_STATUS_ADDRESS=0x06660000; 
0AE3A:  MOVLW  06
0AE3C:  MOVWF  5B
0AE3E:  MOVLW  66
0AE40:  MOVWF  5A
0AE42:  CLRF   59
0AE44:  CLRF   58
....................     
....................   /* for(int m = 0; m < n; m++)                                                    //Show data from MBP on PC 
....................    { 
....................       fprintf(PC,"%x",READ_DATA_BYTE_OF(DC_STATUS_ADDRESS + m)); 
....................    } 
....................    fprintf(PC,"\r\n");*/ 
....................  
....................    fprintf(PC,"Transferred %ld Bytes",n); 
0AE46:  MOVLW  0E
0AE48:  MOVWF  FF6
0AE4A:  MOVLW  13
0AE4C:  MOVWF  FF7
0AE4E:  MOVLW  00
0AE50:  MOVWF  FF8
0AE52:  MOVLW  0C
0AE54:  MOVLB  3
0AE56:  MOVWF  x10
0AE58:  MOVLB  0
0AE5A:  CALL   1C0C
0AE5E:  MOVLW  10
0AE60:  MOVWF  FE9
0AE62:  MOVFF  2F9,300
0AE66:  MOVFF  2F8,2FF
0AE6A:  BRA    AC7E
0AE6C:  MOVLW  1D
0AE6E:  MOVWF  FF6
0AE70:  MOVLW  13
0AE72:  MOVWF  FF7
0AE74:  MOVLW  00
0AE76:  MOVWF  FF8
0AE78:  MOVLW  06
0AE7A:  MOVLB  3
0AE7C:  MOVWF  x10
0AE7E:  MOVLB  0
0AE80:  CALL   1C0C
....................    n=0; 
0AE84:  MOVLB  2
0AE86:  CLRF   xF9
0AE88:  CLRF   xF8
....................    output_high(PIN_C4);                                                          //COM_MUX COM side 
0AE8A:  BCF    F94.4
0AE8C:  BSF    F8B.4
....................    return; 
0AE8E:  MOVLB  0
0AE90:  GOTO   B018 (RETURN)
.................... //!   fputc(0x67,DC);                                                               //Este debera ser CMD2 indicando que mision se ejecutara 
.................... //!   int16 n = 0; 
.................... //!   for(int32 i = 0; i < 1000000; i++)                                            //10000000 
.................... //!   { 
.................... //!      if(kbhit(DC)) 
.................... //!      { 
.................... //!         MBP_DATA[n] = fgetc(DC);                                                //get data from MBP 
.................... //!         n++; 
.................... //!      } 
.................... //!   } 
.................... //!   for(int m = 0; m < 83; m++)                                                   //Show data from MBP on PC 
.................... //!   { 
.................... //!      fprintf(PC,"%x",MBP_DATA[m]); 
.................... //!   } 
.................... //!   fprintf(PC,"\r\n"); 
.................... //!   output_low(PIN_C4);                                                           //COM_MUX Main side 
.................... //!   output_low(PIN_A5);                                                           //CAM_MUX Main side 
.................... //!   for(m = 0; m < 83; m++)                                                       //Save data on OF, SCF, SMF 
.................... //!   { 
.................... //!      WRITE_DATA_BYTE_OF(DC_STATUS_ADDRESS + m,MBP_DATA[m]); 
.................... //!      WRITE_DATA_BYTE_SCF(DC_STATUS_ADDRESS + m,MBP_DATA[m]); 
.................... //!      WRITE_DATA_BYTE_SMF(DC_STATUS_ADDRESS + m,MBP_DATA[m]); 
.................... //!   } 
.................... //!   output_high(PIN_C4);                                                          //COM_MUX COM side 
.................... //!   DC_STATUS_ADDRESS = DC_STATUS_ADDRESS + 83;                                   //save the new DC address 
.................... //!    
.................... //!   return; 
.................... } 
....................  
.................... void DATACOLLECTION_TEST_OPERATION(int8 cmd1,int8 cmd2,int8 cmd3,int8 cmd4,int8 cmd5,int8 cmd6,int8 cmd7) 
.................... { 
....................    DELETE_MBP_DATA();                                                            //Clear MBP array to receive data 
0AE94:  BRA    AC5A
....................   // LOOP_DC_STATUS_ADDRESS();                                                   //realiza un loop verificando si se esta por alcanzar el limite de espacio asignado 
....................    REFRESH_SECTOR_OF(0x06,0x66,0x00,0x00);                                       //clear 1 sector OBC flash DC part 
0AE96:  MOVLW  06
0AE98:  MOVLB  2
0AE9A:  MOVWF  xF6
0AE9C:  MOVLW  66
0AE9E:  MOVWF  xF7
0AEA0:  CLRF   xF8
0AEA2:  CLRF   xF9
0AEA4:  MOVLB  0
0AEA6:  RCALL  A6A8
....................    REFRESH_SECTOR_SCF(0x06,0x66,0x00,0x00);                                      //clear 1 sector COM flash DC part  
0AEA8:  MOVLW  06
0AEAA:  MOVLB  2
0AEAC:  MOVWF  xF6
0AEAE:  MOVLW  66
0AEB0:  MOVWF  xF7
0AEB2:  CLRF   xF8
0AEB4:  CLRF   xF9
0AEB6:  MOVLB  0
0AEB8:  RCALL  A75A
....................    REFRESH_SECTOR_SMF(0x06,0x66,0x00,0x00);                                      //clear 1 sector MISSION flash DC part 
0AEBA:  MOVLW  06
0AEBC:  MOVLB  2
0AEBE:  MOVWF  xF6
0AEC0:  MOVLW  66
0AEC2:  MOVWF  xF7
0AEC4:  CLRF   xF8
0AEC6:  CLRF   xF9
0AEC8:  MOVLB  0
0AECA:  CALL   6B96
....................     
....................    int16 data_pckts = make16(cmd6,cmd7); 
....................    int16 data_size = data_pckts*81; 
0AECE:  MOVFF  2F0,2F3
0AED2:  MOVFF  2F1,2F2
0AED6:  MOVFF  2F3,2F7
0AEDA:  MOVFF  2F2,2F6
0AEDE:  MOVLB  2
0AEE0:  CLRF   xF9
0AEE2:  MOVLW  51
0AEE4:  MOVWF  xF8
0AEE6:  MOVLB  0
0AEE8:  CALL   8082
0AEEC:  MOVFF  02,2F5
0AEF0:  MOVFF  01,2F4
....................     
....................    fprintf(PC,"sending commands to MBP\r\n"); 
0AEF4:  MOVLW  24
0AEF6:  MOVWF  FF6
0AEF8:  MOVLW  13
0AEFA:  MOVWF  FF7
0AEFC:  MOVLW  00
0AEFE:  MOVWF  FF8
0AF00:  CALL   362C
....................    Turn_On_MBP();                                                                 //RF5=HIGH 
0AF04:  CALL   2B7E
....................    delay_ms(30); 
0AF08:  MOVLW  1E
0AF0A:  MOVLB  3
0AF0C:  MOVWF  x19
0AF0E:  MOVLB  0
0AF10:  CALL   1F78
....................  
....................    fputc(cmd1,DC); 
0AF14:  MOVFF  2EB,2FD
0AF18:  CALL   42E8
....................    delay_ms(100); 
0AF1C:  MOVLW  64
0AF1E:  MOVLB  3
0AF20:  MOVWF  x19
0AF22:  MOVLB  0
0AF24:  CALL   1F78
....................    fputc(cmd2,DC); 
0AF28:  MOVFF  2EC,2FD
0AF2C:  CALL   42E8
....................    delay_ms(100); 
0AF30:  MOVLW  64
0AF32:  MOVLB  3
0AF34:  MOVWF  x19
0AF36:  MOVLB  0
0AF38:  CALL   1F78
....................    fputc(cmd3,DC); 
0AF3C:  MOVFF  2ED,2FD
0AF40:  CALL   42E8
....................    delay_ms(100); 
0AF44:  MOVLW  64
0AF46:  MOVLB  3
0AF48:  MOVWF  x19
0AF4A:  MOVLB  0
0AF4C:  CALL   1F78
....................    fputc(cmd4,DC); 
0AF50:  MOVFF  2EE,2FD
0AF54:  CALL   42E8
....................    delay_ms(100); 
0AF58:  MOVLW  64
0AF5A:  MOVLB  3
0AF5C:  MOVWF  x19
0AF5E:  MOVLB  0
0AF60:  CALL   1F78
....................    fputc(cmd5,DC); 
0AF64:  MOVFF  2EF,2FD
0AF68:  CALL   42E8
....................    delay_ms(100); 
0AF6C:  MOVLW  64
0AF6E:  MOVLB  3
0AF70:  MOVWF  x19
0AF72:  MOVLB  0
0AF74:  CALL   1F78
....................    fputc(cmd6,DC); 
0AF78:  MOVFF  2F0,2FD
0AF7C:  CALL   42E8
....................    delay_ms(100); 
0AF80:  MOVLW  64
0AF82:  MOVLB  3
0AF84:  MOVWF  x19
0AF86:  MOVLB  0
0AF88:  CALL   1F78
....................    fputc(cmd7,DC); 
0AF8C:  MOVFF  2F1,2FD
0AF90:  CALL   42E8
....................  
....................    CHECK_ACK_FROM_DC_10k();                                                      //Wait ACK from MBP for 10s 
0AF94:  CALL   4378
....................    if(DC_ACK == 0x20)                                                            //Success ACK 
0AF98:  MOVLB  2
0AF9A:  MOVF   x74,W
0AF9C:  SUBLW  20
0AF9E:  BNZ   B01C
....................    { 
....................       fprintf(PC,"Received ACK From MBP\r\n"); 
0AFA0:  MOVLW  3E
0AFA2:  MOVWF  FF6
0AFA4:  MOVLW  13
0AFA6:  MOVWF  FF7
0AFA8:  MOVLW  00
0AFAA:  MOVWF  FF8
0AFAC:  MOVLB  0
0AFAE:  CALL   362C
....................       //delay_ms(1000); 
....................       DC_ACK = 0; 
0AFB2:  MOVLB  2
0AFB4:  CLRF   x74
....................       output_low(PIN_C4);                                                        //SCF main side 
0AFB6:  BCF    F94.4
0AFB8:  BCF    F8B.4
....................       output_low(PIN_A5);                                                        //SMF main side 
0AFBA:  BCF    F92.5
0AFBC:  BCF    F89.5
....................       fprintf(PC,"TRANSFERRING %lx PACKETS\r\n",data_pckts); 
0AFBE:  MOVLW  56
0AFC0:  MOVWF  FF6
0AFC2:  MOVLW  13
0AFC4:  MOVWF  FF7
0AFC6:  MOVLW  00
0AFC8:  MOVWF  FF8
0AFCA:  MOVLW  0D
0AFCC:  MOVLB  3
0AFCE:  MOVWF  x10
0AFD0:  MOVLB  0
0AFD2:  CALL   1C0C
0AFD6:  MOVFF  2F3,311
0AFDA:  MOVLW  57
0AFDC:  MOVLB  3
0AFDE:  MOVWF  x12
0AFE0:  MOVLB  0
0AFE2:  CALL   1C3E
0AFE6:  MOVFF  2F2,311
0AFEA:  MOVLW  57
0AFEC:  MOVLB  3
0AFEE:  MOVWF  x12
0AFF0:  MOVLB  0
0AFF2:  CALL   1C3E
0AFF6:  MOVLW  66
0AFF8:  MOVWF  FF6
0AFFA:  MOVLW  13
0AFFC:  MOVWF  FF7
0AFFE:  MOVLW  00
0B000:  MOVWF  FF8
0B002:  MOVLW  0A
0B004:  MOVLB  3
0B006:  MOVWF  x10
0B008:  MOVLB  0
0B00A:  CALL   1C0C
....................        
....................       GET_MBP_DATA(data_size); 
0B00E:  MOVFF  2F5,2F7
0B012:  MOVFF  2F4,2F6
0B016:  BRA    AD82
....................  
....................    }else{ 
0B018:  BRA    B030
0B01A:  MOVLB  2
....................       DC_ACK = 0; 
0B01C:  CLRF   x74
....................       fprintf(PC,"FAILURED GETTING ACK From MBP\r\n"); 
0B01E:  MOVLW  72
0B020:  MOVWF  FF6
0B022:  MOVLW  13
0B024:  MOVWF  FF7
0B026:  MOVLW  00
0B028:  MOVWF  FF8
0B02A:  MOVLB  0
0B02C:  CALL   362C
....................    } 
.................... /*    
....................    fprintf(PC,"Turning OFF MBP\r\n"); 
....................    Turn_Off_MBP();*/                                                             //RF5=LOW 
....................    output_high(PIN_C4);                                                          //COM_MUX COM side 
0B030:  BCF    F94.4
0B032:  BSF    F8B.4
....................     
....................    return; 
0B034:  RETURN 0
.................... } 
....................  
.................... void MISSION_TEST_OPERATION(int8 cmd1,int8 cmd2,int8 cmd3,int8 cmd4,int8 cmd5,int8 cmd6,int8 cmd7)                                                    //send array of commnands to MBP 
.................... { 
....................    fprintf(PC,"sending commands to MBP\r\n"); 
*
0B03E:  MOVLW  92
0B040:  MOVWF  FF6
0B042:  MOVLW  13
0B044:  MOVWF  FF7
0B046:  MOVLW  00
0B048:  MOVWF  FF8
0B04A:  CALL   362C
....................    Turn_On_MBP();                                                                 //RF5=HIGH 
0B04E:  CALL   2B7E
....................    delay_ms(30); 
0B052:  MOVLW  1E
0B054:  MOVLB  3
0B056:  MOVWF  x19
0B058:  MOVLB  0
0B05A:  CALL   1F78
....................  
....................       fputc(cmd1,DC); 
0B05E:  MOVFF  2EB,2FD
0B062:  CALL   42E8
....................       delay_ms(100); 
0B066:  MOVLW  64
0B068:  MOVLB  3
0B06A:  MOVWF  x19
0B06C:  MOVLB  0
0B06E:  CALL   1F78
....................       fputc(cmd2,DC); 
0B072:  MOVFF  2EC,2FD
0B076:  CALL   42E8
....................       delay_ms(100); 
0B07A:  MOVLW  64
0B07C:  MOVLB  3
0B07E:  MOVWF  x19
0B080:  MOVLB  0
0B082:  CALL   1F78
....................       fputc(cmd3,DC); 
0B086:  MOVFF  2ED,2FD
0B08A:  CALL   42E8
....................       delay_ms(100); 
0B08E:  MOVLW  64
0B090:  MOVLB  3
0B092:  MOVWF  x19
0B094:  MOVLB  0
0B096:  CALL   1F78
....................       fputc(cmd4,DC); 
0B09A:  MOVFF  2EE,2FD
0B09E:  CALL   42E8
....................       delay_ms(100); 
0B0A2:  MOVLW  64
0B0A4:  MOVLB  3
0B0A6:  MOVWF  x19
0B0A8:  MOVLB  0
0B0AA:  CALL   1F78
....................       fputc(cmd5,DC); 
0B0AE:  MOVFF  2EF,2FD
0B0B2:  CALL   42E8
....................       delay_ms(100); 
0B0B6:  MOVLW  64
0B0B8:  MOVLB  3
0B0BA:  MOVWF  x19
0B0BC:  MOVLB  0
0B0BE:  CALL   1F78
....................       fputc(cmd6,DC); 
0B0C2:  MOVFF  2F0,2FD
0B0C6:  CALL   42E8
....................       delay_ms(100); 
0B0CA:  MOVLW  64
0B0CC:  MOVLB  3
0B0CE:  MOVWF  x19
0B0D0:  MOVLB  0
0B0D2:  CALL   1F78
....................       fputc(cmd7,DC); 
0B0D6:  MOVFF  2F1,2FD
0B0DA:  CALL   42E8
....................  
....................    CHECK_ACK_FROM_DC_10k();                                                      //Wait ACK from DC for 10s 
0B0DE:  CALL   4378
....................    if(DC_ACK == 0x20)                                                            //Success ACK 
0B0E2:  MOVLB  2
0B0E4:  MOVF   x74,W
0B0E6:  SUBLW  20
0B0E8:  BNZ   B102
....................    { 
....................       fprintf(PC,"Received ACK From MBP\r\n"); 
0B0EA:  MOVLW  AC
0B0EC:  MOVWF  FF6
0B0EE:  MOVLW  13
0B0F0:  MOVWF  FF7
0B0F2:  MOVLW  00
0B0F4:  MOVWF  FF8
0B0F6:  MOVLB  0
0B0F8:  CALL   362C
....................       //delay_ms(1000); 
....................       DC_ACK = 0; 
0B0FC:  MOVLB  2
0B0FE:  CLRF   x74
....................        
....................    }else{ 
0B100:  BRA    B1E2
....................       DC_ACK = 0; 
0B102:  CLRF   x74
....................       fprintf(PC,"FAILURED GETTING ACK From MBP\r\n"); 
0B104:  MOVLW  C4
0B106:  MOVWF  FF6
0B108:  MOVLW  13
0B10A:  MOVWF  FF7
0B10C:  MOVLW  00
0B10E:  MOVWF  FF8
0B110:  MOVLB  0
0B112:  CALL   362C
....................       fprintf(PC,"PWR cycle and sending commands again\r\n"); 
0B116:  MOVLW  E4
0B118:  MOVWF  FF6
0B11A:  MOVLW  13
0B11C:  MOVWF  FF7
0B11E:  MOVLW  00
0B120:  MOVWF  FF8
0B122:  CALL   362C
....................       Turn_Off_MBP(); 
0B126:  BRA    B036
....................       delay_ms(1000); 
0B128:  MOVLW  04
0B12A:  MOVLB  2
0B12C:  MOVWF  xF2
0B12E:  MOVLW  FA
0B130:  MOVLB  3
0B132:  MOVWF  x19
0B134:  MOVLB  0
0B136:  CALL   1F78
0B13A:  MOVLB  2
0B13C:  DECFSZ xF2,F
0B13E:  BRA    B12E
....................       Turn_On_MBP();                                                              //RF5=HIGH 
0B140:  MOVLB  0
0B142:  CALL   2B7E
....................       delay_ms(1000); 
0B146:  MOVLW  04
0B148:  MOVLB  2
0B14A:  MOVWF  xF2
0B14C:  MOVLW  FA
0B14E:  MOVLB  3
0B150:  MOVWF  x19
0B152:  MOVLB  0
0B154:  CALL   1F78
0B158:  MOVLB  2
0B15A:  DECFSZ xF2,F
0B15C:  BRA    B14C
....................  
....................       fputc(cmd1,DC); 
0B15E:  MOVFF  2EB,2FD
0B162:  MOVLB  0
0B164:  CALL   42E8
....................       delay_ms(100); 
0B168:  MOVLW  64
0B16A:  MOVLB  3
0B16C:  MOVWF  x19
0B16E:  MOVLB  0
0B170:  CALL   1F78
....................       fputc(cmd2,DC); 
0B174:  MOVFF  2EC,2FD
0B178:  CALL   42E8
....................       delay_ms(100); 
0B17C:  MOVLW  64
0B17E:  MOVLB  3
0B180:  MOVWF  x19
0B182:  MOVLB  0
0B184:  CALL   1F78
....................       fputc(cmd3,DC); 
0B188:  MOVFF  2ED,2FD
0B18C:  CALL   42E8
....................       delay_ms(100); 
0B190:  MOVLW  64
0B192:  MOVLB  3
0B194:  MOVWF  x19
0B196:  MOVLB  0
0B198:  CALL   1F78
....................       fputc(cmd4,DC); 
0B19C:  MOVFF  2EE,2FD
0B1A0:  CALL   42E8
....................       delay_ms(100); 
0B1A4:  MOVLW  64
0B1A6:  MOVLB  3
0B1A8:  MOVWF  x19
0B1AA:  MOVLB  0
0B1AC:  CALL   1F78
....................       fputc(cmd5,DC); 
0B1B0:  MOVFF  2EF,2FD
0B1B4:  CALL   42E8
....................       delay_ms(100); 
0B1B8:  MOVLW  64
0B1BA:  MOVLB  3
0B1BC:  MOVWF  x19
0B1BE:  MOVLB  0
0B1C0:  CALL   1F78
....................       fputc(cmd6,DC); 
0B1C4:  MOVFF  2F0,2FD
0B1C8:  CALL   42E8
....................       delay_ms(100); 
0B1CC:  MOVLW  64
0B1CE:  MOVLB  3
0B1D0:  MOVWF  x19
0B1D2:  MOVLB  0
0B1D4:  CALL   1F78
....................       fputc(cmd7,DC);    
0B1D8:  MOVFF  2F1,2FD
0B1DC:  CALL   42E8
0B1E0:  MOVLB  2
....................    } 
....................    return; 
0B1E2:  MOVLB  0
0B1E4:  RETURN 0
.................... } 
....................  
.................... //-------Kill Switch----------------------------------------------------------- 
.................... Static int8 KILL_COUNTER = 0; 
.................... void Count_Kill_Flag() 
.................... { 
....................    KILL_COUNTER++; 
*
0B264:  MOVLB  2
0B266:  INCF   xC8,F
....................    if(Kill_COUNTER > 4) 
0B268:  MOVF   xC8,W
0B26A:  SUBLW  04
0B26C:  BC    B280
....................    { 
....................       Kill_FLAG_MAIN = 1; 
0B26E:  MOVLW  01
0B270:  MOVLB  0
0B272:  MOVWF  x75
....................       output_high(PIN_A4);                                                       //Kill Switch ON 
0B274:  BCF    F92.4
0B276:  BSF    F89.4
....................       fputc(0x17,FAB); 
0B278:  MOVLW  17
0B27A:  CALL   4678
0B27E:  MOVLB  2
....................    } 
....................    fprintf(PC,"Kill counter: %x\r\n",KILL_COUNTER); 
0B280:  MOVLW  0C
0B282:  MOVWF  FF6
0B284:  MOVLW  14
0B286:  MOVWF  FF7
0B288:  MOVLW  00
0B28A:  MOVWF  FF8
0B28C:  MOVLW  0E
0B28E:  MOVLB  3
0B290:  MOVWF  x10
0B292:  MOVLB  0
0B294:  CALL   1C0C
0B298:  MOVFF  2C8,311
0B29C:  MOVLW  57
0B29E:  MOVLB  3
0B2A0:  MOVWF  x12
0B2A2:  MOVLB  0
0B2A4:  CALL   1C3E
0B2A8:  MOVLW  0D
0B2AA:  BTFSS  F9E.4
0B2AC:  BRA    B2AA
0B2AE:  MOVWF  FAD
0B2B0:  MOVLW  0A
0B2B2:  BTFSS  F9E.4
0B2B4:  BRA    B2B2
0B2B6:  MOVWF  FAD
....................    return; 
0B2B8:  RETURN 0
.................... } 
....................  
.................... void Disable_Kill() 
.................... { 
....................    KILL_COUNTER = 0; 
0B2BA:  MOVLB  2
0B2BC:  CLRF   xC8
....................     
....................    Kill_FLAG_MAIN = 0; 
0B2BE:  MOVLB  0
0B2C0:  CLRF   x75
....................    output_low(PIN_A4);                                                           //Kill Switch OFF 
0B2C2:  BCF    F92.4
0B2C4:  BCF    F89.4
....................    fputc(0x18,FAB); 
0B2C6:  MOVLW  18
0B2C8:  CALL   4678
....................     
....................    fprintf(PC,"Kill counter: %x\r\n",KILL_COUNTER); 
0B2CC:  MOVLW  20
0B2CE:  MOVWF  FF6
0B2D0:  MOVLW  14
0B2D2:  MOVWF  FF7
0B2D4:  MOVLW  00
0B2D6:  MOVWF  FF8
0B2D8:  MOVLW  0E
0B2DA:  MOVLB  3
0B2DC:  MOVWF  x10
0B2DE:  MOVLB  0
0B2E0:  CALL   1C0C
0B2E4:  MOVFF  2C8,311
0B2E8:  MOVLW  57
0B2EA:  MOVLB  3
0B2EC:  MOVWF  x12
0B2EE:  MOVLB  0
0B2F0:  CALL   1C3E
0B2F4:  MOVLW  0D
0B2F6:  BTFSS  F9E.4
0B2F8:  BRA    B2F6
0B2FA:  MOVWF  FAD
0B2FC:  MOVLW  0A
0B2FE:  BTFSS  F9E.4
0B300:  BRA    B2FE
0B302:  MOVWF  FAD
....................    return; 
0B304:  RETURN 0
.................... } 
....................  
....................  
.................... //-------Reset Function-------------------------------------------------------- 
....................  
....................  
.................... void BC_ON_30min() 
.................... { 
....................    if(currenttime > 1805 && BC_ATTEMPT_FLAG == 0)                                //if first attempt and 30 min(1800sec) passed 
*
07BBC:  MOVLB  1
07BBE:  MOVF   x3F,W
07BC0:  SUBLW  06
07BC2:  BC    7C9A
07BC4:  XORLW  FF
07BC6:  BNZ   7BCE
07BC8:  MOVF   x3E,W
07BCA:  SUBLW  0D
07BCC:  BC    7C9A
07BCE:  MOVLB  0
07BD0:  MOVF   x68,F
07BD2:  BTFSC  FD8.2
07BD4:  BRA    7BDA
07BD6:  MOVLB  1
07BD8:  BRA    7C9A
....................    { 
....................       fprintf(PC,"sending BC command to RESET PIC\r\n"); 
07BDA:  MOVLW  34
07BDC:  MOVWF  FF6
07BDE:  MOVLW  14
07BE0:  MOVWF  FF7
07BE2:  MOVLW  00
07BE4:  MOVWF  FF8
07BE6:  CALL   362C
....................       for(int16 num = 0; num < 200; num++) 
07BEA:  MOVLB  2
07BEC:  CLRF   xEC
07BEE:  CLRF   xEB
07BF0:  MOVF   xEC,F
07BF2:  BNZ   7C24
07BF4:  MOVF   xEB,W
07BF6:  SUBLW  C7
07BF8:  BNC   7C24
....................       { 
....................          fputc(0xBC,reset); 
07BFA:  MOVLW  BC
07BFC:  MOVLB  0
07BFE:  CALL   1F6C
....................          delay_ms(100); 
07C02:  MOVLW  64
07C04:  MOVLB  3
07C06:  MOVWF  x19
07C08:  MOVLB  0
07C0A:  CALL   1F78
....................          if(reset_bffr[0] == 0xCB)                                               //condicion para que deje de enviar al recibir el ACK 
07C0E:  MOVF   xEC,W
07C10:  SUBLW  CB
07C12:  BNZ   7C1A
....................          { 
....................          break; 
07C14:  MOVLB  2
07C16:  BRA    7C24
07C18:  MOVLB  0
....................          } 
07C1A:  MOVLB  2
07C1C:  INCF   xEB,F
07C1E:  BTFSC  FD8.2
07C20:  INCF   xEC,F
07C22:  BRA    7BF0
....................       } 
....................       delay_ms(1000);                                                             
07C24:  MOVLW  04
07C26:  MOVWF  xED
07C28:  MOVLW  FA
07C2A:  MOVLB  3
07C2C:  MOVWF  x19
07C2E:  MOVLB  0
07C30:  CALL   1F78
07C34:  MOVLB  2
07C36:  DECFSZ xED,F
07C38:  BRA    7C28
....................       if(reset_bffr[0] == 0xCB) 
07C3A:  MOVLB  0
07C3C:  MOVF   xEC,W
07C3E:  SUBLW  CB
07C40:  BNZ   7C98
....................       { 
....................          BC_OPERATION(); 
07C42:  CALL   68D4
....................          BC_ATTEMPT_FLAG++; 
07C46:  INCF   x68,F
....................          WRITE_FLAG_to_EEPROM(); 
07C48:  CALL   5D22
....................          STORE_FLAG_INFO(); 
07C4C:  CALL   5B0E
....................          STORE_ADRESS_DATA_TO_FLASH(); 
07C50:  CALL   3AF8
....................          reset_bffr[0] = 0; 
07C54:  CLRF   xEC
....................          RESET_DATA = 0; 
07C56:  CLRF   xEB
....................          delay_ms(1000); 
07C58:  MOVLW  04
07C5A:  MOVLB  2
07C5C:  MOVWF  xED
07C5E:  MOVLW  FA
07C60:  MOVLB  3
07C62:  MOVWF  x19
07C64:  MOVLB  0
07C66:  CALL   1F78
07C6A:  MOVLB  2
07C6C:  DECFSZ xED,F
07C6E:  BRA    7C5E
....................          delay_ms(20000);                                                        //wait until RESET goes back to nomal loop 
07C70:  MOVLW  50
07C72:  MOVWF  xED
07C74:  MOVLW  FA
07C76:  MOVLB  3
07C78:  MOVWF  x19
07C7A:  MOVLB  0
07C7C:  CALL   1F78
07C80:  MOVLB  2
07C82:  DECFSZ xED,F
07C84:  BRA    7C74
....................          SAVE_SAT_LOG(0xBC,0x30,0x30);                                           //first 30 min antenna deployment 
07C86:  MOVLW  BC
07C88:  MOVLB  3
07C8A:  MOVWF  x02
07C8C:  MOVLW  30
07C8E:  MOVWF  x03
07C90:  MOVWF  x04
07C92:  MOVLB  0
07C94:  CALL   3E06
07C98:  MOVLB  1
....................       } 
....................    } 
....................    return; 
07C9A:  MOVLB  0
07C9C:  RETURN 0
.................... } 
....................  
.................... void HIGHSAMP_SENSOR_COLLECTION(int16 times) 
.................... { 
....................    LOOP_HIGH_SAMP_HK_ADDRESS();                                                  //loop in memory to save data, keep first 3 sectors forever 
*
07E84:  GOTO   7334
....................    int32 num = 0; 
07E88:  MOVLB  2
07E8A:  CLRF   xEA
07E8C:  CLRF   xE9
07E8E:  CLRF   xE8
07E90:  CLRF   xE7
....................  
....................    while(num < times) 
07E92:  MOVF   xEA,F
07E94:  BTFSS  FD8.2
07E96:  BRA    7F5C
07E98:  MOVF   xE9,F
07E9A:  BTFSS  FD8.2
07E9C:  BRA    7F5C
07E9E:  MOVF   xE8,W
07EA0:  SUBWF  xE6,W
07EA2:  BNC   7F5C
07EA4:  BNZ   7EAC
07EA6:  MOVF   xE5,W
07EA8:  SUBWF  xE7,W
07EAA:  BC    7F5C
....................    { 
....................       CHECK_50_and_CW_RESPOND();                                                 //check cw cmd from COM PIC 
07EAC:  MOVLB  0
07EAE:  CALL   466A
....................       if(FAB_FLAG > 4) 
07EB2:  MOVLB  2
07EB4:  MOVF   x20,F
07EB6:  BNZ   7EC6
07EB8:  MOVF   x1F,F
07EBA:  BNZ   7EC6
07EBC:  MOVF   x1E,F
07EBE:  BNZ   7EC6
07EC0:  MOVF   x1D,W
07EC2:  SUBLW  04
07EC4:  BC    7F3A
....................       { 
....................          FAB_FLAG = 0; 
07EC6:  CLRF   x20
07EC8:  CLRF   x1F
07ECA:  CLRF   x1E
07ECC:  CLRF   x1D
....................          HIGH_SAMP_FAB_OPERATION();                                              //collect FAB, RESET and ADCS data 
07ECE:  MOVLB  0
07ED0:  BRA    7942
....................           
....................          num++; 
07ED2:  MOVLW  01
07ED4:  MOVLB  2
07ED6:  ADDWF  xE7,F
07ED8:  BTFSC  FD8.0
07EDA:  INCF   xE8,F
07EDC:  BTFSC  FD8.2
07EDE:  INCF   xE9,F
07EE0:  BTFSC  FD8.2
07EE2:  INCF   xEA,F
....................          if((num % 20) == 0)                                                     //once in the 20 times(every 100sec save the address to the flash) 
07EE4:  BSF    FD8.1
07EE6:  MOVLW  02
07EE8:  MOVWF  FEA
07EEA:  MOVLW  EB
07EEC:  MOVWF  FE9
07EEE:  MOVFF  2EA,2FF
07EF2:  MOVFF  2E9,2FE
07EF6:  MOVFF  2E8,2FD
07EFA:  MOVFF  2E7,2FC
07EFE:  MOVLB  3
07F00:  CLRF   x03
07F02:  CLRF   x02
07F04:  CLRF   x01
07F06:  MOVLW  14
07F08:  MOVWF  x00
07F0A:  MOVLB  0
07F0C:  CALL   642E
07F10:  MOVFF  2EE,2F2
07F14:  MOVFF  2ED,2F1
07F18:  MOVFF  2EC,2F0
07F1C:  MOVFF  2EB,2EF
07F20:  MOVLB  2
07F22:  MOVF   xEF,F
07F24:  BNZ   7F3A
07F26:  MOVF   xF0,F
07F28:  BNZ   7F3A
07F2A:  MOVF   xF1,F
07F2C:  BNZ   7F3A
07F2E:  MOVF   xF2,F
07F30:  BNZ   7F3A
....................          { 
....................             STORE_ADRESS_DATA_TO_FLASH();                                        //for store the flag 
07F32:  MOVLB  0
07F34:  CALL   3AF8
07F38:  MOVLB  2
....................          }  
....................       } 
....................  
....................       BC_ON_30min();                                                             //check if first attempt and 30 min(1800sec) passed 
07F3A:  MOVLB  0
07F3C:  RCALL  7BBC
....................       if((CMD_FROM_PC[0] == 0xAB)||(in_bffr_main[4] == 0xAB))                    //forced termination function 
07F3E:  MOVF   x7E,W
07F40:  SUBLW  AB
07F42:  BZ    7F4A
07F44:  MOVF   x8A,W
07F46:  SUBLW  AB
07F48:  BNZ   7F54
....................       { 
....................          Delete_Buffer(); 
07F4A:  CALL   4644
....................          break; 
07F4E:  MOVLB  2
07F50:  BRA    7F5C
07F52:  MOVLB  0
....................       } 
....................       PC_DATA = 0; 
07F54:  CLRF   x99
....................       RESET_SATELLITE();                                                         //check reset command from RESET PIC 
07F56:  RCALL  7E76
07F58:  MOVLB  2
07F5A:  BRA    7E92
....................    } 
....................    fprintf(PC,"HSSC DONE\r\n"); 
07F5C:  MOVLW  56
07F5E:  MOVWF  FF6
07F60:  MOVLW  14
07F62:  MOVWF  FF7
07F64:  MOVLW  00
07F66:  MOVWF  FF8
07F68:  MOVLB  0
07F6A:  CALL   362C
....................    return; 
07F6E:  RETURN 0
.................... } 
....................  
.................... void REPLY_TO_COM(int8 data1,int8 data2) 
.................... { 
....................    if(ACK_for_COM[12] == 0x66 && ACK_for_COM[14] == 0x77) 
*
0A198:  MOVLB  2
0A19A:  MOVF   x0E,W
0A19C:  SUBLW  66
0A19E:  BNZ   A218
0A1A0:  MOVF   x10,W
0A1A2:  SUBLW  77
0A1A4:  BNZ   A218
....................    { 
....................       for(int n = 0; n < 24; n++)                                                //send back the acknowledge 
0A1A6:  CLRF   xE7
0A1A8:  MOVF   xE7,W
0A1AA:  SUBLW  17
0A1AC:  BNC   A1CE
....................       { 
....................          fputc(ACK_for_COM[n],COM); 
0A1AE:  CLRF   03
0A1B0:  MOVF   xE7,W
0A1B2:  ADDLW  02
0A1B4:  MOVWF  FE9
0A1B6:  MOVLW  02
0A1B8:  ADDWFC 03,W
0A1BA:  MOVWF  FEA
0A1BC:  MOVFF  FEF,2E9
0A1C0:  MOVF   xE9,W
0A1C2:  MOVLB  0
0A1C4:  CALL   42DC
0A1C8:  MOVLB  2
0A1CA:  INCF   xE7,F
0A1CC:  BRA    A1A8
....................       } 
....................       for(n = 0; n < 24; n++)                                                    //send back the acknowledge 
0A1CE:  CLRF   xE7
0A1D0:  MOVF   xE7,W
0A1D2:  SUBLW  17
0A1D4:  BNC   A202
....................       { 
....................          fprintf(PC,"%x,",ACK_for_COM[n]); 
0A1D6:  CLRF   03
0A1D8:  MOVF   xE7,W
0A1DA:  ADDLW  02
0A1DC:  MOVWF  FE9
0A1DE:  MOVLW  02
0A1E0:  ADDWFC 03,W
0A1E2:  MOVWF  FEA
0A1E4:  MOVFF  FEF,311
0A1E8:  MOVLW  57
0A1EA:  MOVLB  3
0A1EC:  MOVWF  x12
0A1EE:  MOVLB  0
0A1F0:  CALL   1C3E
0A1F4:  MOVLW  2C
0A1F6:  BTFSS  F9E.4
0A1F8:  BRA    A1F6
0A1FA:  MOVWF  FAD
0A1FC:  MOVLB  2
0A1FE:  INCF   xE7,F
0A200:  BRA    A1D0
....................       } 
....................       fprintf(PC,",AUTO\r\n"); 
0A202:  MOVLW  62
0A204:  MOVWF  FF6
0A206:  MOVLW  14
0A208:  MOVWF  FF7
0A20A:  MOVLW  00
0A20C:  MOVWF  FF8
0A20E:  MOVLB  0
0A210:  CALL   362C
....................    } 
0A214:  BRA    A296
0A216:  MOVLB  2
....................    else{ 
....................       //REFLESH_MSN_ACK_for_COM(); 
.................... //!      for(int n = 7; n < 24; n++)//send back the acknowledge 
.................... //!      { 
.................... //!         ACK_for_COM[n] = 0xff; 
.................... //!      } 
....................       ACK_for_COM[0] = 0xAA; 
0A218:  MOVLW  AA
0A21A:  MOVWF  x02
....................       ACK_for_COM[12] = data1; 
0A21C:  MOVFF  2E5,20E
....................       ACK_for_COM[13] = data2; 
0A220:  MOVFF  2E6,20F
....................       ACK_for_COM[23] = 0xBB; 
0A224:  MOVLW  BB
0A226:  MOVWF  x19
....................       for(int n = 0; n < 24; n++)                                                //send back the acknowledge 
0A228:  CLRF   xE8
0A22A:  MOVF   xE8,W
0A22C:  SUBLW  17
0A22E:  BNC   A250
....................       { 
....................          fputc(ACK_for_COM[n],COM); 
0A230:  CLRF   03
0A232:  MOVF   xE8,W
0A234:  ADDLW  02
0A236:  MOVWF  FE9
0A238:  MOVLW  02
0A23A:  ADDWFC 03,W
0A23C:  MOVWF  FEA
0A23E:  MOVFF  FEF,2E9
0A242:  MOVF   xE9,W
0A244:  MOVLB  0
0A246:  CALL   42DC
0A24A:  MOVLB  2
0A24C:  INCF   xE8,F
0A24E:  BRA    A22A
....................       } 
....................       for(n = 0; n < 24; n++)                                                    //send back the acknowledge 
0A250:  CLRF   xE8
0A252:  MOVF   xE8,W
0A254:  SUBLW  17
0A256:  BNC   A284
....................       { 
....................          fprintf(PC,"%x,",ACK_for_COM[n]); 
0A258:  CLRF   03
0A25A:  MOVF   xE8,W
0A25C:  ADDLW  02
0A25E:  MOVWF  FE9
0A260:  MOVLW  02
0A262:  ADDWFC 03,W
0A264:  MOVWF  FEA
0A266:  MOVFF  FEF,311
0A26A:  MOVLW  57
0A26C:  MOVLB  3
0A26E:  MOVWF  x12
0A270:  MOVLB  0
0A272:  CALL   1C3E
0A276:  MOVLW  2C
0A278:  BTFSS  F9E.4
0A27A:  BRA    A278
0A27C:  MOVWF  FAD
0A27E:  MOVLB  2
0A280:  INCF   xE8,F
0A282:  BRA    A252
....................       } 
....................       fprintf(PC,",NORMAL\r\n"); 
0A284:  MOVLW  6A
0A286:  MOVWF  FF6
0A288:  MOVLW  14
0A28A:  MOVWF  FF7
0A28C:  MOVLW  00
0A28E:  MOVWF  FF8
0A290:  MOVLB  0
0A292:  CALL   362C
....................    } 
0A296:  RETURN 0
....................  
.................... } 
....................  
.................... void UPDATE_ACK_for_COM(int8 data1,int8 data2,int32 address, int16 size)         //send data to COM for automatical mission 
.................... { 
....................    REFLESH_MSN_ACK_for_COM();                                                    //clear array ACK_for_COM[i] from position 12 to 22 
*
07F96:  BRA    7F70
....................    ACK_for_COM[15] = address >> 24; 
07F98:  MOVFF  2E4,211
....................    ACK_for_COM[16] = address >> 16; 
07F9C:  MOVFF  2E3,212
....................    ACK_for_COM[17] = address >> 8; 
07FA0:  MOVFF  2E2,213
....................    ACK_for_COM[18] = address; 
07FA4:  MOVFF  2E1,214
....................     
....................    ACK_for_COM[19] = size >> 24; 
07FA8:  MOVLB  2
07FAA:  CLRF   x15
....................    ACK_for_COM[20] = size >> 16; 
07FAC:  CLRF   x16
....................    ACK_for_COM[21] = size >> 8; 
07FAE:  MOVFF  2E6,217
....................    ACK_for_COM[22] = size; 
07FB2:  MOVFF  2E5,218
....................     
....................    ACK_for_COM[0] = 0xAA;                                                        //header 
07FB6:  MOVLW  AA
07FB8:  MOVWF  x02
....................    ACK_for_COM[12] = data1;                                                      //success ack indicator 0x66 
07FBA:  MOVFF  2DF,20E
....................    ACK_for_COM[14] = data2;                                                      //auto indicator 0x77 
07FBE:  MOVFF  2E0,210
....................    ACK_for_COM[23] = 0xBB;                                                       //footer 
07FC2:  MOVLW  BB
07FC4:  MOVWF  x19
....................    for(int n = 0; n < 24; n++)                                                   //send back the acknowledge 
07FC6:  CLRF   xE7
07FC8:  MOVF   xE7,W
07FCA:  SUBLW  17
07FCC:  BNC   7FEE
....................    { 
....................       fputc(ACK_for_COM[n],COM); 
07FCE:  CLRF   03
07FD0:  MOVF   xE7,W
07FD2:  ADDLW  02
07FD4:  MOVWF  FE9
07FD6:  MOVLW  02
07FD8:  ADDWFC 03,W
07FDA:  MOVWF  FEA
07FDC:  MOVFF  FEF,2E8
07FE0:  MOVF   xE8,W
07FE2:  MOVLB  0
07FE4:  CALL   42DC
07FE8:  MOVLB  2
07FEA:  INCF   xE7,F
07FEC:  BRA    7FC8
....................    } 
07FEE:  MOVLB  0
07FF0:  RETURN 0
.................... } 
....................  
.................... void RSV_DATA_DOWNLOAD(int8 cmnd1,int8 cmnd2,int8 cmnd3,int8 cmnd4,int8 cmnd5,int8 cmnd6,int8 cmnd7) //carga el array ACK_for_COM[] con el dato del array CW_FORMAT[] y envia a COM PIC 
.................... { 
....................    for(int a = 13; a < 23; a++)                                                   //clear ACK_for_COM array  
*
0C512:  MOVLW  0D
0C514:  MOVLB  2
0C516:  MOVWF  xEC
0C518:  MOVF   xEC,W
0C51A:  SUBLW  16
0C51C:  BNC   C532
....................    { 
....................       ACK_for_COM[a] = 0x00; 
0C51E:  CLRF   03
0C520:  MOVF   xEC,W
0C522:  ADDLW  02
0C524:  MOVWF  FE9
0C526:  MOVLW  02
0C528:  ADDWFC 03,W
0C52A:  MOVWF  FEA
0C52C:  CLRF   FEF
0C52E:  INCF   xEC,F
0C530:  BRA    C518
....................    } 
....................    delay_ms(100); 
0C532:  MOVLW  64
0C534:  MOVLB  3
0C536:  MOVWF  x19
0C538:  MOVLB  0
0C53A:  CALL   1F78
.................... //   ACK_for_COM[0] = 0xAA; 
....................  //ACK_for_COM[13] = cmnd2;                                                      //CMD2 Mode (time to give access) 
....................    ACK_for_COM[14] = cmnd1;                                                      //CMD1 Function 
0C53E:  MOVFF  2E5,210
....................    ACK_for_COM[15] = cmnd3;                                                      //CMD3 address1 
0C542:  MOVFF  2E7,211
....................    ACK_for_COM[16] = cmnd4;                                                      //CMD4 address2 
0C546:  MOVFF  2E8,212
....................    ACK_for_COM[17] = cmnd5;                                                      //CMD5 address3 
0C54A:  MOVFF  2E9,213
....................    ACK_for_COM[18] = cmnd6;                                                      //CMD6 address4 
0C54E:  MOVFF  2EA,214
....................    ACK_for_COM[19] = 0x00;                                                       //empty 
0C552:  MOVLB  2
0C554:  CLRF   x15
....................    ACK_for_COM[20] = 0x00;                                                       //empty 
0C556:  CLRF   x16
....................    ACK_for_COM[21] = 0x00;                                                       //empty 
0C558:  CLRF   x17
....................    ACK_for_COM[22] = cmnd7;                                                      //CMD7 pckt 
0C55A:  MOVFF  2EB,218
.................... //   ACK_for_COM[23] = 0xBB; 
....................  /*  for(int m = 0; m < 24; m++)                                                   //send the reservation function data to COM  
....................    { 
....................       fputc(ACK_for_COM[m],COM); 
....................    }*/ 
....................  
....................    for(int m = 0; m < 23; m++)                                                       //send the reservation function data to PC 
0C55E:  CLRF   xED
0C560:  MOVF   xED,W
0C562:  SUBLW  16
0C564:  BNC   C592
....................    { 
....................       fprintf(PC,"%x,",ACK_for_COM[m]); 
0C566:  CLRF   03
0C568:  MOVF   xED,W
0C56A:  ADDLW  02
0C56C:  MOVWF  FE9
0C56E:  MOVLW  02
0C570:  ADDWFC 03,W
0C572:  MOVWF  FEA
0C574:  MOVFF  FEF,311
0C578:  MOVLW  57
0C57A:  MOVLB  3
0C57C:  MOVWF  x12
0C57E:  MOVLB  0
0C580:  CALL   1C3E
0C584:  MOVLW  2C
0C586:  BTFSS  F9E.4
0C588:  BRA    C586
0C58A:  MOVWF  FAD
0C58C:  MOVLB  2
0C58E:  INCF   xED,F
0C590:  BRA    C560
....................    } 
....................    fprintf(PC,"%x\r\n",ACK_for_COM[23]); 
0C592:  MOVFF  219,311
0C596:  MOVLW  57
0C598:  MOVLB  3
0C59A:  MOVWF  x12
0C59C:  MOVLB  0
0C59E:  CALL   1C3E
0C5A2:  MOVLW  0D
0C5A4:  BTFSS  F9E.4
0C5A6:  BRA    C5A4
0C5A8:  MOVWF  FAD
0C5AA:  MOVLW  0A
0C5AC:  BTFSS  F9E.4
0C5AE:  BRA    C5AC
0C5B0:  MOVWF  FAD
....................     
.................... /* for(int k = 14; k < 23; k++)                                                   //clear ACK_for_COM array 
....................    { 
....................       ACK_for_COM[k] = 0x00; 
....................    }*/ 
....................    return; 
0C5B2:  RETURN 0
.................... } 
....................  
.................... void MBP_SYNC() 
.................... { 
....................    fprintf(PC,"\r\nsending SYNC time to MBP\r\n"); 
*
043E4:  MOVLW  74
043E6:  MOVWF  FF6
043E8:  MOVLW  14
043EA:  MOVWF  FF7
043EC:  MOVLW  00
043EE:  MOVWF  FF8
043F0:  CALL   362C
....................    Turn_On_MBP();                                                                 //RF5=HIGH 
043F4:  CALL   2B7E
....................    delay_ms(30); 
043F8:  MOVLW  1E
043FA:  MOVLB  3
043FC:  MOVWF  x19
043FE:  MOVLB  0
04400:  CALL   1F78
....................    COLLECT_RESET_DATA(); 
04404:  CALL   1FE0
....................       if(RESET_bffr[0] == 0x8e) 
04408:  MOVF   xEC,W
0440A:  SUBLW  8E
0440C:  BNZ   4420
....................    { 
....................       fprintf(PC,"Time received from RESET\r\n"); 
0440E:  MOVLW  92
04410:  MOVWF  FF6
04412:  MOVLW  14
04414:  MOVWF  FF7
04416:  MOVLW  00
04418:  MOVWF  FF8
0441A:  CALL   362C
....................  
....................    }else{ 
0441E:  BRA    4430
....................       fprintf(PC,"NO RESET time\r\n"); 
04420:  MOVLW  AE
04422:  MOVWF  FF6
04424:  MOVLW  14
04426:  MOVWF  FF7
04428:  MOVLW  00
0442A:  MOVWF  FF8
0442C:  CALL   362C
....................    } 
....................        
....................       fputc(0XAA,DC); 
04430:  MOVLW  AA
04432:  MOVLB  2
04434:  MOVWF  xFD
04436:  MOVLB  0
04438:  RCALL  42E8
....................       delay_ms(100); 
0443A:  MOVLW  64
0443C:  MOVLB  3
0443E:  MOVWF  x19
04440:  MOVLB  0
04442:  CALL   1F78
....................       fputc(reset_bffr[1],DC);                                                       //sec 
04446:  MOVFF  ED,2FD
0444A:  RCALL  42E8
....................       delay_ms(100); 
0444C:  MOVLW  64
0444E:  MOVLB  3
04450:  MOVWF  x19
04452:  MOVLB  0
04454:  CALL   1F78
....................       fputc(reset_bffr[2],DC);                                                       //minutes 
04458:  MOVFF  EE,2FD
0445C:  RCALL  42E8
....................       delay_ms(100); 
0445E:  MOVLW  64
04460:  MOVLB  3
04462:  MOVWF  x19
04464:  MOVLB  0
04466:  CALL   1F78
....................       fputc(reset_bffr[3],DC);                                                       //hours 
0446A:  MOVFF  EF,2FD
0446E:  RCALL  42E8
....................       delay_ms(100); 
04470:  MOVLW  64
04472:  MOVLB  3
04474:  MOVWF  x19
04476:  MOVLB  0
04478:  CALL   1F78
....................       fputc(reset_bffr[4],DC);                                                       //day_H 
0447C:  MOVFF  F0,2FD
04480:  RCALL  42E8
....................       delay_ms(100); 
04482:  MOVLW  64
04484:  MOVLB  3
04486:  MOVWF  x19
04488:  MOVLB  0
0448A:  CALL   1F78
....................       fputc(reset_bffr[5],DC);                                                       //day_L 
0448E:  MOVFF  F1,2FD
04492:  RCALL  42E8
....................       delay_ms(100); 
04494:  MOVLW  64
04496:  MOVLB  3
04498:  MOVWF  x19
0449A:  MOVLB  0
0449C:  CALL   1F78
....................       fputc(0XBB,DC); 
044A0:  MOVLW  BB
044A2:  MOVLB  2
044A4:  MOVWF  xFD
044A6:  MOVLB  0
044A8:  RCALL  42E8
....................    fprintf(PC,"%x:%x:%x,%x%x\r\n",reset_bffr[1], reset_bffr[2], reset_bffr[3], reset_bffr[4], reset_bffr[5]); 
044AA:  MOVFF  ED,311
044AE:  MOVLW  57
044B0:  MOVLB  3
044B2:  MOVWF  x12
044B4:  MOVLB  0
044B6:  CALL   1C3E
044BA:  MOVLW  3A
044BC:  BTFSS  F9E.4
044BE:  BRA    44BC
044C0:  MOVWF  FAD
044C2:  MOVFF  EE,311
044C6:  MOVLW  57
044C8:  MOVLB  3
044CA:  MOVWF  x12
044CC:  MOVLB  0
044CE:  CALL   1C3E
044D2:  MOVLW  3A
044D4:  BTFSS  F9E.4
044D6:  BRA    44D4
044D8:  MOVWF  FAD
044DA:  MOVFF  EF,311
044DE:  MOVLW  57
044E0:  MOVLB  3
044E2:  MOVWF  x12
044E4:  MOVLB  0
044E6:  CALL   1C3E
044EA:  MOVLW  2C
044EC:  BTFSS  F9E.4
044EE:  BRA    44EC
044F0:  MOVWF  FAD
044F2:  MOVFF  F0,311
044F6:  MOVLW  57
044F8:  MOVLB  3
044FA:  MOVWF  x12
044FC:  MOVLB  0
044FE:  CALL   1C3E
04502:  MOVFF  F1,311
04506:  MOVLW  57
04508:  MOVLB  3
0450A:  MOVWF  x12
0450C:  MOVLB  0
0450E:  CALL   1C3E
04512:  MOVLW  0D
04514:  BTFSS  F9E.4
04516:  BRA    4514
04518:  MOVWF  FAD
0451A:  MOVLW  0A
0451C:  BTFSS  F9E.4
0451E:  BRA    451C
04520:  MOVWF  FAD
....................    CHECK_ACK_FROM_DC_10k();                                                      //Wait ACK from DC for 10s 
04522:  RCALL  4378
....................    if(DC_ACK == 0x20)                                                            //Success ACK 
04524:  MOVLB  2
04526:  MOVF   x74,W
04528:  SUBLW  20
0452A:  BNZ   4544
....................    { 
....................       fprintf(PC,"Time Received for MBP\r\n"); 
0452C:  MOVLW  BE
0452E:  MOVWF  FF6
04530:  MOVLW  14
04532:  MOVWF  FF7
04534:  MOVLW  00
04536:  MOVWF  FF8
04538:  MOVLB  0
0453A:  CALL   362C
....................       //delay_ms(1000); 
....................       DC_ACK = 0; 
0453E:  MOVLB  2
04540:  CLRF   x74
....................        
....................    }else{ 
04542:  BRA    455A
....................       DC_ACK = 0; 
04544:  CLRF   x74
....................       fprintf(PC,"FAILURED GETTING ACK From MBP\r\n"); 
04546:  MOVLW  D6
04548:  MOVWF  FF6
0454A:  MOVLW  14
0454C:  MOVWF  FF7
0454E:  MOVLW  00
04550:  MOVWF  FF8
04552:  MOVLB  0
04554:  CALL   362C
04558:  MOVLB  2
....................    } 
.................... return; 
0455A:  MOVLB  0
0455C:  GOTO   45BA (RETURN)
.................... } 
....................  
.................... #include<AUTO_MSN.c> 
.................... #define loop_day 70 
.................... int16 AD = 0;                                                                    //DATE DATA 
.................... int16 D = 0;                                                                     //everyday change the DL address. nomally, increase 5 packet for each day 
....................                                                                                   
.................... int8 ADH = 0;                                                                    //for satellite log(int16 date high) 
.................... int8 ADL = 0;                                                                    //for satellite log(int16 date low) 
.................... int32 DL_AD = 0;                                                                 //Data size to increase when day changed 
....................  
.................... //@@@@@@@@@@@ HIGH SAMPLING@@@@@@@@@@@@@@@@@@@@@@@@@@@@@@@@@@@@@@@@@@@@@@@@@@@@@@@@@@@@@@@@@@@@@@@@ 
.................... void DAY0()                                                                      //2 hour high sampling sensor 
.................... { 
....................    SAVE_SAT_LOG(0xFA,0x11,0x11);                                                 //11,11: automatical mission 
*
07FF2:  MOVLW  FA
07FF4:  MOVLB  3
07FF6:  MOVWF  x02
07FF8:  MOVLW  11
07FFA:  MOVWF  x03
07FFC:  MOVWF  x04
07FFE:  MOVLB  0
08000:  CALL   3E06
....................    FIRST_HSSC_DONE = 1;                                                          //flag in HIGH 
08004:  MOVLW  01
08006:  MOVWF  x77
....................    STORE_FLAG_INFO();                                                            //save passed days 
08008:  CALL   5B0E
....................    WRITE_FLAG_to_EEPROM(); 
0800C:  CALL   5D22
....................    HIGHSAMP_SENSOR_COLLECTION(1440);                                             //execute HSSC mission for 2 hours 
08010:  MOVLW  05
08012:  MOVLB  2
08014:  MOVWF  xE6
08016:  MOVLW  A0
08018:  MOVWF  xE5
0801A:  MOVLB  0
0801C:  RCALL  7E84
....................    STORE_ADRESS_DATA_TO_FLASH();                                                 // save all address data in FLASH memories 
0801E:  CALL   3AF8
....................     
....................    AD = PASSED_DAYS % loop_day;                                                  //1,2,3,4 
08022:  MOVFF  6A,2EC
08026:  MOVFF  69,2EB
0802A:  MOVLB  2
0802C:  CLRF   xEE
0802E:  MOVLW  46
08030:  MOVWF  xED
08032:  MOVLB  0
08034:  CALL   70D0
08038:  MOVFF  00,2C9
0803C:  MOVLB  2
0803E:  MOVFF  03,2CA
....................    ADH = AD << 8; 
08042:  CLRF   xCD
....................    ADL = AD; 
08044:  MOVFF  2C9,2CE
....................    SAVE_SAT_LOG(0xFD,ADH,ADL);                                                   //11,11: automatical mission 
08048:  MOVLW  FD
0804A:  MOVLB  3
0804C:  MOVWF  x02
0804E:  MOVFF  2CD,303
08052:  MOVFF  2CE,304
08056:  MOVLB  0
08058:  CALL   3E06
....................    UPDATE_ACK_for_COM(0x66,0x77,SECT*1639,405);                                  //send data1,data2,address,size to COM for automatical mission) 
0805C:  MOVLW  66
0805E:  MOVLB  2
08060:  MOVWF  xDF
08062:  MOVLW  77
08064:  MOVWF  xE0
08066:  MOVLW  06
08068:  MOVWF  xE4
0806A:  MOVLW  67
0806C:  MOVWF  xE3
0806E:  CLRF   xE2
08070:  CLRF   xE1
08072:  MOVLW  01
08074:  MOVWF  xE6
08076:  MOVLW  95
08078:  MOVWF  xE5
0807A:  MOVLB  0
0807C:  RCALL  7F96
....................                                                                                  //118byte*3600*2/5 (about 2.59sector) 65536*1639 
....................    return;                                                                        
0807E:  GOTO   8FF8 (RETURN)
.................... } 
....................  
.................... void DAY1to4()                                                                   //HIGH SAMPLING Download 
.................... { 
....................    AD = PASSED_DAYS % loop_day;                                                  //1,2,3,4 
*
080A4:  MOVFF  6A,2EC
080A8:  MOVFF  69,2EB
080AC:  MOVLB  2
080AE:  CLRF   xEE
080B0:  MOVLW  46
080B2:  MOVWF  xED
080B4:  MOVLB  0
080B6:  CALL   70D0
080BA:  MOVFF  00,2C9
080BE:  MOVLB  2
080C0:  MOVFF  03,2CA
....................    ADH = AD << 8; 
080C4:  CLRF   xCD
....................    ADL = AD; 
080C6:  MOVFF  2C9,2CE
....................    D = AD; 
080CA:  MOVFF  2CA,2CC
080CE:  MOVFF  2C9,2CB
....................     
....................    DL_AD = 220*D;                                                                //skip 220 packets each day 
080D2:  CLRF   xF7
080D4:  MOVLW  DC
080D6:  MOVWF  xF6
080D8:  MOVFF  2CC,2F9
080DC:  MOVFF  2CB,2F8
080E0:  MOVLB  0
080E2:  RCALL  8082
080E4:  MOVLB  2
080E6:  CLRF   xD2
080E8:  CLRF   xD1
080EA:  MOVFF  02,2D0
080EE:  MOVFF  01,2CF
....................    DL_AD = DL_AD * 81;                                                           //address from where will be downloaded 
080F2:  MOVFF  2D2,2E5
080F6:  MOVFF  2D1,2E4
080FA:  MOVFF  2D0,2E3
080FE:  MOVFF  2CF,2E2
08102:  CLRF   xE9
08104:  CLRF   xE8
08106:  CLRF   xE7
08108:  MOVLW  51
0810A:  MOVWF  xE6
0810C:  MOVLB  0
0810E:  CALL   7116
08112:  MOVFF  03,2D2
08116:  MOVFF  02,2D1
0811A:  MOVFF  01,2D0
0811E:  MOVFF  00,2CF
....................    ///////////////PACKET///////////////// 
....................    //220-224, 440-444, 660-664, 880-884 
....................    ////////////////////////////////////// 
....................     
....................     
....................    SAVE_SAT_LOG(0xFD,ADH,ADL);                                                   //11,11: automatical mission 
08122:  MOVLW  FD
08124:  MOVLB  3
08126:  MOVWF  x02
08128:  MOVFF  2CD,303
0812C:  MOVFF  2CE,304
08130:  MOVLB  0
08132:  CALL   3E06
....................    UPDATE_ACK_for_COM(0x66,0x77,SECT*1639+DL_AD,405);                            //65536*1639 
08136:  MOVLB  2
08138:  MOVFF  2CF,2DB
0813C:  MOVFF  2D0,2DC
08140:  MOVLW  67
08142:  ADDWF  xD1,W
08144:  MOVWF  xDD
08146:  MOVLW  06
08148:  ADDWFC xD2,W
0814A:  MOVWF  xDE
0814C:  MOVLW  66
0814E:  MOVWF  xDF
08150:  MOVLW  77
08152:  MOVWF  xE0
08154:  MOVFF  2DE,2E4
08158:  MOVFF  2DD,2E3
0815C:  MOVFF  2D0,2E2
08160:  MOVFF  2CF,2E1
08164:  MOVLW  01
08166:  MOVWF  xE6
08168:  MOVLW  95
0816A:  MOVWF  xE5
0816C:  MOVLB  0
0816E:  RCALL  7F96
....................    ADH=0; ADL=0; DL_AD=0; D=0; 
08170:  MOVLB  2
08172:  CLRF   xCD
08174:  CLRF   xCE
08176:  CLRF   xD2
08178:  CLRF   xD1
0817A:  CLRF   xD0
0817C:  CLRF   xCF
0817E:  CLRF   xCC
08180:  CLRF   xCB
....................    return; 
08182:  MOVLB  0
08184:  GOTO   9086 (RETURN)
.................... } 
....................  
.................... void DAY1to4_ADDRESS()                                                           //HIGH SAMPLING DL 
.................... { 
....................    AD = PASSED_DAYS % loop_day;                                                  //1,2,3,4 
*
09488:  MOVFF  6A,2EC
0948C:  MOVFF  69,2EB
09490:  MOVLB  2
09492:  CLRF   xEE
09494:  MOVLW  46
09496:  MOVWF  xED
09498:  MOVLB  0
0949A:  CALL   70D0
0949E:  MOVFF  00,2C9
094A2:  MOVLB  2
094A4:  MOVFF  03,2CA
....................    ADH = AD << 8; 
094A8:  CLRF   xCD
....................    ADL = AD; 
094AA:  MOVFF  2C9,2CE
....................    D = AD; 
094AE:  MOVFF  2CA,2CC
094B2:  MOVFF  2C9,2CB
....................     
....................    DL_AD = 220*D;                                                                //realiza saltos de 220 paquetes 
094B6:  CLRF   xF7
094B8:  MOVLW  DC
094BA:  MOVWF  xF6
094BC:  MOVFF  2CC,2F9
094C0:  MOVFF  2CB,2F8
094C4:  MOVLB  0
094C6:  CALL   8082
094CA:  MOVLB  2
094CC:  CLRF   xD2
094CE:  CLRF   xD1
094D0:  MOVFF  02,2D0
094D4:  MOVFF  01,2CF
....................    DL_AD = DL_AD * 81; 
094D8:  MOVFF  2D2,2E5
094DC:  MOVFF  2D1,2E4
094E0:  MOVFF  2D0,2E3
094E4:  MOVFF  2CF,2E2
094E8:  CLRF   xE9
094EA:  CLRF   xE8
094EC:  CLRF   xE7
094EE:  MOVLW  51
094F0:  MOVWF  xE6
094F2:  MOVLB  0
094F4:  CALL   7116
094F8:  MOVFF  03,2D2
094FC:  MOVFF  02,2D1
09500:  MOVFF  01,2D0
09504:  MOVFF  00,2CF
....................    ///////////////PACKET///////////////// 
....................    //220-224, 440-444, 660-664, 880-884 
....................    ////////////////////////////////////// 
....................     
....................     
....................    UPDATE_ACK_for_COM(0x66,0x77,SECT*1639+DL_AD,405);                            //65536*8 
09508:  MOVLB  2
0950A:  MOVFF  2CF,2DB
0950E:  MOVFF  2D0,2DC
09512:  MOVLW  67
09514:  ADDWF  xD1,W
09516:  MOVWF  xDD
09518:  MOVLW  06
0951A:  ADDWFC xD2,W
0951C:  MOVWF  xDE
0951E:  MOVLW  66
09520:  MOVWF  xDF
09522:  MOVLW  77
09524:  MOVWF  xE0
09526:  MOVFF  2DE,2E4
0952A:  MOVFF  2DD,2E3
0952E:  MOVFF  2D0,2E2
09532:  MOVFF  2CF,2E1
09536:  MOVLW  01
09538:  MOVWF  xE6
0953A:  MOVLW  95
0953C:  MOVWF  xE5
0953E:  MOVLB  0
09540:  CALL   7F96
....................    ADH=0; ADL=0; DL_AD=0; D=0; 
09544:  MOVLB  2
09546:  CLRF   xCD
09548:  CLRF   xCE
0954A:  CLRF   xD2
0954C:  CLRF   xD1
0954E:  CLRF   xD0
09550:  CLRF   xCF
09552:  CLRF   xCC
09554:  CLRF   xCB
....................    return; 
09556:  MOVLB  0
09558:  GOTO   9C38 (RETURN)
.................... } 
....................  
.................... void DAY20to25()                                                                 //20-25day 
.................... { 
....................    AD = PASSED_DAYS % loop_day;                                                  //20,21,22,23,24,25 
*
08B42:  MOVFF  6A,2EC
08B46:  MOVFF  69,2EB
08B4A:  MOVLB  2
08B4C:  CLRF   xEE
08B4E:  MOVLW  46
08B50:  MOVWF  xED
08B52:  MOVLB  0
08B54:  CALL   70D0
08B58:  MOVFF  00,2C9
08B5C:  MOVLB  2
08B5E:  MOVFF  03,2CA
....................    ADH = AD << 8; 
08B62:  CLRF   xCD
....................    ADL = AD; 
08B64:  MOVFF  2C9,2CE
....................     
....................    D = AD - 15;                                                                  //5,6,7,8,9,10 
08B68:  MOVLW  0F
08B6A:  SUBWF  xC9,W
08B6C:  MOVWF  xCB
08B6E:  MOVLW  00
08B70:  SUBWFB xCA,W
08B72:  MOVWF  xCC
....................    DL_AD = 220*D;                                                                //realiza saltos de 220 paquetes 
08B74:  CLRF   xF7
08B76:  MOVLW  DC
08B78:  MOVWF  xF6
08B7A:  MOVFF  2CC,2F9
08B7E:  MOVFF  2CB,2F8
08B82:  MOVLB  0
08B84:  CALL   8082
08B88:  MOVLB  2
08B8A:  CLRF   xD2
08B8C:  CLRF   xD1
08B8E:  MOVFF  02,2D0
08B92:  MOVFF  01,2CF
....................    DL_AD = DL_AD * 81; 
08B96:  MOVFF  2D2,2E5
08B9A:  MOVFF  2D1,2E4
08B9E:  MOVFF  2D0,2E3
08BA2:  MOVFF  2CF,2E2
08BA6:  CLRF   xE9
08BA8:  CLRF   xE8
08BAA:  CLRF   xE7
08BAC:  MOVLW  51
08BAE:  MOVWF  xE6
08BB0:  MOVLB  0
08BB2:  CALL   7116
08BB6:  MOVFF  03,2D2
08BBA:  MOVFF  02,2D1
08BBE:  MOVFF  01,2D0
08BC2:  MOVFF  00,2CF
....................    //////////////////////////////PACKET//////////////////////////////// 
....................    //1100-1104, 1320-1324, 1540-1544, 1760-1764, 1980,1984, 2200-2204 
....................    //////////////////////////////////////////////////////////////////// 
....................     
....................    SAVE_SAT_LOG(0xFD,ADH,ADL);                                                   //11,11: automatical mission 
08BC6:  MOVLW  FD
08BC8:  MOVLB  3
08BCA:  MOVWF  x02
08BCC:  MOVFF  2CD,303
08BD0:  MOVFF  2CE,304
08BD4:  MOVLB  0
08BD6:  CALL   3E06
....................    UPDATE_ACK_for_COM(0x66,0x77,SECT*1639+DL_AD,405);                            //65536*8 
08BDA:  MOVLB  2
08BDC:  MOVFF  2CF,2DB
08BE0:  MOVFF  2D0,2DC
08BE4:  MOVLW  67
08BE6:  ADDWF  xD1,W
08BE8:  MOVWF  xDD
08BEA:  MOVLW  06
08BEC:  ADDWFC xD2,W
08BEE:  MOVWF  xDE
08BF0:  MOVLW  66
08BF2:  MOVWF  xDF
08BF4:  MOVLW  77
08BF6:  MOVWF  xE0
08BF8:  MOVFF  2DE,2E4
08BFC:  MOVFF  2DD,2E3
08C00:  MOVFF  2D0,2E2
08C04:  MOVFF  2CF,2E1
08C08:  MOVLW  01
08C0A:  MOVWF  xE6
08C0C:  MOVLW  95
08C0E:  MOVWF  xE5
08C10:  MOVLB  0
08C12:  CALL   7F96
....................    ADH=0; ADL=0; DL_AD=0; D=0; 
08C16:  MOVLB  2
08C18:  CLRF   xCD
08C1A:  CLRF   xCE
08C1C:  CLRF   xD2
08C1E:  CLRF   xD1
08C20:  CLRF   xD0
08C22:  CLRF   xCF
08C24:  CLRF   xCC
08C26:  CLRF   xCB
....................    return; 
08C28:  MOVLB  0
08C2A:  GOTO   92E4 (RETURN)
.................... } 
....................  
.................... void DAY20to25_ADDRESS()                                                         //20-25day 
.................... { 
....................    AD = PASSED_DAYS % loop_day;                                                  //20,21,22,23,24,25 
*
09758:  MOVFF  6A,2EC
0975C:  MOVFF  69,2EB
09760:  MOVLB  2
09762:  CLRF   xEE
09764:  MOVLW  46
09766:  MOVWF  xED
09768:  MOVLB  0
0976A:  CALL   70D0
0976E:  MOVFF  00,2C9
09772:  MOVLB  2
09774:  MOVFF  03,2CA
....................    ADH = AD << 8; 
09778:  CLRF   xCD
....................    ADL = AD; 
0977A:  MOVFF  2C9,2CE
....................     
....................    D = AD - 15;                                                                  //5,6,7,8,9,10 
0977E:  MOVLW  0F
09780:  SUBWF  xC9,W
09782:  MOVWF  xCB
09784:  MOVLW  00
09786:  SUBWFB xCA,W
09788:  MOVWF  xCC
....................    DL_AD = 220*D;                                                                //realiza saltos de 220 paquetes 
0978A:  CLRF   xF7
0978C:  MOVLW  DC
0978E:  MOVWF  xF6
09790:  MOVFF  2CC,2F9
09794:  MOVFF  2CB,2F8
09798:  MOVLB  0
0979A:  CALL   8082
0979E:  MOVLB  2
097A0:  CLRF   xD2
097A2:  CLRF   xD1
097A4:  MOVFF  02,2D0
097A8:  MOVFF  01,2CF
....................    DL_AD = DL_AD * 81; 
097AC:  MOVFF  2D2,2E5
097B0:  MOVFF  2D1,2E4
097B4:  MOVFF  2D0,2E3
097B8:  MOVFF  2CF,2E2
097BC:  CLRF   xE9
097BE:  CLRF   xE8
097C0:  CLRF   xE7
097C2:  MOVLW  51
097C4:  MOVWF  xE6
097C6:  MOVLB  0
097C8:  CALL   7116
097CC:  MOVFF  03,2D2
097D0:  MOVFF  02,2D1
097D4:  MOVFF  01,2D0
097D8:  MOVFF  00,2CF
....................    //////////////////////////////PACKET//////////////////////////////// 
....................    //1100-1104, 1320-1324, 1540-1544, 1760-1764, 1980,1984, 2200-2204 
....................    //////////////////////////////////////////////////////////////////// 
....................     
....................    UPDATE_ACK_for_COM(0x66,0x77,SECT*1639+DL_AD,405);//65536*8 
097DC:  MOVLB  2
097DE:  MOVFF  2CF,2DB
097E2:  MOVFF  2D0,2DC
097E6:  MOVLW  67
097E8:  ADDWF  xD1,W
097EA:  MOVWF  xDD
097EC:  MOVLW  06
097EE:  ADDWFC xD2,W
097F0:  MOVWF  xDE
097F2:  MOVLW  66
097F4:  MOVWF  xDF
097F6:  MOVLW  77
097F8:  MOVWF  xE0
097FA:  MOVFF  2DE,2E4
097FE:  MOVFF  2DD,2E3
09802:  MOVFF  2D0,2E2
09806:  MOVFF  2CF,2E1
0980A:  MOVLW  01
0980C:  MOVWF  xE6
0980E:  MOVLW  95
09810:  MOVWF  xE5
09812:  MOVLB  0
09814:  CALL   7F96
....................    ADH=0; ADL=0; DL_AD=0; D=0; 
09818:  MOVLB  2
0981A:  CLRF   xCD
0981C:  CLRF   xCE
0981E:  CLRF   xD2
09820:  CLRF   xD1
09822:  CLRF   xD0
09824:  CLRF   xCF
09826:  CLRF   xCC
09828:  CLRF   xCB
....................    return; 
0982A:  MOVLB  0
0982C:  GOTO   9F0C (RETURN)
.................... } 
....................  
.................... //@@@@@@@@@@@ CAM MISSION @@@@@@@@@@@@@@@@@@@@@@@@@@@@@@@@@@@@@@@@@@@@@@@@@@@@@@@@@@@@@@@@@@@@@@@@ 
.................... void DAY5()                                                                      //CAM MSN 
.................... { 
....................    SAVE_SAT_LOG(0xC0,0x11,0x11);                                                 //11,11: automatical mission 
*
08648:  MOVLW  C0
0864A:  MOVLB  3
0864C:  MOVWF  x02
0864E:  MOVLW  11
08650:  MOVWF  x03
08652:  MOVWF  x04
08654:  MOVLB  0
08656:  CALL   3E06
....................    AUTO_CAM_DONE = 1; 
0865A:  MOVLW  01
0865C:  MOVWF  x78
....................    STORE_FLAG_INFO();                                                            //save flag 
0865E:  CALL   5B0E
....................    WRITE_FLAG_to_EEPROM(); 
08662:  CALL   5D22
....................    CAM_TEST_OPERATION(0xA0);                                                     //cam mission 320x240 low quality 
08666:  MOVLW  A0
08668:  MOVLB  2
0866A:  MOVWF  xE5
0866C:  MOVLB  0
0866E:  RCALL  8326
....................    STORE_ADRESS_DATA_TO_FLASH();                                                 //save passed days 
08670:  CALL   3AF8
....................     
....................    AD = PASSED_DAYS % loop_day;                                                  //1,2,3,4 
08674:  MOVFF  6A,2EC
08678:  MOVFF  69,2EB
0867C:  MOVLB  2
0867E:  CLRF   xEE
08680:  MOVLW  46
08682:  MOVWF  xED
08684:  MOVLB  0
08686:  CALL   70D0
0868A:  MOVFF  00,2C9
0868E:  MOVLB  2
08690:  MOVFF  03,2CA
....................    ADH = AD << 8; 
08694:  CLRF   xCD
....................    ADL = AD; 
08696:  MOVFF  2C9,2CE
....................    SAVE_SAT_LOG(0xCD,ADH,ADL);                                                   //11,11: automatical mission 
0869A:  MOVLW  CD
0869C:  MOVLB  3
0869E:  MOVWF  x02
086A0:  MOVFF  2CD,303
086A4:  MOVFF  2CE,304
086A8:  MOVLB  0
086AA:  CALL   3E06
....................    UPDATE_ACK_for_COM(0x66,0x77,SECT*8,405);                                     //65536*8 
086AE:  MOVLW  66
086B0:  MOVLB  2
086B2:  MOVWF  xDF
086B4:  MOVLW  77
086B6:  MOVWF  xE0
086B8:  CLRF   xE4
086BA:  MOVLW  08
086BC:  MOVWF  xE3
086BE:  CLRF   xE2
086C0:  CLRF   xE1
086C2:  MOVLW  01
086C4:  MOVWF  xE6
086C6:  MOVLW  95
086C8:  MOVWF  xE5
086CA:  MOVLB  0
086CC:  RCALL  7F96
....................    return; 
086CE:  GOTO   90CC (RETURN)
.................... } 
....................  
.................... void DAY6to9()                                                                   //CAM DL 1 
.................... { 
....................    AD = PASSED_DAYS % loop_day;                                                  //6,7,8,9 
086D2:  MOVFF  6A,2EC
086D6:  MOVFF  69,2EB
086DA:  MOVLB  2
086DC:  CLRF   xEE
086DE:  MOVLW  46
086E0:  MOVWF  xED
086E2:  MOVLB  0
086E4:  CALL   70D0
086E8:  MOVFF  00,2C9
086EC:  MOVLB  2
086EE:  MOVFF  03,2CA
....................    ADH = AD << 8; 
086F2:  CLRF   xCD
....................    ADL = AD; 
086F4:  MOVFF  2C9,2CE
....................     
....................    D = AD - 5;                                                                   //1,2,3,4 
086F8:  MOVLW  05
086FA:  SUBWF  xC9,W
086FC:  MOVWF  xCB
086FE:  MOVLW  00
08700:  SUBWFB xCA,W
08702:  MOVWF  xCC
....................    DL_AD = D*5;                                                                   
08704:  MOVFF  2CC,2F7
08708:  MOVFF  2CB,2F6
0870C:  CLRF   xF9
0870E:  MOVLW  05
08710:  MOVWF  xF8
08712:  MOVLB  0
08714:  RCALL  8082
08716:  MOVLB  2
08718:  CLRF   xD2
0871A:  CLRF   xD1
0871C:  MOVFF  02,2D0
08720:  MOVFF  01,2CF
....................    DL_AD = DL_AD * 81;                                                           //download address 
08724:  MOVFF  2D2,2E5
08728:  MOVFF  2D1,2E4
0872C:  MOVFF  2D0,2E3
08730:  MOVFF  2CF,2E2
08734:  CLRF   xE9
08736:  CLRF   xE8
08738:  CLRF   xE7
0873A:  MOVLW  51
0873C:  MOVWF  xE6
0873E:  MOVLB  0
08740:  CALL   7116
08744:  MOVFF  03,2D2
08748:  MOVFF  02,2D1
0874C:  MOVFF  01,2D0
08750:  MOVFF  00,2CF
....................    //////////PACKET//////////// 
....................    //5-9, 10-14, 15-19, 20-24 
....................    //////////////////////////// 
....................     
....................    SAVE_SAT_LOG(0xCD,ADH,ADL);                                                   //11,11: automatical mission 
08754:  MOVLW  CD
08756:  MOVLB  3
08758:  MOVWF  x02
0875A:  MOVFF  2CD,303
0875E:  MOVFF  2CE,304
08762:  MOVLB  0
08764:  CALL   3E06
....................    UPDATE_ACK_for_COM(0x66,0x77,SECT*8+DL_AD,405);                               //65536*8 
08768:  MOVLB  2
0876A:  MOVFF  2CF,2DB
0876E:  MOVFF  2D0,2DC
08772:  MOVLW  08
08774:  ADDWF  xD1,W
08776:  MOVWF  xDD
08778:  MOVLW  00
0877A:  ADDWFC xD2,W
0877C:  MOVWF  xDE
0877E:  MOVLW  66
08780:  MOVWF  xDF
08782:  MOVLW  77
08784:  MOVWF  xE0
08786:  MOVFF  2DE,2E4
0878A:  MOVFF  2DD,2E3
0878E:  MOVFF  2D0,2E2
08792:  MOVFF  2CF,2E1
08796:  MOVLW  01
08798:  MOVWF  xE6
0879A:  MOVLW  95
0879C:  MOVWF  xE5
0879E:  MOVLB  0
087A0:  CALL   7F96
....................    ADH=0; ADL=0; DL_AD=0; D=0; 
087A4:  MOVLB  2
087A6:  CLRF   xCD
087A8:  CLRF   xCE
087AA:  CLRF   xD2
087AC:  CLRF   xD1
087AE:  CLRF   xD0
087B0:  CLRF   xCF
087B2:  CLRF   xCC
087B4:  CLRF   xCB
....................    return; 
087B6:  MOVLB  0
087B8:  GOTO   9130 (RETURN)
.................... } 
....................  
.................... void DAY6to9_ADDRESS()                                                           //CAM DL 1 
.................... { 
....................    AD = PASSED_DAYS % loop_day;                                                  //6,7,8,9 
*
0955C:  MOVFF  6A,2EC
09560:  MOVFF  69,2EB
09564:  MOVLB  2
09566:  CLRF   xEE
09568:  MOVLW  46
0956A:  MOVWF  xED
0956C:  MOVLB  0
0956E:  CALL   70D0
09572:  MOVFF  00,2C9
09576:  MOVLB  2
09578:  MOVFF  03,2CA
....................    ADH = AD << 8; 
0957C:  CLRF   xCD
....................    ADL = AD; 
0957E:  MOVFF  2C9,2CE
....................     
....................    D = AD - 5;                                                                   //1,2,3,4 
09582:  MOVLW  05
09584:  SUBWF  xC9,W
09586:  MOVWF  xCB
09588:  MOVLW  00
0958A:  SUBWFB xCA,W
0958C:  MOVWF  xCC
....................    DL_AD = D*5;                                                                  //saltos de 5 paquetes 
0958E:  MOVFF  2CC,2F7
09592:  MOVFF  2CB,2F6
09596:  CLRF   xF9
09598:  MOVLW  05
0959A:  MOVWF  xF8
0959C:  MOVLB  0
0959E:  CALL   8082
095A2:  MOVLB  2
095A4:  CLRF   xD2
095A6:  CLRF   xD1
095A8:  MOVFF  02,2D0
095AC:  MOVFF  01,2CF
....................    DL_AD = DL_AD * 81; 
095B0:  MOVFF  2D2,2E5
095B4:  MOVFF  2D1,2E4
095B8:  MOVFF  2D0,2E3
095BC:  MOVFF  2CF,2E2
095C0:  CLRF   xE9
095C2:  CLRF   xE8
095C4:  CLRF   xE7
095C6:  MOVLW  51
095C8:  MOVWF  xE6
095CA:  MOVLB  0
095CC:  CALL   7116
095D0:  MOVFF  03,2D2
095D4:  MOVFF  02,2D1
095D8:  MOVFF  01,2D0
095DC:  MOVFF  00,2CF
....................    //////////PACKET//////////// 
....................    //5-9, 10-14, 15-19, 20-24 
....................    //////////////////////////// 
....................     
....................    UPDATE_ACK_for_COM(0x66,0x77,SECT*8+DL_AD,405);                               //65536*8 
095E0:  MOVLB  2
095E2:  MOVFF  2CF,2DB
095E6:  MOVFF  2D0,2DC
095EA:  MOVLW  08
095EC:  ADDWF  xD1,W
095EE:  MOVWF  xDD
095F0:  MOVLW  00
095F2:  ADDWFC xD2,W
095F4:  MOVWF  xDE
095F6:  MOVLW  66
095F8:  MOVWF  xDF
095FA:  MOVLW  77
095FC:  MOVWF  xE0
095FE:  MOVFF  2DE,2E4
09602:  MOVFF  2DD,2E3
09606:  MOVFF  2D0,2E2
0960A:  MOVFF  2CF,2E1
0960E:  MOVLW  01
09610:  MOVWF  xE6
09612:  MOVLW  95
09614:  MOVWF  xE5
09616:  MOVLB  0
09618:  CALL   7F96
....................    ADH=0; ADL=0; DL_AD=0; D=0; 
0961C:  MOVLB  2
0961E:  CLRF   xCD
09620:  CLRF   xCE
09622:  CLRF   xD2
09624:  CLRF   xD1
09626:  CLRF   xD0
09628:  CLRF   xCF
0962A:  CLRF   xCC
0962C:  CLRF   xCB
....................    return; 
0962E:  MOVLB  0
09630:  GOTO   9CFE (RETURN)
.................... } 
....................  
.................... void DAY26to46()                                                                 //CAM Download 1 
.................... { 
....................    AD = PASSED_DAYS % loop_day;                                                  //26,27,28,29,30,31,32,33,34,35,36,37,38,39,40,41,42,43,44,45,46 
*
08C2E:  MOVFF  6A,2EC
08C32:  MOVFF  69,2EB
08C36:  MOVLB  2
08C38:  CLRF   xEE
08C3A:  MOVLW  46
08C3C:  MOVWF  xED
08C3E:  MOVLB  0
08C40:  CALL   70D0
08C44:  MOVFF  00,2C9
08C48:  MOVLB  2
08C4A:  MOVFF  03,2CA
....................    ADH = AD << 8; 
08C4E:  CLRF   xCD
....................    ADL = AD; 
08C50:  MOVFF  2C9,2CE
....................     
....................    D = AD - 21;                                                                  //se le descuenta 21 para continuar con la descarga desde el paquete 25  
08C54:  MOVLW  15
08C56:  SUBWF  xC9,W
08C58:  MOVWF  xCB
08C5A:  MOVLW  00
08C5C:  SUBWFB xCA,W
08C5E:  MOVWF  xCC
....................    DL_AD = D*5;                                                                  //los primeros 25 se descarga en los primeros 5 dias 
08C60:  MOVFF  2CC,2F7
08C64:  MOVFF  2CB,2F6
08C68:  CLRF   xF9
08C6A:  MOVLW  05
08C6C:  MOVWF  xF8
08C6E:  MOVLB  0
08C70:  CALL   8082
08C74:  MOVLB  2
08C76:  CLRF   xD2
08C78:  CLRF   xD1
08C7A:  MOVFF  02,2D0
08C7E:  MOVFF  01,2CF
....................    DL_AD = DL_AD * 81; 
08C82:  MOVFF  2D2,2E5
08C86:  MOVFF  2D1,2E4
08C8A:  MOVFF  2D0,2E3
08C8E:  MOVFF  2CF,2E2
08C92:  CLRF   xE9
08C94:  CLRF   xE8
08C96:  CLRF   xE7
08C98:  MOVLW  51
08C9A:  MOVWF  xE6
08C9C:  MOVLB  0
08C9E:  CALL   7116
08CA2:  MOVFF  03,2D2
08CA6:  MOVFF  02,2D1
08CAA:  MOVFF  01,2D0
08CAE:  MOVFF  00,2CF
....................    ///////////////////////PACKET///////////////////////// 
....................    //25-29,   30-34,   35-39,   40-44,   45-49 
....................    //50-54,   55-59,   60-64,   65-69,   70-74 
....................    //75-79,   80-84,   85-89,   90-94,   95-99 
....................    //100-104, 105-109, 110-114, 115-119, 120-124 
....................    //125-129 
....................    //---------------------------------------------------- 
....................    //total is 129 packet 
....................    ////////////////////////////////////////////////////// 
....................     
....................    /////////////////////////////BYTE///////////////////////// 
....................    //2025-2429, 2430-2834, 2835-3239, 3240-3644, 3645-4049 
....................    //4050-4454, 4455-4859, 4860-5264, 5265-5669, 5670-6074 
....................    //6075-6479, 6480-6884, 6885-7289, 7290-7694, 7695-8099 
....................    //8100-8504, 8505-8909, 8910-9314, 9315-9719, 9720-10124 
....................    //10125-10530 
....................    //-------------------------------------------------------- 
....................    //total is about 10kB 
....................    ////////////////////////////////////////////////////////// 
....................     
....................    SAVE_SAT_LOG(0xCD,ADH,ADL);                                                   //11,11: automatical mission 
08CB2:  MOVLW  CD
08CB4:  MOVLB  3
08CB6:  MOVWF  x02
08CB8:  MOVFF  2CD,303
08CBC:  MOVFF  2CE,304
08CC0:  MOVLB  0
08CC2:  CALL   3E06
....................    UPDATE_ACK_for_COM(0x66,0x77,SECT*8+DL_AD,405);                               //65536*8 
08CC6:  MOVLB  2
08CC8:  MOVFF  2CF,2DB
08CCC:  MOVFF  2D0,2DC
08CD0:  MOVLW  08
08CD2:  ADDWF  xD1,W
08CD4:  MOVWF  xDD
08CD6:  MOVLW  00
08CD8:  ADDWFC xD2,W
08CDA:  MOVWF  xDE
08CDC:  MOVLW  66
08CDE:  MOVWF  xDF
08CE0:  MOVLW  77
08CE2:  MOVWF  xE0
08CE4:  MOVFF  2DE,2E4
08CE8:  MOVFF  2DD,2E3
08CEC:  MOVFF  2D0,2E2
08CF0:  MOVFF  2CF,2E1
08CF4:  MOVLW  01
08CF6:  MOVWF  xE6
08CF8:  MOVLW  95
08CFA:  MOVWF  xE5
08CFC:  MOVLB  0
08CFE:  CALL   7F96
....................    ADH=0; ADL=0; DL_AD=0; D=0; 
08D02:  MOVLB  2
08D04:  CLRF   xCD
08D06:  CLRF   xCE
08D08:  CLRF   xD2
08D0A:  CLRF   xD1
08D0C:  CLRF   xD0
08D0E:  CLRF   xCF
08D10:  CLRF   xCC
08D12:  CLRF   xCB
....................    return; 
08D14:  MOVLB  0
08D16:  GOTO   9346 (RETURN)
.................... } 
....................  
.................... void DAY26to46_ADDRESS()                                                         //CAM DL 1 
.................... { 
....................    AD = PASSED_DAYS % loop_day;                                                  //26,27,28,29,30,31,32,33,34,35,36,37,38,39,40,41,42,43,44,45,46 
*
09830:  MOVFF  6A,2EC
09834:  MOVFF  69,2EB
09838:  MOVLB  2
0983A:  CLRF   xEE
0983C:  MOVLW  46
0983E:  MOVWF  xED
09840:  MOVLB  0
09842:  CALL   70D0
09846:  MOVFF  00,2C9
0984A:  MOVLB  2
0984C:  MOVFF  03,2CA
....................    ADH = AD << 8; 
09850:  CLRF   xCD
....................    ADL = AD; 
09852:  MOVFF  2C9,2CE
....................     
....................    D = AD - 21; 
09856:  MOVLW  15
09858:  SUBWF  xC9,W
0985A:  MOVWF  xCB
0985C:  MOVLW  00
0985E:  SUBWFB xCA,W
09860:  MOVWF  xCC
....................    DL_AD = D*5;                                                                  //saltos de 5 paquetes 
09862:  MOVFF  2CC,2F7
09866:  MOVFF  2CB,2F6
0986A:  CLRF   xF9
0986C:  MOVLW  05
0986E:  MOVWF  xF8
09870:  MOVLB  0
09872:  CALL   8082
09876:  MOVLB  2
09878:  CLRF   xD2
0987A:  CLRF   xD1
0987C:  MOVFF  02,2D0
09880:  MOVFF  01,2CF
....................    DL_AD = DL_AD * 81; 
09884:  MOVFF  2D2,2E5
09888:  MOVFF  2D1,2E4
0988C:  MOVFF  2D0,2E3
09890:  MOVFF  2CF,2E2
09894:  CLRF   xE9
09896:  CLRF   xE8
09898:  CLRF   xE7
0989A:  MOVLW  51
0989C:  MOVWF  xE6
0989E:  MOVLB  0
098A0:  CALL   7116
098A4:  MOVFF  03,2D2
098A8:  MOVFF  02,2D1
098AC:  MOVFF  01,2D0
098B0:  MOVFF  00,2CF
....................    ///////////////////////PACKET///////////////////////// 
....................    //25-29,   40-34,   35-39,   40-44,   45-49 
....................    //50-54,   55-59,   60-64,   65-69,   70-74 
....................    //75-79,   80-84,   85-89,   90-94,   95-99 
....................    //100-104, 105-109, 110-114, 115-119, 120-124 
....................    //125-129 
....................    //---------------------------------------------------- 
....................    //total is 129 packet 
....................    ////////////////////////////////////////////////////// 
....................     
....................    /////////////////////////////BYTE///////////////////////// 
....................    //2025-2429, 2430-2834, 2835-3239, 3240-3644, 3645-4049 
....................    //4050-4454, 4455-4859, 4860-5264, 5265-5669, 5670-6074 
....................    //6075-6479, 6480-6884, 6885-7289, 7290-7694, 7695-8099 
....................    //8100-8504, 8505-8909, 8910-9314, 9315-9719, 9720-10124 
....................    //10125-10530 
....................    //-------------------------------------------------------- 
....................    //total is about 10kB 
....................    ////////////////////////////////////////////////////////// 
....................     
....................    UPDATE_ACK_for_COM(0x66,0x77,SECT*8+DL_AD,405);                               //65536*8 
098B4:  MOVLB  2
098B6:  MOVFF  2CF,2DB
098BA:  MOVFF  2D0,2DC
098BE:  MOVLW  08
098C0:  ADDWF  xD1,W
098C2:  MOVWF  xDD
098C4:  MOVLW  00
098C6:  ADDWFC xD2,W
098C8:  MOVWF  xDE
098CA:  MOVLW  66
098CC:  MOVWF  xDF
098CE:  MOVLW  77
098D0:  MOVWF  xE0
098D2:  MOVFF  2DE,2E4
098D6:  MOVFF  2DD,2E3
098DA:  MOVFF  2D0,2E2
098DE:  MOVFF  2CF,2E1
098E2:  MOVLW  01
098E4:  MOVWF  xE6
098E6:  MOVLW  95
098E8:  MOVWF  xE5
098EA:  MOVLB  0
098EC:  CALL   7F96
....................    ADH=0; ADL=0; DL_AD=0; D=0; 
098F0:  MOVLB  2
098F2:  CLRF   xCD
098F4:  CLRF   xCE
098F6:  CLRF   xD2
098F8:  CLRF   xD1
098FA:  CLRF   xD0
098FC:  CLRF   xCF
098FE:  CLRF   xCC
09900:  CLRF   xCB
....................    return; 
09902:  MOVLB  0
09904:  GOTO   9F6E (RETURN)
.................... } 
....................  
.................... //@@@@@@@@@@@@@@@@@@@@@@@@@@ MBP MISSION @@@@@@@@@@@@@@@@@@@@@@@@@@@@@@@@ 
.................... void DAY10()                                                                     //MBP mission 
.................... { 
....................    AUTO_MBP_DONE = 1; 
*
087BC:  MOVLW  01
087BE:  MOVWF  x79
....................    STORE_FLAG_INFO();                                                            //save flag 
087C0:  CALL   5B0E
....................    WRITE_FLAG_to_EEPROM(); 
087C4:  CALL   5D22
....................     
....................    SAVE_SAT_LOG(0xD0,0x11,0x11);                                                 //11,11: automatical mission 
087C8:  MOVLW  D0
087CA:  MOVLB  3
087CC:  MOVWF  x02
087CE:  MOVLW  11
087D0:  MOVWF  x03
087D2:  MOVWF  x04
087D4:  MOVLB  0
087D6:  CALL   3E06
.................... //   DATACOLLECTION_TEST_OPERATION();                                              //1 execution of the mission 
....................    delay_ms(3000); 
087DA:  MOVLW  0C
087DC:  MOVLB  2
087DE:  MOVWF  xDB
087E0:  MOVLW  FA
087E2:  MOVLB  3
087E4:  MOVWF  x19
087E6:  MOVLB  0
087E8:  CALL   1F78
087EC:  MOVLB  2
087EE:  DECFSZ xDB,F
087F0:  BRA    87E0
....................    SAVE_SAT_LOG(0xD0,0x22,0x22);                                                 //01,01: automatical mission 
087F2:  MOVLW  D0
087F4:  MOVLB  3
087F6:  MOVWF  x02
087F8:  MOVLW  22
087FA:  MOVWF  x03
087FC:  MOVWF  x04
087FE:  MOVLB  0
08800:  CALL   3E06
.................... //   DATACOLLECTION_TEST_OPERATION();                                              //2 execution of the mission 
....................    delay_ms(3000); 
08804:  MOVLW  0C
08806:  MOVLB  2
08808:  MOVWF  xDB
0880A:  MOVLW  FA
0880C:  MOVLB  3
0880E:  MOVWF  x19
08810:  MOVLB  0
08812:  CALL   1F78
08816:  MOVLB  2
08818:  DECFSZ xDB,F
0881A:  BRA    880A
....................    SAVE_SAT_LOG(0xD0,0x33,0x33);                                                 //01,01: automatical mission 
0881C:  MOVLW  D0
0881E:  MOVLB  3
08820:  MOVWF  x02
08822:  MOVLW  33
08824:  MOVWF  x03
08826:  MOVWF  x04
08828:  MOVLB  0
0882A:  CALL   3E06
.................... //   DATACOLLECTION_TEST_OPERATION();                                              //3 execution of the mission 
....................    delay_ms(3000); 
0882E:  MOVLW  0C
08830:  MOVLB  2
08832:  MOVWF  xDB
08834:  MOVLW  FA
08836:  MOVLB  3
08838:  MOVWF  x19
0883A:  MOVLB  0
0883C:  CALL   1F78
08840:  MOVLB  2
08842:  DECFSZ xDB,F
08844:  BRA    8834
....................    SAVE_SAT_LOG(0xD0,0x44,0x44);                                                 //01,01: automatical mission 
08846:  MOVLW  D0
08848:  MOVLB  3
0884A:  MOVWF  x02
0884C:  MOVLW  44
0884E:  MOVWF  x03
08850:  MOVWF  x04
08852:  MOVLB  0
08854:  CALL   3E06
.................... //   DATACOLLECTION_TEST_OPERATION();                                              //4 execution of the mission 
....................    STORE_ADRESS_DATA_TO_FLASH(); 
08858:  CALL   3AF8
....................     
....................    AD = PASSED_DAYS % loop_day;                                                  //10 
0885C:  MOVFF  6A,2EC
08860:  MOVFF  69,2EB
08864:  MOVLB  2
08866:  CLRF   xEE
08868:  MOVLW  46
0886A:  MOVWF  xED
0886C:  MOVLB  0
0886E:  CALL   70D0
08872:  MOVFF  00,2C9
08876:  MOVLB  2
08878:  MOVFF  03,2CA
....................    ADH = AD << 8; 
0887C:  CLRF   xCD
....................    ADL = AD; 
0887E:  MOVFF  2C9,2CE
....................    SAVE_SAT_LOG(0xDD,ADH,ADL);                                                   //11,11: automatical mission 
08882:  MOVLW  DD
08884:  MOVLB  3
08886:  MOVWF  x02
08888:  MOVFF  2CD,303
0888C:  MOVFF  2CE,304
08890:  MOVLB  0
08892:  CALL   3E06
....................    UPDATE_ACK_for_COM(0x66,0x77,DC_STATUS_ADDRESS-332,332);                      //65536*162, 332 corresponde a 4 paquetes de 83 recibidos de la ejecucion de DC 
08896:  MOVLW  4C
08898:  SUBWF  58,W
0889A:  MOVLB  2
0889C:  MOVWF  xDB
0889E:  MOVLW  01
088A0:  SUBWFB 59,W
088A2:  MOVWF  xDC
088A4:  MOVLW  00
088A6:  SUBWFB 5A,W
088A8:  MOVWF  xDD
088AA:  MOVLW  00
088AC:  SUBWFB 5B,W
088AE:  MOVWF  xDE
088B0:  MOVLW  66
088B2:  MOVWF  xDF
088B4:  MOVLW  77
088B6:  MOVWF  xE0
088B8:  MOVFF  2DE,2E4
088BC:  MOVFF  2DD,2E3
088C0:  MOVFF  2DC,2E2
088C4:  MOVFF  2DB,2E1
088C8:  MOVLW  01
088CA:  MOVWF  xE6
088CC:  MOVLW  4C
088CE:  MOVWF  xE5
088D0:  MOVLB  0
088D2:  CALL   7F96
....................    return; 
088D6:  GOTO   9176 (RETURN)
.................... } 
....................  
.................... void DAY11to14()                                                                 //MBP Data download 
.................... { 
....................    SAVE_SAT_LOG(0xD0,0x11,0x11);                                                 //01,01: automatical mission 
088DA:  MOVLW  D0
088DC:  MOVLB  3
088DE:  MOVWF  x02
088E0:  MOVLW  11
088E2:  MOVWF  x03
088E4:  MOVWF  x04
088E6:  MOVLB  0
088E8:  CALL   3E06
....................   // DATACOLLECTION_TEST_OPERATION(); 
....................    delay_ms(3000); 
088EC:  MOVLW  0C
088EE:  MOVLB  2
088F0:  MOVWF  xDB
088F2:  MOVLW  FA
088F4:  MOVLB  3
088F6:  MOVWF  x19
088F8:  MOVLB  0
088FA:  CALL   1F78
088FE:  MOVLB  2
08900:  DECFSZ xDB,F
08902:  BRA    88F2
....................    SAVE_SAT_LOG(0xD0,0x22,0x22);                                                 //01,01: automatical mission 
08904:  MOVLW  D0
08906:  MOVLB  3
08908:  MOVWF  x02
0890A:  MOVLW  22
0890C:  MOVWF  x03
0890E:  MOVWF  x04
08910:  MOVLB  0
08912:  CALL   3E06
....................   // DATACOLLECTION_TEST_OPERATION(); 
....................    delay_ms(3000); 
08916:  MOVLW  0C
08918:  MOVLB  2
0891A:  MOVWF  xDB
0891C:  MOVLW  FA
0891E:  MOVLB  3
08920:  MOVWF  x19
08922:  MOVLB  0
08924:  CALL   1F78
08928:  MOVLB  2
0892A:  DECFSZ xDB,F
0892C:  BRA    891C
....................    SAVE_SAT_LOG(0xD0,0x33,0x33);                                                 //01,01: automatical mission 
0892E:  MOVLW  D0
08930:  MOVLB  3
08932:  MOVWF  x02
08934:  MOVLW  33
08936:  MOVWF  x03
08938:  MOVWF  x04
0893A:  MOVLB  0
0893C:  CALL   3E06
....................    //DATACOLLECTION_TEST_OPERATION(); 
....................    delay_ms(3000); 
08940:  MOVLW  0C
08942:  MOVLB  2
08944:  MOVWF  xDB
08946:  MOVLW  FA
08948:  MOVLB  3
0894A:  MOVWF  x19
0894C:  MOVLB  0
0894E:  CALL   1F78
08952:  MOVLB  2
08954:  DECFSZ xDB,F
08956:  BRA    8946
....................    SAVE_SAT_LOG(0xD4,0x44,0x44);                                                 //01,01: automatical mission 
08958:  MOVLW  D4
0895A:  MOVLB  3
0895C:  MOVWF  x02
0895E:  MOVLW  44
08960:  MOVWF  x03
08962:  MOVWF  x04
08964:  MOVLB  0
08966:  CALL   3E06
....................  //  DATACOLLECTION_TEST_OPERATION(); 
....................    STORE_ADRESS_DATA_TO_FLASH(); 
0896A:  CALL   3AF8
....................     
....................    AD = PASSED_DAYS % loop_day;                                                  //11,12,13,14 
0896E:  MOVFF  6A,2EC
08972:  MOVFF  69,2EB
08976:  MOVLB  2
08978:  CLRF   xEE
0897A:  MOVLW  46
0897C:  MOVWF  xED
0897E:  MOVLB  0
08980:  CALL   70D0
08984:  MOVFF  00,2C9
08988:  MOVLB  2
0898A:  MOVFF  03,2CA
....................    ADH = AD << 8; 
0898E:  CLRF   xCD
....................    ADL = AD; 
08990:  MOVFF  2C9,2CE
....................    SAVE_SAT_LOG(0xDD,ADH,ADL); 
08994:  MOVLW  DD
08996:  MOVLB  3
08998:  MOVWF  x02
0899A:  MOVFF  2CD,303
0899E:  MOVFF  2CE,304
089A2:  MOVLB  0
089A4:  CALL   3E06
....................    UPDATE_ACK_for_COM(0x66,0x77,DC_STATUS_ADDRESS-332,332);                      //65536*8 
089A8:  MOVLW  4C
089AA:  SUBWF  58,W
089AC:  MOVLB  2
089AE:  MOVWF  xDB
089B0:  MOVLW  01
089B2:  SUBWFB 59,W
089B4:  MOVWF  xDC
089B6:  MOVLW  00
089B8:  SUBWFB 5A,W
089BA:  MOVWF  xDD
089BC:  MOVLW  00
089BE:  SUBWFB 5B,W
089C0:  MOVWF  xDE
089C2:  MOVLW  66
089C4:  MOVWF  xDF
089C6:  MOVLW  77
089C8:  MOVWF  xE0
089CA:  MOVFF  2DE,2E4
089CE:  MOVFF  2DD,2E3
089D2:  MOVFF  2DC,2E2
089D6:  MOVFF  2DB,2E1
089DA:  MOVLW  01
089DC:  MOVWF  xE6
089DE:  MOVLW  4C
089E0:  MOVWF  xE5
089E2:  MOVLB  0
089E4:  CALL   7F96
....................    ADH=0; ADL=0; DL_AD=0; D=0; 
089E8:  MOVLB  2
089EA:  CLRF   xCD
089EC:  CLRF   xCE
089EE:  CLRF   xD2
089F0:  CLRF   xD1
089F2:  CLRF   xD0
089F4:  CLRF   xCF
089F6:  CLRF   xCC
089F8:  CLRF   xCB
....................    return; 
089FA:  MOVLB  0
089FC:  GOTO   91DA (RETURN)
.................... } 
....................  
.................... void DAY11to14_ADDRESS()                                                         //MBP Data download 
.................... {    
....................    AD = PASSED_DAYS % loop_day;                                                  //11,12,13,14 
*
09634:  MOVFF  6A,2EC
09638:  MOVFF  69,2EB
0963C:  MOVLB  2
0963E:  CLRF   xEE
09640:  MOVLW  46
09642:  MOVWF  xED
09644:  MOVLB  0
09646:  CALL   70D0
0964A:  MOVFF  00,2C9
0964E:  MOVLB  2
09650:  MOVFF  03,2CA
....................    ADH = AD << 8; 
09654:  CLRF   xCD
....................    ADL = AD; 
09656:  MOVFF  2C9,2CE
....................    UPDATE_ACK_for_COM(0x66,0x77,DC_STATUS_ADDRESS-332,332);//65536*8 
0965A:  MOVLW  4C
0965C:  SUBWF  58,W
0965E:  MOVWF  xDB
09660:  MOVLW  01
09662:  SUBWFB 59,W
09664:  MOVWF  xDC
09666:  MOVLW  00
09668:  SUBWFB 5A,W
0966A:  MOVWF  xDD
0966C:  MOVLW  00
0966E:  SUBWFB 5B,W
09670:  MOVWF  xDE
09672:  MOVLW  66
09674:  MOVWF  xDF
09676:  MOVLW  77
09678:  MOVWF  xE0
0967A:  MOVFF  2DE,2E4
0967E:  MOVFF  2DD,2E3
09682:  MOVFF  2DC,2E2
09686:  MOVFF  2DB,2E1
0968A:  MOVLW  01
0968C:  MOVWF  xE6
0968E:  MOVLW  4C
09690:  MOVWF  xE5
09692:  MOVLB  0
09694:  CALL   7F96
....................    ADH=0; ADL=0; DL_AD=0; D=0; 
09698:  MOVLB  2
0969A:  CLRF   xCD
0969C:  CLRF   xCE
0969E:  CLRF   xD2
096A0:  CLRF   xD1
096A2:  CLRF   xD0
096A4:  CLRF   xCF
096A6:  CLRF   xCC
096A8:  CLRF   xCB
....................    return; 
096AA:  MOVLB  0
096AC:  GOTO   9DE2 (RETURN)
.................... } 
....................  
.................... //@@@@@@@@@@@ ADCS MISSION @@@@@@@@@@@@@@@@@@@@@@@@@@@@@@@@@@@@@@@@@@@@@@@@@@@@@@@@@@@@@@@@@@@@@@@@@@ 
.................... void DAY15()                                                                     //ADCS MSN 
.................... { 
....................    SAVE_SAT_LOG(0xA0,0x11,0x11);                                                 //01,01: automatical mission 
*
08A00:  MOVLW  A0
08A02:  MOVLB  3
08A04:  MOVWF  x02
08A06:  MOVLW  11
08A08:  MOVWF  x03
08A0A:  MOVWF  x04
08A0C:  MOVLB  0
08A0E:  CALL   3E06
....................    AUTO_ADCS_DONE = 1; 
08A12:  MOVLW  01
08A14:  MOVWF  x7A
....................    STORE_FLAG_INFO();                                                            //save flag 
08A16:  CALL   5B0E
....................    WRITE_FLAG_to_EEPROM(); 
08A1A:  CALL   5D22
....................  /*ADCS_TEST_OPERATION(5400,AUTO_ADCS_MSN);*/ 
....................    STORE_ADRESS_DATA_TO_FLASH(); 
08A1E:  CALL   3AF8
....................     
....................    AD = PASSED_DAYS % loop_day;                                                  //15 
08A22:  MOVFF  6A,2EC
08A26:  MOVFF  69,2EB
08A2A:  MOVLB  2
08A2C:  CLRF   xEE
08A2E:  MOVLW  46
08A30:  MOVWF  xED
08A32:  MOVLB  0
08A34:  CALL   70D0
08A38:  MOVFF  00,2C9
08A3C:  MOVLB  2
08A3E:  MOVFF  03,2CA
....................    ADH = AD << 8; 
08A42:  CLRF   xCD
....................    ADL = AD; 
08A44:  MOVFF  2C9,2CE
....................    SAVE_SAT_LOG(0xAD,ADH,ADL);                                                   //11,11: automatical mission 
08A48:  MOVLW  AD
08A4A:  MOVLB  3
08A4C:  MOVWF  x02
08A4E:  MOVFF  2CD,303
08A52:  MOVFF  2CE,304
08A56:  MOVLB  0
08A58:  CALL   3E06
....................    UPDATE_ACK_for_COM(0x66, 0x77, SECT*1138, 405);                               //(9byte) + (initial 81byte) + (end 81byte) 
08A5C:  MOVLW  66
08A5E:  MOVLB  2
08A60:  MOVWF  xDF
08A62:  MOVLW  77
08A64:  MOVWF  xE0
08A66:  MOVLW  04
08A68:  MOVWF  xE4
08A6A:  MOVLW  72
08A6C:  MOVWF  xE3
08A6E:  CLRF   xE2
08A70:  CLRF   xE1
08A72:  MOVLW  01
08A74:  MOVWF  xE6
08A76:  MOVLW  95
08A78:  MOVWF  xE5
08A7A:  MOVLB  0
08A7C:  CALL   7F96
....................    return; 
08A80:  GOTO   9220 (RETURN)
.................... } 
....................  
.................... void DAY16to19()                                                                 //ADCS Data download 
.................... { 
....................    AD = PASSED_DAYS % loop_day;                                                  //16,17,18,19 
08A84:  MOVFF  6A,2EC
08A88:  MOVFF  69,2EB
08A8C:  MOVLB  2
08A8E:  CLRF   xEE
08A90:  MOVLW  46
08A92:  MOVWF  xED
08A94:  MOVLB  0
08A96:  CALL   70D0
08A9A:  MOVFF  00,2C9
08A9E:  MOVLB  2
08AA0:  MOVFF  03,2CA
....................    ADH = AD << 8; 
08AA4:  CLRF   xCD
....................    ADL = AD; 
08AA6:  MOVFF  2C9,2CE
....................    D = AD - 15; 
08AAA:  MOVLW  0F
08AAC:  SUBWF  xC9,W
08AAE:  MOVWF  xCB
08AB0:  MOVLW  00
08AB2:  SUBWFB xCA,W
08AB4:  MOVWF  xCC
....................    DL_AD = 360*D; 
08AB6:  MOVLW  01
08AB8:  MOVWF  xF7
08ABA:  MOVLW  68
08ABC:  MOVWF  xF6
08ABE:  MOVFF  2CC,2F9
08AC2:  MOVFF  2CB,2F8
08AC6:  MOVLB  0
08AC8:  CALL   8082
08ACC:  MOVLB  2
08ACE:  CLRF   xD2
08AD0:  CLRF   xD1
08AD2:  MOVFF  02,2D0
08AD6:  MOVFF  01,2CF
....................    SAVE_SAT_LOG(0xAD,ADH,ADL);                                                   //11,11: automatical mission 
08ADA:  MOVLW  AD
08ADC:  MOVLB  3
08ADE:  MOVWF  x02
08AE0:  MOVFF  2CD,303
08AE4:  MOVFF  2CE,304
08AE8:  MOVLB  0
08AEA:  CALL   3E06
....................    UPDATE_ACK_for_COM(0x66,0x77,SECT*1639+DL_AD,405);                            //65536*8 
08AEE:  MOVLB  2
08AF0:  MOVFF  2CF,2DB
08AF4:  MOVFF  2D0,2DC
08AF8:  MOVLW  67
08AFA:  ADDWF  xD1,W
08AFC:  MOVWF  xDD
08AFE:  MOVLW  06
08B00:  ADDWFC xD2,W
08B02:  MOVWF  xDE
08B04:  MOVLW  66
08B06:  MOVWF  xDF
08B08:  MOVLW  77
08B0A:  MOVWF  xE0
08B0C:  MOVFF  2DE,2E4
08B10:  MOVFF  2DD,2E3
08B14:  MOVFF  2D0,2E2
08B18:  MOVFF  2CF,2E1
08B1C:  MOVLW  01
08B1E:  MOVWF  xE6
08B20:  MOVLW  95
08B22:  MOVWF  xE5
08B24:  MOVLB  0
08B26:  CALL   7F96
....................    ADH=0; ADL=0; DL_AD=0; D=0; 
08B2A:  MOVLB  2
08B2C:  CLRF   xCD
08B2E:  CLRF   xCE
08B30:  CLRF   xD2
08B32:  CLRF   xD1
08B34:  CLRF   xD0
08B36:  CLRF   xCF
08B38:  CLRF   xCC
08B3A:  CLRF   xCB
....................    return; 
08B3C:  MOVLB  0
08B3E:  GOTO   9282 (RETURN)
.................... } 
....................  
.................... void DAY16to19_ADDRESS()                                                         //ADCS DL 
.................... { 
....................    AD = PASSED_DAYS % loop_day;                                                  //16,17,18,19 
*
096B0:  MOVFF  6A,2EC
096B4:  MOVFF  69,2EB
096B8:  MOVLB  2
096BA:  CLRF   xEE
096BC:  MOVLW  46
096BE:  MOVWF  xED
096C0:  MOVLB  0
096C2:  CALL   70D0
096C6:  MOVFF  00,2C9
096CA:  MOVLB  2
096CC:  MOVFF  03,2CA
....................    ADH = AD << 8; 
096D0:  CLRF   xCD
....................    ADL = AD; 
096D2:  MOVFF  2C9,2CE
....................    D = AD - 15; 
096D6:  MOVLW  0F
096D8:  SUBWF  xC9,W
096DA:  MOVWF  xCB
096DC:  MOVLW  00
096DE:  SUBWFB xCA,W
096E0:  MOVWF  xCC
....................    DL_AD = 360*D;                                                                //saltos de 360 paquetes 
096E2:  MOVLW  01
096E4:  MOVWF  xF7
096E6:  MOVLW  68
096E8:  MOVWF  xF6
096EA:  MOVFF  2CC,2F9
096EE:  MOVFF  2CB,2F8
096F2:  MOVLB  0
096F4:  CALL   8082
096F8:  MOVLB  2
096FA:  CLRF   xD2
096FC:  CLRF   xD1
096FE:  MOVFF  02,2D0
09702:  MOVFF  01,2CF
....................    UPDATE_ACK_for_COM(0x66,0x77,SECT*1639+DL_AD,405);                            //65536*8 
09706:  MOVFF  2CF,2DB
0970A:  MOVFF  2D0,2DC
0970E:  MOVLW  67
09710:  ADDWF  xD1,W
09712:  MOVWF  xDD
09714:  MOVLW  06
09716:  ADDWFC xD2,W
09718:  MOVWF  xDE
0971A:  MOVLW  66
0971C:  MOVWF  xDF
0971E:  MOVLW  77
09720:  MOVWF  xE0
09722:  MOVFF  2DE,2E4
09726:  MOVFF  2DD,2E3
0972A:  MOVFF  2D0,2E2
0972E:  MOVFF  2CF,2E1
09732:  MOVLW  01
09734:  MOVWF  xE6
09736:  MOVLW  95
09738:  MOVWF  xE5
0973A:  MOVLB  0
0973C:  CALL   7F96
....................    ADH=0; ADL=0; DL_AD=0; D=0; 
09740:  MOVLB  2
09742:  CLRF   xCD
09744:  CLRF   xCE
09746:  CLRF   xD2
09748:  CLRF   xD1
0974A:  CLRF   xD0
0974C:  CLRF   xCF
0974E:  CLRF   xCC
09750:  CLRF   xCB
....................    return; 
09752:  MOVLB  0
09754:  GOTO   9EAA (RETURN)
.................... } 
....................  
.................... void DAY47to52()                                                                 //ADCS Datadownload 
.................... { 
....................    AD = PASSED_DAYS % loop_day;                                                  //47,48,49,50,51,52 
*
08D1A:  MOVFF  6A,2EC
08D1E:  MOVFF  69,2EB
08D22:  MOVLB  2
08D24:  CLRF   xEE
08D26:  MOVLW  46
08D28:  MOVWF  xED
08D2A:  MOVLB  0
08D2C:  CALL   70D0
08D30:  MOVFF  00,2C9
08D34:  MOVLB  2
08D36:  MOVFF  03,2CA
....................    ADH = AD << 8; 
08D3A:  CLRF   xCD
....................    ADL = AD; 
08D3C:  MOVFF  2C9,2CE
....................    D = AD - 42;                                                                  //5,6,7,8,9,10 
08D40:  MOVLW  2A
08D42:  SUBWF  xC9,W
08D44:  MOVWF  xCB
08D46:  MOVLW  00
08D48:  SUBWFB xCA,W
08D4A:  MOVWF  xCC
....................     
....................    DL_AD = 360*D;                                                                //realiza saltos de 360 
08D4C:  MOVLW  01
08D4E:  MOVWF  xF7
08D50:  MOVLW  68
08D52:  MOVWF  xF6
08D54:  MOVFF  2CC,2F9
08D58:  MOVFF  2CB,2F8
08D5C:  MOVLB  0
08D5E:  CALL   8082
08D62:  MOVLB  2
08D64:  CLRF   xD2
08D66:  CLRF   xD1
08D68:  MOVFF  02,2D0
08D6C:  MOVFF  01,2CF
....................    DL_AD = DL_AD * 81;                                                           //download address 
08D70:  MOVFF  2D2,2E5
08D74:  MOVFF  2D1,2E4
08D78:  MOVFF  2D0,2E3
08D7C:  MOVFF  2CF,2E2
08D80:  CLRF   xE9
08D82:  CLRF   xE8
08D84:  CLRF   xE7
08D86:  MOVLW  51
08D88:  MOVWF  xE6
08D8A:  MOVLB  0
08D8C:  CALL   7116
08D90:  MOVFF  03,2D2
08D94:  MOVFF  02,2D1
08D98:  MOVFF  01,2D0
08D9C:  MOVFF  00,2CF
....................    /////////////////////////////PACKET//////////////////////////////// 
....................    //1800-1804, 2160-2164, 2520-2524, 2880-2884, 3240-3244, 3600-3604 
....................    /////////////////////////////////////////////////////////////////// 
....................     
....................    SAVE_SAT_LOG(0xAD,ADH,ADL);                                                   //11,11: automatical mission 
08DA0:  MOVLW  AD
08DA2:  MOVLB  3
08DA4:  MOVWF  x02
08DA6:  MOVFF  2CD,303
08DAA:  MOVFF  2CE,304
08DAE:  MOVLB  0
08DB0:  CALL   3E06
....................    UPDATE_ACK_for_COM(0x66,0x77,SECT*1639+DL_AD,405);                            //65536*8 
08DB4:  MOVLB  2
08DB6:  MOVFF  2CF,2DB
08DBA:  MOVFF  2D0,2DC
08DBE:  MOVLW  67
08DC0:  ADDWF  xD1,W
08DC2:  MOVWF  xDD
08DC4:  MOVLW  06
08DC6:  ADDWFC xD2,W
08DC8:  MOVWF  xDE
08DCA:  MOVLW  66
08DCC:  MOVWF  xDF
08DCE:  MOVLW  77
08DD0:  MOVWF  xE0
08DD2:  MOVFF  2DE,2E4
08DD6:  MOVFF  2DD,2E3
08DDA:  MOVFF  2D0,2E2
08DDE:  MOVFF  2CF,2E1
08DE2:  MOVLW  01
08DE4:  MOVWF  xE6
08DE6:  MOVLW  95
08DE8:  MOVWF  xE5
08DEA:  MOVLB  0
08DEC:  CALL   7F96
....................    ADH=0; ADL=0; DL_AD=0; D=0; 
08DF0:  MOVLB  2
08DF2:  CLRF   xCD
08DF4:  CLRF   xCE
08DF6:  CLRF   xD2
08DF8:  CLRF   xD1
08DFA:  CLRF   xD0
08DFC:  CLRF   xCF
08DFE:  CLRF   xCC
08E00:  CLRF   xCB
....................    return; 
08E02:  MOVLB  0
08E04:  GOTO   93A8 (RETURN)
.................... } 
....................  
.................... void DAY47to52_ADDRESS()                                                         //ADCS DL 
.................... { 
....................    AD = PASSED_DAYS % loop_day;                                                  //47,48,49,50,51,52 
*
09908:  MOVFF  6A,2EC
0990C:  MOVFF  69,2EB
09910:  MOVLB  2
09912:  CLRF   xEE
09914:  MOVLW  46
09916:  MOVWF  xED
09918:  MOVLB  0
0991A:  CALL   70D0
0991E:  MOVFF  00,2C9
09922:  MOVLB  2
09924:  MOVFF  03,2CA
....................    ADH = AD << 8; 
09928:  CLRF   xCD
....................    ADL = AD; 
0992A:  MOVFF  2C9,2CE
....................    D = AD - 42;                                                                  //5,6,7,8,9,10 
0992E:  MOVLW  2A
09930:  SUBWF  xC9,W
09932:  MOVWF  xCB
09934:  MOVLW  00
09936:  SUBWFB xCA,W
09938:  MOVWF  xCC
....................     
....................    DL_AD = 360*D;                                                                //saltos de 360 paquetes 
0993A:  MOVLW  01
0993C:  MOVWF  xF7
0993E:  MOVLW  68
09940:  MOVWF  xF6
09942:  MOVFF  2CC,2F9
09946:  MOVFF  2CB,2F8
0994A:  MOVLB  0
0994C:  CALL   8082
09950:  MOVLB  2
09952:  CLRF   xD2
09954:  CLRF   xD1
09956:  MOVFF  02,2D0
0995A:  MOVFF  01,2CF
....................    DL_AD = DL_AD * 81; 
0995E:  MOVFF  2D2,2E5
09962:  MOVFF  2D1,2E4
09966:  MOVFF  2D0,2E3
0996A:  MOVFF  2CF,2E2
0996E:  CLRF   xE9
09970:  CLRF   xE8
09972:  CLRF   xE7
09974:  MOVLW  51
09976:  MOVWF  xE6
09978:  MOVLB  0
0997A:  CALL   7116
0997E:  MOVFF  03,2D2
09982:  MOVFF  02,2D1
09986:  MOVFF  01,2D0
0998A:  MOVFF  00,2CF
....................    /////////////////////////////PACKET//////////////////////////////// 
....................    //1800-1804, 2160-2164, 2520-2524, 2880-2884, 3240-3244, 3600-3604 
....................    /////////////////////////////////////////////////////////////////// 
....................     
....................    UPDATE_ACK_for_COM(0x66,0x77,SECT*1639+DL_AD,405);                            //65536*8 
0998E:  MOVLB  2
09990:  MOVFF  2CF,2DB
09994:  MOVFF  2D0,2DC
09998:  MOVLW  67
0999A:  ADDWF  xD1,W
0999C:  MOVWF  xDD
0999E:  MOVLW  06
099A0:  ADDWFC xD2,W
099A2:  MOVWF  xDE
099A4:  MOVLW  66
099A6:  MOVWF  xDF
099A8:  MOVLW  77
099AA:  MOVWF  xE0
099AC:  MOVFF  2DE,2E4
099B0:  MOVFF  2DD,2E3
099B4:  MOVFF  2D0,2E2
099B8:  MOVFF  2CF,2E1
099BC:  MOVLW  01
099BE:  MOVWF  xE6
099C0:  MOVLW  95
099C2:  MOVWF  xE5
099C4:  MOVLB  0
099C6:  CALL   7F96
....................    ADH=0; ADL=0; DL_AD=0; D=0; 
099CA:  MOVLB  2
099CC:  CLRF   xCD
099CE:  CLRF   xCE
099D0:  CLRF   xD2
099D2:  CLRF   xD1
099D4:  CLRF   xD0
099D6:  CLRF   xCF
099D8:  CLRF   xCC
099DA:  CLRF   xCB
....................    return; 
099DC:  MOVLB  0
099DE:  GOTO   9FD0 (RETURN)
.................... } 
....................  
.................... //@@@@@@@@@@@ SAT_LOG @@@@@@@@@@@@@@@@@@@@@@@@@@@@@@@@@@@@@@@@@@@@@@@@@@@@@@@@@@@@@@@@@@@@@@@@@@ 
.................... void DAY53to59()                                                                 //LOG DL 
.................... { 
....................    AD = PASSED_DAYS % loop_day;                                                  //53,54,55,56,57,58,59 
*
08E08:  MOVFF  6A,2EC
08E0C:  MOVFF  69,2EB
08E10:  MOVLB  2
08E12:  CLRF   xEE
08E14:  MOVLW  46
08E16:  MOVWF  xED
08E18:  MOVLB  0
08E1A:  CALL   70D0
08E1E:  MOVFF  00,2C9
08E22:  MOVLB  2
08E24:  MOVFF  03,2CA
....................    ADH = AD << 8; 
08E28:  CLRF   xCD
....................    ADL = AD; 
08E2A:  MOVFF  2C9,2CE
....................    D = AD - 53;                                                                  //0,1,2,3,4,5,6 
08E2E:  MOVLW  35
08E30:  SUBWF  xC9,W
08E32:  MOVWF  xCB
08E34:  MOVLW  00
08E36:  SUBWFB xCA,W
08E38:  MOVWF  xCC
....................     
....................    DL_AD = D; 
08E3A:  CLRF   xD2
08E3C:  CLRF   xD1
08E3E:  MOVFF  2CC,2D0
08E42:  MOVFF  2CB,2CF
....................    DL_AD = DL_AD * 81; 
08E46:  MOVFF  2D2,2E5
08E4A:  MOVFF  2D1,2E4
08E4E:  MOVFF  2D0,2E3
08E52:  MOVFF  2CF,2E2
08E56:  CLRF   xE9
08E58:  CLRF   xE8
08E5A:  CLRF   xE7
08E5C:  MOVLW  51
08E5E:  MOVWF  xE6
08E60:  MOVLB  0
08E62:  CALL   7116
08E66:  MOVFF  03,2D2
08E6A:  MOVFF  02,2D1
08E6E:  MOVFF  01,2D0
08E72:  MOVFF  00,2CF
....................    /////////////////////////////PACKET////////////////////////////// 
....................    //0-4, 5-10, 10-14, 15-19, 20-24, 25-29, 30-34 
....................    ///////////////////////////////////////////////////////////////// 
....................     
....................    SAVE_SAT_LOG(0xAD,ADH,ADL);                                                   //11,11: automatical mission 
08E76:  MOVLW  AD
08E78:  MOVLB  3
08E7A:  MOVWF  x02
08E7C:  MOVFF  2CD,303
08E80:  MOVFF  2CE,304
08E84:  MOVLB  0
08E86:  CALL   3E06
....................    UPDATE_ACK_for_COM(0x66,0x77,SECT*6+DL_AD,405);                               //65536*8 
08E8A:  MOVLB  2
08E8C:  MOVFF  2CF,2DB
08E90:  MOVFF  2D0,2DC
08E94:  MOVLW  06
08E96:  ADDWF  xD1,W
08E98:  MOVWF  xDD
08E9A:  MOVLW  00
08E9C:  ADDWFC xD2,W
08E9E:  MOVWF  xDE
08EA0:  MOVLW  66
08EA2:  MOVWF  xDF
08EA4:  MOVLW  77
08EA6:  MOVWF  xE0
08EA8:  MOVFF  2DE,2E4
08EAC:  MOVFF  2DD,2E3
08EB0:  MOVFF  2D0,2E2
08EB4:  MOVFF  2CF,2E1
08EB8:  MOVLW  01
08EBA:  MOVWF  xE6
08EBC:  MOVLW  95
08EBE:  MOVWF  xE5
08EC0:  MOVLB  0
08EC2:  CALL   7F96
....................    ADH=0; ADL=0; DL_AD=0; D=0; 
08EC6:  MOVLB  2
08EC8:  CLRF   xCD
08ECA:  CLRF   xCE
08ECC:  CLRF   xD2
08ECE:  CLRF   xD1
08ED0:  CLRF   xD0
08ED2:  CLRF   xCF
08ED4:  CLRF   xCC
08ED6:  CLRF   xCB
....................    return; 
08ED8:  MOVLB  0
08EDA:  GOTO   940A (RETURN)
.................... } 
....................  
.................... void DAY53to59_ADDRESS()                                                         //LOG DL 
.................... { 
....................    AD = PASSED_DAYS % loop_day;                                                  //53,54,55,56,57,58,59 
*
099E2:  MOVFF  6A,2EC
099E6:  MOVFF  69,2EB
099EA:  MOVLB  2
099EC:  CLRF   xEE
099EE:  MOVLW  46
099F0:  MOVWF  xED
099F2:  MOVLB  0
099F4:  CALL   70D0
099F8:  MOVFF  00,2C9
099FC:  MOVLB  2
099FE:  MOVFF  03,2CA
....................    ADH = AD << 8; 
09A02:  CLRF   xCD
....................    ADL = AD; 
09A04:  MOVFF  2C9,2CE
....................    D = AD - 53;                                                                  //0,1,2,3,4,5,6 
09A08:  MOVLW  35
09A0A:  SUBWF  xC9,W
09A0C:  MOVWF  xCB
09A0E:  MOVLW  00
09A10:  SUBWFB xCA,W
09A12:  MOVWF  xCC
....................     
....................    DL_AD = D; 
09A14:  CLRF   xD2
09A16:  CLRF   xD1
09A18:  MOVFF  2CC,2D0
09A1C:  MOVFF  2CB,2CF
....................    DL_AD = DL_AD * 81; 
09A20:  MOVFF  2D2,2E5
09A24:  MOVFF  2D1,2E4
09A28:  MOVFF  2D0,2E3
09A2C:  MOVFF  2CF,2E2
09A30:  CLRF   xE9
09A32:  CLRF   xE8
09A34:  CLRF   xE7
09A36:  MOVLW  51
09A38:  MOVWF  xE6
09A3A:  MOVLB  0
09A3C:  CALL   7116
09A40:  MOVFF  03,2D2
09A44:  MOVFF  02,2D1
09A48:  MOVFF  01,2D0
09A4C:  MOVFF  00,2CF
....................    /////////////////////////////PACKET////////////////////////////// 
....................    //0-4, 5-10, 10-14, 15-19, 20-24, 25-29, 30-34 
....................    ///////////////////////////////////////////////////////////////// 
....................     
....................    UPDATE_ACK_for_COM(0x66,0x77,SECT*6+DL_AD,405);                               //65536*8 
09A50:  MOVLB  2
09A52:  MOVFF  2CF,2DB
09A56:  MOVFF  2D0,2DC
09A5A:  MOVLW  06
09A5C:  ADDWF  xD1,W
09A5E:  MOVWF  xDD
09A60:  MOVLW  00
09A62:  ADDWFC xD2,W
09A64:  MOVWF  xDE
09A66:  MOVLW  66
09A68:  MOVWF  xDF
09A6A:  MOVLW  77
09A6C:  MOVWF  xE0
09A6E:  MOVFF  2DE,2E4
09A72:  MOVFF  2DD,2E3
09A76:  MOVFF  2D0,2E2
09A7A:  MOVFF  2CF,2E1
09A7E:  MOVLW  01
09A80:  MOVWF  xE6
09A82:  MOVLW  95
09A84:  MOVWF  xE5
09A86:  MOVLB  0
09A88:  CALL   7F96
....................    ADH=0; ADL=0; DL_AD=0; D=0; 
09A8C:  MOVLB  2
09A8E:  CLRF   xCD
09A90:  CLRF   xCE
09A92:  CLRF   xD2
09A94:  CLRF   xD1
09A96:  CLRF   xD0
09A98:  CLRF   xCF
09A9A:  CLRF   xCC
09A9C:  CLRF   xCB
....................    return; 
09A9E:  MOVLB  0
09AA0:  GOTO   A032 (RETURN)
.................... } 
....................  
.................... //@@@@@@@@@@@ NOMAL SAMPLING HK @@@@@@@@@@@@@@@@@@@@@@@@@@@@@@@@@@@@@@@@@@@@@@@@@@@@@@@@ 
.................... void DAY60to69()                                                                 //HK Download 
.................... { 
....................    AD = PASSED_DAYS % loop_day;                                                  //60,61,62,63,64,65,66,67,68,69 
*
08EDE:  MOVFF  6A,2EC
08EE2:  MOVFF  69,2EB
08EE6:  MOVLB  2
08EE8:  CLRF   xEE
08EEA:  MOVLW  46
08EEC:  MOVWF  xED
08EEE:  MOVLB  0
08EF0:  CALL   70D0
08EF4:  MOVFF  00,2C9
08EF8:  MOVLB  2
08EFA:  MOVFF  03,2CA
....................    ADH = AD << 8; 
08EFE:  CLRF   xCD
....................    ADL = AD; 
08F00:  MOVFF  2C9,2CE
....................    //D = AD - 53;                                                                //0,1,2,3,4,5,6,7,8,9 (deberia ser AD-53?) 
....................    D = AD - 60; 
08F04:  MOVLW  3C
08F06:  SUBWF  xC9,W
08F08:  MOVWF  xCB
08F0A:  MOVLW  00
08F0C:  SUBWFB xCA,W
08F0E:  MOVWF  xCC
....................    DL_AD = 9798*D;                                                               //realiza un salto de 9798 paquetes 
08F10:  MOVLW  26
08F12:  MOVWF  xF7
08F14:  MOVLW  46
08F16:  MOVWF  xF6
08F18:  MOVFF  2CC,2F9
08F1C:  MOVFF  2CB,2F8
08F20:  MOVLB  0
08F22:  CALL   8082
08F26:  MOVLB  2
08F28:  CLRF   xD2
08F2A:  CLRF   xD1
08F2C:  MOVFF  02,2D0
08F30:  MOVFF  01,2CF
....................    DL_AD = DL_AD * 81; 
08F34:  MOVFF  2D2,2E5
08F38:  MOVFF  2D1,2E4
08F3C:  MOVFF  2D0,2E3
08F40:  MOVFF  2CF,2E2
08F44:  CLRF   xE9
08F46:  CLRF   xE8
08F48:  CLRF   xE7
08F4A:  MOVLW  51
08F4C:  MOVWF  xE6
08F4E:  MOVLB  0
08F50:  CALL   7116
08F54:  MOVFF  03,2D2
08F58:  MOVFF  02,2D1
08F5C:  MOVFF  01,2D0
08F60:  MOVFF  00,2CF
....................    /////////////////////////////PACKET////////////////////////////// 
....................    //    0-4,      9798-9802,  19596-19600, 29394-29398, 39192-39196 
....................    //48990-48994, 58788-58792, 68586-68590, 78384-78388, 88182-88186 
....................    ///////////////////////////////////////////////////////////////// 
....................     
....................    SAVE_SAT_LOG(0xAD,ADH,ADL);                                                   //11,11: automatical mission 
08F64:  MOVLW  AD
08F66:  MOVLB  3
08F68:  MOVWF  x02
08F6A:  MOVFF  2CD,303
08F6E:  MOVFF  2CE,304
08F72:  MOVLB  0
08F74:  CALL   3E06
....................    UPDATE_ACK_for_COM(0x66,0x77,SECT*98+DL_AD,405);                              //65536*8 
08F78:  MOVLB  2
08F7A:  MOVFF  2CF,2DB
08F7E:  MOVFF  2D0,2DC
08F82:  MOVLW  62
08F84:  ADDWF  xD1,W
08F86:  MOVWF  xDD
08F88:  MOVLW  00
08F8A:  ADDWFC xD2,W
08F8C:  MOVWF  xDE
08F8E:  MOVLW  66
08F90:  MOVWF  xDF
08F92:  MOVLW  77
08F94:  MOVWF  xE0
08F96:  MOVFF  2DE,2E4
08F9A:  MOVFF  2DD,2E3
08F9E:  MOVFF  2D0,2E2
08FA2:  MOVFF  2CF,2E1
08FA6:  MOVLW  01
08FA8:  MOVWF  xE6
08FAA:  MOVLW  95
08FAC:  MOVWF  xE5
08FAE:  MOVLB  0
08FB0:  CALL   7F96
....................    ADH=0; ADL=0; DL_AD=0; D=0; 
08FB4:  MOVLB  2
08FB6:  CLRF   xCD
08FB8:  CLRF   xCE
08FBA:  CLRF   xD2
08FBC:  CLRF   xD1
08FBE:  CLRF   xD0
08FC0:  CLRF   xCF
08FC2:  CLRF   xCC
08FC4:  CLRF   xCB
....................    return; 
08FC6:  MOVLB  0
08FC8:  GOTO   946C (RETURN)
.................... } 
....................  
.................... void DAY60to69_ADDRESS()                                                         //HK Download 
.................... { 
....................    AD = PASSED_DAYS % loop_day;                                                  //60,61,62,63,64,65,66,67,68,69 
*
09AA4:  MOVFF  6A,2EC
09AA8:  MOVFF  69,2EB
09AAC:  MOVLB  2
09AAE:  CLRF   xEE
09AB0:  MOVLW  46
09AB2:  MOVWF  xED
09AB4:  MOVLB  0
09AB6:  CALL   70D0
09ABA:  MOVFF  00,2C9
09ABE:  MOVLB  2
09AC0:  MOVFF  03,2CA
....................    ADH = AD << 8; 
09AC4:  CLRF   xCD
....................    ADL = AD; 
09AC6:  MOVFF  2C9,2CE
....................    //D = AD - 53;                                                                  //0,1,2,3,4,5,6,7,8,9 (deberia ser AD-53?) 
....................    D = AD - 60; 
09ACA:  MOVLW  3C
09ACC:  SUBWF  xC9,W
09ACE:  MOVWF  xCB
09AD0:  MOVLW  00
09AD2:  SUBWFB xCA,W
09AD4:  MOVWF  xCC
....................    DL_AD = 9798*D;                                                               //realiza saltos de 9798 paquetes 
09AD6:  MOVLW  26
09AD8:  MOVWF  xF7
09ADA:  MOVLW  46
09ADC:  MOVWF  xF6
09ADE:  MOVFF  2CC,2F9
09AE2:  MOVFF  2CB,2F8
09AE6:  MOVLB  0
09AE8:  CALL   8082
09AEC:  MOVLB  2
09AEE:  CLRF   xD2
09AF0:  CLRF   xD1
09AF2:  MOVFF  02,2D0
09AF6:  MOVFF  01,2CF
....................    DL_AD = DL_AD * 81; 
09AFA:  MOVFF  2D2,2E5
09AFE:  MOVFF  2D1,2E4
09B02:  MOVFF  2D0,2E3
09B06:  MOVFF  2CF,2E2
09B0A:  CLRF   xE9
09B0C:  CLRF   xE8
09B0E:  CLRF   xE7
09B10:  MOVLW  51
09B12:  MOVWF  xE6
09B14:  MOVLB  0
09B16:  CALL   7116
09B1A:  MOVFF  03,2D2
09B1E:  MOVFF  02,2D1
09B22:  MOVFF  01,2D0
09B26:  MOVFF  00,2CF
....................    /////////////////////////////PACKET////////////////////////////// 
....................    //    0-4,      9798-9802,  19596-19600, 29394-29398, 39192-39196 
....................    //48990-48994, 58788-58792, 68586-68590, 78384-78388, 88182-88186 
....................    ///////////////////////////////////////////////////////////////// 
....................     
....................    UPDATE_ACK_for_COM(0x66,0x77,SECT*98+DL_AD,405);                              //65536*8 
09B2A:  MOVLB  2
09B2C:  MOVFF  2CF,2DB
09B30:  MOVFF  2D0,2DC
09B34:  MOVLW  62
09B36:  ADDWF  xD1,W
09B38:  MOVWF  xDD
09B3A:  MOVLW  00
09B3C:  ADDWFC xD2,W
09B3E:  MOVWF  xDE
09B40:  MOVLW  66
09B42:  MOVWF  xDF
09B44:  MOVLW  77
09B46:  MOVWF  xE0
09B48:  MOVFF  2DE,2E4
09B4C:  MOVFF  2DD,2E3
09B50:  MOVFF  2D0,2E2
09B54:  MOVFF  2CF,2E1
09B58:  MOVLW  01
09B5A:  MOVWF  xE6
09B5C:  MOVLW  95
09B5E:  MOVWF  xE5
09B60:  MOVLB  0
09B62:  CALL   7F96
....................    ADH=0; ADL=0; DL_AD=0; D=0; 
09B66:  MOVLB  2
09B68:  CLRF   xCD
09B6A:  CLRF   xCE
09B6C:  CLRF   xD2
09B6E:  CLRF   xD1
09B70:  CLRF   xD0
09B72:  CLRF   xCF
09B74:  CLRF   xCC
09B76:  CLRF   xCB
....................    return; 
09B78:  MOVLB  0
09B7A:  GOTO   A094 (RETURN)
.................... } 
....................  
.................... //@@@@@@@@@@@ ADDRESS CHANGE @@@@@@@@@@@@@@@@@@@@@@@@@@@@@@@@@@@@@@@@@@@@@@@@@@@@@@@@ 
.................... void AUTO_MSN_AD_CHANGE()                                                        //update address for a new cycle 
*
07172:  MOVFF  6A,2EC
07176:  MOVFF  69,2EB
0717A:  MOVLB  2
0717C:  CLRF   xEE
0717E:  MOVLW  46
07180:  MOVWF  xED
07182:  MOVLB  0
07184:  RCALL  70D0
07186:  MOVFF  02,2DC
0718A:  MOVFF  01,2DB
0718E:  MOVFF  2DB,2DD
.................... { 
....................    unsigned int16 D = PASSED_DAYS/loop_day; 
....................    int8 UPDATE_TIME = (int8)D; 
....................    SAVE_SAT_LOG(0xF9,UPDATE_TIME,UPDATE_TIME); 
07192:  MOVLW  F9
07194:  MOVLB  3
07196:  MOVWF  x02
07198:  MOVFF  2DD,303
0719C:  MOVFF  2DD,304
071A0:  MOVLB  0
071A2:  CALL   3E06
....................    int32 DATA = 8192*D;                                                          //11byte*500 < 5500 (enough), SAT_LOG data sent in one cycle 
071A6:  MOVLB  2
071A8:  SWAPF  xDB,W
071AA:  MOVWF  xDF
071AC:  CLRF   xDE
071AE:  RLCF   xDF,F
071B0:  MOVLW  E0
071B2:  ANDWF  xDF,F
....................    SAT_LOG = SECT*6 + DATA;                                                      //2sector 
071B4:  MOVFF  2DE,40
071B8:  MOVFF  2DF,41
071BC:  MOVLW  06
071BE:  ADDWF  xE0,W
071C0:  MOVWF  42
071C2:  MOVLW  00
071C4:  ADDWFC xE1,W
071C6:  MOVWF  43
....................     
....................    DATA = SECT*D;                                                                //1sector, CAM data sent in one cycle 
071C8:  MOVFF  2DC,2E1
071CC:  MOVFF  2DB,2E0
071D0:  CLRF   xDE
071D2:  CLRF   xDF
....................    CAM_ADDRESS = SECT*8 + DATA; 
071D4:  MOVFF  2DE,44
071D8:  MOVFF  2DF,45
071DC:  MOVLW  08
071DE:  ADDWF  xE0,W
071E0:  MOVWF  46
071E2:  MOVLW  00
071E4:  ADDWFC xE1,W
071E6:  MOVWF  47
....................     
....................    DATA = SECT*130;                                                              //124*3600*24*70/90 < 128sector, HK data sent in one cycle 
071E8:  CLRF   xE1
071EA:  MOVLW  82
071EC:  MOVWF  xE0
071EE:  CLRF   xDF
071F0:  CLRF   xDE
....................    DATA = DATA*D; 
071F2:  MOVFF  2E1,2E5
071F6:  MOVFF  2E0,2E4
071FA:  MOVFF  2DF,2E3
071FE:  MOVFF  2DE,2E2
07202:  CLRF   xE9
07204:  CLRF   xE8
07206:  MOVFF  2DC,2E7
0720A:  MOVFF  2DB,2E6
0720E:  MOVLB  0
07210:  RCALL  7116
07212:  MOVFF  03,2E1
07216:  MOVFF  02,2E0
0721A:  MOVFF  01,2DF
0721E:  MOVFF  00,2DE
....................    FAB_HK_ADDRESS = SECT*98 + DATA;                                              //1000sector 
07222:  MOVLB  2
07224:  MOVFF  2DE,48
07228:  MOVFF  2DF,49
0722C:  MOVLW  62
0722E:  ADDWF  xE0,W
07230:  MOVWF  4A
07232:  MOVLW  00
07234:  ADDWFC xE1,W
07236:  MOVWF  4B
....................     
....................    DATA = SECT*5;                                                                //81*5400/1.5 < 5sector, ADCS data sent in one cycle 
07238:  CLRF   xE1
0723A:  MOVLW  05
0723C:  MOVWF  xE0
0723E:  CLRF   xDF
07240:  CLRF   xDE
....................    DATA = DATA*D; 
07242:  MOVFF  2E1,2E5
07246:  MOVFF  2E0,2E4
0724A:  MOVFF  2DF,2E3
0724E:  MOVFF  2DE,2E2
07252:  CLRF   xE9
07254:  CLRF   xE8
07256:  MOVFF  2DC,2E7
0725A:  MOVFF  2DB,2E6
0725E:  MOVLB  0
07260:  RCALL  7116
07262:  MOVFF  03,2E1
07266:  MOVFF  02,2E0
0726A:  MOVFF  01,2DF
0726E:  MOVFF  00,2DE
....................    ADCS_SENSOR_ADDRESS = SECT*1138 + DATA;                                       //500sector 
07272:  MOVLB  2
07274:  MOVFF  2DE,50
07278:  MOVFF  2DF,51
0727C:  MOVLW  72
0727E:  ADDWF  xE0,W
07280:  MOVWF  52
07282:  MOVLW  04
07284:  ADDWFC xE1,W
07286:  MOVWF  53
....................     
....................    DATA = 405*5;                                                                 //5packet*5, DC data sent in one cycle 
07288:  CLRF   xE1
0728A:  CLRF   xE0
0728C:  MOVLW  07
0728E:  MOVWF  xDF
07290:  MOVLW  E9
07292:  MOVWF  xDE
....................    DATA = DATA*D; 
07294:  MOVFF  2E1,2E5
07298:  MOVFF  2E0,2E4
0729C:  MOVFF  2DF,2E3
072A0:  MOVFF  2DE,2E2
072A4:  CLRF   xE9
072A6:  CLRF   xE8
072A8:  MOVFF  2DC,2E7
072AC:  MOVFF  2DB,2E6
072B0:  MOVLB  0
072B2:  RCALL  7116
072B4:  MOVFF  03,2E1
072B8:  MOVFF  02,2E0
072BC:  MOVFF  01,2DF
072C0:  MOVFF  00,2DE
....................    DC_STATUS_ADDRESS = SECT*1638 + DATA;                                         //1sector 
072C4:  MOVLB  2
072C6:  MOVFF  2DE,58
072CA:  MOVFF  2DF,59
072CE:  MOVLW  66
072D0:  ADDWF  xE0,W
072D2:  MOVWF  5A
072D4:  MOVLW  06
072D6:  ADDWFC xE1,W
072D8:  MOVWF  5B
....................     
....................    DATA = SECT*3;                                                                //124*3600*2/5 < 3sector, HSSC data sent in one cycle 
072DA:  CLRF   xE1
072DC:  MOVLW  03
072DE:  MOVWF  xE0
072E0:  CLRF   xDF
072E2:  CLRF   xDE
....................    DATA = DATA*D; 
072E4:  MOVFF  2E1,2E5
072E8:  MOVFF  2E0,2E4
072EC:  MOVFF  2DF,2E3
072F0:  MOVFF  2DE,2E2
072F4:  CLRF   xE9
072F6:  CLRF   xE8
072F8:  MOVFF  2DC,2E7
072FC:  MOVFF  2DB,2E6
07300:  MOVLB  0
07302:  RCALL  7116
07304:  MOVFF  03,2E1
07308:  MOVFF  02,2E0
0730C:  MOVFF  01,2DF
07310:  MOVFF  00,2DE
....................    HIGH_SAMP_HK_ADDRESS = SECT*1639 + DATA;                                      //409sector 
07314:  MOVLB  2
07316:  MOVFF  2DE,5C
0731A:  MOVFF  2DF,5D
0731E:  MOVLW  67
07320:  ADDWF  xE0,W
07322:  MOVWF  5E
07324:  MOVLW  06
07326:  ADDWFC xE1,W
07328:  MOVWF  5F
....................     
....................    STORE_ADRESS_DATA_TO_FLASH();                                                 //update 
0732A:  MOVLB  0
0732C:  CALL   3AF8
....................     
....................    return; 
07330:  GOTO   A162 (RETURN)
.................... } 
....................  
....................  
.................... //@@@@@@@@@@@ AUTO MISSION EXECUTING FUNCTION @@@@@@@@@@@@@@@@@@@@@@@@@@@@@@@@@@@@@@@@ 
....................  
.................... void AUTOMATICAL_MSN_EXE() 
.................... { 
....................    //PASSED_DAYS = make16(reset_bffr[4],reset_bffr[5]); 
....................    if(((PASSED_DAYS%loop_day) >= 0 && UPLINK_SUCCESS == 0) && FIRST_HSSC_DONE == 0)                      //automated high samp mission condition 
*
08FCC:  MOVFF  6A,2EC
08FD0:  MOVFF  69,2EB
08FD4:  MOVLB  2
08FD6:  CLRF   xEE
08FD8:  MOVLW  46
08FDA:  MOVWF  xED
08FDC:  MOVLB  0
08FDE:  CALL   70D0
08FE2:  MOVFF  00,2DB
08FE6:  MOVFF  03,2DC
08FEA:  MOVLB  0
08FEC:  MOVF   x7C,F
08FEE:  BNZ   8FFA
08FF0:  MOVF   x77,F
08FF2:  BNZ   8FFA
....................    { 
....................       DAY0(); 
08FF4:  GOTO   7FF2
....................    }else if(PASSED_DAYS < make16(reset_bffr[4],reset_bffr[5]))                                           //if the date changed (next day) 
08FF8:  BRA    946C
08FFA:  MOVFF  F0,03
08FFE:  MOVFF  F1,01
09002:  MOVF   x6A,W
09004:  SUBWF  xF0,W
09006:  BTFSS  FD8.0
09008:  BRA    946C
0900A:  BNZ   9014
0900C:  MOVF   01,W
0900E:  SUBWF  x69,W
09010:  BTFSC  FD8.0
09012:  BRA    946C
....................    { 
....................       PASSED_DAYS = make16(reset_bffr[4],reset_bffr[5]);                                                 //update passed days 
09014:  MOVFF  F0,6A
09018:  MOVFF  F1,69
....................       STORE_FLAG_INFO();                                                                                 //save passed days 
0901C:  CALL   5B0E
....................       WRITE_FLAG_to_EEPROM(); 
09020:  CALL   5D22
....................        
....................       if(((PASSED_DAYS%loop_day) >= 1 && (PASSED_DAYS%loop_day) <= 4) && UPLINK_SUCCESS == 0){           //1-4th day high samp mission download  
09024:  MOVFF  6A,2EC
09028:  MOVFF  69,2EB
0902C:  MOVLB  2
0902E:  CLRF   xEE
09030:  MOVLW  46
09032:  MOVWF  xED
09034:  MOVLB  0
09036:  CALL   70D0
0903A:  MOVFF  00,2DB
0903E:  MOVLB  2
09040:  MOVFF  03,2DC
09044:  MOVF   xDC,F
09046:  BNZ   904E
09048:  MOVF   xDB,W
0904A:  SUBLW  00
0904C:  BC    908A
0904E:  MOVFF  6A,2EC
09052:  MOVFF  69,2EB
09056:  CLRF   xEE
09058:  MOVLW  46
0905A:  MOVWF  xED
0905C:  MOVLB  0
0905E:  CALL   70D0
09062:  MOVFF  00,2DB
09066:  MOVLB  2
09068:  MOVFF  03,2DC
0906C:  MOVF   xDC,F
0906E:  BNZ   908A
09070:  MOVF   xDB,W
09072:  SUBLW  04
09074:  BNC   908A
09076:  MOVLB  0
09078:  MOVF   x7C,F
0907A:  BTFSC  FD8.2
0907C:  BRA    9082
0907E:  MOVLB  2
09080:  BRA    908A
....................          DAY1to4(); 
09082:  GOTO   80A4
....................       }else if(((PASSED_DAYS%loop_day) >= 5 && UPLINK_SUCCESS == 0) && AUTO_CAM_DONE == 0){              //5th day (CAM MSN) 
09086:  BRA    946C
09088:  MOVLB  2
0908A:  MOVFF  6A,2EC
0908E:  MOVFF  69,2EB
09092:  CLRF   xEE
09094:  MOVLW  46
09096:  MOVWF  xED
09098:  MOVLB  0
0909A:  CALL   70D0
0909E:  MOVFF  00,2DB
090A2:  MOVLB  2
090A4:  MOVFF  03,2DC
090A8:  MOVF   xDC,F
090AA:  BNZ   90B2
090AC:  MOVF   xDB,W
090AE:  SUBLW  04
090B0:  BC    90D0
090B2:  MOVLB  0
090B4:  MOVF   x7C,F
090B6:  BTFSC  FD8.2
090B8:  BRA    90BE
090BA:  MOVLB  2
090BC:  BRA    90D0
090BE:  MOVF   x78,F
090C0:  BTFSC  FD8.2
090C2:  BRA    90C8
090C4:  MOVLB  2
090C6:  BRA    90D0
....................          DAY5(); 
090C8:  GOTO   8648
....................       }else if(((PASSED_DAYS%loop_day) >= 6 && (PASSED_DAYS%loop_day) <= 9) && UPLINK_SUCCESS == 0){     //download cam data 
090CC:  BRA    946C
090CE:  MOVLB  2
090D0:  MOVFF  6A,2EC
090D4:  MOVFF  69,2EB
090D8:  CLRF   xEE
090DA:  MOVLW  46
090DC:  MOVWF  xED
090DE:  MOVLB  0
090E0:  CALL   70D0
090E4:  MOVFF  00,2DB
090E8:  MOVLB  2
090EA:  MOVFF  03,2DC
090EE:  MOVF   xDC,F
090F0:  BNZ   90F8
090F2:  MOVF   xDB,W
090F4:  SUBLW  05
090F6:  BC    9134
090F8:  MOVFF  6A,2EC
090FC:  MOVFF  69,2EB
09100:  CLRF   xEE
09102:  MOVLW  46
09104:  MOVWF  xED
09106:  MOVLB  0
09108:  CALL   70D0
0910C:  MOVFF  00,2DB
09110:  MOVLB  2
09112:  MOVFF  03,2DC
09116:  MOVF   xDC,F
09118:  BNZ   9134
0911A:  MOVF   xDB,W
0911C:  SUBLW  09
0911E:  BNC   9134
09120:  MOVLB  0
09122:  MOVF   x7C,F
09124:  BTFSC  FD8.2
09126:  BRA    912C
09128:  MOVLB  2
0912A:  BRA    9134
....................          DAY6to9(); 
0912C:  GOTO   86D2
....................       }else if(((PASSED_DAYS%loop_day) >= 10 && UPLINK_SUCCESS == 0) && AUTO_MBP_DONE == 0){             //MBP and download 
09130:  BRA    946C
09132:  MOVLB  2
09134:  MOVFF  6A,2EC
09138:  MOVFF  69,2EB
0913C:  CLRF   xEE
0913E:  MOVLW  46
09140:  MOVWF  xED
09142:  MOVLB  0
09144:  CALL   70D0
09148:  MOVFF  00,2DB
0914C:  MOVLB  2
0914E:  MOVFF  03,2DC
09152:  MOVF   xDC,F
09154:  BNZ   915C
09156:  MOVF   xDB,W
09158:  SUBLW  09
0915A:  BC    917A
0915C:  MOVLB  0
0915E:  MOVF   x7C,F
09160:  BTFSC  FD8.2
09162:  BRA    9168
09164:  MOVLB  2
09166:  BRA    917A
09168:  MOVF   x79,F
0916A:  BTFSC  FD8.2
0916C:  BRA    9172
0916E:  MOVLB  2
09170:  BRA    917A
....................          DAY10(); 
09172:  GOTO   87BC
....................       }else if(((PASSED_DAYS%loop_day) >= 11 && (PASSED_DAYS%loop_day) <= 14) && UPLINK_SUCCESS == 0){   //MBP and download 
09176:  BRA    946C
09178:  MOVLB  2
0917A:  MOVFF  6A,2EC
0917E:  MOVFF  69,2EB
09182:  CLRF   xEE
09184:  MOVLW  46
09186:  MOVWF  xED
09188:  MOVLB  0
0918A:  CALL   70D0
0918E:  MOVFF  00,2DB
09192:  MOVLB  2
09194:  MOVFF  03,2DC
09198:  MOVF   xDC,F
0919A:  BNZ   91A2
0919C:  MOVF   xDB,W
0919E:  SUBLW  0A
091A0:  BC    91DE
091A2:  MOVFF  6A,2EC
091A6:  MOVFF  69,2EB
091AA:  CLRF   xEE
091AC:  MOVLW  46
091AE:  MOVWF  xED
091B0:  MOVLB  0
091B2:  CALL   70D0
091B6:  MOVFF  00,2DB
091BA:  MOVLB  2
091BC:  MOVFF  03,2DC
091C0:  MOVF   xDC,F
091C2:  BNZ   91DE
091C4:  MOVF   xDB,W
091C6:  SUBLW  0E
091C8:  BNC   91DE
091CA:  MOVLB  0
091CC:  MOVF   x7C,F
091CE:  BTFSC  FD8.2
091D0:  BRA    91D6
091D2:  MOVLB  2
091D4:  BRA    91DE
....................          DAY11to14(); 
091D6:  GOTO   88DA
....................       }else if(((PASSED_DAYS%loop_day) >= 15 && UPLINK_SUCCESS == 0) && AUTO_ADCS_DONE == 0){            //ADCS Mission and Download 
091DA:  BRA    946C
091DC:  MOVLB  2
091DE:  MOVFF  6A,2EC
091E2:  MOVFF  69,2EB
091E6:  CLRF   xEE
091E8:  MOVLW  46
091EA:  MOVWF  xED
091EC:  MOVLB  0
091EE:  CALL   70D0
091F2:  MOVFF  00,2DB
091F6:  MOVLB  2
091F8:  MOVFF  03,2DC
091FC:  MOVF   xDC,F
091FE:  BNZ   9206
09200:  MOVF   xDB,W
09202:  SUBLW  0E
09204:  BC    9224
09206:  MOVLB  0
09208:  MOVF   x7C,F
0920A:  BTFSC  FD8.2
0920C:  BRA    9212
0920E:  MOVLB  2
09210:  BRA    9224
09212:  MOVF   x7A,F
09214:  BTFSC  FD8.2
09216:  BRA    921C
09218:  MOVLB  2
0921A:  BRA    9224
....................          DAY15(); 
0921C:  GOTO   8A00
....................       }else if(((PASSED_DAYS%loop_day) >= 16 && (PASSED_DAYS%loop_day) <= 19) && UPLINK_SUCCESS == 0){   //ADCS Download 
09220:  BRA    946C
09222:  MOVLB  2
09224:  MOVFF  6A,2EC
09228:  MOVFF  69,2EB
0922C:  CLRF   xEE
0922E:  MOVLW  46
09230:  MOVWF  xED
09232:  MOVLB  0
09234:  CALL   70D0
09238:  MOVFF  00,2DB
0923C:  MOVLB  2
0923E:  MOVFF  03,2DC
09242:  MOVF   xDC,F
09244:  BNZ   924C
09246:  MOVF   xDB,W
09248:  SUBLW  0F
0924A:  BC    9286
0924C:  MOVFF  6A,2EC
09250:  MOVFF  69,2EB
09254:  CLRF   xEE
09256:  MOVLW  46
09258:  MOVWF  xED
0925A:  MOVLB  0
0925C:  CALL   70D0
09260:  MOVFF  00,2DB
09264:  MOVLB  2
09266:  MOVFF  03,2DC
0926A:  MOVF   xDC,F
0926C:  BNZ   9286
0926E:  MOVF   xDB,W
09270:  SUBLW  13
09272:  BNC   9286
09274:  MOVLB  0
09276:  MOVF   x7C,F
09278:  BTFSC  FD8.2
0927A:  BRA    9280
0927C:  MOVLB  2
0927E:  BRA    9286
....................          DAY16to19(); 
09280:  BRA    8A84
....................       }else if(((PASSED_DAYS%loop_day) >= 20 && (PASSED_DAYS%loop_day) <= 25) && UPLINK_SUCCESS == 0){   //High sampling sensor collecting mission download 
09282:  BRA    946C
09284:  MOVLB  2
09286:  MOVFF  6A,2EC
0928A:  MOVFF  69,2EB
0928E:  CLRF   xEE
09290:  MOVLW  46
09292:  MOVWF  xED
09294:  MOVLB  0
09296:  CALL   70D0
0929A:  MOVFF  00,2DB
0929E:  MOVLB  2
092A0:  MOVFF  03,2DC
092A4:  MOVF   xDC,F
092A6:  BNZ   92AE
092A8:  MOVF   xDB,W
092AA:  SUBLW  13
092AC:  BC    92E8
092AE:  MOVFF  6A,2EC
092B2:  MOVFF  69,2EB
092B6:  CLRF   xEE
092B8:  MOVLW  46
092BA:  MOVWF  xED
092BC:  MOVLB  0
092BE:  CALL   70D0
092C2:  MOVFF  00,2DB
092C6:  MOVLB  2
092C8:  MOVFF  03,2DC
092CC:  MOVF   xDC,F
092CE:  BNZ   92E8
092D0:  MOVF   xDB,W
092D2:  SUBLW  19
092D4:  BNC   92E8
092D6:  MOVLB  0
092D8:  MOVF   x7C,F
092DA:  BTFSC  FD8.2
092DC:  BRA    92E2
092DE:  MOVLB  2
092E0:  BRA    92E8
....................          DAY20to25(); 
092E2:  BRA    8B42
....................       }else if(((PASSED_DAYS%loop_day) >= 26 && (PASSED_DAYS%loop_day) <= 46) && UPLINK_SUCCESS == 0){   //CAM Mission Download 
092E4:  BRA    946C
092E6:  MOVLB  2
092E8:  MOVFF  6A,2EC
092EC:  MOVFF  69,2EB
092F0:  CLRF   xEE
092F2:  MOVLW  46
092F4:  MOVWF  xED
092F6:  MOVLB  0
092F8:  CALL   70D0
092FC:  MOVFF  00,2DB
09300:  MOVLB  2
09302:  MOVFF  03,2DC
09306:  MOVF   xDC,F
09308:  BNZ   9310
0930A:  MOVF   xDB,W
0930C:  SUBLW  19
0930E:  BC    934A
09310:  MOVFF  6A,2EC
09314:  MOVFF  69,2EB
09318:  CLRF   xEE
0931A:  MOVLW  46
0931C:  MOVWF  xED
0931E:  MOVLB  0
09320:  CALL   70D0
09324:  MOVFF  00,2DB
09328:  MOVLB  2
0932A:  MOVFF  03,2DC
0932E:  MOVF   xDC,F
09330:  BNZ   934A
09332:  MOVF   xDB,W
09334:  SUBLW  2E
09336:  BNC   934A
09338:  MOVLB  0
0933A:  MOVF   x7C,F
0933C:  BTFSC  FD8.2
0933E:  BRA    9344
09340:  MOVLB  2
09342:  BRA    934A
....................          DAY26to46(); 
09344:  BRA    8C2E
....................       }else if(((PASSED_DAYS%loop_day) >= 47 && (PASSED_DAYS%loop_day) <= 52) && UPLINK_SUCCESS == 0){   //ADCS Mission Data Download 
09346:  BRA    946C
09348:  MOVLB  2
0934A:  MOVFF  6A,2EC
0934E:  MOVFF  69,2EB
09352:  CLRF   xEE
09354:  MOVLW  46
09356:  MOVWF  xED
09358:  MOVLB  0
0935A:  CALL   70D0
0935E:  MOVFF  00,2DB
09362:  MOVLB  2
09364:  MOVFF  03,2DC
09368:  MOVF   xDC,F
0936A:  BNZ   9372
0936C:  MOVF   xDB,W
0936E:  SUBLW  2E
09370:  BC    93AC
09372:  MOVFF  6A,2EC
09376:  MOVFF  69,2EB
0937A:  CLRF   xEE
0937C:  MOVLW  46
0937E:  MOVWF  xED
09380:  MOVLB  0
09382:  CALL   70D0
09386:  MOVFF  00,2DB
0938A:  MOVLB  2
0938C:  MOVFF  03,2DC
09390:  MOVF   xDC,F
09392:  BNZ   93AC
09394:  MOVF   xDB,W
09396:  SUBLW  34
09398:  BNC   93AC
0939A:  MOVLB  0
0939C:  MOVF   x7C,F
0939E:  BTFSC  FD8.2
093A0:  BRA    93A6
093A2:  MOVLB  2
093A4:  BRA    93AC
....................          DAY47to52(); 
093A6:  BRA    8D1A
....................       }else if(((PASSED_DAYS%loop_day) >= 53 && (PASSED_DAYS%loop_day) <= 59) && UPLINK_SUCCESS == 0){   //Satellite LOG Download 
093A8:  BRA    946C
093AA:  MOVLB  2
093AC:  MOVFF  6A,2EC
093B0:  MOVFF  69,2EB
093B4:  CLRF   xEE
093B6:  MOVLW  46
093B8:  MOVWF  xED
093BA:  MOVLB  0
093BC:  CALL   70D0
093C0:  MOVFF  00,2DB
093C4:  MOVLB  2
093C6:  MOVFF  03,2DC
093CA:  MOVF   xDC,F
093CC:  BNZ   93D4
093CE:  MOVF   xDB,W
093D0:  SUBLW  34
093D2:  BC    940E
093D4:  MOVFF  6A,2EC
093D8:  MOVFF  69,2EB
093DC:  CLRF   xEE
093DE:  MOVLW  46
093E0:  MOVWF  xED
093E2:  MOVLB  0
093E4:  CALL   70D0
093E8:  MOVFF  00,2DB
093EC:  MOVLB  2
093EE:  MOVFF  03,2DC
093F2:  MOVF   xDC,F
093F4:  BNZ   940E
093F6:  MOVF   xDB,W
093F8:  SUBLW  3B
093FA:  BNC   940E
093FC:  MOVLB  0
093FE:  MOVF   x7C,F
09400:  BTFSC  FD8.2
09402:  BRA    9408
09404:  MOVLB  2
09406:  BRA    940E
....................          DAY53to59(); 
09408:  BRA    8E08
....................       }else if(((PASSED_DAYS%loop_day) >= 60 && (PASSED_DAYS%loop_day) <= 69) && UPLINK_SUCCESS == 0){   //Normal HK Download 
0940A:  BRA    946C
0940C:  MOVLB  2
0940E:  MOVFF  6A,2EC
09412:  MOVFF  69,2EB
09416:  CLRF   xEE
09418:  MOVLW  46
0941A:  MOVWF  xED
0941C:  MOVLB  0
0941E:  CALL   70D0
09422:  MOVFF  00,2DB
09426:  MOVLB  2
09428:  MOVFF  03,2DC
0942C:  MOVF   xDC,F
0942E:  BNZ   9436
09430:  MOVF   xDB,W
09432:  SUBLW  3B
09434:  BC    946E
09436:  MOVFF  6A,2EC
0943A:  MOVFF  69,2EB
0943E:  CLRF   xEE
09440:  MOVLW  46
09442:  MOVWF  xED
09444:  MOVLB  0
09446:  CALL   70D0
0944A:  MOVFF  00,2DB
0944E:  MOVLB  2
09450:  MOVFF  03,2DC
09454:  MOVF   xDC,F
09456:  BNZ   946E
09458:  MOVF   xDB,W
0945A:  SUBLW  45
0945C:  BNC   946E
0945E:  MOVLB  0
09460:  MOVF   x7C,F
09462:  BTFSC  FD8.2
09464:  BRA    946A
09466:  MOVLB  2
09468:  BRA    946E
....................          DAY60to69(); 
0946A:  BRA    8EDE
0946C:  MOVLB  2
....................       } 
....................    } 
....................    if(BC_ATTEMPT_FLAG == 0)                                                      //at this moment, this flag should be over 1 
0946E:  MOVLB  0
09470:  MOVF   x68,F
09472:  BNZ   9478
....................    { 
....................       BC_ON_30min(); 
09474:  CALL   7BBC
....................    } 
....................     
....................    FAB_FLAG = 0; 
09478:  MOVLB  2
0947A:  CLRF   x20
0947C:  CLRF   x1F
0947E:  CLRF   x1E
09480:  CLRF   x1D
....................    return; 
09482:  MOVLB  0
09484:  GOTO   A172 (RETURN)
.................... } 
....................  
.................... void PREPARE_AUTOMATICAL_MSN_ADDRESS() 
.................... { 
....................    if((PASSED_DAYS%loop_day) == 0 && UPLINK_SUCCESS == 0){                                               //0th day high samp mission download 
*
09B7E:  MOVFF  6A,2EC
09B82:  MOVFF  69,2EB
09B86:  MOVLB  2
09B88:  CLRF   xEE
09B8A:  MOVLW  46
09B8C:  MOVWF  xED
09B8E:  MOVLB  0
09B90:  CALL   70D0
09B94:  MOVFF  00,2DB
09B98:  MOVLB  2
09B9A:  MOVFF  03,2DC
09B9E:  MOVF   xDB,F
09BA0:  BNZ   9BDA
09BA2:  MOVF   xDC,F
09BA4:  BNZ   9BDA
09BA6:  MOVLB  0
09BA8:  MOVF   x7C,F
09BAA:  BTFSC  FD8.2
09BAC:  BRA    9BB2
09BAE:  MOVLB  2
09BB0:  BRA    9BDA
....................       UPDATE_ACK_for_COM(0x66,0x77,SECT*1639,405); 
09BB2:  MOVLW  66
09BB4:  MOVLB  2
09BB6:  MOVWF  xDF
09BB8:  MOVLW  77
09BBA:  MOVWF  xE0
09BBC:  MOVLW  06
09BBE:  MOVWF  xE4
09BC0:  MOVLW  67
09BC2:  MOVWF  xE3
09BC4:  CLRF   xE2
09BC6:  CLRF   xE1
09BC8:  MOVLW  01
09BCA:  MOVWF  xE6
09BCC:  MOVLW  95
09BCE:  MOVWF  xE5
09BD0:  MOVLB  0
09BD2:  CALL   7F96
....................    }else if(((PASSED_DAYS%loop_day) >= 1 && (PASSED_DAYS%loop_day) <= 4) && UPLINK_SUCCESS == 0){        //1-4th day high samp mission download  
09BD6:  BRA    A094
09BD8:  MOVLB  2
09BDA:  MOVFF  6A,2EC
09BDE:  MOVFF  69,2EB
09BE2:  CLRF   xEE
09BE4:  MOVLW  46
09BE6:  MOVWF  xED
09BE8:  MOVLB  0
09BEA:  CALL   70D0
09BEE:  MOVFF  00,2DB
09BF2:  MOVLB  2
09BF4:  MOVFF  03,2DC
09BF8:  MOVF   xDC,F
09BFA:  BNZ   9C02
09BFC:  MOVF   xDB,W
09BFE:  SUBLW  00
09C00:  BC    9C3C
09C02:  MOVFF  6A,2EC
09C06:  MOVFF  69,2EB
09C0A:  CLRF   xEE
09C0C:  MOVLW  46
09C0E:  MOVWF  xED
09C10:  MOVLB  0
09C12:  CALL   70D0
09C16:  MOVFF  00,2DB
09C1A:  MOVLB  2
09C1C:  MOVFF  03,2DC
09C20:  MOVF   xDC,F
09C22:  BNZ   9C3C
09C24:  MOVF   xDB,W
09C26:  SUBLW  04
09C28:  BNC   9C3C
09C2A:  MOVLB  0
09C2C:  MOVF   x7C,F
09C2E:  BTFSC  FD8.2
09C30:  BRA    9C36
09C32:  MOVLB  2
09C34:  BRA    9C3C
....................       DAY1to4_ADDRESS(); 
09C36:  BRA    9488
....................    }else if(((PASSED_DAYS%loop_day) >= 5 && UPLINK_SUCCESS == 0) && AUTO_CAM_DONE == 0){                 //5th day (CAM MSN) 
09C38:  BRA    A094
09C3A:  MOVLB  2
09C3C:  MOVFF  6A,2EC
09C40:  MOVFF  69,2EB
09C44:  CLRF   xEE
09C46:  MOVLW  46
09C48:  MOVWF  xED
09C4A:  MOVLB  0
09C4C:  CALL   70D0
09C50:  MOVFF  00,2DB
09C54:  MOVLB  2
09C56:  MOVFF  03,2DC
09C5A:  MOVF   xDC,F
09C5C:  BNZ   9C64
09C5E:  MOVF   xDB,W
09C60:  SUBLW  04
09C62:  BC    9CA0
09C64:  MOVLB  0
09C66:  MOVF   x7C,F
09C68:  BTFSC  FD8.2
09C6A:  BRA    9C70
09C6C:  MOVLB  2
09C6E:  BRA    9CA0
09C70:  MOVF   x78,F
09C72:  BTFSC  FD8.2
09C74:  BRA    9C7A
09C76:  MOVLB  2
09C78:  BRA    9CA0
....................       UPDATE_ACK_for_COM(0x66,0x77,SECT*8,405);//65536*8; 
09C7A:  MOVLW  66
09C7C:  MOVLB  2
09C7E:  MOVWF  xDF
09C80:  MOVLW  77
09C82:  MOVWF  xE0
09C84:  CLRF   xE4
09C86:  MOVLW  08
09C88:  MOVWF  xE3
09C8A:  CLRF   xE2
09C8C:  CLRF   xE1
09C8E:  MOVLW  01
09C90:  MOVWF  xE6
09C92:  MOVLW  95
09C94:  MOVWF  xE5
09C96:  MOVLB  0
09C98:  CALL   7F96
....................    }else if(((PASSED_DAYS%loop_day) >= 6 && (PASSED_DAYS%loop_day) <= 9) && UPLINK_SUCCESS == 0){        //download cam data 
09C9C:  BRA    A094
09C9E:  MOVLB  2
09CA0:  MOVFF  6A,2EC
09CA4:  MOVFF  69,2EB
09CA8:  CLRF   xEE
09CAA:  MOVLW  46
09CAC:  MOVWF  xED
09CAE:  MOVLB  0
09CB0:  CALL   70D0
09CB4:  MOVFF  00,2DB
09CB8:  MOVLB  2
09CBA:  MOVFF  03,2DC
09CBE:  MOVF   xDC,F
09CC0:  BNZ   9CC8
09CC2:  MOVF   xDB,W
09CC4:  SUBLW  05
09CC6:  BC    9D02
09CC8:  MOVFF  6A,2EC
09CCC:  MOVFF  69,2EB
09CD0:  CLRF   xEE
09CD2:  MOVLW  46
09CD4:  MOVWF  xED
09CD6:  MOVLB  0
09CD8:  CALL   70D0
09CDC:  MOVFF  00,2DB
09CE0:  MOVLB  2
09CE2:  MOVFF  03,2DC
09CE6:  MOVF   xDC,F
09CE8:  BNZ   9D02
09CEA:  MOVF   xDB,W
09CEC:  SUBLW  09
09CEE:  BNC   9D02
09CF0:  MOVLB  0
09CF2:  MOVF   x7C,F
09CF4:  BTFSC  FD8.2
09CF6:  BRA    9CFC
09CF8:  MOVLB  2
09CFA:  BRA    9D02
....................       DAY6to9_ADDRESS(); 
09CFC:  BRA    955C
....................    }else if(((PASSED_DAYS%loop_day) >= 10 && UPLINK_SUCCESS == 0) && AUTO_MBP_DONE == 0){                //MBP and download 
09CFE:  BRA    A094
09D00:  MOVLB  2
09D02:  MOVFF  6A,2EC
09D06:  MOVFF  69,2EB
09D0A:  CLRF   xEE
09D0C:  MOVLW  46
09D0E:  MOVWF  xED
09D10:  MOVLB  0
09D12:  CALL   70D0
09D16:  MOVFF  00,2DB
09D1A:  MOVLB  2
09D1C:  MOVFF  03,2DC
09D20:  MOVF   xDC,F
09D22:  BNZ   9D2A
09D24:  MOVF   xDB,W
09D26:  SUBLW  09
09D28:  BC    9D84
09D2A:  MOVLB  0
09D2C:  MOVF   x7C,F
09D2E:  BTFSC  FD8.2
09D30:  BRA    9D36
09D32:  MOVLB  2
09D34:  BRA    9D84
09D36:  MOVF   x79,F
09D38:  BTFSC  FD8.2
09D3A:  BRA    9D40
09D3C:  MOVLB  2
09D3E:  BRA    9D84
....................       UPDATE_ACK_for_COM(0x66,0x77,DC_STATUS_ADDRESS-332,332);//65536*162; 
09D40:  MOVLW  4C
09D42:  SUBWF  58,W
09D44:  MOVLB  2
09D46:  MOVWF  xDB
09D48:  MOVLW  01
09D4A:  SUBWFB 59,W
09D4C:  MOVWF  xDC
09D4E:  MOVLW  00
09D50:  SUBWFB 5A,W
09D52:  MOVWF  xDD
09D54:  MOVLW  00
09D56:  SUBWFB 5B,W
09D58:  MOVWF  xDE
09D5A:  MOVLW  66
09D5C:  MOVWF  xDF
09D5E:  MOVLW  77
09D60:  MOVWF  xE0
09D62:  MOVFF  2DE,2E4
09D66:  MOVFF  2DD,2E3
09D6A:  MOVFF  2DC,2E2
09D6E:  MOVFF  2DB,2E1
09D72:  MOVLW  01
09D74:  MOVWF  xE6
09D76:  MOVLW  4C
09D78:  MOVWF  xE5
09D7A:  MOVLB  0
09D7C:  CALL   7F96
....................    }else if(((PASSED_DAYS%loop_day) >= 11 && (PASSED_DAYS%loop_day) <= 14) && UPLINK_SUCCESS == 0){      //MBP and download 
09D80:  BRA    A094
09D82:  MOVLB  2
09D84:  MOVFF  6A,2EC
09D88:  MOVFF  69,2EB
09D8C:  CLRF   xEE
09D8E:  MOVLW  46
09D90:  MOVWF  xED
09D92:  MOVLB  0
09D94:  CALL   70D0
09D98:  MOVFF  00,2DB
09D9C:  MOVLB  2
09D9E:  MOVFF  03,2DC
09DA2:  MOVF   xDC,F
09DA4:  BNZ   9DAC
09DA6:  MOVF   xDB,W
09DA8:  SUBLW  0A
09DAA:  BC    9DE6
09DAC:  MOVFF  6A,2EC
09DB0:  MOVFF  69,2EB
09DB4:  CLRF   xEE
09DB6:  MOVLW  46
09DB8:  MOVWF  xED
09DBA:  MOVLB  0
09DBC:  CALL   70D0
09DC0:  MOVFF  00,2DB
09DC4:  MOVLB  2
09DC6:  MOVFF  03,2DC
09DCA:  MOVF   xDC,F
09DCC:  BNZ   9DE6
09DCE:  MOVF   xDB,W
09DD0:  SUBLW  0E
09DD2:  BNC   9DE6
09DD4:  MOVLB  0
09DD6:  MOVF   x7C,F
09DD8:  BTFSC  FD8.2
09DDA:  BRA    9DE0
09DDC:  MOVLB  2
09DDE:  BRA    9DE6
....................       DAY11to14_ADDRESS(); 
09DE0:  BRA    9634
....................    }else if(((PASSED_DAYS%loop_day) >= 15 && UPLINK_SUCCESS == 0) && AUTO_ADCS_DONE == 0){               //ADCS Mission and Download 
09DE2:  BRA    A094
09DE4:  MOVLB  2
09DE6:  MOVFF  6A,2EC
09DEA:  MOVFF  69,2EB
09DEE:  CLRF   xEE
09DF0:  MOVLW  46
09DF2:  MOVWF  xED
09DF4:  MOVLB  0
09DF6:  CALL   70D0
09DFA:  MOVFF  00,2DB
09DFE:  MOVLB  2
09E00:  MOVFF  03,2DC
09E04:  MOVF   xDC,F
09E06:  BNZ   9E0E
09E08:  MOVF   xDB,W
09E0A:  SUBLW  0E
09E0C:  BC    9E4C
09E0E:  MOVLB  0
09E10:  MOVF   x7C,F
09E12:  BTFSC  FD8.2
09E14:  BRA    9E1A
09E16:  MOVLB  2
09E18:  BRA    9E4C
09E1A:  MOVF   x7A,F
09E1C:  BTFSC  FD8.2
09E1E:  BRA    9E24
09E20:  MOVLB  2
09E22:  BRA    9E4C
....................       UPDATE_ACK_for_COM(0x66, 0x77, SECT*1138, 405);                                                    //ADCS 
09E24:  MOVLW  66
09E26:  MOVLB  2
09E28:  MOVWF  xDF
09E2A:  MOVLW  77
09E2C:  MOVWF  xE0
09E2E:  MOVLW  04
09E30:  MOVWF  xE4
09E32:  MOVLW  72
09E34:  MOVWF  xE3
09E36:  CLRF   xE2
09E38:  CLRF   xE1
09E3A:  MOVLW  01
09E3C:  MOVWF  xE6
09E3E:  MOVLW  95
09E40:  MOVWF  xE5
09E42:  MOVLB  0
09E44:  CALL   7F96
....................    }else if(((PASSED_DAYS%loop_day) >= 16 && (PASSED_DAYS%loop_day) <= 19) && UPLINK_SUCCESS == 0){      //ADCS Download 
09E48:  BRA    A094
09E4A:  MOVLB  2
09E4C:  MOVFF  6A,2EC
09E50:  MOVFF  69,2EB
09E54:  CLRF   xEE
09E56:  MOVLW  46
09E58:  MOVWF  xED
09E5A:  MOVLB  0
09E5C:  CALL   70D0
09E60:  MOVFF  00,2DB
09E64:  MOVLB  2
09E66:  MOVFF  03,2DC
09E6A:  MOVF   xDC,F
09E6C:  BNZ   9E74
09E6E:  MOVF   xDB,W
09E70:  SUBLW  0F
09E72:  BC    9EAE
09E74:  MOVFF  6A,2EC
09E78:  MOVFF  69,2EB
09E7C:  CLRF   xEE
09E7E:  MOVLW  46
09E80:  MOVWF  xED
09E82:  MOVLB  0
09E84:  CALL   70D0
09E88:  MOVFF  00,2DB
09E8C:  MOVLB  2
09E8E:  MOVFF  03,2DC
09E92:  MOVF   xDC,F
09E94:  BNZ   9EAE
09E96:  MOVF   xDB,W
09E98:  SUBLW  13
09E9A:  BNC   9EAE
09E9C:  MOVLB  0
09E9E:  MOVF   x7C,F
09EA0:  BTFSC  FD8.2
09EA2:  BRA    9EA8
09EA4:  MOVLB  2
09EA6:  BRA    9EAE
....................       DAY16to19_ADDRESS();                                                                             //ADCS DL 
09EA8:  BRA    96B0
....................    }else if(((PASSED_DAYS%loop_day) >= 20 && (PASSED_DAYS%loop_day) <= 25) && UPLINK_SUCCESS == 0){      //High sampling sensor collecting mission download 
09EAA:  BRA    A094
09EAC:  MOVLB  2
09EAE:  MOVFF  6A,2EC
09EB2:  MOVFF  69,2EB
09EB6:  CLRF   xEE
09EB8:  MOVLW  46
09EBA:  MOVWF  xED
09EBC:  MOVLB  0
09EBE:  CALL   70D0
09EC2:  MOVFF  00,2DB
09EC6:  MOVLB  2
09EC8:  MOVFF  03,2DC
09ECC:  MOVF   xDC,F
09ECE:  BNZ   9ED6
09ED0:  MOVF   xDB,W
09ED2:  SUBLW  13
09ED4:  BC    9F10
09ED6:  MOVFF  6A,2EC
09EDA:  MOVFF  69,2EB
09EDE:  CLRF   xEE
09EE0:  MOVLW  46
09EE2:  MOVWF  xED
09EE4:  MOVLB  0
09EE6:  CALL   70D0
09EEA:  MOVFF  00,2DB
09EEE:  MOVLB  2
09EF0:  MOVFF  03,2DC
09EF4:  MOVF   xDC,F
09EF6:  BNZ   9F10
09EF8:  MOVF   xDB,W
09EFA:  SUBLW  19
09EFC:  BNC   9F10
09EFE:  MOVLB  0
09F00:  MOVF   x7C,F
09F02:  BTFSC  FD8.2
09F04:  BRA    9F0A
09F06:  MOVLB  2
09F08:  BRA    9F10
....................       DAY20to25_ADDRESS(); 
09F0A:  BRA    9758
....................    }else if(((PASSED_DAYS%loop_day) >= 26 && (PASSED_DAYS%loop_day) <= 46) && UPLINK_SUCCESS == 0){      //CAM Mission Download 
09F0C:  BRA    A094
09F0E:  MOVLB  2
09F10:  MOVFF  6A,2EC
09F14:  MOVFF  69,2EB
09F18:  CLRF   xEE
09F1A:  MOVLW  46
09F1C:  MOVWF  xED
09F1E:  MOVLB  0
09F20:  CALL   70D0
09F24:  MOVFF  00,2DB
09F28:  MOVLB  2
09F2A:  MOVFF  03,2DC
09F2E:  MOVF   xDC,F
09F30:  BNZ   9F38
09F32:  MOVF   xDB,W
09F34:  SUBLW  19
09F36:  BC    9F72
09F38:  MOVFF  6A,2EC
09F3C:  MOVFF  69,2EB
09F40:  CLRF   xEE
09F42:  MOVLW  46
09F44:  MOVWF  xED
09F46:  MOVLB  0
09F48:  CALL   70D0
09F4C:  MOVFF  00,2DB
09F50:  MOVLB  2
09F52:  MOVFF  03,2DC
09F56:  MOVF   xDC,F
09F58:  BNZ   9F72
09F5A:  MOVF   xDB,W
09F5C:  SUBLW  2E
09F5E:  BNC   9F72
09F60:  MOVLB  0
09F62:  MOVF   x7C,F
09F64:  BTFSC  FD8.2
09F66:  BRA    9F6C
09F68:  MOVLB  2
09F6A:  BRA    9F72
....................       DAY26to46_ADDRESS(); 
09F6C:  BRA    9830
....................    }else if(((PASSED_DAYS%loop_day) >= 47 && (PASSED_DAYS%loop_day) <= 52) && UPLINK_SUCCESS == 0){      //ADCS Mission Data Download 
09F6E:  BRA    A094
09F70:  MOVLB  2
09F72:  MOVFF  6A,2EC
09F76:  MOVFF  69,2EB
09F7A:  CLRF   xEE
09F7C:  MOVLW  46
09F7E:  MOVWF  xED
09F80:  MOVLB  0
09F82:  CALL   70D0
09F86:  MOVFF  00,2DB
09F8A:  MOVLB  2
09F8C:  MOVFF  03,2DC
09F90:  MOVF   xDC,F
09F92:  BNZ   9F9A
09F94:  MOVF   xDB,W
09F96:  SUBLW  2E
09F98:  BC    9FD4
09F9A:  MOVFF  6A,2EC
09F9E:  MOVFF  69,2EB
09FA2:  CLRF   xEE
09FA4:  MOVLW  46
09FA6:  MOVWF  xED
09FA8:  MOVLB  0
09FAA:  CALL   70D0
09FAE:  MOVFF  00,2DB
09FB2:  MOVLB  2
09FB4:  MOVFF  03,2DC
09FB8:  MOVF   xDC,F
09FBA:  BNZ   9FD4
09FBC:  MOVF   xDB,W
09FBE:  SUBLW  34
09FC0:  BNC   9FD4
09FC2:  MOVLB  0
09FC4:  MOVF   x7C,F
09FC6:  BTFSC  FD8.2
09FC8:  BRA    9FCE
09FCA:  MOVLB  2
09FCC:  BRA    9FD4
....................       DAY47to52_ADDRESS(); 
09FCE:  BRA    9908
....................    }else if(((PASSED_DAYS%loop_day) >= 53 && (PASSED_DAYS%loop_day) <= 59) && UPLINK_SUCCESS == 0){      //Satellite LOG Download 
09FD0:  BRA    A094
09FD2:  MOVLB  2
09FD4:  MOVFF  6A,2EC
09FD8:  MOVFF  69,2EB
09FDC:  CLRF   xEE
09FDE:  MOVLW  46
09FE0:  MOVWF  xED
09FE2:  MOVLB  0
09FE4:  CALL   70D0
09FE8:  MOVFF  00,2DB
09FEC:  MOVLB  2
09FEE:  MOVFF  03,2DC
09FF2:  MOVF   xDC,F
09FF4:  BNZ   9FFC
09FF6:  MOVF   xDB,W
09FF8:  SUBLW  34
09FFA:  BC    A036
09FFC:  MOVFF  6A,2EC
0A000:  MOVFF  69,2EB
0A004:  CLRF   xEE
0A006:  MOVLW  46
0A008:  MOVWF  xED
0A00A:  MOVLB  0
0A00C:  CALL   70D0
0A010:  MOVFF  00,2DB
0A014:  MOVLB  2
0A016:  MOVFF  03,2DC
0A01A:  MOVF   xDC,F
0A01C:  BNZ   A036
0A01E:  MOVF   xDB,W
0A020:  SUBLW  3B
0A022:  BNC   A036
0A024:  MOVLB  0
0A026:  MOVF   x7C,F
0A028:  BTFSC  FD8.2
0A02A:  BRA    A030
0A02C:  MOVLB  2
0A02E:  BRA    A036
....................       DAY53to59_ADDRESS(); 
0A030:  BRA    99E2
....................    }else if(((PASSED_DAYS%loop_day) >= 60 && (PASSED_DAYS%loop_day) <= 69) && UPLINK_SUCCESS == 0){      //Normal HK Download 
0A032:  BRA    A094
0A034:  MOVLB  2
0A036:  MOVFF  6A,2EC
0A03A:  MOVFF  69,2EB
0A03E:  CLRF   xEE
0A040:  MOVLW  46
0A042:  MOVWF  xED
0A044:  MOVLB  0
0A046:  CALL   70D0
0A04A:  MOVFF  00,2DB
0A04E:  MOVLB  2
0A050:  MOVFF  03,2DC
0A054:  MOVF   xDC,F
0A056:  BNZ   A05E
0A058:  MOVF   xDB,W
0A05A:  SUBLW  3B
0A05C:  BC    A096
0A05E:  MOVFF  6A,2EC
0A062:  MOVFF  69,2EB
0A066:  CLRF   xEE
0A068:  MOVLW  46
0A06A:  MOVWF  xED
0A06C:  MOVLB  0
0A06E:  CALL   70D0
0A072:  MOVFF  00,2DB
0A076:  MOVLB  2
0A078:  MOVFF  03,2DC
0A07C:  MOVF   xDC,F
0A07E:  BNZ   A096
0A080:  MOVF   xDB,W
0A082:  SUBLW  45
0A084:  BNC   A096
0A086:  MOVLB  0
0A088:  MOVF   x7C,F
0A08A:  BTFSC  FD8.2
0A08C:  BRA    A092
0A08E:  MOVLB  2
0A090:  BRA    A096
....................       DAY60to69_ADDRESS(); 
0A092:  BRA    9AA4
0A094:  MOVLB  2
....................    } 
....................    return; 
0A096:  MOVLB  0
0A098:  GOTO   A174 (RETURN)
.................... } 
....................  
....................  
.................... //@@@@@@@@@@@ AUTO MISSION OPERATION @@@@@@@@@@@@@@@@@@@@@@@@@@@@@@@@@@@@@@@@@@@@@@@@@@@@@@@@ 
.................... void AUTOMATICAL_MISSION_CHECK() 
.................... { 
....................    int c; 
....................    for(c = 0; c < 6; c++) 
0A09C:  MOVLB  2
0A09E:  CLRF   xDA
0A0A0:  MOVF   xDA,W
0A0A2:  SUBLW  05
0A0A4:  BNC   A0BE
....................    { 
....................       COLLECT_RESET_DATA();                                                      //send cmd to get reset data 
0A0A6:  MOVLB  0
0A0A8:  CALL   1FE0
....................       if(reset_bffr[0] == 0x8e) 
0A0AC:  MOVF   xEC,W
0A0AE:  SUBLW  8E
0A0B0:  BNZ   A0B8
....................       { 
....................          break; 
0A0B2:  MOVLB  2
0A0B4:  BRA    A0BE
0A0B6:  MOVLB  0
....................       } 
0A0B8:  MOVLB  2
0A0BA:  INCF   xDA,F
0A0BC:  BRA    A0A0
....................    } 
....................     
....................    for(c = 0; c < 10; c++)                                                       //print reset data 
0A0BE:  CLRF   xDA
0A0C0:  MOVF   xDA,W
0A0C2:  SUBLW  09
0A0C4:  BNC   A0F2
....................    { 
....................       fprintf(PC,"%x,",reset_bffr[c]); 
0A0C6:  CLRF   03
0A0C8:  MOVF   xDA,W
0A0CA:  ADDLW  EC
0A0CC:  MOVWF  FE9
0A0CE:  MOVLW  00
0A0D0:  ADDWFC 03,W
0A0D2:  MOVWF  FEA
0A0D4:  MOVFF  FEF,311
0A0D8:  MOVLW  57
0A0DA:  MOVLB  3
0A0DC:  MOVWF  x12
0A0DE:  MOVLB  0
0A0E0:  CALL   1C3E
0A0E4:  MOVLW  2C
0A0E6:  BTFSS  F9E.4
0A0E8:  BRA    A0E6
0A0EA:  MOVWF  FAD
0A0EC:  MOVLB  2
0A0EE:  INCF   xDA,F
0A0F0:  BRA    A0C0
....................    } 
....................    fprintf(PC,"%x\r\n",reset_bffr[10]); 
0A0F2:  MOVFF  F6,311
0A0F6:  MOVLW  57
0A0F8:  MOVLB  3
0A0FA:  MOVWF  x12
0A0FC:  MOVLB  0
0A0FE:  CALL   1C3E
0A102:  MOVLW  0D
0A104:  BTFSS  F9E.4
0A106:  BRA    A104
0A108:  MOVWF  FAD
0A10A:  MOVLW  0A
0A10C:  BTFSS  F9E.4
0A10E:  BRA    A10C
0A110:  MOVWF  FAD
....................     
....................    if(((PASSED_DAYS%loop_day==0)&&(PASSED_DAYS>69))&&UPLINK_SUCCESS == 0)        //after 70 day (one cycle), auto mission again 
0A112:  MOVFF  6A,2EC
0A116:  MOVFF  69,2EB
0A11A:  MOVLB  2
0A11C:  CLRF   xEE
0A11E:  MOVLW  46
0A120:  MOVWF  xED
0A122:  MOVLB  0
0A124:  CALL   70D0
0A128:  MOVFF  00,2DB
0A12C:  MOVLB  2
0A12E:  MOVFF  03,2DC
0A132:  MOVF   xDB,F
0A134:  BNZ   A16C
0A136:  MOVF   xDC,F
0A138:  BNZ   A16C
0A13A:  MOVLB  0
0A13C:  MOVF   x6A,F
0A13E:  BNZ   A14C
0A140:  MOVF   x69,W
0A142:  SUBLW  45
0A144:  BTFSS  FD8.0
0A146:  BRA    A14C
0A148:  MOVLB  2
0A14A:  BRA    A16C
0A14C:  MOVF   x7C,F
0A14E:  BTFSC  FD8.2
0A150:  BRA    A156
0A152:  MOVLB  2
0A154:  BRA    A16C
....................    { 
....................       FIRST_HSSC_DONE = 0; 
0A156:  CLRF   x77
....................       AUTO_CAM_DONE = 0; 
0A158:  CLRF   x78
....................       AUTO_MBP_DONE = 0; 
0A15A:  CLRF   x79
....................       AUTO_ADCS_DONE = 0; 
0A15C:  CLRF   x7A
....................       AUTO_MSN_AD_CHANGE();                                                      //update address for a new cycle 
0A15E:  GOTO   7172
....................       STORE_FLAG_INFO();                                                         //save flag data to flash memory 
0A162:  CALL   5B0E
....................       WRITE_FLAG_to_EEPROM();                                                    //saves the flags in the EEPROM from the address 0x18000 (75%) 
0A166:  CALL   5D22
0A16A:  MOVLB  2
....................    } 
....................    AUTOMATICAL_MSN_EXE(); 
0A16C:  MOVLB  0
0A16E:  GOTO   8FCC
....................    PREPARE_AUTOMATICAL_MSN_ADDRESS(); 
0A172:  BRA    9B7E
....................    return; 
0A174:  RETURN 0
.................... } 
....................  
....................  
.................... #include<analyze_command.c> 
.................... void UPLINK_SUCCESS_CHECK() 
.................... { 
....................    if(UPLINK_SUCCESS == 0) 
*
0B1E6:  MOVF   x7C,F
0B1E8:  BNZ   B1F6
....................    { 
....................       UPLINK_SUCCESS = 1; 
0B1EA:  MOVLW  01
0B1EC:  MOVWF  x7C
....................       STORE_FLAG_INFO();                                                         //save flag data to flash memory 
0B1EE:  CALL   5B0E
....................       WRITE_FLAG_to_EEPROM();                                                    //save flags on EEPROM from address 0x18000 (75%) 
0B1F2:  CALL   5D22
....................    } 
....................    return; 
0B1F6:  RETURN 0
.................... } 
....................  
.................... void UPLINK_SUCCESS_ADCS() 
.................... { 
....................    if(UPLINK_SUCCESS == 0) 
*
0A2BE:  MOVF   x7C,F
0A2C0:  BNZ   A2D2
....................    { 
....................       UPLINK_SUCCESS = 1; 
0A2C2:  MOVLW  01
0A2C4:  MOVWF  x7C
....................       AUTO_ADCS_DONE = 1; 
0A2C6:  MOVWF  x7A
....................       STORE_FLAG_INFO(); 
0A2C8:  CALL   5B0E
....................       WRITE_FLAG_to_EEPROM(); 
0A2CC:  CALL   5D22
....................    }else if(AUTO_ADCS_DONE == 0){ 
0A2D0:  BRA    A2E2
0A2D2:  MOVF   x7A,F
0A2D4:  BNZ   A2E2
....................       AUTO_ADCS_DONE = 1; 
0A2D6:  MOVLW  01
0A2D8:  MOVWF  x7A
....................       STORE_FLAG_INFO(); 
0A2DA:  CALL   5B0E
....................       WRITE_FLAG_to_EEPROM(); 
0A2DE:  CALL   5D22
....................    } 
....................    return; 
0A2E2:  RETURN 0
.................... } 
....................  
.................... void UPLINK_SUCCESS_HSSC() 
.................... { 
....................    if(UPLINK_SUCCESS == 0) 
*
0B306:  MOVF   x7C,F
0B308:  BNZ   B31A
....................    { 
....................       UPLINK_SUCCESS = 1; 
0B30A:  MOVLW  01
0B30C:  MOVWF  x7C
....................       FIRST_HSSC_DONE = 1; 
0B30E:  MOVWF  x77
....................       STORE_FLAG_INFO(); 
0B310:  CALL   5B0E
....................       WRITE_FLAG_to_EEPROM(); 
0B314:  CALL   5D22
....................    }else if(FIRST_HSSC_DONE == 0){ 
0B318:  BRA    B32A
0B31A:  MOVF   x77,F
0B31C:  BNZ   B32A
....................       FIRST_HSSC_DONE = 1; 
0B31E:  MOVLW  01
0B320:  MOVWF  x77
....................       STORE_FLAG_INFO(); 
0B322:  CALL   5B0E
....................       WRITE_FLAG_to_EEPROM(); 
0B326:  CALL   5D22
....................    } 
....................    return; 
0B32A:  RETURN 0
.................... } 
....................  
.................... void UPLINK_SUCCESS_MBP() 
.................... { 
....................    if(UPLINK_SUCCESS == 0) 
*
0AC34:  MOVF   x7C,F
0AC36:  BNZ   AC48
....................    { 
....................       UPLINK_SUCCESS = 1; 
0AC38:  MOVLW  01
0AC3A:  MOVWF  x7C
....................       AUTO_MBP_DONE = 1; 
0AC3C:  MOVWF  x79
....................       STORE_FLAG_INFO();                                                         //store flag info on flash 
0AC3E:  CALL   5B0E
....................       WRITE_FLAG_to_EEPROM();                                                    //store flag info on EEPROM 
0AC42:  CALL   5D22
....................    }else if(AUTO_MBP_DONE == 0){ 
0AC46:  BRA    AC58
0AC48:  MOVF   x79,F
0AC4A:  BNZ   AC58
....................       AUTO_MBP_DONE = 1; 
0AC4C:  MOVLW  01
0AC4E:  MOVWF  x79
....................       STORE_FLAG_INFO();                                                         //store flag info on flash 
0AC50:  CALL   5B0E
....................       WRITE_FLAG_to_EEPROM();                                                    //store flag info on EEPROM 
0AC54:  CALL   5D22
....................    } 
....................    return; 
0AC58:  RETURN 0
.................... } 
....................  
.................... void UPLINK_SUCCESS_CAM() 
.................... { 
....................    if(UPLINK_SUCCESS == 0) 
*
0A298:  MOVF   x7C,F
0A29A:  BNZ   A2AC
....................    { 
....................       AUTO_CAM_DONE = 1; 
0A29C:  MOVLW  01
0A29E:  MOVWF  x78
....................       UPLINK_SUCCESS = 1; 
0A2A0:  MOVWF  x7C
....................       STORE_FLAG_INFO();                                                         //store flag info on flash 
0A2A2:  CALL   5B0E
....................       WRITE_FLAG_to_EEPROM();                                                    //store flag info on EEPROM 
0A2A6:  CALL   5D22
....................    }else if(AUTO_CAM_DONE == 0){ 
0A2AA:  BRA    A2BC
0A2AC:  MOVF   x78,F
0A2AE:  BNZ   A2BC
....................       AUTO_CAM_DONE = 1; 
0A2B0:  MOVLW  01
0A2B2:  MOVWF  x78
....................       STORE_FLAG_INFO();                                                         //store flag info on flash 
0A2B4:  CALL   5B0E
....................       WRITE_FLAG_to_EEPROM();                                                    //store flag info on EEPROM 
0A2B8:  CALL   5D22
....................    } 
....................    return; 
0A2BC:  RETURN 0
.................... } 
....................  
.................... void EXECUTE_MISSION_from_COM(int8 CMD1,int8 CMD2,int8 CMD3,int8 CMD4,int8 CMD5,int8 CMD6,int8 CMD7) 
.................... { 
....................    switch(CMD1) 
*
0C5B4:  MOVLB  2
0C5B6:  MOVF   xDA,W
0C5B8:  XORLW  C0
0C5BA:  MOVLB  0
0C5BC:  BTFSC  FD8.2
0C5BE:  BRA    C6C4
0C5C0:  XORLW  60
0C5C2:  BTFSC  FD8.2
0C5C4:  BRA    C6FE
0C5C6:  XORLW  01
0C5C8:  BTFSC  FD8.2
0C5CA:  BRA    C762
0C5CC:  XORLW  03
0C5CE:  BTFSC  FD8.2
0C5D0:  BRA    C7AC
0C5D2:  XORLW  72
0C5D4:  BTFSC  FD8.2
0C5D6:  BRA    C7DE
0C5D8:  XORLW  01
0C5DA:  BTFSC  FD8.2
0C5DC:  BRA    C83A
0C5DE:  XORLW  03
0C5E0:  BTFSC  FD8.2
0C5E2:  BRA    C894
0C5E4:  XORLW  01
0C5E6:  BTFSC  FD8.2
0C5E8:  BRA    C8EE
0C5EA:  XORLW  07
0C5EC:  BTFSC  FD8.2
0C5EE:  BRA    C948
0C5F0:  XORLW  01
0C5F2:  BTFSC  FD8.2
0C5F4:  BRA    C9A2
0C5F6:  XORLW  03
0C5F8:  BTFSC  FD8.2
0C5FA:  BRA    C9FC
0C5FC:  XORLW  01
0C5FE:  BTFSC  FD8.2
0C600:  BRA    CA56
0C602:  XORLW  08
0C604:  BTFSC  FD8.2
0C606:  BRA    CAB0
0C608:  XORLW  75
0C60A:  BTFSC  FD8.2
0C60C:  BRA    CB0A
0C60E:  XORLW  88
0C610:  BTFSC  FD8.2
0C612:  BRA    CB42
0C614:  XORLW  92
0C616:  BTFSC  FD8.2
0C618:  BRA    CB6E
0C61A:  XORLW  01
0C61C:  BTFSC  FD8.2
0C61E:  BRA    CB98
0C620:  XORLW  03
0C622:  BTFSC  FD8.2
0C624:  BRA    CBC2
0C626:  XORLW  01
0C628:  BTFSC  FD8.2
0C62A:  BRA    CBEC
0C62C:  XORLW  07
0C62E:  BTFSC  FD8.2
0C630:  BRA    CC16
0C632:  XORLW  FF
0C634:  BTFSC  FD8.2
0C636:  BRA    CC40
0C638:  XORLW  F0
0C63A:  BTFSC  FD8.2
0C63C:  BRA    CC6E
0C63E:  XORLW  41
0C640:  BTFSC  FD8.2
0C642:  BRA    CC9C
0C644:  XORLW  A3
0C646:  BTFSC  FD8.2
0C648:  BRA    CD16
0C64A:  XORLW  B7
0C64C:  BTFSC  FD8.2
0C64E:  BRA    CD2E
0C650:  XORLW  66
0C652:  BTFSC  FD8.2
0C654:  BRA    CD3C
0C656:  XORLW  17
0C658:  BTFSC  FD8.2
0C65A:  BRA    CD42
0C65C:  XORLW  CF
0C65E:  BTFSC  FD8.2
0C660:  BRA    CD44
0C662:  XORLW  B0
0C664:  BTFSC  FD8.2
0C666:  BRA    CD56
0C668:  XORLW  01
0C66A:  BTFSC  FD8.2
0C66C:  BRA    CD84
0C66E:  XORLW  03
0C670:  BTFSC  FD8.2
0C672:  BRA    CDB2
0C674:  XORLW  F0
0C676:  BTFSC  FD8.2
0C678:  BRA    CDE0
0C67A:  XORLW  01
0C67C:  BTFSC  FD8.2
0C67E:  BRA    CE0E
0C680:  XORLW  32
0C682:  BTFSC  FD8.2
0C684:  GOTO   CE3C
0C688:  XORLW  02
0C68A:  BTFSC  FD8.2
0C68C:  GOTO   CE6A
0C690:  XORLW  12
0C692:  BTFSC  FD8.2
0C694:  GOTO   CE98
0C698:  XORLW  03
0C69A:  BTFSC  FD8.2
0C69C:  GOTO   CEC6
0C6A0:  XORLW  33
0C6A2:  BTFSC  FD8.2
0C6A4:  GOTO   CEF4
0C6A8:  XORLW  03
0C6AA:  BTFSC  FD8.2
0C6AC:  GOTO   CF26
0C6B0:  XORLW  01
0C6B2:  BTFSC  FD8.2
0C6B4:  GOTO   CF58
0C6B8:  XORLW  36
0C6BA:  BTFSC  FD8.2
0C6BC:  GOTO   CF8A
0C6C0:  GOTO   CFC8
....................    { 
....................       case 0xC0: 
....................          REPLY_TO_COM(0x66,0); 
0C6C4:  MOVLW  66
0C6C6:  MOVLB  2
0C6C8:  MOVWF  xE5
0C6CA:  CLRF   xE6
0C6CC:  MOVLB  0
0C6CE:  CALL   A198
....................          SAVE_SAT_LOG(CMD1, 0, CMD2);                                            //save reset data          
0C6D2:  MOVFF  2DA,302
0C6D6:  MOVLB  3
0C6D8:  CLRF   x03
0C6DA:  MOVFF  2DB,304
0C6DE:  MOVLB  0
0C6E0:  CALL   3E06
....................          UPLINK_SUCCESS_CAM();                                                   //put uplink succes flag in high and store flags 
0C6E4:  CALL   A298
....................          ACK_for_COM[14] = 0x00;         
0C6E8:  MOVLB  2
0C6EA:  CLRF   x10
....................          CAM_TEST_OPERATION(CMD2);                                               //send command to CAM, execute mission and transfer data 
0C6EC:  MOVFF  2DB,2E5
0C6F0:  MOVLB  0
0C6F2:  CALL   8326
....................          STORE_ADRESS_DATA_TO_FLASH();                                           //store the updated CAM address 
0C6F6:  CALL   3AF8
....................          break; 
0C6FA:  GOTO   CFC8
....................       case 0xA0: 
....................          REPLY_TO_COM(0x66,0); 
0C6FE:  MOVLW  66
0C700:  MOVLB  2
0C702:  MOVWF  xE5
0C704:  CLRF   xE6
0C706:  MOVLB  0
0C708:  CALL   A198
....................          SAVE_SAT_LOG(CMD1,CMD2,CMD4); 
0C70C:  MOVFF  2DA,302
0C710:  MOVFF  2DB,303
0C714:  MOVFF  2DD,304
0C718:  CALL   3E06
....................          unsigned int16 op_duration = (unsigned int16)CMD4*60;          
0C71C:  MOVLB  2
0C71E:  CLRF   xE6
0C720:  MOVFF  2DD,2E5
0C724:  MOVFF  2E6,2F7
0C728:  MOVFF  2DD,2F6
0C72C:  CLRF   xF9
0C72E:  MOVLW  3C
0C730:  MOVWF  xF8
0C732:  MOVLB  0
0C734:  CALL   8082
0C738:  MOVFF  02,2E2
0C73C:  MOVFF  01,2E1
....................          UPLINK_SUCCESS_ADCS(); 
0C740:  CALL   A2BE
....................          ACK_for_COM[14] = 0x00;         
0C744:  MOVLB  2
0C746:  CLRF   x10
....................          //ADCS_TEST_OPERATION(op_duration,NOMAL_ADCS_MSN); 
....................          ADCS_TEST_OPERATION(op_duration,CMD2); 
0C748:  MOVFF  2E2,2E8
0C74C:  MOVFF  2E1,2E7
0C750:  MOVFF  2DB,2E9
0C754:  MOVLB  0
0C756:  CALL   A4F4
....................          STORE_ADRESS_DATA_TO_FLASH(); 
0C75A:  CALL   3AF8
....................          break; 
0C75E:  GOTO   CFC8
....................       case 0xA1:                                                                 //TLE data reception  
....................          REPLY_TO_COM(0x66,0); 
0C762:  MOVLW  66
0C764:  MOVLB  2
0C766:  MOVWF  xE5
0C768:  CLRF   xE6
0C76A:  MOVLB  0
0C76C:  CALL   A198
....................          UPLINK_SUCCESS_ADCS(); 
0C770:  CALL   A2BE
....................          SAVE_SAT_LOG(CMD1, 0, CMD2);                                            //save reset data and command          
0C774:  MOVFF  2DA,302
0C778:  MOVLB  3
0C77A:  CLRF   x03
0C77C:  MOVFF  2DB,304
0C780:  MOVLB  0
0C782:  CALL   3E06
....................          ACK_for_COM[14] = 0x00; 
0C786:  MOVLB  2
0C788:  CLRF   x10
....................          ADCS_TLE_JOIN(CMD2,CMD3,CMD4,CMD5,CMD6,CMD7);                           //Receive, assemble and save TLE data in flash 
0C78A:  MOVFF  2DB,2EA
0C78E:  MOVFF  2DC,2EB
0C792:  MOVFF  2DD,2EC
0C796:  MOVFF  2DE,2ED
0C79A:  MOVFF  2DF,2EE
0C79E:  MOVFF  2E0,2EF
0C7A2:  MOVLB  0
0C7A4:  CALL   A814
....................          break; 
0C7A8:  GOTO   CFC8
....................       case 0xA2:                                                                 //TLE data reception  
....................          REPLY_TO_COM(0x66,0); 
0C7AC:  MOVLW  66
0C7AE:  MOVLB  2
0C7B0:  MOVWF  xE5
0C7B2:  CLRF   xE6
0C7B4:  MOVLB  0
0C7B6:  CALL   A198
....................          UPLINK_SUCCESS_ADCS(); 
0C7BA:  CALL   A2BE
....................          SAVE_SAT_LOG(CMD1, 0, CMD2);                                            //save reset data and command          
0C7BE:  MOVFF  2DA,302
0C7C2:  MOVLB  3
0C7C4:  CLRF   x03
0C7C6:  MOVFF  2DB,304
0C7CA:  MOVLB  0
0C7CC:  CALL   3E06
....................          ACK_for_COM[14] = 0x00; 
0C7D0:  MOVLB  2
0C7D2:  CLRF   x10
....................          ADCS_TLE_TRANSFER();                                                    //TRANSFER TLE data to ADCS 
0C7D4:  MOVLB  0
0C7D6:  CALL   AB4A
....................          break;     
0C7DA:  GOTO   CFC8
....................       case 0xD0:                                                                 //transfer data from Mission BOSS 
....................          REPLY_TO_COM(0x66,0); 
0C7DE:  MOVLW  66
0C7E0:  MOVLB  2
0C7E2:  MOVWF  xE5
0C7E4:  CLRF   xE6
0C7E6:  MOVLB  0
0C7E8:  CALL   A198
....................          SAVE_SAT_LOG(CMD1, 0, CMD2);                                            //save reset data and command 
0C7EC:  MOVFF  2DA,302
0C7F0:  MOVLB  3
0C7F2:  CLRF   x03
0C7F4:  MOVFF  2DB,304
0C7F8:  MOVLB  0
0C7FA:  CALL   3E06
....................          UPLINK_SUCCESS_MBP();                                                   //put uplink succes flag in high and store flags 
0C7FE:  CALL   AC34
....................          ACK_for_COM[14] = 0x00;          
0C802:  MOVLB  2
0C804:  CLRF   x10
....................          DATACOLLECTION_TEST_OPERATION(CMD1,CMD2,CMD3,CMD4,CMD5,CMD6,CMD7);      //Turn ON MBP, get data, store in flash 
0C806:  MOVFF  2DA,2EB
0C80A:  MOVFF  2DB,2EC
0C80E:  MOVFF  2DC,2ED
0C812:  MOVFF  2DD,2EE
0C816:  MOVFF  2DE,2EF
0C81A:  MOVFF  2DF,2F0
0C81E:  MOVFF  2E0,2F1
0C822:  MOVLB  0
0C824:  CALL   AE94
....................          STORE_ADRESS_DATA_TO_FLASH();                                           //store the updated address 
0C828:  CALL   3AF8
....................          delay_ms(10); 
0C82C:  MOVLW  0A
0C82E:  MOVLB  3
0C830:  MOVWF  x19
0C832:  MOVLB  0
0C834:  CALL   1F78
....................          break;  
0C838:  BRA    CFC8
....................       case 0xD1:                                                                 //PSC Mission 
....................          REPLY_TO_COM(0x66,0); 
0C83A:  MOVLW  66
0C83C:  MOVLB  2
0C83E:  MOVWF  xE5
0C840:  CLRF   xE6
0C842:  MOVLB  0
0C844:  CALL   A198
....................          UPLINK_SUCCESS_MBP(); 
0C848:  CALL   AC34
....................          ACK_for_COM[14] = 0x00;       
0C84C:  MOVLB  2
0C84E:  CLRF   x10
....................          SAVE_SAT_LOG(CMD1,0,CMD2);                                              //save reset data and command 
0C850:  MOVFF  2DA,302
0C854:  MOVLB  3
0C856:  CLRF   x03
0C858:  MOVFF  2DB,304
0C85C:  MOVLB  0
0C85E:  CALL   3E06
....................          MISSION_TEST_OPERATION(CMD1,CMD2,CMD3,CMD4,CMD5,CMD6,CMD7);             //send array of commnands to MBP 
0C862:  MOVFF  2DA,2EB
0C866:  MOVFF  2DB,2EC
0C86A:  MOVFF  2DC,2ED
0C86E:  MOVFF  2DD,2EE
0C872:  MOVFF  2DE,2EF
0C876:  MOVFF  2DF,2F0
0C87A:  MOVFF  2E0,2F1
0C87E:  CALL   B03E
....................          delay_ms(10); 
0C882:  MOVLW  0A
0C884:  MOVLB  3
0C886:  MOVWF  x19
0C888:  MOVLB  0
0C88A:  CALL   1F78
....................          STORE_ADRESS_DATA_TO_FLASH();                                           //store the updated address 
0C88E:  CALL   3AF8
....................          break; 
0C892:  BRA    CFC8
....................       case 0xD2:                                                                 //TMCR Mission 
....................          REPLY_TO_COM(0x66,0); 
0C894:  MOVLW  66
0C896:  MOVLB  2
0C898:  MOVWF  xE5
0C89A:  CLRF   xE6
0C89C:  MOVLB  0
0C89E:  CALL   A198
....................          UPLINK_SUCCESS_MBP(); 
0C8A2:  CALL   AC34
....................          ACK_for_COM[14] = 0x00;      
0C8A6:  MOVLB  2
0C8A8:  CLRF   x10
....................          SAVE_SAT_LOG(CMD1,0,CMD2);                                              //save reset data and command 
0C8AA:  MOVFF  2DA,302
0C8AE:  MOVLB  3
0C8B0:  CLRF   x03
0C8B2:  MOVFF  2DB,304
0C8B6:  MOVLB  0
0C8B8:  CALL   3E06
....................          MISSION_TEST_OPERATION(CMD1,CMD2,CMD3,CMD4,CMD5,CMD6,CMD7);             //send array of commnands to MBP 
0C8BC:  MOVFF  2DA,2EB
0C8C0:  MOVFF  2DB,2EC
0C8C4:  MOVFF  2DC,2ED
0C8C8:  MOVFF  2DD,2EE
0C8CC:  MOVFF  2DE,2EF
0C8D0:  MOVFF  2DF,2F0
0C8D4:  MOVFF  2E0,2F1
0C8D8:  CALL   B03E
....................          delay_ms(10); 
0C8DC:  MOVLW  0A
0C8DE:  MOVLB  3
0C8E0:  MOVWF  x19
0C8E2:  MOVLB  0
0C8E4:  CALL   1F78
....................          STORE_ADRESS_DATA_TO_FLASH();                                           //store the updated address 
0C8E8:  CALL   3AF8
....................          break; 
0C8EC:  BRA    CFC8
....................       case 0xD3:                                                                 //NTU Mission 
....................          REPLY_TO_COM(0x66,0); 
0C8EE:  MOVLW  66
0C8F0:  MOVLB  2
0C8F2:  MOVWF  xE5
0C8F4:  CLRF   xE6
0C8F6:  MOVLB  0
0C8F8:  CALL   A198
....................          UPLINK_SUCCESS_MBP(); 
0C8FC:  CALL   AC34
....................          ACK_for_COM[14] = 0x00;       
0C900:  MOVLB  2
0C902:  CLRF   x10
....................          SAVE_SAT_LOG(CMD1,0,CMD2);                                              //save reset data and command 
0C904:  MOVFF  2DA,302
0C908:  MOVLB  3
0C90A:  CLRF   x03
0C90C:  MOVFF  2DB,304
0C910:  MOVLB  0
0C912:  CALL   3E06
....................          MISSION_TEST_OPERATION(CMD1,CMD2,CMD3,CMD4,CMD5,CMD6,CMD7);             //send array of commnands to MBP 
0C916:  MOVFF  2DA,2EB
0C91A:  MOVFF  2DB,2EC
0C91E:  MOVFF  2DC,2ED
0C922:  MOVFF  2DD,2EE
0C926:  MOVFF  2DE,2EF
0C92A:  MOVFF  2DF,2F0
0C92E:  MOVFF  2E0,2F1
0C932:  CALL   B03E
....................          delay_ms(10); 
0C936:  MOVLW  0A
0C938:  MOVLB  3
0C93A:  MOVWF  x19
0C93C:  MOVLB  0
0C93E:  CALL   1F78
....................          STORE_ADRESS_DATA_TO_FLASH();                                           //store the updated address 
0C942:  CALL   3AF8
....................          break; 
0C946:  BRA    CFC8
....................       case 0xD4:                                                                 //SF_WARD Mission 
....................          REPLY_TO_COM(0x66,0); 
0C948:  MOVLW  66
0C94A:  MOVLB  2
0C94C:  MOVWF  xE5
0C94E:  CLRF   xE6
0C950:  MOVLB  0
0C952:  CALL   A198
....................          UPLINK_SUCCESS_MBP(); 
0C956:  CALL   AC34
....................          ACK_for_COM[14] = 0x00;      
0C95A:  MOVLB  2
0C95C:  CLRF   x10
....................          SAVE_SAT_LOG(CMD1,0,CMD2);                                              //save reset data and command 
0C95E:  MOVFF  2DA,302
0C962:  MOVLB  3
0C964:  CLRF   x03
0C966:  MOVFF  2DB,304
0C96A:  MOVLB  0
0C96C:  CALL   3E06
....................          MISSION_TEST_OPERATION(CMD1,CMD2,CMD3,CMD4,CMD5,CMD6,CMD7);             //send array of commnands to MBP 
0C970:  MOVFF  2DA,2EB
0C974:  MOVFF  2DB,2EC
0C978:  MOVFF  2DC,2ED
0C97C:  MOVFF  2DD,2EE
0C980:  MOVFF  2DE,2EF
0C984:  MOVFF  2DF,2F0
0C988:  MOVFF  2E0,2F1
0C98C:  CALL   B03E
....................          delay_ms(10); 
0C990:  MOVLW  0A
0C992:  MOVLB  3
0C994:  MOVWF  x19
0C996:  MOVLB  0
0C998:  CALL   1F78
....................          STORE_ADRESS_DATA_TO_FLASH();                                           //store the updated address 
0C99C:  CALL   3AF8
....................          break; 
0C9A0:  BRA    CFC8
....................       case 0xD5:                                                                 //HNT Mission 
....................          REPLY_TO_COM(0x66,0); 
0C9A2:  MOVLW  66
0C9A4:  MOVLB  2
0C9A6:  MOVWF  xE5
0C9A8:  CLRF   xE6
0C9AA:  MOVLB  0
0C9AC:  CALL   A198
....................          UPLINK_SUCCESS_MBP(); 
0C9B0:  CALL   AC34
....................          ACK_for_COM[14] = 0x00;       
0C9B4:  MOVLB  2
0C9B6:  CLRF   x10
....................          SAVE_SAT_LOG(CMD1,0,CMD2);                                              //save reset data and command 
0C9B8:  MOVFF  2DA,302
0C9BC:  MOVLB  3
0C9BE:  CLRF   x03
0C9C0:  MOVFF  2DB,304
0C9C4:  MOVLB  0
0C9C6:  CALL   3E06
....................          MISSION_TEST_OPERATION(CMD1,CMD2,CMD3,CMD4,CMD5,CMD6,CMD7);             //send array of commnands to MBP 
0C9CA:  MOVFF  2DA,2EB
0C9CE:  MOVFF  2DB,2EC
0C9D2:  MOVFF  2DC,2ED
0C9D6:  MOVFF  2DD,2EE
0C9DA:  MOVFF  2DE,2EF
0C9DE:  MOVFF  2DF,2F0
0C9E2:  MOVFF  2E0,2F1
0C9E6:  CALL   B03E
....................          delay_ms(10); 
0C9EA:  MOVLW  0A
0C9EC:  MOVLB  3
0C9EE:  MOVWF  x19
0C9F0:  MOVLB  0
0C9F2:  CALL   1F78
....................          STORE_ADRESS_DATA_TO_FLASH();                                           //store the updated address 
0C9F6:  CALL   3AF8
....................          break; 
0C9FA:  BRA    CFC8
....................       case 0xD6:                                                                 //APRS_DP Mission 
....................          REPLY_TO_COM(0x66,0); 
0C9FC:  MOVLW  66
0C9FE:  MOVLB  2
0CA00:  MOVWF  xE5
0CA02:  CLRF   xE6
0CA04:  MOVLB  0
0CA06:  CALL   A198
....................          UPLINK_SUCCESS_MBP(); 
0CA0A:  CALL   AC34
....................          ACK_for_COM[14] = 0x00;       
0CA0E:  MOVLB  2
0CA10:  CLRF   x10
....................          SAVE_SAT_LOG(CMD1,0,CMD2);                                              //save reset data and command 
0CA12:  MOVFF  2DA,302
0CA16:  MOVLB  3
0CA18:  CLRF   x03
0CA1A:  MOVFF  2DB,304
0CA1E:  MOVLB  0
0CA20:  CALL   3E06
....................          MISSION_TEST_OPERATION(CMD1,CMD2,CMD3,CMD4,CMD5,CMD6,CMD7);             //send array of commnands to MBP 
0CA24:  MOVFF  2DA,2EB
0CA28:  MOVFF  2DB,2EC
0CA2C:  MOVFF  2DC,2ED
0CA30:  MOVFF  2DD,2EE
0CA34:  MOVFF  2DE,2EF
0CA38:  MOVFF  2DF,2F0
0CA3C:  MOVFF  2E0,2F1
0CA40:  CALL   B03E
....................          delay_ms(10); 
0CA44:  MOVLW  0A
0CA46:  MOVLB  3
0CA48:  MOVWF  x19
0CA4A:  MOVLB  0
0CA4C:  CALL   1F78
....................          STORE_ADRESS_DATA_TO_FLASH();                                           //store the updated address 
0CA50:  CALL   3AF8
....................          break; 
0CA54:  BRA    CFC8
....................       case 0xD7:                                                                 //dummy data for MBP 
....................          REPLY_TO_COM(0x66,0); 
0CA56:  MOVLW  66
0CA58:  MOVLB  2
0CA5A:  MOVWF  xE5
0CA5C:  CLRF   xE6
0CA5E:  MOVLB  0
0CA60:  CALL   A198
....................          UPLINK_SUCCESS_MBP(); 
0CA64:  CALL   AC34
....................          ACK_for_COM[14] = 0x00;      
0CA68:  MOVLB  2
0CA6A:  CLRF   x10
....................          SAVE_SAT_LOG(CMD1,0,CMD2);                                              //save reset data and command 
0CA6C:  MOVFF  2DA,302
0CA70:  MOVLB  3
0CA72:  CLRF   x03
0CA74:  MOVFF  2DB,304
0CA78:  MOVLB  0
0CA7A:  CALL   3E06
....................          MISSION_TEST_OPERATION(CMD1,CMD2,CMD3,CMD4,CMD5,CMD6,CMD7);             //send array of commnands to MBP 
0CA7E:  MOVFF  2DA,2EB
0CA82:  MOVFF  2DB,2EC
0CA86:  MOVFF  2DC,2ED
0CA8A:  MOVFF  2DD,2EE
0CA8E:  MOVFF  2DE,2EF
0CA92:  MOVFF  2DF,2F0
0CA96:  MOVFF  2E0,2F1
0CA9A:  CALL   B03E
....................          delay_ms(10); 
0CA9E:  MOVLW  0A
0CAA0:  MOVLB  3
0CAA2:  MOVWF  x19
0CAA4:  MOVLB  0
0CAA6:  CALL   1F78
....................          STORE_ADRESS_DATA_TO_FLASH();                                           //store the updated address 
0CAAA:  CALL   3AF8
....................          break; 
0CAAE:  BRA    CFC8
....................       case 0xDF:                                                                 //dummy data for MBP 
....................          REPLY_TO_COM(0x66,0); 
0CAB0:  MOVLW  66
0CAB2:  MOVLB  2
0CAB4:  MOVWF  xE5
0CAB6:  CLRF   xE6
0CAB8:  MOVLB  0
0CABA:  CALL   A198
....................          UPLINK_SUCCESS_MBP(); 
0CABE:  CALL   AC34
....................          ACK_for_COM[14] = 0x00;       
0CAC2:  MOVLB  2
0CAC4:  CLRF   x10
....................          SAVE_SAT_LOG(CMD1,0,CMD2);                                              //save reset data and command 
0CAC6:  MOVFF  2DA,302
0CACA:  MOVLB  3
0CACC:  CLRF   x03
0CACE:  MOVFF  2DB,304
0CAD2:  MOVLB  0
0CAD4:  CALL   3E06
....................          MISSION_TEST_OPERATION(CMD1,CMD2,CMD3,CMD4,CMD5,CMD6,CMD7);             //send array of commnands to MBP 
0CAD8:  MOVFF  2DA,2EB
0CADC:  MOVFF  2DB,2EC
0CAE0:  MOVFF  2DC,2ED
0CAE4:  MOVFF  2DD,2EE
0CAE8:  MOVFF  2DE,2EF
0CAEC:  MOVFF  2DF,2F0
0CAF0:  MOVFF  2E0,2F1
0CAF4:  CALL   B03E
....................          delay_ms(10); 
0CAF8:  MOVLW  0A
0CAFA:  MOVLB  3
0CAFC:  MOVWF  x19
0CAFE:  MOVLB  0
0CB00:  CALL   1F78
....................          STORE_ADRESS_DATA_TO_FLASH();                                           //store the updated address 
0CB04:  CALL   3AF8
....................          break; 
0CB08:  BRA    CFC8
....................       case 0xaa: 
....................          REPLY_TO_COM(0x66,0); 
0CB0A:  MOVLW  66
0CB0C:  MOVLB  2
0CB0E:  MOVWF  xE5
0CB10:  CLRF   xE6
0CB12:  MOVLB  0
0CB14:  CALL   A198
....................          SAVE_SAT_LOG(CMD1, 0, CMD2);                                            //save reset data and command 
0CB18:  MOVFF  2DA,302
0CB1C:  MOVLB  3
0CB1E:  CLRF   x03
0CB20:  MOVFF  2DB,304
0CB24:  MOVLB  0
0CB26:  CALL   3E06
....................          STORE_ADRESS_DATA_TO_FLASH();          
0CB2A:  CALL   3AF8
....................          UPLINK_SUCCESS_CHECK();                                                 //put in high uplink success flag and store flag info on flash 
0CB2E:  CALL   B1E6
....................          ACK_for_COM[14] = 0x00;          
0CB32:  MOVLB  2
0CB34:  CLRF   x10
....................          STORE_FLAG_INFO();                                                      //store flag info on flash 
0CB36:  MOVLB  0
0CB38:  CALL   5B0E
....................          WRITE_FLAG_to_EEPROM();                                                 //store flag info on EEPROM 
0CB3C:  CALL   5D22
....................          break; 
0CB40:  BRA    CFC8
....................       case 0x22: 
....................          UPLINK_SUCCESS_CHECK();                                                 //put in high uplink success flag and store flag info on flash 
0CB42:  CALL   B1E6
....................          ACK_for_COM[14] = 0x00; 
0CB46:  MOVLB  2
0CB48:  CLRF   x10
....................          REPLY_TO_COM(0x66,0);                                                   //ACK_for_COM[12] = 0x66 ACK_for_COM[13] = 0          
0CB4A:  MOVLW  66
0CB4C:  MOVWF  xE5
0CB4E:  CLRF   xE6
0CB50:  MOVLB  0
0CB52:  CALL   A198
....................          SAVE_SAT_LOG(CMD1, 0, CMD2);                                            //save reset data, cmd1 and cmd2 as sat log         
0CB56:  MOVFF  2DA,302
0CB5A:  MOVLB  3
0CB5C:  CLRF   x03
0CB5E:  MOVFF  2DB,304
0CB62:  MOVLB  0
0CB64:  CALL   3E06
....................          SEND_CMD_FOR_RESET_SATELLITE();                                         //save flag data, address data and RSV table in flash, send cmd for sat reset 
0CB68:  CALL   7C9E
....................          break; 
0CB6C:  BRA    CFC8
....................       case 0xb0: 
....................          REPLY_TO_COM(0x66,0); 
0CB6E:  MOVLW  66
0CB70:  MOVLB  2
0CB72:  MOVWF  xE5
0CB74:  CLRF   xE6
0CB76:  MOVLB  0
0CB78:  CALL   A198
....................          CLEAR_BC_FLAG();                                                        //BC_ATTEMPT_FLAG = 0        
0CB7C:  CALL   B1F8
....................          UPLINK_SUCCESS_CHECK();                                                 //put in high uplink success flag and store flag info on flash 
0CB80:  CALL   B1E6
....................          ACK_for_COM[14] = 0x00;         
0CB84:  MOVLB  2
0CB86:  CLRF   x10
....................          STORE_ADRESS_DATA_TO_FLASH();                                           //save address data to flash memory 
0CB88:  MOVLB  0
0CB8A:  CALL   3AF8
....................          STORE_FLAG_INFO();                                                      //save flag data to flash memory 
0CB8E:  CALL   5B0E
....................          WRITE_FLAG_to_EEPROM();                                                 //save flag data to EEPROM 
0CB92:  CALL   5D22
....................          break; 
0CB96:  BRA    CFC8
....................       case 0xb1: 
....................          REPLY_TO_COM(0x66,0); 
0CB98:  MOVLW  66
0CB9A:  MOVLB  2
0CB9C:  MOVWF  xE5
0CB9E:  CLRF   xE6
0CBA0:  MOVLB  0
0CBA2:  CALL   A198
....................          MAKE_BC_FLAG_1();                                                       //BC_ATTEMPT_FLAG = 1          
0CBA6:  CALL   B20C
....................          UPLINK_SUCCESS_CHECK();                                                 //put in high uplink success flag and store flag info on flash 
0CBAA:  CALL   B1E6
....................          ACK_for_COM[14] = 0x00;         
0CBAE:  MOVLB  2
0CBB0:  CLRF   x10
....................          STORE_ADRESS_DATA_TO_FLASH();                                           //save address data to flash memory 
0CBB2:  MOVLB  0
0CBB4:  CALL   3AF8
....................          STORE_FLAG_INFO();                                                      //save flag data to flash memory 
0CBB8:  CALL   5B0E
....................          WRITE_FLAG_to_EEPROM();                                                 //save flag data to EEPROM 
0CBBC:  CALL   5D22
....................          break; 
0CBC0:  BRA    CFC8
....................       case 0xb2: 
....................          REPLY_TO_COM(0x66,0); 
0CBC2:  MOVLW  66
0CBC4:  MOVLB  2
0CBC6:  MOVWF  xE5
0CBC8:  CLRF   xE6
0CBCA:  MOVLB  0
0CBCC:  CALL   A198
....................          MAKE_BC_FLAG_2();                                                       //BC_ATTEMPT_FLAG = 2          
0CBD0:  CALL   B222
....................          UPLINK_SUCCESS_CHECK();                                                 //put in high uplink success flag and store flag info on flash 
0CBD4:  CALL   B1E6
....................          ACK_for_COM[14] = 0x00;          
0CBD8:  MOVLB  2
0CBDA:  CLRF   x10
....................          STORE_ADRESS_DATA_TO_FLASH();                                           //save address data to flash memory 
0CBDC:  MOVLB  0
0CBDE:  CALL   3AF8
....................          STORE_FLAG_INFO();                                                      //save flag data to flash memory 
0CBE2:  CALL   5B0E
....................          WRITE_FLAG_to_EEPROM();                                                 //save flag data to EEPROM 
0CBE6:  CALL   5D22
....................          break; 
0CBEA:  BRA    CFC8
....................       case 0xb3: 
....................          REPLY_TO_COM(0x66,0); 
0CBEC:  MOVLW  66
0CBEE:  MOVLB  2
0CBF0:  MOVWF  xE5
0CBF2:  CLRF   xE6
0CBF4:  MOVLB  0
0CBF6:  CALL   A198
....................          MAKE_BC_FLAG_3();                                                       //BC_ATTEMPT_FLAG = 3         
0CBFA:  CALL   B238
....................          UPLINK_SUCCESS_CHECK();                                                 //put in high uplink success flag and store flag info on flash 
0CBFE:  CALL   B1E6
....................          ACK_for_COM[14] = 0x00;          
0CC02:  MOVLB  2
0CC04:  CLRF   x10
....................          STORE_ADRESS_DATA_TO_FLASH();                                           //save address data to flash memory 
0CC06:  MOVLB  0
0CC08:  CALL   3AF8
....................          STORE_FLAG_INFO();                                                      //save flag data to flash memory 
0CC0C:  CALL   5B0E
....................          WRITE_FLAG_to_EEPROM();                                                 //save flag data to EEPROM 
0CC10:  CALL   5D22
....................          break; 
0CC14:  BRA    CFC8
....................       case 0xb4: 
....................          REPLY_TO_COM(0x66,0); 
0CC16:  MOVLW  66
0CC18:  MOVLB  2
0CC1A:  MOVWF  xE5
0CC1C:  CLRF   xE6
0CC1E:  MOVLB  0
0CC20:  CALL   A198
....................          MAKE_BC_FLAG_4();                                                       //BC_ATTEMPT_FLAG = 4          
0CC24:  CALL   B24E
....................          UPLINK_SUCCESS_CHECK();                                                 //put in high uplink success flag and store flag info on flash 
0CC28:  CALL   B1E6
....................          ACK_for_COM[14] = 0x00;         
0CC2C:  MOVLB  2
0CC2E:  CLRF   x10
....................          STORE_ADRESS_DATA_TO_FLASH();                                           //save address data to flash memory 
0CC30:  MOVLB  0
0CC32:  CALL   3AF8
....................          STORE_FLAG_INFO();                                                      //save flag data to flash memory 
0CC36:  CALL   5B0E
....................          WRITE_FLAG_to_EEPROM();                                                 //save flag data to EEPROM 
0CC3A:  CALL   5D22
....................          break; 
0CC3E:  BRA    CFC8
....................       case 0x4b: 
....................          REPLY_TO_COM(0x66,0); 
0CC40:  MOVLW  66
0CC42:  MOVLB  2
0CC44:  MOVWF  xE5
0CC46:  CLRF   xE6
0CC48:  MOVLB  0
0CC4A:  CALL   A198
....................          UPLINK_SUCCESS_CHECK();                                                 //put in high uplink success flag and store flag info on flash 
0CC4E:  CALL   B1E6
....................          ACK_for_COM[14] = 0x00;          
0CC52:  MOVLB  2
0CC54:  CLRF   x10
....................          Count_Kill_Flag();                                                      //Enable if Kill_COUNTER > 4 
0CC56:  MOVLB  0
0CC58:  CALL   B264
....................          SAVE_SAT_LOG(CMD1, KILL_COUNTER, CMD2);                                 //save reset data and command 
0CC5C:  MOVFF  2DA,302
0CC60:  MOVFF  2C8,303
0CC64:  MOVFF  2DB,304
0CC68:  CALL   3E06
....................          break; 
0CC6C:  BRA    CFC8
....................       case 0xbb: 
....................          REPLY_TO_COM(0x66,0); 
0CC6E:  MOVLW  66
0CC70:  MOVLB  2
0CC72:  MOVWF  xE5
0CC74:  CLRF   xE6
0CC76:  MOVLB  0
0CC78:  CALL   A198
....................          UPLINK_SUCCESS_CHECK();                                                 //put in high uplink success flag and store flag info on flash 
0CC7C:  CALL   B1E6
....................          ACK_for_COM[14] = 0x00;       
0CC80:  MOVLB  2
0CC82:  CLRF   x10
....................          Disable_Kill();                                                         //Kill Switch OFF 
0CC84:  MOVLB  0
0CC86:  CALL   B2BA
....................          SAVE_SAT_LOG(CMD1, KILL_COUNTER, CMD2);                                 //save reset data and command 
0CC8A:  MOVFF  2DA,302
0CC8E:  MOVFF  2C8,303
0CC92:  MOVFF  2DB,304
0CC96:  CALL   3E06
....................          break; 
0CC9A:  BRA    CFC8
....................       case 0xfa: 
....................          REPLY_TO_COM(0x66,0); 
0CC9C:  MOVLW  66
0CC9E:  MOVLB  2
0CCA0:  MOVWF  xE5
0CCA2:  CLRF   xE6
0CCA4:  MOVLB  0
0CCA6:  CALL   A198
....................          UPLINK_SUCCESS_HSSC();                                                  //High Sampling Sensor Collect mission 
0CCAA:  CALL   B306
....................          ACK_for_COM[14] = 0x00;       
0CCAE:  MOVLB  2
0CCB0:  CLRF   x10
....................          SAVE_SAT_LOG(CMD1, 0, CMD2);          
0CCB2:  MOVFF  2DA,302
0CCB6:  MOVLB  3
0CCB8:  CLRF   x03
0CCBA:  MOVFF  2DB,304
0CCBE:  MOVLB  0
0CCC0:  CALL   3E06
....................          unsigned int16 duration = (unsigned int16)CMD2*12;                      //CMD2 is operation time(min), maxima cantidad de lecturas en 2 horas = 1440 
0CCC4:  MOVLB  2
0CCC6:  CLRF   xE6
0CCC8:  MOVFF  2DB,2E5
0CCCC:  MOVFF  2E6,2F7
0CCD0:  MOVFF  2DB,2F6
0CCD4:  CLRF   xF9
0CCD6:  MOVLW  0C
0CCD8:  MOVWF  xF8
0CCDA:  MOVLB  0
0CCDC:  CALL   8082
0CCE0:  MOVFF  02,2E4
0CCE4:  MOVFF  01,2E3
....................          if(duration > 1440){duration = 1440;}                                   // 12 readings in 1 min, every 5 seconds 
0CCE8:  MOVLB  2
0CCEA:  MOVF   xE4,W
0CCEC:  SUBLW  04
0CCEE:  BC    CD02
0CCF0:  XORLW  FF
0CCF2:  BNZ   CCFA
0CCF4:  MOVF   xE3,W
0CCF6:  SUBLW  A0
0CCF8:  BC    CD02
0CCFA:  MOVLW  05
0CCFC:  MOVWF  xE4
0CCFE:  MOVLW  A0
0CD00:  MOVWF  xE3
....................          HIGHSAMP_SENSOR_COLLECTION(duration);                                   //duration is how many times will be executed 
0CD02:  MOVFF  2E4,2E6
0CD06:  MOVFF  2E3,2E5
0CD0A:  MOVLB  0
0CD0C:  CALL   7E84
....................          STORE_ADRESS_DATA_TO_FLASH(); 
0CD10:  CALL   3AF8
....................          break; 
0CD14:  BRA    CFC8
....................       case 0x59:       
....................          //UPLINK_SUCCESS_CHECK(); 
....................          //ACK_for_COM[14] = 0x00;       
....................          REPLY_TO_COM(0x66,0);                                                   //send ACK to COM 
0CD16:  MOVLW  66
0CD18:  MOVLB  2
0CD1A:  MOVWF  xE5
0CD1C:  CLRF   xE6
0CD1E:  MOVLB  0
0CD20:  CALL   A198
....................          GIVE_ACCESS_SCF_Nsec(CMD2); 
0CD24:  MOVFF  2DB,2E5
0CD28:  CALL   B32C
....................          break; 
0CD2C:  BRA    CFC8
....................       case 0xee:       
....................          UPLINK_SUCCESS_CHECK(); 
0CD2E:  CALL   B1E6
....................          //ACK_for_COM[14] = 0x00;       
....................          ERASE_EEPROM_INFO();                                                    //erase 512byte(from 0x18000 to 0x181ff) 
0CD32:  CALL   B3E2
....................          MEMORY_ERASE();                                                         //erase OF, SCF, SMF flash memories 
0CD36:  CALL   B3FA
....................          break; 
0CD3A:  BRA    CFC8
....................       case 0x88: 
....................        
....................          //UPLINK_SUCCESS_CHECK(); 
....................          //ACK_for_COM[14] = 0x00; 
....................        
....................          CURRENT_FLAG_STATUS();                                                  //Print on PC port current flag status 
0CD3C:  CALL   2B8A
....................          break; 
0CD40:  BRA    CFC8
....................       case 0x9f: 
....................        
....................          //UPLINK_SUCCESS_CHECK(); 
....................          //ACK_for_COM[14] = 0x00; 
....................        
....................          /*maisun 
....................          Disp_RSV();                                                             //show the reserve status (reserve command and reserve table) 
....................          */ 
....................          break; 
0CD42:  BRA    CFC8
....................       case 0x50: 
....................          if(UPLINK_SUCCESS == 0){ACK_for_COM[14]=0x77;} 
0CD44:  MOVF   x7C,F
0CD46:  BNZ   CD50
0CD48:  MOVLW  77
0CD4A:  MOVLB  2
0CD4C:  MOVWF  x10
0CD4E:  MOVLB  0
....................          CW_RESPOND();                                                           //carga el array ACK_for_COM[] con los datos del CW 
0CD50:  CALL   4560
....................          break; 
0CD54:  BRA    CFC8
....................       case 0xe0: 
....................          REPLY_TO_COM(0x66,0); 
0CD56:  MOVLW  66
0CD58:  MOVLB  2
0CD5A:  MOVWF  xE5
0CD5C:  CLRF   xE6
0CD5E:  MOVLB  0
0CD60:  CALL   A198
....................          UPLINK_SUCCESS_CHECK();                                                 //put uplink success flag in HIGH and store flags 
0CD64:  CALL   B1E6
....................          ACK_for_COM[14] = 0x00;       
0CD68:  MOVLB  2
0CD6A:  CLRF   x10
....................          REFRESH_SECTOR_OF(CMD2,CMD3,CMD4,CMD5);                                 //Erase 1 sector of OBC flash, also this function contains saving log 
0CD6C:  MOVFF  2DB,2F6
0CD70:  MOVFF  2DC,2F7
0CD74:  MOVFF  2DD,2F8
0CD78:  MOVFF  2DE,2F9
0CD7C:  MOVLB  0
0CD7E:  CALL   A6A8
....................          break; 
0CD82:  BRA    CFC8
....................       case 0xe1: 
....................          REPLY_TO_COM(0x66,0); 
0CD84:  MOVLW  66
0CD86:  MOVLB  2
0CD88:  MOVWF  xE5
0CD8A:  CLRF   xE6
0CD8C:  MOVLB  0
0CD8E:  CALL   A198
....................          UPLINK_SUCCESS_CHECK();                                                 //put uplink success flag in HIGH and store flags 
0CD92:  CALL   B1E6
....................          ACK_for_COM[14] = 0x00;       
0CD96:  MOVLB  2
0CD98:  CLRF   x10
....................          REFRESH_SECTOR_SCF(CMD2,CMD3,CMD4,CMD5);                                //Erase 1 sector of COM flash, also this function contains saving log 
0CD9A:  MOVFF  2DB,2F6
0CD9E:  MOVFF  2DC,2F7
0CDA2:  MOVFF  2DD,2F8
0CDA6:  MOVFF  2DE,2F9
0CDAA:  MOVLB  0
0CDAC:  CALL   A75A
....................          break; 
0CDB0:  BRA    CFC8
....................       case 0xe2: 
....................          REPLY_TO_COM(0x66,0); 
0CDB2:  MOVLW  66
0CDB4:  MOVLB  2
0CDB6:  MOVWF  xE5
0CDB8:  CLRF   xE6
0CDBA:  MOVLB  0
0CDBC:  CALL   A198
....................          UPLINK_SUCCESS_CHECK();                                                 //put uplink success flag in HIGH and store flags 
0CDC0:  CALL   B1E6
....................          ACK_for_COM[14] = 0x00;         
0CDC4:  MOVLB  2
0CDC6:  CLRF   x10
....................          REFRESH_SECTOR_SMF(CMD2,CMD3,CMD4,CMD5);                                //Erase 1 sector of MISION flash, also this function contains saving log 
0CDC8:  MOVFF  2DB,2F6
0CDCC:  MOVFF  2DC,2F7
0CDD0:  MOVFF  2DD,2F8
0CDD4:  MOVFF  2DE,2F9
0CDD8:  MOVLB  0
0CDDA:  CALL   6B96
....................          break; 
0CDDE:  BRA    CFC8
....................       case 0x12: 
....................          REPLY_TO_COM(0x66,0); 
0CDE0:  MOVLW  66
0CDE2:  MOVLB  2
0CDE4:  MOVWF  xE5
0CDE6:  CLRF   xE6
0CDE8:  MOVLB  0
0CDEA:  CALL   A198
....................          UPLINK_SUCCESS_CHECK();                                                 //put uplink success flag in HIGH and store flags 
0CDEE:  CALL   B1E6
....................          ACK_for_COM[14] = 0x00;       
0CDF2:  MOVLB  2
0CDF4:  CLRF   x10
....................          TRANSFER_SECTOR_OF2SCF(CMD2,CMD3,CMD4,CMD5);                            //transfer 1 sector, also this function contains saving log 
0CDF6:  MOVFF  2DB,2E5
0CDFA:  MOVFF  2DC,2E6
0CDFE:  MOVFF  2DD,2E7
0CE02:  MOVFF  2DE,2E8
0CE06:  MOVLB  0
0CE08:  CALL   BBF4
....................          break; 
0CE0C:  BRA    CFC8
....................       case 0x13: 
....................          REPLY_TO_COM(0x66,0); 
0CE0E:  MOVLW  66
0CE10:  MOVLB  2
0CE12:  MOVWF  xE5
0CE14:  CLRF   xE6
0CE16:  MOVLB  0
0CE18:  CALL   A198
....................          UPLINK_SUCCESS_CHECK();                                                 //put uplink success flag in HIGH and store flags 
0CE1C:  CALL   B1E6
....................          ACK_for_COM[14] = 0x00;       
0CE20:  MOVLB  2
0CE22:  CLRF   x10
....................          TRANSFER_SECTOR_OF2SMF(CMD2,CMD3,CMD4,CMD5);                            //transfer 1 sector, also this function contains saving log 
0CE24:  MOVFF  2DB,2E5
0CE28:  MOVFF  2DC,2E6
0CE2C:  MOVFF  2DD,2E7
0CE30:  MOVFF  2DE,2E8
0CE34:  MOVLB  0
0CE36:  GOTO   BD78
....................          break; 
0CE3A:  BRA    CFC8
....................       case 0x21: 
....................          REPLY_TO_COM(0x66,0); 
0CE3C:  MOVLW  66
0CE3E:  MOVLB  2
0CE40:  MOVWF  xE5
0CE42:  CLRF   xE6
0CE44:  MOVLB  0
0CE46:  CALL   A198
....................          UPLINK_SUCCESS_CHECK();                                                 //put uplink success flag in HIGH and store flags 
0CE4A:  CALL   B1E6
....................          ACK_for_COM[14] = 0x00;          
0CE4E:  MOVLB  2
0CE50:  CLRF   x10
....................          TRANSFER_SECTOR_SCF2OF(CMD2,CMD3,CMD4,CMD5);                            //transfer 1 sector, also this function contains saving log 
0CE52:  MOVFF  2DB,2E5
0CE56:  MOVFF  2DC,2E6
0CE5A:  MOVFF  2DD,2E7
0CE5E:  MOVFF  2DE,2E8
0CE62:  MOVLB  0
0CE64:  CALL   BEFA
....................          break; 
0CE68:  BRA    CFC8
....................       case 0x23: 
....................          REPLY_TO_COM(0x66,0); 
0CE6A:  MOVLW  66
0CE6C:  MOVLB  2
0CE6E:  MOVWF  xE5
0CE70:  CLRF   xE6
0CE72:  MOVLB  0
0CE74:  CALL   A198
....................          UPLINK_SUCCESS_CHECK();                                                 //put uplink success flag in HIGH and store flags 
0CE78:  CALL   B1E6
....................          ACK_for_COM[14] = 0x00;          
0CE7C:  MOVLB  2
0CE7E:  CLRF   x10
....................          TRANSFER_SECTOR_SCF2SMF(CMD2,CMD3,CMD4,CMD5);                           //transfer 1 sector, this function contains saving log 
0CE80:  MOVFF  2DB,2E5
0CE84:  MOVFF  2DC,2E6
0CE88:  MOVFF  2DD,2E7
0CE8C:  MOVFF  2DE,2E8
0CE90:  MOVLB  0
0CE92:  GOTO   C07E
....................          break; 
0CE96:  BRA    CFC8
....................       case 0x31: 
....................          REPLY_TO_COM(0x66,0); 
0CE98:  MOVLW  66
0CE9A:  MOVLB  2
0CE9C:  MOVWF  xE5
0CE9E:  CLRF   xE6
0CEA0:  MOVLB  0
0CEA2:  CALL   A198
....................          UPLINK_SUCCESS_CHECK();                                                 //put uplink success flag in HIGH and store flags 
0CEA6:  CALL   B1E6
....................          ACK_for_COM[14] = 0x00;          
0CEAA:  MOVLB  2
0CEAC:  CLRF   x10
....................          TRANSFER_SECTOR_SMF2OF(CMD2,CMD3,CMD4,CMD5);                            //transfer 1 sector, also this function contains saving log 
0CEAE:  MOVFF  2DB,2E5
0CEB2:  MOVFF  2DC,2E6
0CEB6:  MOVFF  2DD,2E7
0CEBA:  MOVFF  2DE,2E8
0CEBE:  MOVLB  0
0CEC0:  GOTO   C208
....................          break; 
0CEC4:  BRA    CFC8
....................     case 0x32: 
....................          REPLY_TO_COM(0x66,0); 
0CEC6:  MOVLW  66
0CEC8:  MOVLB  2
0CECA:  MOVWF  xE5
0CECC:  CLRF   xE6
0CECE:  MOVLB  0
0CED0:  CALL   A198
....................          UPLINK_SUCCESS_CHECK();                                                 //put uplink success flag in HIGH and store flags 
0CED4:  CALL   B1E6
....................          ACK_for_COM[14] = 0x00;       
0CED8:  MOVLB  2
0CEDA:  CLRF   x10
....................          TRANSFER_SECTOR_SMF2SCF(CMD2,CMD3,CMD4,CMD5);                          //transfer 1 sector, also this function contains saving log 
0CEDC:  MOVFF  2DB,2E5
0CEE0:  MOVFF  2DC,2E6
0CEE4:  MOVFF  2DD,2E7
0CEE8:  MOVFF  2DE,2E8
0CEEC:  MOVLB  0
0CEEE:  CALL   C38A
....................          break; 
0CEF2:  BRA    CFC8
....................     case 0x01: 
....................          REPLY_TO_COM(0x66,0); 
0CEF4:  MOVLW  66
0CEF6:  MOVLB  2
0CEF8:  MOVWF  xE5
0CEFA:  CLRF   xE6
0CEFC:  MOVLB  0
0CEFE:  CALL   A198
....................          UPLINK_SUCCESS_CHECK();                                                 //put uplink success flag in HIGH and store flags 
0CF02:  CALL   B1E6
....................          ACK_for_COM[14] = 0x00;       
0CF06:  MOVLB  2
0CF08:  CLRF   x10
....................          Send_Command_to_FAB(0x01);                                              //send cmd to FAB to turn ON battery heater 
0CF0A:  MOVLW  01
0CF0C:  MOVWF  xFD
0CF0E:  MOVLB  0
0CF10:  CALL   4684
....................          fprintf(PC,"Sent CMD Heater ON\r\n"); 
0CF14:  MOVLW  F6
0CF16:  MOVWF  FF6
0CF18:  MOVLW  14
0CF1A:  MOVWF  FF7
0CF1C:  MOVLW  00
0CF1E:  MOVWF  FF8
0CF20:  CALL   362C
....................          break; 
0CF24:  BRA    CFC8
....................     case 0x02: 
....................          REPLY_TO_COM(0x66,0); 
0CF26:  MOVLW  66
0CF28:  MOVLB  2
0CF2A:  MOVWF  xE5
0CF2C:  CLRF   xE6
0CF2E:  MOVLB  0
0CF30:  CALL   A198
....................          UPLINK_SUCCESS_CHECK();                                                 //put uplink success flag in HIGH and store flags 
0CF34:  CALL   B1E6
....................          ACK_for_COM[14] = 0x00;       
0CF38:  MOVLB  2
0CF3A:  CLRF   x10
....................          Send_Command_to_FAB(0x02);                                              //send cmd to FAB to turn OFF battery heater 
0CF3C:  MOVLW  02
0CF3E:  MOVWF  xFD
0CF40:  MOVLB  0
0CF42:  CALL   4684
....................          fprintf(PC,"Sent CMD Heater OFF\r\n"); 
0CF46:  MOVLW  0C
0CF48:  MOVWF  FF6
0CF4A:  MOVLW  15
0CF4C:  MOVWF  FF7
0CF4E:  MOVLW  00
0CF50:  MOVWF  FF8
0CF52:  CALL   362C
....................          break; 
0CF56:  BRA    CFC8
....................     case 0x03: 
....................          REPLY_TO_COM(0x66,0); 
0CF58:  MOVLW  66
0CF5A:  MOVLB  2
0CF5C:  MOVWF  xE5
0CF5E:  CLRF   xE6
0CF60:  MOVLB  0
0CF62:  CALL   A198
....................          UPLINK_SUCCESS_CHECK();                                                 //put uplink success flag in HIGH and store flags 
0CF66:  CALL   B1E6
....................          ACK_for_COM[14] = 0x00;       
0CF6A:  MOVLB  2
0CF6C:  CLRF   x10
....................          Send_Command_to_FAB(0x03);                                              //send cmd to FAB to operate Heater in AUTO mode 
0CF6E:  MOVLW  03
0CF70:  MOVWF  xFD
0CF72:  MOVLB  0
0CF74:  CALL   4684
....................          fprintf(PC,"Sent CMD Heater AUTO\r\n"); 
0CF78:  MOVLW  22
0CF7A:  MOVWF  FF6
0CF7C:  MOVLW  15
0CF7E:  MOVWF  FF7
0CF80:  MOVLW  00
0CF82:  MOVWF  FF8
0CF84:  CALL   362C
....................          break;          
0CF88:  BRA    CFC8
....................      case 0x35: 
....................          REPLY_TO_COM(0x66,0); 
0CF8A:  MOVLW  66
0CF8C:  MOVLB  2
0CF8E:  MOVWF  xE5
0CF90:  CLRF   xE6
0CF92:  MOVLB  0
0CF94:  CALL   A198
....................          RSV_DATA_DOWNLOAD(CMD1,CMD2,CMD3,CMD4,CMD5,CMD6,CMD7);                  //send array of commnands to COM 
0CF98:  MOVFF  2DA,2E5
0CF9C:  MOVFF  2DB,2E6
0CFA0:  MOVFF  2DC,2E7
0CFA4:  MOVFF  2DD,2E8
0CFA8:  MOVFF  2DE,2E9
0CFAC:  MOVFF  2DF,2EA
0CFB0:  MOVFF  2E0,2EB
0CFB4:  CALL   C512
....................          fprintf(PC,"Sent CMD to COM for data download\r\n"); 
0CFB8:  MOVLW  3A
0CFBA:  MOVWF  FF6
0CFBC:  MOVLW  15
0CFBE:  MOVWF  FF7
0CFC0:  MOVLW  00
0CFC2:  MOVWF  FF8
0CFC4:  CALL   362C
....................          break; 
....................       
....................    } 
....................    return; 
0CFC8:  GOTO   DC4C (RETURN)
.................... } 
....................  
....................  
....................  
....................  
....................  
....................  
....................  
....................  
....................  
....................  
....................  
.................... void EXECUTE_MISSION_from_PC(int8 CMD1,int8 CMD2,int8 CMD3,int8 CMD4,int8 CMD5,int8 CMD6,int8 CMD7) 
.................... { 
....................    switch(CMD1) 
*
0CFEC:  MOVLB  2
0CFEE:  MOVF   xDA,W
0CFF0:  XORLW  C0
0CFF2:  MOVLB  0
0CFF4:  BTFSC  FD8.2
0CFF6:  BRA    D0E4
0CFF8:  XORLW  60
0CFFA:  BTFSC  FD8.2
0CFFC:  BRA    D110
0CFFE:  XORLW  01
0D000:  BTFSC  FD8.2
0D002:  BRA    D164
0D004:  XORLW  03
0D006:  BTFSC  FD8.2
0D008:  BRA    D19E
0D00A:  XORLW  72
0D00C:  BTFSC  FD8.2
0D00E:  BRA    D1C0
0D010:  XORLW  01
0D012:  BTFSC  FD8.2
0D014:  BRA    D21C
0D016:  XORLW  03
0D018:  BTFSC  FD8.2
0D01A:  BRA    D268
0D01C:  XORLW  01
0D01E:  BTFSC  FD8.2
0D020:  BRA    D2B4
0D022:  XORLW  07
0D024:  BTFSC  FD8.2
0D026:  BRA    D300
0D028:  XORLW  01
0D02A:  BTFSC  FD8.2
0D02C:  BRA    D34C
0D02E:  XORLW  03
0D030:  BTFSC  FD8.2
0D032:  BRA    D398
0D034:  XORLW  01
0D036:  BTFSC  FD8.2
0D038:  BRA    D3E4
0D03A:  XORLW  08
0D03C:  BTFSC  FD8.2
0D03E:  BRA    D430
0D040:  XORLW  46
0D042:  BTFSC  FD8.2
0D044:  BRA    D48A
0D046:  XORLW  33
0D048:  BTFSC  FD8.2
0D04A:  BRA    D4AA
0D04C:  XORLW  88
0D04E:  BTFSC  FD8.2
0D050:  BRA    D4D2
0D052:  XORLW  92
0D054:  BTFSC  FD8.2
0D056:  BRA    D4EE
0D058:  XORLW  01
0D05A:  BTFSC  FD8.2
0D05C:  BRA    D50A
0D05E:  XORLW  03
0D060:  BTFSC  FD8.2
0D062:  BRA    D526
0D064:  XORLW  01
0D066:  BTFSC  FD8.2
0D068:  BRA    D542
0D06A:  XORLW  07
0D06C:  BTFSC  FD8.2
0D06E:  BRA    D55E
0D070:  XORLW  FF
0D072:  BTFSC  FD8.2
0D074:  BRA    D57A
0D076:  XORLW  F0
0D078:  BTFSC  FD8.2
0D07A:  BRA    D59A
0D07C:  XORLW  41
0D07E:  BTFSC  FD8.2
0D080:  BRA    D5B6
0D082:  XORLW  A3
0D084:  BTFSC  FD8.2
0D086:  BRA    D622
0D088:  XORLW  B7
0D08A:  BTFSC  FD8.2
0D08C:  BRA    D636
0D08E:  XORLW  66
0D090:  BTFSC  FD8.2
0D092:  BRA    D644
0D094:  XORLW  17
0D096:  BTFSC  FD8.2
0D098:  BRA    D64E
0D09A:  XORLW  50
0D09C:  BTFSC  FD8.2
0D09E:  BRA    D654
0D0A0:  XORLW  A5
0D0A2:  BTFSC  FD8.2
0D0A4:  BRA    D65A
0D0A6:  XORLW  8A
0D0A8:  BTFSC  FD8.2
0D0AA:  BRA    D668
0D0AC:  XORLW  01
0D0AE:  BTFSC  FD8.2
0D0B0:  BRA    D688
0D0B2:  XORLW  03
0D0B4:  BTFSC  FD8.2
0D0B6:  BRA    D6A8
0D0B8:  XORLW  F0
0D0BA:  BTFSC  FD8.2
0D0BC:  BRA    D6C8
0D0BE:  XORLW  20
0D0C0:  BTFSC  FD8.2
0D0C2:  BRA    D6E8
0D0C4:  XORLW  13
0D0C6:  BTFSC  FD8.2
0D0C8:  BRA    D708
0D0CA:  XORLW  20
0D0CC:  BTFSC  FD8.2
0D0CE:  BRA    D728
0D0D0:  XORLW  03
0D0D2:  BTFSC  FD8.2
0D0D4:  BRA    D74C
0D0D6:  XORLW  01
0D0D8:  BTFSC  FD8.2
0D0DA:  BRA    D770
0D0DC:  XORLW  36
0D0DE:  BTFSC  FD8.2
0D0E0:  BRA    D794
0D0E2:  BRA    D7C4
....................    { 
....................       case 0xC0: 
....................        
....................          UPLINK_SUCCESS_CAM();                                                   //put uplink succes flag in high and store flags 
0D0E4:  CALL   A298
....................          ACK_for_COM[14] = 0x00; 
0D0E8:  MOVLB  2
0D0EA:  CLRF   x10
....................        
....................          SAVE_SAT_LOG(CMD1,0,CMD2);                                              //save reset data 
0D0EC:  MOVFF  2DA,302
0D0F0:  MOVLB  3
0D0F2:  CLRF   x03
0D0F4:  MOVFF  2DB,304
0D0F8:  MOVLB  0
0D0FA:  CALL   3E06
....................          CAM_TEST_OPERATION(CMD2);                                               //send command to CAM, execute mission and transfer data 
0D0FE:  MOVFF  2DB,2E5
0D102:  CALL   8326
....................          STORE_ADRESS_DATA_TO_FLASH();                                           //store the updated CAM address 
0D106:  CALL   3AF8
....................          UPLINK_SUCCESS_CHECK();                                                 //put uplink success flag in HIGH and store flags 
0D10A:  CALL   B1E6
....................          break; 
0D10E:  BRA    D7C4
....................       case 0xA0: 
....................  
....................          SAVE_SAT_LOG(CMD1,CMD2,CMD4); 
0D110:  MOVFF  2DA,302
0D114:  MOVFF  2DB,303
0D118:  MOVFF  2DD,304
0D11C:  CALL   3E06
....................          unsigned int16 op_duration = (unsigned int16)CMD4*60; 
0D120:  MOVLB  2
0D122:  CLRF   xE6
0D124:  MOVFF  2DD,2E5
0D128:  MOVFF  2E6,2F7
0D12C:  MOVFF  2DD,2F6
0D130:  CLRF   xF9
0D132:  MOVLW  3C
0D134:  MOVWF  xF8
0D136:  MOVLB  0
0D138:  CALL   8082
0D13C:  MOVFF  02,2E2
0D140:  MOVFF  01,2E1
....................           
....................          UPLINK_SUCCESS_ADCS(); 
0D144:  CALL   A2BE
....................          ACK_for_COM[14] = 0x00; 
0D148:  MOVLB  2
0D14A:  CLRF   x10
....................           
....................          //ADCS_TEST_OPERATION(op_duration,NOMAL_ADCS_MSN); 
....................          ADCS_TEST_OPERATION(op_duration,CMD2); 
0D14C:  MOVFF  2E2,2E8
0D150:  MOVFF  2E1,2E7
0D154:  MOVFF  2DB,2E9
0D158:  MOVLB  0
0D15A:  CALL   A4F4
....................          STORE_ADRESS_DATA_TO_FLASH(); 
0D15E:  CALL   3AF8
....................          break; 
0D162:  BRA    D7C4
....................       case 0xA1:                                                                 //TLE data reception  
....................          UPLINK_SUCCESS_ADCS(); 
0D164:  CALL   A2BE
....................          SAVE_SAT_LOG(CMD1, 0, CMD2);                                            //save reset data and command          
0D168:  MOVFF  2DA,302
0D16C:  MOVLB  3
0D16E:  CLRF   x03
0D170:  MOVFF  2DB,304
0D174:  MOVLB  0
0D176:  CALL   3E06
....................          ACK_for_COM[14] = 0x00; 
0D17A:  MOVLB  2
0D17C:  CLRF   x10
....................          ADCS_TLE_JOIN(CMD2,CMD3,CMD4,CMD5,CMD6,CMD7);                           //Receive, assemble and save TLE data in flash 
0D17E:  MOVFF  2DB,2EA
0D182:  MOVFF  2DC,2EB
0D186:  MOVFF  2DD,2EC
0D18A:  MOVFF  2DE,2ED
0D18E:  MOVFF  2DF,2EE
0D192:  MOVFF  2E0,2EF
0D196:  MOVLB  0
0D198:  CALL   A814
....................          break; 
0D19C:  BRA    D7C4
....................       case 0xA2:                                                                 //TLE data reception  
....................  
....................          UPLINK_SUCCESS_ADCS(); 
0D19E:  CALL   A2BE
....................          SAVE_SAT_LOG(CMD1, 0, CMD2);                                            //save reset data and command          
0D1A2:  MOVFF  2DA,302
0D1A6:  MOVLB  3
0D1A8:  CLRF   x03
0D1AA:  MOVFF  2DB,304
0D1AE:  MOVLB  0
0D1B0:  CALL   3E06
....................          ACK_for_COM[14] = 0x00; 
0D1B4:  MOVLB  2
0D1B6:  CLRF   x10
....................          ADCS_TLE_TRANSFER();                                                    //TRANSFER TLE data to ADCS 
0D1B8:  MOVLB  0
0D1BA:  CALL   AB4A
....................          break; 
0D1BE:  BRA    D7C4
....................       case 0xD0:                                                                 //transfer data from Mission BOSS 
....................          REPLY_TO_COM(0x66,0); 
0D1C0:  MOVLW  66
0D1C2:  MOVLB  2
0D1C4:  MOVWF  xE5
0D1C6:  CLRF   xE6
0D1C8:  MOVLB  0
0D1CA:  CALL   A198
....................          SAVE_SAT_LOG(CMD1, 0, CMD2);                                            //save reset data and command 
0D1CE:  MOVFF  2DA,302
0D1D2:  MOVLB  3
0D1D4:  CLRF   x03
0D1D6:  MOVFF  2DB,304
0D1DA:  MOVLB  0
0D1DC:  CALL   3E06
....................           
....................          UPLINK_SUCCESS_MBP();                                                   //put uplink succes flag in high and store flags 
0D1E0:  CALL   AC34
....................          ACK_for_COM[14] = 0x00; 
0D1E4:  MOVLB  2
0D1E6:  CLRF   x10
....................           
....................          DATACOLLECTION_TEST_OPERATION(CMD1,CMD2,CMD3,CMD4,CMD5,CMD6,CMD7);      //Turn ON MBP, get data, store in flash 
0D1E8:  MOVFF  2DA,2EB
0D1EC:  MOVFF  2DB,2EC
0D1F0:  MOVFF  2DC,2ED
0D1F4:  MOVFF  2DD,2EE
0D1F8:  MOVFF  2DE,2EF
0D1FC:  MOVFF  2DF,2F0
0D200:  MOVFF  2E0,2F1
0D204:  MOVLB  0
0D206:  CALL   AE94
....................          STORE_ADRESS_DATA_TO_FLASH();                                           //store the updated address 
0D20A:  CALL   3AF8
....................          delay_ms(10); 
0D20E:  MOVLW  0A
0D210:  MOVLB  3
0D212:  MOVWF  x19
0D214:  MOVLB  0
0D216:  CALL   1F78
....................          break;  
0D21A:  BRA    D7C4
....................       case 0xD1:                                                                 //PSC Mission 
....................        
....................          UPLINK_SUCCESS_MBP(); 
0D21C:  CALL   AC34
....................          ACK_for_COM[14] = 0x00; 
0D220:  MOVLB  2
0D222:  CLRF   x10
....................        
....................          SAVE_SAT_LOG(CMD1,0,CMD2);                                              //save reset data and command 
0D224:  MOVFF  2DA,302
0D228:  MOVLB  3
0D22A:  CLRF   x03
0D22C:  MOVFF  2DB,304
0D230:  MOVLB  0
0D232:  CALL   3E06
....................          MISSION_TEST_OPERATION(CMD1,CMD2,CMD3,CMD4,CMD5,CMD6,CMD7);             //send array of commnands to MBP 
0D236:  MOVFF  2DA,2EB
0D23A:  MOVFF  2DB,2EC
0D23E:  MOVFF  2DC,2ED
0D242:  MOVFF  2DD,2EE
0D246:  MOVFF  2DE,2EF
0D24A:  MOVFF  2DF,2F0
0D24E:  MOVFF  2E0,2F1
0D252:  CALL   B03E
....................          delay_ms(10); 
0D256:  MOVLW  0A
0D258:  MOVLB  3
0D25A:  MOVWF  x19
0D25C:  MOVLB  0
0D25E:  CALL   1F78
....................          STORE_ADRESS_DATA_TO_FLASH();                                           //store the updated address 
0D262:  CALL   3AF8
....................          break; 
0D266:  BRA    D7C4
....................       case 0xD2:                                                                 //TMCR Mission 
....................        
....................          UPLINK_SUCCESS_MBP(); 
0D268:  CALL   AC34
....................          ACK_for_COM[14] = 0x00; 
0D26C:  MOVLB  2
0D26E:  CLRF   x10
....................        
....................          SAVE_SAT_LOG(CMD1,0,CMD2);                                              //save reset data and command 
0D270:  MOVFF  2DA,302
0D274:  MOVLB  3
0D276:  CLRF   x03
0D278:  MOVFF  2DB,304
0D27C:  MOVLB  0
0D27E:  CALL   3E06
....................          MISSION_TEST_OPERATION(CMD1,CMD2,CMD3,CMD4,CMD5,CMD6,CMD7);             //send array of commnands to MBP 
0D282:  MOVFF  2DA,2EB
0D286:  MOVFF  2DB,2EC
0D28A:  MOVFF  2DC,2ED
0D28E:  MOVFF  2DD,2EE
0D292:  MOVFF  2DE,2EF
0D296:  MOVFF  2DF,2F0
0D29A:  MOVFF  2E0,2F1
0D29E:  CALL   B03E
....................          delay_ms(10); 
0D2A2:  MOVLW  0A
0D2A4:  MOVLB  3
0D2A6:  MOVWF  x19
0D2A8:  MOVLB  0
0D2AA:  CALL   1F78
....................          STORE_ADRESS_DATA_TO_FLASH();                                           //store the updated address 
0D2AE:  CALL   3AF8
....................          break; 
0D2B2:  BRA    D7C4
....................       case 0xD3:                                                                 //NTU Mission 
....................        
....................          UPLINK_SUCCESS_MBP(); 
0D2B4:  CALL   AC34
....................          ACK_for_COM[14] = 0x00; 
0D2B8:  MOVLB  2
0D2BA:  CLRF   x10
....................        
....................          SAVE_SAT_LOG(CMD1,0,CMD2);                                              //save reset data and command 
0D2BC:  MOVFF  2DA,302
0D2C0:  MOVLB  3
0D2C2:  CLRF   x03
0D2C4:  MOVFF  2DB,304
0D2C8:  MOVLB  0
0D2CA:  CALL   3E06
....................          MISSION_TEST_OPERATION(CMD1,CMD2,CMD3,CMD4,CMD5,CMD6,CMD7);             //send array of commnands to MBP 
0D2CE:  MOVFF  2DA,2EB
0D2D2:  MOVFF  2DB,2EC
0D2D6:  MOVFF  2DC,2ED
0D2DA:  MOVFF  2DD,2EE
0D2DE:  MOVFF  2DE,2EF
0D2E2:  MOVFF  2DF,2F0
0D2E6:  MOVFF  2E0,2F1
0D2EA:  CALL   B03E
....................          delay_ms(10); 
0D2EE:  MOVLW  0A
0D2F0:  MOVLB  3
0D2F2:  MOVWF  x19
0D2F4:  MOVLB  0
0D2F6:  CALL   1F78
....................          STORE_ADRESS_DATA_TO_FLASH();                                           //store the updated address 
0D2FA:  CALL   3AF8
....................          break; 
0D2FE:  BRA    D7C4
....................       case 0xD4:                                                                 //SF_WARD Mission 
....................        
....................          UPLINK_SUCCESS_MBP(); 
0D300:  CALL   AC34
....................          ACK_for_COM[14] = 0x00; 
0D304:  MOVLB  2
0D306:  CLRF   x10
....................        
....................          SAVE_SAT_LOG(CMD1,0,CMD2);                                              //save reset data and command 
0D308:  MOVFF  2DA,302
0D30C:  MOVLB  3
0D30E:  CLRF   x03
0D310:  MOVFF  2DB,304
0D314:  MOVLB  0
0D316:  CALL   3E06
....................          MISSION_TEST_OPERATION(CMD1,CMD2,CMD3,CMD4,CMD5,CMD6,CMD7);             //send array of commnands to MBP 
0D31A:  MOVFF  2DA,2EB
0D31E:  MOVFF  2DB,2EC
0D322:  MOVFF  2DC,2ED
0D326:  MOVFF  2DD,2EE
0D32A:  MOVFF  2DE,2EF
0D32E:  MOVFF  2DF,2F0
0D332:  MOVFF  2E0,2F1
0D336:  CALL   B03E
....................          delay_ms(10); 
0D33A:  MOVLW  0A
0D33C:  MOVLB  3
0D33E:  MOVWF  x19
0D340:  MOVLB  0
0D342:  CALL   1F78
....................          STORE_ADRESS_DATA_TO_FLASH();                                           //store the updated address 
0D346:  CALL   3AF8
....................          break; 
0D34A:  BRA    D7C4
....................       case 0xD5:                                                                 //HNT Mission 
....................        
....................          UPLINK_SUCCESS_MBP(); 
0D34C:  CALL   AC34
....................          ACK_for_COM[14] = 0x00; 
0D350:  MOVLB  2
0D352:  CLRF   x10
....................        
....................          SAVE_SAT_LOG(CMD1,0,CMD2);                                              //save reset data and command 
0D354:  MOVFF  2DA,302
0D358:  MOVLB  3
0D35A:  CLRF   x03
0D35C:  MOVFF  2DB,304
0D360:  MOVLB  0
0D362:  CALL   3E06
....................          MISSION_TEST_OPERATION(CMD1,CMD2,CMD3,CMD4,CMD5,CMD6,CMD7);             //send array of commnands to MBP 
0D366:  MOVFF  2DA,2EB
0D36A:  MOVFF  2DB,2EC
0D36E:  MOVFF  2DC,2ED
0D372:  MOVFF  2DD,2EE
0D376:  MOVFF  2DE,2EF
0D37A:  MOVFF  2DF,2F0
0D37E:  MOVFF  2E0,2F1
0D382:  CALL   B03E
....................          delay_ms(10); 
0D386:  MOVLW  0A
0D388:  MOVLB  3
0D38A:  MOVWF  x19
0D38C:  MOVLB  0
0D38E:  CALL   1F78
....................          STORE_ADRESS_DATA_TO_FLASH();                                           //store the updated address 
0D392:  CALL   3AF8
....................          break; 
0D396:  BRA    D7C4
....................       case 0xD6:                                                                 //APRS_DP Mission 
....................        
....................          UPLINK_SUCCESS_MBP(); 
0D398:  CALL   AC34
....................          ACK_for_COM[14] = 0x00; 
0D39C:  MOVLB  2
0D39E:  CLRF   x10
....................        
....................          SAVE_SAT_LOG(CMD1,0,CMD2);                                              //save reset data and command 
0D3A0:  MOVFF  2DA,302
0D3A4:  MOVLB  3
0D3A6:  CLRF   x03
0D3A8:  MOVFF  2DB,304
0D3AC:  MOVLB  0
0D3AE:  CALL   3E06
....................          MISSION_TEST_OPERATION(CMD1,CMD2,CMD3,CMD4,CMD5,CMD6,CMD7);             //send array of commnands to MBP 
0D3B2:  MOVFF  2DA,2EB
0D3B6:  MOVFF  2DB,2EC
0D3BA:  MOVFF  2DC,2ED
0D3BE:  MOVFF  2DD,2EE
0D3C2:  MOVFF  2DE,2EF
0D3C6:  MOVFF  2DF,2F0
0D3CA:  MOVFF  2E0,2F1
0D3CE:  CALL   B03E
....................          delay_ms(10); 
0D3D2:  MOVLW  0A
0D3D4:  MOVLB  3
0D3D6:  MOVWF  x19
0D3D8:  MOVLB  0
0D3DA:  CALL   1F78
....................          STORE_ADRESS_DATA_TO_FLASH();                                           //store the updated address 
0D3DE:  CALL   3AF8
....................          break; 
0D3E2:  BRA    D7C4
....................       case 0xD7:                                                                 //dummy data for MBP 
....................        
....................          UPLINK_SUCCESS_MBP(); 
0D3E4:  CALL   AC34
....................          ACK_for_COM[14] = 0x00; 
0D3E8:  MOVLB  2
0D3EA:  CLRF   x10
....................        
....................          SAVE_SAT_LOG(CMD1,0,CMD2);                                              //save reset data and command 
0D3EC:  MOVFF  2DA,302
0D3F0:  MOVLB  3
0D3F2:  CLRF   x03
0D3F4:  MOVFF  2DB,304
0D3F8:  MOVLB  0
0D3FA:  CALL   3E06
....................          MISSION_TEST_OPERATION(CMD1,CMD2,CMD3,CMD4,CMD5,CMD6,CMD7);             //send array of commnands to MBP 
0D3FE:  MOVFF  2DA,2EB
0D402:  MOVFF  2DB,2EC
0D406:  MOVFF  2DC,2ED
0D40A:  MOVFF  2DD,2EE
0D40E:  MOVFF  2DE,2EF
0D412:  MOVFF  2DF,2F0
0D416:  MOVFF  2E0,2F1
0D41A:  CALL   B03E
....................          delay_ms(10); 
0D41E:  MOVLW  0A
0D420:  MOVLB  3
0D422:  MOVWF  x19
0D424:  MOVLB  0
0D426:  CALL   1F78
....................          STORE_ADRESS_DATA_TO_FLASH();                                           //store the updated address 
0D42A:  CALL   3AF8
....................          break; 
0D42E:  BRA    D7C4
....................       case 0xDF:                                                                 //dummy data for MBP 
....................          REPLY_TO_COM(0x66,0); 
0D430:  MOVLW  66
0D432:  MOVLB  2
0D434:  MOVWF  xE5
0D436:  CLRF   xE6
0D438:  MOVLB  0
0D43A:  CALL   A198
....................          UPLINK_SUCCESS_MBP(); 
0D43E:  CALL   AC34
....................          ACK_for_COM[14] = 0x00; 
0D442:  MOVLB  2
0D444:  CLRF   x10
....................        
....................          SAVE_SAT_LOG(CMD1,0,CMD2);                                              //save reset data and command 
0D446:  MOVFF  2DA,302
0D44A:  MOVLB  3
0D44C:  CLRF   x03
0D44E:  MOVFF  2DB,304
0D452:  MOVLB  0
0D454:  CALL   3E06
....................          MISSION_TEST_OPERATION(CMD1,CMD2,CMD3,CMD4,CMD5,CMD6,CMD7);             //send array of commnands to MBP 
0D458:  MOVFF  2DA,2EB
0D45C:  MOVFF  2DB,2EC
0D460:  MOVFF  2DC,2ED
0D464:  MOVFF  2DD,2EE
0D468:  MOVFF  2DE,2EF
0D46C:  MOVFF  2DF,2F0
0D470:  MOVFF  2E0,2F1
0D474:  CALL   B03E
....................          delay_ms(10); 
0D478:  MOVLW  0A
0D47A:  MOVLB  3
0D47C:  MOVWF  x19
0D47E:  MOVLB  0
0D480:  CALL   1F78
....................          STORE_ADRESS_DATA_TO_FLASH();                                           //store the updated address 
0D484:  CALL   3AF8
....................          break; 
0D488:  BRA    D7C4
....................       case 0x99: 
....................        
....................          UPLINK_SUCCESS_CHECK(); 
0D48A:  CALL   B1E6
....................          ACK_for_COM[14] = 0x00; 
0D48E:  MOVLB  2
0D490:  CLRF   x10
....................        
....................          SAVE_SAT_LOG(CMD1,0,CMD2); 
0D492:  MOVFF  2DA,302
0D496:  MOVLB  3
0D498:  CLRF   x03
0D49A:  MOVFF  2DB,304
0D49E:  MOVLB  0
0D4A0:  CALL   3E06
....................          CURRENT_ADDRESS_OF_FLASH();                                             //show address info address on PC 
0D4A4:  CALL   2DFC
....................          break; 
0D4A8:  BRA    D7C4
....................       case 0xaa: 
....................        
....................          UPLINK_SUCCESS_CHECK(); 
0D4AA:  CALL   B1E6
....................          ACK_for_COM[14] = 0x00; 
0D4AE:  MOVLB  2
0D4B0:  CLRF   x10
....................        
....................          SAVE_SAT_LOG(CMD1,0,CMD2);                                              //save reset data 
0D4B2:  MOVFF  2DA,302
0D4B6:  MOVLB  3
0D4B8:  CLRF   x03
0D4BA:  MOVFF  2DB,304
0D4BE:  MOVLB  0
0D4C0:  CALL   3E06
....................          STORE_ADRESS_DATA_TO_FLASH();                                           //save address data to flash memory 
0D4C4:  CALL   3AF8
....................          STORE_FLAG_INFO();                                                      //store flag info on flash 
0D4C8:  CALL   5B0E
....................          WRITE_FLAG_to_EEPROM();                                                 //store flag info on EEPROM 
0D4CC:  CALL   5D22
....................          break; 
0D4D0:  BRA    D7C4
....................       case 0x22: 
....................        
....................          UPLINK_SUCCESS_CHECK(); 
0D4D2:  CALL   B1E6
....................          //ACK_for_COM[14] = 0x00; 
....................        
....................          SAVE_SAT_LOG(CMD1,0,CMD2);                                              //save reset data, cmd1 and cmd2 as sat log 
0D4D6:  MOVFF  2DA,302
0D4DA:  MOVLB  3
0D4DC:  CLRF   x03
0D4DE:  MOVFF  2DB,304
0D4E2:  MOVLB  0
0D4E4:  CALL   3E06
....................          SEND_CMD_FOR_RESET_SATELLITE();                                         //save flag data, address data and RSV table in flash, send cmd for sat reset 
0D4E8:  CALL   7C9E
....................          break;  
0D4EC:  BRA    D7C4
....................       case 0xb0: 
....................        
....................          UPLINK_SUCCESS_CHECK();                                                 //put in high uplink success flag and store flag info on flash 
0D4EE:  CALL   B1E6
....................          ACK_for_COM[14] = 0x00; 
0D4F2:  MOVLB  2
0D4F4:  CLRF   x10
....................        
....................          CLEAR_BC_FLAG();                                                        //BC_ATTEMPT_FLAG = 0 
0D4F6:  MOVLB  0
0D4F8:  CALL   B1F8
....................          STORE_ADRESS_DATA_TO_FLASH();                                           //save address data to flash memory 
0D4FC:  CALL   3AF8
....................          STORE_FLAG_INFO();                                                      //save flag data to flash memory 
0D500:  CALL   5B0E
....................          WRITE_FLAG_to_EEPROM();                                                 //save flag data to EEPROM 
0D504:  CALL   5D22
....................          break; 
0D508:  BRA    D7C4
....................       case 0xb1: 
....................        
....................          UPLINK_SUCCESS_CHECK();                                                 //put in high uplink success flag and store flag info on flash 
0D50A:  CALL   B1E6
....................          ACK_for_COM[14] = 0x00; 
0D50E:  MOVLB  2
0D510:  CLRF   x10
....................        
....................          MAKE_BC_FLAG_1();                                                       //BC_ATTEMPT_FLAG = 1 
0D512:  MOVLB  0
0D514:  CALL   B20C
....................          STORE_ADRESS_DATA_TO_FLASH();                                           //save address data to flash memory 
0D518:  CALL   3AF8
....................          STORE_FLAG_INFO();                                                      //save flag data to flash memory 
0D51C:  CALL   5B0E
....................          WRITE_FLAG_to_EEPROM();                                                 //save flag data to EEPROM 
0D520:  CALL   5D22
....................          break; 
0D524:  BRA    D7C4
....................       case 0xb2: 
....................        
....................          UPLINK_SUCCESS_CHECK();                                                 //put in high uplink success flag and store flag info on flash 
0D526:  CALL   B1E6
....................          ACK_for_COM[14] = 0x00; 
0D52A:  MOVLB  2
0D52C:  CLRF   x10
....................        
....................          MAKE_BC_FLAG_2();                                                       //BC_ATTEMPT_FLAG = 2 
0D52E:  MOVLB  0
0D530:  CALL   B222
....................          STORE_ADRESS_DATA_TO_FLASH();                                           //save address data to flash memory 
0D534:  CALL   3AF8
....................          STORE_FLAG_INFO();                                                      //save flag data to flash memory 
0D538:  CALL   5B0E
....................          WRITE_FLAG_to_EEPROM();                                                 //save flag data to EEPROM 
0D53C:  CALL   5D22
....................          break;                
0D540:  BRA    D7C4
....................       case 0xb3: 
....................        
....................          UPLINK_SUCCESS_CHECK();                                                 //put in high uplink success flag and store flag info on flash 
0D542:  CALL   B1E6
....................          ACK_for_COM[14] = 0x00; 
0D546:  MOVLB  2
0D548:  CLRF   x10
....................           
....................          MAKE_BC_FLAG_3();                                                       //BC_ATTEMPT_FLAG = 3 
0D54A:  MOVLB  0
0D54C:  CALL   B238
....................          STORE_ADRESS_DATA_TO_FLASH();                                           //save address data to flash memory 
0D550:  CALL   3AF8
....................          STORE_FLAG_INFO();                                                      //save flag data to flash memory 
0D554:  CALL   5B0E
....................          WRITE_FLAG_to_EEPROM();                                                 //save flag data to EEPROM 
0D558:  CALL   5D22
....................          break; 
0D55C:  BRA    D7C4
....................       case 0xb4: 
....................        
....................          UPLINK_SUCCESS_CHECK();                                                 //put in high uplink success flag and store flag info on flash 
0D55E:  CALL   B1E6
....................          ACK_for_COM[14] = 0x00; 
0D562:  MOVLB  2
0D564:  CLRF   x10
....................        
....................          MAKE_BC_FLAG_4();                                                       //BC_ATTEMPT_FLAG = 4 
0D566:  MOVLB  0
0D568:  CALL   B24E
....................          STORE_ADRESS_DATA_TO_FLASH();                                           //save address data to flash memory 
0D56C:  CALL   3AF8
....................          STORE_FLAG_INFO();                                                      //save flag data to flash memory 
0D570:  CALL   5B0E
....................          WRITE_FLAG_to_EEPROM();                                                 //save flag data to EEPROM 
0D574:  CALL   5D22
....................          break;  
0D578:  BRA    D7C4
....................       case 0x4b: 
....................        
....................          UPLINK_SUCCESS_CHECK();                                                 //put in high uplink success flag and store flag info on flash 
0D57A:  CALL   B1E6
....................          ACK_for_COM[14] = 0x00; 
0D57E:  MOVLB  2
0D580:  CLRF   x10
....................        
....................          SAVE_SAT_LOG(CMD1,0,CMD2);                                              // save reset data and commands 
0D582:  MOVFF  2DA,302
0D586:  MOVLB  3
0D588:  CLRF   x03
0D58A:  MOVFF  2DB,304
0D58E:  MOVLB  0
0D590:  CALL   3E06
....................          Count_Kill_Flag();                                                      //Enable if Kill_COUNTER > 4 
0D594:  CALL   B264
....................          break; 
0D598:  BRA    D7C4
....................       case 0xbb: 
....................        
....................          UPLINK_SUCCESS_CHECK();                                                 //put in high uplink success flag and store flag info on flash 
0D59A:  CALL   B1E6
....................          //ACK_for_COM[14] = 0x00; 
....................        
....................          SAVE_SAT_LOG(CMD1, 0, CMD2);                                            // save reset data and commands 
0D59E:  MOVFF  2DA,302
0D5A2:  MOVLB  3
0D5A4:  CLRF   x03
0D5A6:  MOVFF  2DB,304
0D5AA:  MOVLB  0
0D5AC:  CALL   3E06
....................          Disable_Kill();                                                         //kill switch OFF 
0D5B0:  CALL   B2BA
....................          break; 
0D5B4:  BRA    D7C4
....................       case 0xfa: 
....................        
....................          UPLINK_SUCCESS_HSSC();                                                  //High Sampling Sensor Collect mission 
0D5B6:  CALL   B306
....................          ACK_for_COM[14] = 0x00; 
0D5BA:  MOVLB  2
0D5BC:  CLRF   x10
....................        
....................          SAVE_SAT_LOG(CMD1,0,CMD2); 
0D5BE:  MOVFF  2DA,302
0D5C2:  MOVLB  3
0D5C4:  CLRF   x03
0D5C6:  MOVFF  2DB,304
0D5CA:  MOVLB  0
0D5CC:  CALL   3E06
....................           
....................          unsigned int16 duration = (unsigned int16)CMD2*12;                      //CMD2 is operation time(min), maximum duration = 1440 
0D5D0:  MOVLB  2
0D5D2:  CLRF   xE6
0D5D4:  MOVFF  2DB,2E5
0D5D8:  MOVFF  2E6,2F7
0D5DC:  MOVFF  2DB,2F6
0D5E0:  CLRF   xF9
0D5E2:  MOVLW  0C
0D5E4:  MOVWF  xF8
0D5E6:  MOVLB  0
0D5E8:  CALL   8082
0D5EC:  MOVFF  02,2E4
0D5F0:  MOVFF  01,2E3
....................          if(duration > 1440){duration = 1440;} 
0D5F4:  MOVLB  2
0D5F6:  MOVF   xE4,W
0D5F8:  SUBLW  04
0D5FA:  BC    D60E
0D5FC:  XORLW  FF
0D5FE:  BNZ   D606
0D600:  MOVF   xE3,W
0D602:  SUBLW  A0
0D604:  BC    D60E
0D606:  MOVLW  05
0D608:  MOVWF  xE4
0D60A:  MOVLW  A0
0D60C:  MOVWF  xE3
....................          HIGHSAMP_SENSOR_COLLECTION(duration); 
0D60E:  MOVFF  2E4,2E6
0D612:  MOVFF  2E3,2E5
0D616:  MOVLB  0
0D618:  CALL   7E84
....................          //Turn_OFF_ADCS(); 
....................          STORE_ADRESS_DATA_TO_FLASH(); 
0D61C:  CALL   3AF8
....................          break; 
0D620:  BRA    D7C4
....................       case 0x59: 
....................        
....................          UPLINK_SUCCESS_CHECK(); 
0D622:  CALL   B1E6
....................          ACK_for_COM[14] = 0x00;                                                 //send ACK to COM 
0D626:  MOVLB  2
0D628:  CLRF   x10
....................        
....................          GIVE_ACCESS_SCF_Nsec(CMD2); 
0D62A:  MOVFF  2DB,2E5
0D62E:  MOVLB  0
0D630:  CALL   B32C
....................          break;  
0D634:  BRA    D7C4
....................       case 0xee: 
....................          UPLINK_SUCCESS_CHECK(); 
0D636:  CALL   B1E6
....................          //ACK_for_COM[14] = 0x00;    
....................          ERASE_EEPROM_INFO();                                                    //erase 512byte(from 0x18000 to 0x181ff) 
0D63A:  CALL   B3E2
....................          MEMORY_ERASE();                                                         //erase OF, SCF, SMF flash memories 
0D63E:  CALL   B3FA
....................          break;  
0D642:  BRA    D7C4
....................       case 0x88: 
....................        
....................          UPLINK_SUCCESS_CHECK(); 
0D644:  CALL   B1E6
....................          //ACK_for_COM[14] = 0x00; 
....................        
....................          CURRENT_FLAG_STATUS();                                                  //Print on PC port current flag status 
0D648:  CALL   2B8A
....................          break;    
0D64C:  BRA    D7C4
....................       case 0x9f: 
....................        
....................          UPLINK_SUCCESS_CHECK(); 
0D64E:  CALL   B1E6
....................          //ACK_for_COM[14] = 0x00; 
....................        
....................          /*maisun 
....................          Disp_RSV();                                                             //show the reserve status (reserve command and reserve table) 
....................          */ 
....................          break; 
0D652:  BRA    D7C4
....................       case 0xcf:                                                                 //only for execution from PC 
....................        
....................          UPLINK_SUCCESS_CHECK(); 
0D654:  CALL   B1E6
....................          //ACK_for_COM[14] = 0x00; 
....................        
....................          /*maisun 
....................          table_refresh();                                                        //table and flags are come back to default 
....................          */ 
....................          break; 
0D658:  BRA    D7C4
....................       case 0x6a: 
....................        
....................          UPLINK_SUCCESS_CHECK();                                                 //put uplink success flag in HIGH and store flags 
0D65A:  CALL   B1E6
....................          ACK_for_COM[14] = 0x00; 
0D65E:  MOVLB  2
0D660:  CLRF   x10
....................        
....................          RESET_FLAG_DATA();                                                      //clear all flags and save 
0D662:  MOVLB  0
0D664:  BRA    CFCC
....................          break; 
0D666:  BRA    D7C4
....................       case 0xe0: 
....................        
....................          UPLINK_SUCCESS_CHECK();                                                 //put uplink success flag in HIGH and store flags 
0D668:  CALL   B1E6
....................          ACK_for_COM[14] = 0x00; 
0D66C:  MOVLB  2
0D66E:  CLRF   x10
....................        
....................          REFRESH_SECTOR_OF(CMD2,CMD3,CMD4,CMD5);                                 //Erase 1 sector of OBC flash, also this function contains saving log 
0D670:  MOVFF  2DB,2F6
0D674:  MOVFF  2DC,2F7
0D678:  MOVFF  2DD,2F8
0D67C:  MOVFF  2DE,2F9
0D680:  MOVLB  0
0D682:  CALL   A6A8
....................          break; 
0D686:  BRA    D7C4
....................       case 0xe1: 
....................        
....................          UPLINK_SUCCESS_CHECK();                                                 //put uplink success flag in HIGH and store flags 
0D688:  CALL   B1E6
....................          ACK_for_COM[14] = 0x00; 
0D68C:  MOVLB  2
0D68E:  CLRF   x10
....................        
....................          REFRESH_SECTOR_SCF(CMD2,CMD3,CMD4,CMD5);                                //Erase 1 sector of COM flash, also this function contains saving log 
0D690:  MOVFF  2DB,2F6
0D694:  MOVFF  2DC,2F7
0D698:  MOVFF  2DD,2F8
0D69C:  MOVFF  2DE,2F9
0D6A0:  MOVLB  0
0D6A2:  CALL   A75A
....................          break; 
0D6A6:  BRA    D7C4
....................       case 0xe2: 
....................        
....................          UPLINK_SUCCESS_CHECK();                                                 //put uplink success flag in HIGH and store flags 
0D6A8:  CALL   B1E6
....................          ACK_for_COM[14] = 0x00; 
0D6AC:  MOVLB  2
0D6AE:  CLRF   x10
....................        
....................          REFRESH_SECTOR_SMF(CMD2,CMD3,CMD4,CMD5);                                //Erase 1 sector of MISION flash, also this function contains saving log 
0D6B0:  MOVFF  2DB,2F6
0D6B4:  MOVFF  2DC,2F7
0D6B8:  MOVFF  2DD,2F8
0D6BC:  MOVFF  2DE,2F9
0D6C0:  MOVLB  0
0D6C2:  CALL   6B96
....................          break; 
0D6C6:  BRA    D7C4
....................       case 0x12: 
....................        
....................          UPLINK_SUCCESS_CHECK();                                                 //put uplink success flag in HIGH and store flags 
0D6C8:  CALL   B1E6
....................          ACK_for_COM[14] = 0x00; 
0D6CC:  MOVLB  2
0D6CE:  CLRF   x10
....................        
....................          TRANSFER_SECTOR_OF2SCF(CMD2,CMD3,CMD4,CMD5);                            //transfer 1 sector, also this function contains saving log 
0D6D0:  MOVFF  2DB,2E5
0D6D4:  MOVFF  2DC,2E6
0D6D8:  MOVFF  2DD,2E7
0D6DC:  MOVFF  2DE,2E8
0D6E0:  MOVLB  0
0D6E2:  CALL   BBF4
....................          break; 
0D6E6:  BRA    D7C4
....................       case 0x32: 
....................        
....................          UPLINK_SUCCESS_CHECK();                                                 //put uplink success flag in HIGH and store flags 
0D6E8:  CALL   B1E6
....................          ACK_for_COM[14] = 0x00; 
0D6EC:  MOVLB  2
0D6EE:  CLRF   x10
....................        
....................          TRANSFER_SECTOR_SMF2SCF(CMD2,CMD3,CMD4,CMD5);                           //transfer 1 sector, also this function contains saving log 
0D6F0:  MOVFF  2DB,2E5
0D6F4:  MOVFF  2DC,2E6
0D6F8:  MOVFF  2DD,2E7
0D6FC:  MOVFF  2DE,2E8
0D700:  MOVLB  0
0D702:  CALL   C38A
....................          break; 
0D706:  BRA    D7C4
....................       case 0x21: 
....................        
....................          UPLINK_SUCCESS_CHECK();                                                 //put uplink success flag in HIGH and store flags 
0D708:  CALL   B1E6
....................          ACK_for_COM[14] = 0x00; 
0D70C:  MOVLB  2
0D70E:  CLRF   x10
....................        
....................          TRANSFER_SECTOR_SCF2OF(CMD2,CMD3,CMD4,CMD5);                            //transfer 1 sector, also this function contains saving log 
0D710:  MOVFF  2DB,2E5
0D714:  MOVFF  2DC,2E6
0D718:  MOVFF  2DD,2E7
0D71C:  MOVFF  2DE,2E8
0D720:  MOVLB  0
0D722:  CALL   BEFA
....................          break; 
0D726:  BRA    D7C4
....................       case 0x01: 
....................        
....................          UPLINK_SUCCESS_CHECK();                                                 //put uplink success flag in HIGH and store flags 
0D728:  CALL   B1E6
....................          ACK_for_COM[14] = 0x00; 
0D72C:  MOVLB  2
0D72E:  CLRF   x10
....................        
....................          Send_Command_to_FAB(0x01);                                              //send cmd to FAB to turn ON battery heater 
0D730:  MOVLW  01
0D732:  MOVWF  xFD
0D734:  MOVLB  0
0D736:  CALL   4684
....................          fprintf(PC,"Sent CMD Heater ON\r\n"); 
0D73A:  MOVLW  5E
0D73C:  MOVWF  FF6
0D73E:  MOVLW  15
0D740:  MOVWF  FF7
0D742:  MOVLW  00
0D744:  MOVWF  FF8
0D746:  CALL   362C
....................          break; 
0D74A:  BRA    D7C4
....................       case 0x02: 
....................        
....................          UPLINK_SUCCESS_CHECK();                                                 //put uplink success flag in HIGH and store flags 
0D74C:  CALL   B1E6
....................          ACK_for_COM[14] = 0x00; 
0D750:  MOVLB  2
0D752:  CLRF   x10
....................        
....................          Send_Command_to_FAB(0x02);                                              //send cmd to FAB to turn OFF battery heater 
0D754:  MOVLW  02
0D756:  MOVWF  xFD
0D758:  MOVLB  0
0D75A:  CALL   4684
....................          fprintf(PC,"Sent CMD Heater OFF\r\n"); 
0D75E:  MOVLW  74
0D760:  MOVWF  FF6
0D762:  MOVLW  15
0D764:  MOVWF  FF7
0D766:  MOVLW  00
0D768:  MOVWF  FF8
0D76A:  CALL   362C
....................          break; 
0D76E:  BRA    D7C4
....................       case 0x03: 
....................  
....................          UPLINK_SUCCESS_CHECK();                                                 //put uplink success flag in HIGH and store flags 
0D770:  CALL   B1E6
....................          ACK_for_COM[14] = 0x00; 
0D774:  MOVLB  2
0D776:  CLRF   x10
....................        
....................          Send_Command_to_FAB(0x03);                                              //send cmd to FAB to operate Heater in AUTO mode 
0D778:  MOVLW  03
0D77A:  MOVWF  xFD
0D77C:  MOVLB  0
0D77E:  CALL   4684
....................          fprintf(PC,"Sent CMD Heater AUTO\r\n"); 
0D782:  MOVLW  8A
0D784:  MOVWF  FF6
0D786:  MOVLW  15
0D788:  MOVWF  FF7
0D78A:  MOVLW  00
0D78C:  MOVWF  FF8
0D78E:  CALL   362C
....................          break;          
0D792:  BRA    D7C4
....................       case 0x35: 
....................          fprintf(PC,"Sent CMD to COM for data download\r\n"); 
0D794:  MOVLW  A2
0D796:  MOVWF  FF6
0D798:  MOVLW  15
0D79A:  MOVWF  FF7
0D79C:  MOVLW  00
0D79E:  MOVWF  FF8
0D7A0:  CALL   362C
....................          RSV_DATA_DOWNLOAD(CMD1,CMD2,CMD3,CMD4,CMD5,CMD6,CMD7);                  //send array of commnands to COM 
0D7A4:  MOVFF  2DA,2E5
0D7A8:  MOVFF  2DB,2E6
0D7AC:  MOVFF  2DC,2E7
0D7B0:  MOVFF  2DD,2E8
0D7B4:  MOVFF  2DE,2E9
0D7B8:  MOVFF  2DF,2EA
0D7BC:  MOVFF  2E0,2EB
0D7C0:  CALL   C512
....................           
....................          break; 
....................    } 
....................    return; 
0D7C4:  GOTO   DCD2 (RETURN)
.................... } 
....................  
....................  
....................  
.................... int8 CHECK_MEMORY_FUNCTION(int8 data)                                            //evita operacion de memoria como comandos reservados 
.................... { 
....................    if((data == 0xe0)||(data == 0xe1)||(data == 0xe2)) 
....................    { 
....................       data = 0; 
....................    } 
....................    if((data == 0x12)||(data == 0x32)||(data == 0x21)) 
....................    { 
....................       data = 0; 
....................    } 
....................    return data; 
.................... } 
....................  
....................  
.................... //----------Flash_memory_MT25QL01GBBB_OF.c------------------------------------- 
....................  
.................... void WRITE_ENABLE_OF(); 
.................... void WRITE_ENABLE_SCF(); 
.................... void WRITE_ENABLE_SMF(); 
....................  
.................... void sector_erase_OF(unsigned int32 sector_address); 
.................... void sector_erase_SCF(unsigned int32 sector_address); 
.................... void sector_erase_SMF(unsigned int32 sector_address); 
....................  
.................... void SUBSECTOR_4KB_ERASE_OF(unsigned int32 sector_address); 
.................... void SUBSECTOR_4KB_ERASE_SCF(unsigned int32 sector_address); 
.................... void SUBSECTOR_4KB_ERASE_SMF(unsigned int32 sector_address); 
....................  
.................... void SUBSECTOR_32KB_ERASE_OF(unsigned int32 sector_address); 
.................... void SUBSECTOR_32KB_ERASE_SCF(unsigned int32 sector_address); 
.................... void SUBSECTOR_32KB_ERASE_SMF(unsigned int32 sector_address); 
....................  
.................... void WRITE_DATA_BYTE_OF(unsigned int32 page_address, int8 data); 
.................... void WRITE_DATA_BYTE_SCF(unsigned int32 page_address, int8 data); 
.................... void WRITE_DATA_BYTE_SMF(unsigned int32 page_address, int8 data); 
....................  
.................... int8 READ_CHIP_ID_OF(); 
.................... int8 READ_CHIP_ID_SCF(); 
.................... int8 READ_CHIP_ID_SMF(); 
....................  
.................... int8 READ_STATUS_REGISTER_OF(); 
.................... int8 READ_STATUS_REGISTER_SCF(); 
.................... int8 READ_STATUS_REGISTER_SMF(); 
....................  
.................... int8 READ_DATA_BYTE_OF(unsigned INT32 ADDRESS); 
.................... int8 READ_DATA_BYTE_SCF(unsigned INT32 ADDRESS); 
.................... int8 READ_DATA_BYTE_SMF(unsigned INT32 ADDRESS); 
....................  
.................... void TRANSFER_DATA_256byte_OF(unsigned INT32 ADRESS, int PORT_NUM); 
.................... void TRANSFER_DATA_256byte_SCF(unsigned INT32 ADRESS, int PORT_NUM); 
.................... void TRANSFER_DATA_256byte_SMF(unsigned INT32 ADRESS, int PORT_NUM); 
....................  
.................... void WRITE_DATA_NBYTE_OF(unsigned INT32 ADDRES,int32 data_byte); 
.................... void WRITE_DATA_NBYTE_SCF(unsigned INT32 ADDRES,int32 data_byte); 
.................... void WRITE_DATA_NBYTE_SMF(unsigned INT32 ADDRES,int32 data_byte); 
....................  
.................... void TRANSFER_DATA_NBYTE_TOPC_OF(unsigned INT32 ADRESS,int32 data_byte); //for testing 
.................... void TRANSFER_DATA_NBYTE_TOPC_SCF(unsigned INT32 ADRESS,int32 data_byte); //for testing 
.................... void TRANSFER_DATA_NBYTE_TOPC_SMF(unsigned INT32 ADRESS,int32 data_byte); //for testing 
....................  
.................... void TRANSFER_DATA_NBYTE_OFtoSCF(unsigned INT32 FROM_ADRESS,unsigned INT32 TO_ADRESS,int32 data_byte); //transfer data from MAIN FLASH to COM FLASH 
.................... void TRANSFER_DATA_NBYTE_SCFtoOF(unsigned INT32 FROM_ADRESS,unsigned INT32 TO_ADRESS,int32 data_byte); //transfer data from COM FLASH to MAIN FLASH 
.................... void TRANSFER_DATA_NBYTE_OFtoSMF(unsigned INT32 FROM_ADRESS,unsigned INT32 TO_ADRESS,int32 data_byte); //transfer data from MAIN FLASH to MISSION FLASH 
.................... void TRANSFER_DATA_NBYTE_SMFtoOF(unsigned INT32 FROM_ADRESS,unsigned INT32 TO_ADRESS,int32 data_byte); //transfer data from MISSION FLASH to MAIN FLASH 
.................... void TRANSFER_DATA_NBYTE_SMFtoSCF(unsigned INT32 FROM_ADRESS,unsigned INT32 TO_ADRESS,int32 data_byte); //transfer data from MISSION FLASH to COM FLASH 
.................... void TRANSFER_DATA_NBYTE_SCFtoSMF(unsigned INT32 FROM_ADRESS,unsigned INT32 TO_ADRESS,int32 data_byte); //transfer data from COM FLASH to MISSION FLASH 
....................  
.................... void TRANSFER_DATA_NBYTE_OF(unsigned INT32 FROM_ADRESS,unsigned INT32 TO_ADRESS,int32 data_byte); //for testing 
....................  
.................... //void sector_erase(unsigned int32 sector_address);  //this is for sector erase 
....................  
....................  
.................... //----------------------------------------------------------------------------- 
....................  
....................  
....................  
.................... #include <bootloader.h> 
.................... /////////////////////////////////////////////////////////////////////////// 
.................... ////                       BOOTLOADER.H                                //// 
.................... ////                                                                   //// 
.................... ////  This include file must be included by any application loaded     //// 
.................... ////  by the example bootloader (ex_bootloader.c).                     //// 
.................... ////                                                                   //// 
.................... ////  The directives in this file relocate the reset and interrupt     //// 
.................... ////  vectors as well as reserving space for the bootloader.           //// 
.................... ////                                                                   //// 
.................... ////  LOADER_END may need to be adjusted for a specific chip and       //// 
.................... ////  bootloader.  LOADER_END must be 1 minus a multiple of            //// 
.................... ////  FLASH_ERASE_SIZE.                                                //// 
.................... /////////////////////////////////////////////////////////////////////////// 
.................... ////        (C) Copyright 1996,2014 Custom Computer Services           //// 
.................... //// This source code may only be used by licensed users of the CCS    //// 
.................... //// C compiler.  This source code may only be distributed to other    //// 
.................... //// licensed users of the CCS C compiler.  No other use,              //// 
.................... //// reproduction or distribution is permitted without written         //// 
.................... //// permission.  Derivative programs created using this software      //// 
.................... //// in object code form are not restricted in any way.                //// 
.................... /////////////////////////////////////////////////////////////////////////// 
.................... #ifndef __BOOTLOADER_H__ 
.................... #define __BOOTLOADER_H__ 
....................  
.................... #ifndef LOADER_END 
....................  #if defined(__PCM__) 
....................   #ifdef BOOTLOADER_MODE2X 
....................    #define LOADER_END 0x4BF 
....................   #else 
....................    #define LOADER_END 0x33F 
....................   #endif 
....................  #elif defined(__PCH__) 
....................   #define FLASH_SIZE getenv("FLASH_ERASE_SIZE") 
....................   #if ((0x500 % FLASH_SIZE) == 0)         //IF 0x500 is even flash boundary 
....................    #define LOADER_END   0x4FF 
....................   #else                                  //ELSE, goto next even boundary 
....................    #define LOADER_END   ((0x500+FLASH_SIZE-(0x500 % FLASH_SIZE))-1) 
....................   #endif 
....................  #else 
....................   #error Bootloader only works with PCM or PCH compiler 
....................  #endif 
.................... #endif 
....................  
.................... #define LOADER_SIZE   LOADER_END 
....................  
.................... #ifndef BOOTLOADER_AT_START 
....................  #define BOOTLOADER_AT_START 
.................... #endif 
....................  
.................... #ifndef _bootloader 
....................  #if defined(__PCM__) 
....................   #build(reset=LOADER_END+1, interrupt=LOADER_END+5) 
....................  #elif defined(__PCH__) 
....................   #build(reset=LOADER_END+1, interrupt=LOADER_END+9) 
....................  #endif 
....................  
....................  #org 0, LOADER_END {} 
.................... #else 
....................  #ifdef __PCM__ 
....................   #if getenv("PROGRAM_MEMORY") <= 0x800 
....................    #org LOADER_END+3, (getenv("PROGRAM_MEMORY") - 1) {} 
....................   #else 
....................    #org LOADER_END+3, 0x7FF {} 
....................    #if getenv("PROGRAM_MEMORY") <= 0x1000 
....................     #org 0x800, (getenv("PROGRAM_MEMORY") - 1) {} 
....................    #else 
....................     #org 0x800, 0xFFF{} 
....................     #if getenv("PROGRAM_MEMORY") <= 0x1800 
....................      #org 0x1000, (getenv("PROGRAM_MEMORY") - 1) {} 
....................     #else 
....................      #org 0x1000, 0x17FF {} 
....................      #if getenv("PROGRAM_MEMORY") <= 0x2000 
....................       #org 0x1800, (getenv("PROGRAM_MEMORY") - 1) {} 
....................      #else 
....................       #org 0x1800, 0x1FFF {} 
....................       #if getenv("PROGRAM_MEMORY") <= 0x2800 
....................        #org 0x2000, (getenv("PROGRAM_MEMORY") - 1) {} 
....................       #else 
....................        #org 0x2000, 0x27FF {} 
....................        #if getenv("PROGRAM_MEMORY") <= 0x3000 
....................         #org 0x2800, (getenv("PROGRAM_MEMORY") - 1) {} 
....................        #else 
....................         #org 0x2800, 0x2FFF {} 
....................         #if getenv("PROGRAM_MEMORY") <= 0x3800 
....................          #org 0x3000, (getenv("PROGRAM_MEMORY") - 1) {} 
....................         #else 
....................          #org 0x3000, 0x37FF {} 
....................          #org 0x3800, 0x3FFF {} 
....................         #endif 
....................        #endif 
....................       #endif 
....................      #endif 
....................     #endif 
....................    #endif 
....................   #endif 
....................  #else 
....................   #if getenv("PROGRAM_MEMORY") <= 0x10000 
....................    #org LOADER_END+5, (getenv("PROGRAM_MEMORY") - 1) {} 
....................   #else 
....................    #org LOADER_END+5, 0xFFFE {} 
....................    #org 0x10000, (getenv("PROGRAM_MEMORY") - 1) {} 
....................   #endif 
....................  #endif 
.................... #endif 
....................  
.................... #endif 
....................  
....................  
.................... #int_timer0                                                                      //Interrupcion del TMR0 
....................  
.................... void intval() 
.................... {    
....................    static int32 counter = 0;                                                     //la variable se activa como global, mantiene su valor al entrar y salir de la funcion 
....................    counter++;                                                                    //se incrementa cada 16.384ms 
*
015C6:  MOVLW  01
015C8:  MOVLB  2
015CA:  ADDWF  xD3,F
015CC:  BTFSC  FD8.0
015CE:  INCF   xD4,F
015D0:  BTFSC  FD8.2
015D2:  INCF   xD5,F
015D4:  BTFSC  FD8.2
015D6:  INCF   xD6,F
....................    if (counter > 60)                                                             //los contadores dentro del if se incrementan aprox cada 1s 
015D8:  MOVF   xD6,F
015DA:  BNZ   15EA
015DC:  MOVF   xD5,F
015DE:  BNZ   15EA
015E0:  MOVF   xD4,F
015E2:  BNZ   15EA
015E4:  MOVF   xD3,W
015E6:  SUBLW  3C
015E8:  BC    161C
....................    { 
....................       counter = 0; 
015EA:  CLRF   xD6
015EC:  CLRF   xD5
015EE:  CLRF   xD4
015F0:  CLRF   xD3
.................... //!      nowtime++; 
.................... //!       
.................... //!      if(nowtime > 0) 
.................... //!      { 
....................          //fprintf(PC,"%ld",nowtime); 
....................          FAB_FLAG++;                                                             //contador de tiempo en segundos, a los 90 segundos pide datos al FAB 
015F2:  MOVLW  01
015F4:  ADDWF  x1D,F
015F6:  BTFSC  FD8.0
015F8:  INCF   x1E,F
015FA:  BTFSC  FD8.2
015FC:  INCF   x1F,F
015FE:  BTFSC  FD8.2
01600:  INCF   x20,F
....................          RESERVE_SEC_FLAG++;                                                     //contador de tiempo en segundos (used in Table) 
01602:  MOVLB  0
01604:  INCF   x7D,F
....................          currenttime++;                                                          //contador de tiempo en segundos (Reset Function) 
01606:  MOVLB  1
01608:  INCF   x3E,F
0160A:  BTFSC  FD8.2
0160C:  INCF   x3F,F
....................          //fprintf(PC,"currenttime:%ld \r\n", currenttime);                        //Check TMR0 operation 
....................          //fprintf(PC,"Done\r\n"); 
.................... //!      } 
....................       if(RESERVE_SEC_FLAG > 59)                                                  //los contadores dentro del if se incrementan cada 60s 
0160E:  MOVLB  0
01610:  MOVF   x7D,W
01612:  SUBLW  3B
01614:  BC    161A
....................       { 
....................          RESERVE_SEC_FLAG = 0; 
01616:  CLRF   x7D
....................          RESERVE_MIN_FLAG++;                                                     //contador de tiempo en minutos (used in Table) 
01618:  INCF   x6C,F
0161A:  MOVLB  2
....................       } 
....................    } 
.................... } 
....................  
0161C:  BCF    FF2.2
0161E:  MOVLB  0
01620:  GOTO   069C
.................... #INT_rda                                                                         //PC Interrupt, RS232 receive data available in buffer 1 
.................... void UART1_RXD(void) 
.................... { 
....................    CMD_FROM_PC[PC_DATA] = fgetc(PC);                                             //carga el array CMD_FROM_PC[] con los datos enviados por PC 
01624:  CLRF   03
01626:  MOVF   x99,W
01628:  ADDLW  7E
0162A:  MOVWF  FE9
0162C:  MOVLW  00
0162E:  ADDWFC 03,W
01630:  MOVWF  FEA
01632:  BTFSS  F9E.5
01634:  BRA    1632
01636:  MOVFF  FAE,FEF
....................    PC_DATA = ((PC_DATA + 1) % 8);                                                //cuando se obtenga el dato en la posicion 6, PC_DATA=0 
0163A:  MOVLW  01
0163C:  ADDWF  x99,W
0163E:  ANDLW  07
01640:  MOVWF  x99
....................    //fputc(fgetc(PC),PC); 
.................... } 
....................  
....................  
01642:  BCF    F9E.5
01644:  GOTO   069C
.................... #INT_rda2 HIGH                                                                   //COM Interrupt, RS232 receive data available in buffer 2 
.................... void UART2_RXD(void) 
.................... { 
....................    //SerialDataReceive();  //get 32 byte 
....................    //COM_ONEBYTE_COMMAND = fgetc(COM); 
....................    in_bffr_main[COM_DATA] = fgetc(COM);                                          //carga el array in_bffr_main[] con los datos enviados por COM PIC 
01648:  CLRF   03
0164A:  MOVF   x96,W
0164C:  ADDLW  86
0164E:  MOVWF  FE9
01650:  MOVLW  00
01652:  ADDWFC 03,W
01654:  MOVWF  FEA
01656:  BTFSS  FA4.5
01658:  BRA    1656
0165A:  MOVLB  F
0165C:  MOVFF  F1E,FEF
....................    COM_DATA = ((COM_DATA + 1) % 16);                                             //cuando se obtenga el dato en la posicion 16, COM_DATA=0 
01660:  MOVLW  01
01662:  MOVLB  0
01664:  ADDWF  x96,W
01666:  ANDLW  0F
01668:  MOVWF  x96
.................... }  
....................  
....................  
0166A:  BCF    FA4.5
0166C:  GOTO   0748
.................... #INT_rda3                                                                        //FAB Interrupt, RS232 receive data available in buffer 3 
.................... void UART3_RXD(void) 
.................... { 
....................    //collect_HK_from_FAB(); 
....................    in_HK[FAB_DATA] = fgetc(FAB);                                                 //carga el array in_HK[] con los datos enviados por el FAB PIC 
*
0169C:  CLRF   03
0169E:  MOVLB  2
016A0:  MOVF   x1A,W
016A2:  ADDLW  59
016A4:  MOVWF  FE9
016A6:  MOVLW  01
016A8:  ADDWFC 03,W
016AA:  MOVWF  FEA
016AC:  BTFSS  FA6.5
016AE:  BRA    16AC
016B0:  MOVLB  F
016B2:  MOVFF  F2A,FEF
....................    FAB_DATA = ((FAB_DATA + 1) % FAB_SENSOR_size);                                //cuando se obtenga el dato en la posicion 45 FAB_DATA=0 
016B6:  MOVLW  01
016B8:  MOVLB  2
016BA:  ADDWF  x1A,W
016BC:  MOVLB  3
016BE:  MOVWF  x2B
016C0:  MOVWF  x2C
016C2:  MOVLW  2D
016C4:  MOVWF  x2D
016C6:  MOVLB  0
016C8:  RCALL  1670
016CA:  MOVFF  00,21A
.................... }  
....................  
....................  
016CE:  BCF    FA6.5
016D0:  GOTO   069C
.................... #INT_rda4                                                                        //Reset PIC Interrupt, RS232 receive data available in buffer 4 
.................... void UART4_RXD(void) 
.................... { 
....................    reset_bffr[RESET_DATA] = fgetc(reset);                                        //carga el array reset_bffr con los datos enviados por el Reset PIC 
016D4:  CLRF   03
016D6:  MOVF   xEB,W
016D8:  ADDLW  EC
016DA:  MOVWF  FE9
016DC:  MOVLW  00
016DE:  ADDWFC 03,W
016E0:  MOVWF  FEA
016E2:  BTFSS  FA6.7
016E4:  BRA    16E2
016E6:  MOVLB  E
016E8:  MOVFF  EFA,FEF
....................    RESET_DATA = ((RESET_DATA + 1) % RESET_size);                                 //cuando se obtenga el dato en la posicion 11 RESET_DATA=0 
016EC:  MOVLW  01
016EE:  MOVLB  0
016F0:  ADDWF  xEB,W
016F2:  MOVLB  3
016F4:  MOVWF  x2B
016F6:  MOVWF  x2C
016F8:  MOVLW  0B
016FA:  MOVWF  x2D
016FC:  MOVLB  0
016FE:  RCALL  1670
01700:  MOVFF  00,EB
....................    //fputc(fgetc(reset),PC); 
....................    if(reset_bffr[0] == 0xaa)                                                     //get ready for reset satellite 
01704:  MOVF   xEC,W
01706:  SUBLW  AA
01708:  BNZ   1710
....................    { 
....................       reset_flag = 1;                                                            //pone a alto bandera para reseteo 
0170A:  MOVLW  01
0170C:  MOVWF  xF7
....................       RESET_DATA = 0;                                                            //indicador de posicion dentro del vector reset_data 
0170E:  CLRF   xEB
....................    } 
....................     
01710:  BCF    FA6.7
01712:  GOTO   069C
.................... }  
....................  
.................... void settings() 
.................... { 
....................    set_tris_b(0b11010000);                                                       // Configuracion del puerto b 
*
03F42:  MOVLW  D0
03F44:  MOVWF  F93
....................    enable_interrupts(global);                                                    // Habilitacion de interrupciones globales       
03F46:  MOVLW  C0
03F48:  IORWF  FF2,F
....................    enable_interrupts(INT_rda);                                                   // Main to PC 
03F4A:  BSF    F9D.5
....................    enable_interrupts(INT_rda2);                                                  // Main to COM PIC 
03F4C:  BSF    FA3.5
....................    enable_interrupts(INT_rda3);                                                  // Main to FAB PIC    
03F4E:  BSF    F61.5
....................    enable_interrupts(INT_rda4);                                                  // Main to RESET PIC 
03F50:  BSF    F61.7
....................  
....................    setup_timer_0(RTCC_INTERNAL | RTCC_DIV_256 | RTCC_8_BIT);                     //Config TMR0, internal clock, prescaler 256, clock/counter 8bit 
03F52:  MOVLW  D7
03F54:  MOVWF  FD5
....................    set_timer0(0);                                                                //this sets timer0 register to 0 
03F56:  CLRF   FD7
03F58:  CLRF   FD6
....................     
....................    READ_WRTITING_ADDRESS_LOCATION();                                             //save in ADD_INFO_ADDRESS with address info location 
03F5A:  GOTO   1C84
....................    RESERVE_CHECK = 0;                                                            //bandera que indica si una tabla esta utilizada 
03F5E:  CLRF   x6B
....................    RESET_DATA = 0;                                                               //indicador de posicion dentro del vector reset_data 
03F60:  CLRF   xEB
....................   
....................    CHECK_FLAG_INFO();                                                            //imprime el estado de los flags y los separa en cada variable correspondiente 
03F62:  GOTO   278E
....................    CHECK_ADDRESS_DATA();                                                         //imprime los datos de direcciones y los separa en cada variable correspondiente 
03F66:  GOTO   29E6
....................     
....................    BC_SETUP();                                                                   //configuracion del conversor analogico digital para lectura de sensor de temperatura 
03F6A:  CALL   2B56
....................    
....................    output_low(PIN_A4);                                                           //kill switch off 
03F6E:  BCF    F92.4
03F70:  BCF    F89.4
....................    Turn_OFF_CAM();                                                               //Camera switch OFF, RD7=0 
03F72:  CALL   2B72
....................  //Turn_OFF_ADCS();                                                              //ADCS switch OFF, RD6=0   
....................    Turn_ON_ADCS();                                                               //ADCS switch ON, RD6=1 
03F76:  CALL   2B78
....................    Turn_ON_MBP();                                                                //Mission Boss switch ON, RF5=1 
03F7A:  CALL   2B7E
....................    Turn_OFF_BC();                                                                //Burner Circuit switch OFF, RD5=0 
03F7E:  CALL   2B84
....................  
....................    fprintf(PC,"\r\n"); 
03F82:  MOVLW  0D
03F84:  BTFSS  F9E.4
03F86:  BRA    3F84
03F88:  MOVWF  FAD
03F8A:  MOVLW  0A
03F8C:  BTFSS  F9E.4
03F8E:  BRA    3F8C
03F90:  MOVWF  FAD
....................    CURRENT_FLAG_STATUS();                                                        //Imprime en pantalla el estado de todos los flags 
03F92:  CALL   2B8A
....................    fprintf(PC,"\r\n"); 
03F96:  MOVLW  0D
03F98:  BTFSS  F9E.4
03F9A:  BRA    3F98
03F9C:  MOVWF  FAD
03F9E:  MOVLW  0A
03FA0:  BTFSS  F9E.4
03FA2:  BRA    3FA0
03FA4:  MOVWF  FAD
....................    CURRENT_ADDRESS_OF_FLASH();                                                   //Print current address allocation 
03FA6:  CALL   2DFC
....................    CHANGE_ADDRESS_WRITING_LOCATION();                                            //cambia la direccion de escritura cuando se superan los 95.000 ciclos 
03FAA:  CALL   3656
....................  
....................    output_high(PIN_C4);                                                          //MUX: COM side (MAIN-COM) 
03FAE:  BCF    F94.4
03FB0:  BSF    F8B.4
....................    output_low(PIN_A5);                                                           //MUX: Main side (MAIN-MISSION) 
03FB2:  BCF    F92.5
03FB4:  BCF    F89.5
....................    
....................    /*maisun 
....................    Get_RSV();                                                                    //read the reservation table info from flash memory 
....................    */ 
....................    SAVE_SAT_LOG(0x25,0x25,0x25);                                                 //carga el RESET_bffr[] con los datos del reset PIC, verifica nro de escrituras flash 
03FB6:  MOVLW  25
03FB8:  MOVLB  3
03FBA:  MOVWF  x02
03FBC:  MOVWF  x03
03FBE:  MOVWF  x04
03FC0:  MOVLB  0
03FC2:  RCALL  3E06
....................    return;                                                                       //y guarda en las flash los datos en la direccion indicada por SAT_LOG 
03FC4:  GOTO   DA66 (RETURN)
....................    
.................... }                                   
....................  
.................... ///////////TEST PART////////////////////////// 
.................... //#org DEFAULT  
.................... void main() 
*
0D7C8:  CLRF   FF8
0D7CA:  BCF    FF1.2
0D7CC:  BCF    F9F.5
0D7CE:  BSF    FA5.5
0D7D0:  BCF    FA9.5
0D7D2:  BCF    FA9.7
0D7D4:  BSF    FD0.7
0D7D6:  BSF    07.7
0D7D8:  MOVLB  E
0D7DA:  MOVLW  55
0D7DC:  MOVWF  F7E
0D7DE:  MOVLW  AA
0D7E0:  MOVWF  F7E
0D7E2:  BCF    F66.6
0D7E4:  MOVLW  F4
0D7E6:  MOVWF  x2A
0D7E8:  MOVLW  F5
0D7EA:  MOVWF  x2B
0D7EC:  MOVLW  F8
0D7EE:  MOVWF  x2C
0D7F0:  MOVLW  F9
0D7F2:  MOVWF  x2D
0D7F4:  MOVLW  01
0D7F6:  MOVWF  x1B
0D7F8:  MOVLW  20
0D7FA:  MOVWF  x1D
0D7FC:  MOVLW  30
0D7FE:  MOVWF  x22
0D800:  MOVLW  20
0D802:  MOVWF  x24
0D804:  MOVLW  55
0D806:  MOVWF  F7E
0D808:  MOVLW  AA
0D80A:  MOVWF  F7E
0D80C:  BSF    F66.6
0D80E:  CLRF   F9B
0D810:  CLRF   F64
0D812:  CLRF   F65
0D814:  CLRF   F66
0D816:  MOVLW  02
0D818:  MOVWF  FD3
0D81A:  BSF    F67.3
0D81C:  MOVLW  22
0D81E:  MOVWF  FAF
0D820:  MOVLW  00
0D822:  MOVLB  F
0D824:  MOVWF  x30
0D826:  MOVLW  A6
0D828:  MOVWF  FAC
0D82A:  MOVLW  90
0D82C:  MOVWF  FAB
0D82E:  BSF    x31.3
0D830:  MOVLW  A0
0D832:  MOVWF  x1F
0D834:  MOVLW  01
0D836:  MOVWF  x20
0D838:  MOVLW  A6
0D83A:  MOVWF  x32
0D83C:  MOVLW  90
0D83E:  MOVWF  x33
0D840:  BSF    x2D.3
0D842:  MOVLW  A0
0D844:  MOVWF  x2B
0D846:  MOVLW  01
0D848:  MOVWF  x2C
0D84A:  MOVLW  A6
0D84C:  MOVWF  x2E
0D84E:  MOVLW  90
0D850:  MOVWF  x2F
0D852:  MOVLB  E
0D854:  BSF    xFD.3
0D856:  MOVLW  A0
0D858:  MOVWF  xFB
0D85A:  MOVLW  01
0D85C:  MOVWF  xFC
0D85E:  MOVLW  A6
0D860:  MOVWF  xFE
0D862:  MOVLW  90
0D864:  MOVWF  xFF
0D866:  BCF    F97.7
0D868:  BSF    F8E.7
0D86A:  BCF    F98.2
0D86C:  BSF    F8F.2
0D86E:  BCF    F98.0
0D870:  BSF    F8F.0
0D872:  BSF    F96.0
0D874:  BCF    F96.6
0D876:  BCF    F96.1
0D878:  BCF    F8D.1
0D87A:  BSF    F93.5
0D87C:  BCF    F93.4
0D87E:  BCF    F93.2
0D880:  BCF    F8A.2
0D882:  BSF    F92.0
0D884:  BCF    F92.1
0D886:  BCF    F92.3
0D888:  BCF    F89.3
0D88A:  CLRF   33
0D88C:  CLRF   32
0D88E:  MOVLW  10
0D890:  MOVWF  31
0D892:  CLRF   30
0D894:  CLRF   37
0D896:  CLRF   36
0D898:  CLRF   35
0D89A:  CLRF   34
0D89C:  CLRF   3B
0D89E:  MOVLW  04
0D8A0:  MOVWF  3A
0D8A2:  CLRF   39
0D8A4:  CLRF   38
0D8A6:  CLRF   3F
0D8A8:  MOVLW  05
0D8AA:  MOVWF  3E
0D8AC:  CLRF   3D
0D8AE:  CLRF   3C
0D8B0:  CLRF   43
0D8B2:  MOVLW  06
0D8B4:  MOVWF  42
0D8B6:  CLRF   41
0D8B8:  CLRF   40
0D8BA:  CLRF   47
0D8BC:  MOVLW  08
0D8BE:  MOVWF  46
0D8C0:  CLRF   45
0D8C2:  CLRF   44
0D8C4:  CLRF   4B
0D8C6:  MOVLW  62
0D8C8:  MOVWF  4A
0D8CA:  CLRF   49
0D8CC:  CLRF   48
0D8CE:  MOVLW  04
0D8D0:  MOVWF  4F
0D8D2:  MOVLW  4A
0D8D4:  MOVWF  4E
0D8D6:  CLRF   4D
0D8D8:  CLRF   4C
0D8DA:  MOVLW  04
0D8DC:  MOVWF  53
0D8DE:  MOVLW  72
0D8E0:  MOVWF  52
0D8E2:  CLRF   51
0D8E4:  CLRF   50
0D8E6:  MOVLW  06
0D8E8:  MOVWF  57
0D8EA:  MOVLW  65
0D8EC:  MOVWF  56
0D8EE:  CLRF   55
0D8F0:  CLRF   54
0D8F2:  MOVLW  06
0D8F4:  MOVWF  5B
0D8F6:  MOVLW  66
0D8F8:  MOVWF  5A
0D8FA:  CLRF   59
0D8FC:  CLRF   58
0D8FE:  MOVLW  06
0D900:  MOVWF  5F
0D902:  MOVLW  67
0D904:  MOVWF  5E
0D906:  CLRF   5D
0D908:  CLRF   5C
0D90A:  MOVLB  0
0D90C:  CLRF   x63
0D90E:  MOVLW  01
0D910:  MOVWF  x62
0D912:  MOVLW  80
0D914:  MOVWF  x61
0D916:  CLRF   x60
0D918:  CLRF   x67
0D91A:  MOVLW  01
0D91C:  MOVWF  x66
0D91E:  MOVLW  80
0D920:  MOVWF  x65
0D922:  MOVLW  1C
0D924:  MOVWF  x64
0D926:  CLRF   x68
0D928:  CLRF   x6A
0D92A:  CLRF   x69
0D92C:  CLRF   x6B
0D92E:  CLRF   x6C
0D930:  CLRF   x6D
0D932:  CLRF   x6E
0D934:  CLRF   x6F
0D936:  CLRF   x70
0D938:  CLRF   x71
0D93A:  CLRF   x72
0D93C:  CLRF   x73
0D93E:  CLRF   x74
0D940:  CLRF   x75
0D942:  CLRF   x76
0D944:  CLRF   x77
0D946:  CLRF   x78
0D948:  CLRF   x79
0D94A:  CLRF   x7A
0D94C:  CLRF   x7B
0D94E:  CLRF   x7C
0D950:  CLRF   x7D
0D952:  CLRF   x96
0D954:  CLRF   x97
0D956:  CLRF   x98
0D958:  CLRF   x99
0D95A:  CLRF   x9A
0D95C:  CLRF   xE9
0D95E:  CLRF   xEA
0D960:  CLRF   xEB
0D962:  CLRF   xF7
0D964:  MOVLB  1
0D966:  CLRF   x32
0D968:  CLRF   x31
0D96A:  CLRF   x3F
0D96C:  CLRF   x3E
0D96E:  CLRF   x41
0D970:  CLRF   x40
0D972:  CLRF   x43
0D974:  CLRF   x42
0D976:  CLRF   x45
0D978:  CLRF   x44
0D97A:  CLRF   x49
0D97C:  CLRF   x48
0D97E:  CLRF   x47
0D980:  CLRF   x46
0D982:  CLRF   x4D
0D984:  CLRF   x4C
0D986:  CLRF   x4B
0D988:  CLRF   x4A
0D98A:  CLRF   x51
0D98C:  CLRF   x50
0D98E:  CLRF   x4F
0D990:  CLRF   x4E
0D992:  CLRF   x53
0D994:  CLRF   x52
0D996:  MOVLB  2
0D998:  CLRF   x1A
0D99A:  CLRF   x1B
0D99C:  CLRF   x1C
0D99E:  CLRF   x20
0D9A0:  CLRF   x1F
0D9A2:  CLRF   x1E
0D9A4:  CLRF   x1D
0D9A6:  CLRF   x21
0D9A8:  CLRF   x72
0D9AA:  CLRF   x71
0D9AC:  CLRF   x70
0D9AE:  CLRF   x6F
0D9B0:  CLRF   x73
0D9B2:  CLRF   x74
0D9B4:  CLRF   xC8
0D9B6:  CLRF   xCA
0D9B8:  CLRF   xC9
0D9BA:  CLRF   xCC
0D9BC:  CLRF   xCB
0D9BE:  CLRF   xCD
0D9C0:  CLRF   xCE
0D9C2:  CLRF   xD2
0D9C4:  CLRF   xD1
0D9C6:  CLRF   xD0
0D9C8:  CLRF   xCF
0D9CA:  CLRF   xD6
0D9CC:  CLRF   xD5
0D9CE:  CLRF   xD4
0D9D0:  CLRF   xD3
0D9D2:  MOVLB  E
0D9D4:  CLRF   xD9
0D9D6:  CLRF   xDA
0D9D8:  CLRF   x45
0D9DA:  CLRF   x46
0D9DC:  CLRF   x47
0D9DE:  BCF    x8D.7
0D9E0:  BCF    x8D.6
0D9E2:  BCF    x8D.5
0D9E4:  MOVLB  1
0D9E6:  CLRF   x88
0D9E8:  MOVLB  F
0D9EA:  CLRF   x53
0D9EC:  CLRF   x38
0D9EE:  CLRF   x37
0D9F0:  BRA    DA22
0D9F2:  DATA 18,40
0D9F4:  DATA 7E,00
0D9F6:  DATA 4E,40
0D9F8:  DATA 9B,00
0D9FA:  DATA 0B,40
0D9FC:  DATA EC,00
0D9FE:  DATA 39,40
0DA00:  DATA F8,00
0DA02:  DATA 0B,41
0DA04:  DATA 33,00
0DA06:  DATA AE,41
0DA08:  DATA 54,00
0DA0A:  DATA 01,80
0DA0C:  DATA AA,16
0DA0E:  DATA C0,00
0DA10:  DATA 01,80
0DA12:  DATA BB,01
0DA14:  DATA 02,22
0DA16:  DATA AA,4B
0DA18:  DATA C0,00
0DA1A:  DATA 01,80
0DA1C:  DATA BB,53
0DA1E:  DATA 42,75
0DA20:  DATA 00,00
0DA22:  MOVLW  00
0DA24:  MOVWF  FF8
0DA26:  MOVLW  D9
0DA28:  MOVWF  FF7
0DA2A:  MOVLW  F2
0DA2C:  MOVWF  FF6
0DA2E:  TBLRD*+
0DA30:  MOVF   FF5,W
0DA32:  MOVWF  00
0DA34:  XORLW  00
0DA36:  BZ    DA5E
0DA38:  TBLRD*+
0DA3A:  MOVF   FF5,W
0DA3C:  MOVWF  01
0DA3E:  BTFSC  FE8.7
0DA40:  BRA    DA4C
0DA42:  ANDLW  0F
0DA44:  MOVWF  FEA
0DA46:  TBLRD*+
0DA48:  MOVFF  FF5,FE9
0DA4C:  BTFSC  01.6
0DA4E:  TBLRD*+
0DA50:  BTFSS  01.6
0DA52:  TBLRD*+
0DA54:  MOVFF  FF5,FEE
0DA58:  DCFSNZ 00,F
0DA5A:  BRA    DA2E
0DA5C:  BRA    DA50
0DA5E:  CLRF   FF8
.................... { 
....................  
....................    settings(); 
0DA60:  MOVLB  0
0DA62:  GOTO   3F42
....................    enable_interrupts(INT_TIMER0); 
0DA66:  BSF    FF2.5
....................    fprintf(PC,"Start Operating\r\n"); 
0DA68:  MOVLW  16
0DA6A:  MOVWF  FF6
0DA6C:  MOVLW  17
0DA6E:  MOVWF  FF7
0DA70:  MOVLW  00
0DA72:  MOVWF  FF8
0DA74:  CALL   362C
....................     
....................    FAB_TEST_OPERATION();                                                         //carga el array FABDATA[], crea el CW format y los guarda en la Flash 
0DA78:  CALL   581C
....................     
....................    STORE_ADRESS_DATA_TO_FLASH();                                                 //guarda los datos de direcciones en flash, y en un nuevo sector si se cumple el ciclo 95000 
0DA7C:  CALL   3AF8
....................    CURRENT_ADDRESS_OF_FLASH();                                                   //imprime la asignacion de direcciones de la Flash memory 
0DA80:  CALL   2DFC
....................    STORE_FLAG_INFO();                                                            //save flag data to flash memory (in OF, SCF and SMF) 
0DA84:  CALL   5B0E
....................    WRITE_FLAG_to_EEPROM();                                                       //guarda los flags en la EEPROM a partir de la direccion 0x18000 (75%) 
0DA88:  CALL   5D22
....................  
....................    
....................    fprintf(PC,"\r\nCW:"); 
0DA8C:  MOVLW  28
0DA8E:  MOVWF  FF6
0DA90:  MOVLW  17
0DA92:  MOVWF  FF7
0DA94:  MOVLW  00
0DA96:  MOVWF  FF8
0DA98:  CALL   362C
....................    for(int i = 0; i < 4; i++)                                                    //imprime el contenido del array CW_FORMAT[] 
0DA9C:  MOVLB  2
0DA9E:  CLRF   xD7
0DAA0:  MOVF   xD7,W
0DAA2:  SUBLW  03
0DAA4:  BNC   DAD2
....................    { 
....................       fprintf(PC,"%x,",CW_FORMAT[i]); 
0DAA6:  CLRF   03
0DAA8:  MOVF   xD7,W
0DAAA:  ADDLW  54
0DAAC:  MOVWF  FE9
0DAAE:  MOVLW  01
0DAB0:  ADDWFC 03,W
0DAB2:  MOVWF  FEA
0DAB4:  MOVFF  FEF,311
0DAB8:  MOVLW  57
0DABA:  MOVLB  3
0DABC:  MOVWF  x12
0DABE:  MOVLB  0
0DAC0:  CALL   1C3E
0DAC4:  MOVLW  2C
0DAC6:  BTFSS  F9E.4
0DAC8:  BRA    DAC6
0DACA:  MOVWF  FAD
0DACC:  MOVLB  2
0DACE:  INCF   xD7,F
0DAD0:  BRA    DAA0
....................    } 
....................    fprintf(PC,"%x\r\n",CW_FORMAT[4]); 
0DAD2:  MOVFF  158,311
0DAD6:  MOVLW  57
0DAD8:  MOVLB  3
0DADA:  MOVWF  x12
0DADC:  MOVLB  0
0DADE:  CALL   1C3E
0DAE2:  MOVLW  0D
0DAE4:  BTFSS  F9E.4
0DAE6:  BRA    DAE4
0DAE8:  MOVWF  FAD
0DAEA:  MOVLW  0A
0DAEC:  BTFSS  F9E.4
0DAEE:  BRA    DAEC
0DAF0:  MOVWF  FAD
....................    Antenna_Deploy();                                                             //after each restart check BC_ATTEMPT_FLAG to deploy antenna 
0DAF2:  GOTO   6AA4
....................    //CAM deployment 
....................    if(PASSED_DAYS == 0 && UPLINK_SUCCESS == 0)                                  //automated CAM DEPLOYMENT mission condition 
0DAF6:  MOVF   x69,F
0DAF8:  BNZ   DB0E
0DAFA:  MOVF   x6A,F
0DAFC:  BNZ   DB0E
0DAFE:  MOVF   x7C,F
0DB00:  BNZ   DB0E
....................    {   
....................       CAM_DEPLOYMENT_OPERATION(0xAD);                                           //CMD for CAM deployment mode 
0DB02:  MOVLW  AD
0DB04:  MOVLB  2
0DB06:  MOVWF  xDA
0DB08:  MOVLB  0
0DB0A:  GOTO   6F50
....................    } 
....................    //try 5 times for reliability 
....................    AUTOMATICAL_MISSION_CHECK(); 
0DB0E:  CALL   A09C
....................    AUTOMATICAL_MISSION_CHECK(); 
0DB12:  CALL   A09C
....................    AUTOMATICAL_MISSION_CHECK(); 
0DB16:  CALL   A09C
....................    AUTOMATICAL_MISSION_CHECK(); 
0DB1A:  CALL   A09C
....................    AUTOMATICAL_MISSION_CHECK(); 
0DB1E:  CALL   A09C
....................  
....................    RESET_DATA = 0;                                                               //bandera a cero 
0DB22:  CLRF   xEB
....................  
....................  
....................    while(true) 
....................    { 
....................  
....................       BC_ON_30min();                                                             //if satellite shut down during automatical MSN, this function will be used after start again       
0DB24:  CALL   7BBC
....................       RESET_SATELLITE();                                                         //check reset command from RESET PIC 
0DB28:  CALL   7E76
....................        
....................       if(FAB_FLAG > 89)                                                          //every 90 sec, OBC gather sensor data and update CW format  
0DB2C:  MOVLB  2
0DB2E:  MOVF   x20,F
0DB30:  BNZ   DB40
0DB32:  MOVF   x1F,F
0DB34:  BNZ   DB40
0DB36:  MOVF   x1E,F
0DB38:  BNZ   DB40
0DB3A:  MOVF   x1D,W
0DB3C:  SUBLW  59
0DB3E:  BC    DBD6
....................       { 
....................          FAB_FLAG = 0; 
0DB40:  CLRF   x20
0DB42:  CLRF   x1F
0DB44:  CLRF   x1E
0DB46:  CLRF   x1D
....................          fprintf(PC,"\r\n***90sec passed***\r\n"); 
0DB48:  MOVLW  2E
0DB4A:  MOVWF  FF6
0DB4C:  MOVLW  17
0DB4E:  MOVWF  FF7
0DB50:  MOVLW  00
0DB52:  MOVWF  FF8
0DB54:  MOVLB  0
0DB56:  CALL   362C
....................          FAB_TEST_OPERATION();                                                   //carga el array FABDATA[], crea el CW format y los guarda en la Flash 
0DB5A:  CALL   581C
....................          COM_DATA = 0; 
0DB5E:  CLRF   x96
....................          STORE_ADRESS_DATA_TO_FLASH();                                           //for store the address info 
0DB60:  CALL   3AF8
....................          fprintf(PC,"CW:"); 
0DB64:  MOVLW  46
0DB66:  MOVWF  FF6
0DB68:  MOVLW  17
0DB6A:  MOVWF  FF7
0DB6C:  MOVLW  00
0DB6E:  MOVWF  FF8
0DB70:  CALL   362C
....................          for(int i = 0; i < 4; i++)                                              //show CW format 
0DB74:  MOVLB  2
0DB76:  CLRF   xD8
0DB78:  MOVF   xD8,W
0DB7A:  SUBLW  03
0DB7C:  BNC   DBAA
....................          { 
....................             fprintf(PC,"%x,",CW_FORMAT[i]); 
0DB7E:  CLRF   03
0DB80:  MOVF   xD8,W
0DB82:  ADDLW  54
0DB84:  MOVWF  FE9
0DB86:  MOVLW  01
0DB88:  ADDWFC 03,W
0DB8A:  MOVWF  FEA
0DB8C:  MOVFF  FEF,311
0DB90:  MOVLW  57
0DB92:  MOVLB  3
0DB94:  MOVWF  x12
0DB96:  MOVLB  0
0DB98:  CALL   1C3E
0DB9C:  MOVLW  2C
0DB9E:  BTFSS  F9E.4
0DBA0:  BRA    DB9E
0DBA2:  MOVWF  FAD
0DBA4:  MOVLB  2
0DBA6:  INCF   xD8,F
0DBA8:  BRA    DB78
....................          } 
....................          fprintf(PC,"%x\r\n",CW_FORMAT[4]); 
0DBAA:  MOVFF  158,311
0DBAE:  MOVLW  57
0DBB0:  MOVLB  3
0DBB2:  MOVWF  x12
0DBB4:  MOVLB  0
0DBB6:  CALL   1C3E
0DBBA:  MOVLW  0D
0DBBC:  BTFSS  F9E.4
0DBBE:  BRA    DBBC
0DBC0:  MOVWF  FAD
0DBC2:  MOVLW  0A
0DBC4:  BTFSS  F9E.4
0DBC6:  BRA    DBC4
0DBC8:  MOVWF  FAD
....................          DELETE_CMD_FROM_PC();                                                   //delete PC command 
0DBCA:  CALL   A176
....................          PC_DATA = 0;                                                            //reset interrupt data for safety 
0DBCE:  CLRF   x99
....................          COM_DATA = 0;                                                           //reset interrupt data for safety 
0DBD0:  CLRF   x96
....................          RESET_DATA = 0;                                                         //reset interrupt data for safety 
0DBD2:  CLRF   xEB
0DBD4:  MOVLB  2
....................       }    
....................        
....................       /*maisun 
....................        
....................       if((RESERVE_MIN_FLAG >= RESERVE_TARGET_FLAG) && RESERVE_CHECK == 1)        //check the reservation command, if time came, execute 
....................       { 
....................          fprintf(PC,"Execute reserved command\r\n"); 
....................          MISSION_CONTENTS = CHECK_MEMORY_FUNCTION(MISSION_CONTENTS);             //avoid erase or transfer sectors from memory as reserved commands 
....................          EXECUTE_MISSION_from_COM(MISSION_CONTENTS,MISSION_DETAIL,RESERVE_ADDRESS_1,RESERVE_ADDRESS_2,RESERVE_ADDRESS_3,RESERVE_ADDRESS_4,RESERVE_PACKET_NUM);    //execute command 
....................          Remove_1_Reservation();                                                 //remove the finished command and sort again and save updated command table 
....................          if(reserve_table[80] != 0x00)                                           //if next reservation is registered, wait until time will be come 
....................          { 
....................             Reserve_next();                                                      //take the next CMD from the table 
....................          }else{                                                                  //if all reservation finished, reset flag about reservation 
....................             RESERVE_TARGET_FLAG = 0;                                             //reset flag 
....................             RESERVE_CHECK = 0; 
....................             MISSION_CONTENTS = 0; 
....................             MISSION_DETAIL = 0; 
....................          } 
....................       } 
....................        
....................       */ 
....................        
....................       if(buffer_from_com)                                                        //If TRU -> (in_bffr_main[0]==0xAA) && (in_bffr_main[15]==0xBB) 
0DBD6:  MOVLB  0
0DBD8:  MOVF   x86,W
0DBDA:  SUBLW  AA
0DBDC:  BNZ   DC5A
0DBDE:  MOVF   x95,W
0DBE0:  SUBLW  BB
0DBE2:  BNZ   DC5A
....................       { 
....................          fprintf(PC,"COM COMMAND:\r\n"); 
0DBE4:  MOVLW  4A
0DBE6:  MOVWF  FF6
0DBE8:  MOVLW  17
0DBEA:  MOVWF  FF7
0DBEC:  MOVLW  00
0DBEE:  MOVWF  FF8
0DBF0:  CALL   362C
....................          for(COM_DATA = 0; COM_DATA < 16; COM_DATA++)                            //display command in PC 
0DBF4:  CLRF   x96
0DBF6:  MOVF   x96,W
0DBF8:  SUBLW  0F
0DBFA:  BNC   DC26
....................          { 
....................             //fputc(in_bffr_main[COM_DATA],PC); 
....................             fprintf(PC,"%x,",in_bffr_main[COM_DATA]);                            //para visualizar en la PC 
0DBFC:  CLRF   03
0DBFE:  MOVF   x96,W
0DC00:  ADDLW  86
0DC02:  MOVWF  FE9
0DC04:  MOVLW  00
0DC06:  ADDWFC 03,W
0DC08:  MOVWF  FEA
0DC0A:  MOVFF  FEF,311
0DC0E:  MOVLW  57
0DC10:  MOVLB  3
0DC12:  MOVWF  x12
0DC14:  MOVLB  0
0DC16:  CALL   1C3E
0DC1A:  MOVLW  2C
0DC1C:  BTFSS  F9E.4
0DC1E:  BRA    DC1C
0DC20:  MOVWF  FAD
0DC22:  INCF   x96,F
0DC24:  BRA    DBF6
....................          } 
....................          COM_DATA = 0;                                                           //position indicator for the vector in_bffr_main[] 
0DC26:  CLRF   x96
....................          //fprintf(PC,"COM COMMAND\r\n"); 
....................          if(in_bffr_main[5] == 0)                                                //if time data is not placed 
0DC28:  MOVF   x8B,F
0DC2A:  BNZ   DC4C
....................          { 
....................             EXECUTE_MISSION_from_COM(in_bffr_main[4],in_bffr_main[6],in_bffr_main[7],in_bffr_main[8],in_bffr_main[9],in_bffr_main[10],in_bffr_main[11]); 
0DC2C:  MOVFF  8A,2DA
0DC30:  MOVFF  8C,2DB
0DC34:  MOVFF  8D,2DC
0DC38:  MOVFF  8E,2DD
0DC3C:  MOVFF  8F,2DE
0DC40:  MOVFF  90,2DF
0DC44:  MOVFF  91,2E0
0DC48:  GOTO   C5B4
....................          } 
....................          /*maisun 
....................          else{                                                                  //if time data is placed (that means reservation command) 
....................             SAVE_SAT_LOG(in_bffr_main[4],in_bffr_main[5],in_bffr_main[6]);       //reservation command log 
....................             Reserve_command_COM();                                               //used when in_bffr_main[5] has a Time value 
....................          } 
....................          */ 
....................          DELETE_CMD_FROM_PC();                                                   //set to zero the array CMD_FROM_PC[] 
0DC4C:  CALL   A176
....................          Delete_Buffer();                                                        //set to zero the array in_bffr_main[] 
0DC50:  CALL   4644
....................          CMD_FROM_PC[1] = 0; 
0DC54:  CLRF   x7F
....................          COM_DATA = 0;                                                           //position indicator for the vector in_bffr_main[] 
0DC56:  CLRF   x96
....................          PC_DATA = 0;                                                            //position indicator for the vector CMD_FROM_PC[] 
0DC58:  CLRF   x99
....................       } 
....................        
.................... //COMMANDS EXECUTION FROM PC//        
....................        
....................       if(CMD_FROM_PC[0]) 
0DC5A:  MOVF   x7E,F
0DC5C:  BZ    DCE0
....................       { 
....................          fprintf(PC,"COMMAND RECEIVED FROM PC: "); 
0DC5E:  MOVLW  5A
0DC60:  MOVWF  FF6
0DC62:  MOVLW  17
0DC64:  MOVWF  FF7
0DC66:  MOVLW  00
0DC68:  MOVWF  FF8
0DC6A:  CALL   362C
....................          for(int m = 0; m < 8; m++) 
0DC6E:  MOVLB  2
0DC70:  CLRF   xD9
0DC72:  MOVF   xD9,W
0DC74:  SUBLW  07
0DC76:  BNC   DC9C
....................          { 
....................             fprintf(PC,"%x",CMD_FROM_PC[m]); 
0DC78:  CLRF   03
0DC7A:  MOVF   xD9,W
0DC7C:  ADDLW  7E
0DC7E:  MOVWF  FE9
0DC80:  MOVLW  00
0DC82:  ADDWFC 03,W
0DC84:  MOVWF  FEA
0DC86:  MOVFF  FEF,311
0DC8A:  MOVLW  57
0DC8C:  MOVLB  3
0DC8E:  MOVWF  x12
0DC90:  MOVLB  0
0DC92:  CALL   1C3E
0DC96:  MOVLB  2
0DC98:  INCF   xD9,F
0DC9A:  BRA    DC72
....................          } 
....................          fprintf(PC,"\r\n"); 
0DC9C:  MOVLW  0D
0DC9E:  BTFSS  F9E.4
0DCA0:  BRA    DC9E
0DCA2:  MOVWF  FAD
0DCA4:  MOVLW  0A
0DCA6:  BTFSS  F9E.4
0DCA8:  BRA    DCA6
0DCAA:  MOVWF  FAD
....................           
....................          if(CMD_FROM_PC[1] == 0)                                                 //if time data is not placed 
0DCAC:  MOVLB  0
0DCAE:  MOVF   x7F,F
0DCB0:  BNZ   DCD2
....................          { 
....................             EXECUTE_MISSION_from_PC(CMD_FROM_PC[0],CMD_FROM_PC[2],CMD_FROM_PC[3],CMD_FROM_PC[4],CMD_FROM_PC[5],CMD_FROM_PC[6],CMD_FROM_PC[7]);//execute mission 
0DCB2:  MOVFF  7E,2DA
0DCB6:  MOVFF  80,2DB
0DCBA:  MOVFF  81,2DC
0DCBE:  MOVFF  82,2DD
0DCC2:  MOVFF  83,2DE
0DCC6:  MOVFF  84,2DF
0DCCA:  MOVFF  85,2E0
0DCCE:  GOTO   CFEC
....................          } 
....................          /*maisun 
....................          else{                                                                  //if time data is placed (that means reservation command) 
....................             SAVE_SAT_LOG(CMD_FROM_PC[0],CMD_FROM_PC[1],CMD_FROM_PC[2]);          //reservation command log 
....................             Reserve_command_PC();                                                //mission command reservation from PC comand 
....................          } 
....................          */ 
....................          DELETE_CMD_FROM_PC();                                                   //clear CMD_FROM_PC[] array 
0DCD2:  CALL   A176
....................          Delete_Buffer();                                                        //clear in_bffr_main[] array 
0DCD6:  CALL   4644
....................          CMD_FROM_PC[1] = 0; 
0DCDA:  CLRF   x7F
....................          COM_DATA = 0;                                                           //clear COM correct receiving data flag 
0DCDC:  CLRF   x96
....................          PC_DATA = 0;                                                            //clear PC correct receiving data flag 
0DCDE:  CLRF   x99
....................       } 
....................        
....................       if(COM_DATA != 0 || PC_DATA != 0)                                          //COM_DATA Y PC_DATA SERAN CERO SI SE RECIBEN LA CANTIDAD CORRECTA DE CARACTERES 
0DCE0:  MOVF   x96,F
0DCE2:  BNZ   DCE8
0DCE4:  MOVF   x99,F
0DCE6:  BZ    DD1A
....................       { 
....................          delay_ms(500); 
0DCE8:  MOVLW  02
0DCEA:  MOVLB  2
0DCEC:  MOVWF  xDA
0DCEE:  MOVLW  FA
0DCF0:  MOVLB  3
0DCF2:  MOVWF  x19
0DCF4:  MOVLB  0
0DCF6:  CALL   1F78
0DCFA:  MOVLB  2
0DCFC:  DECFSZ xDA,F
0DCFE:  BRA    DCEE
....................          if(PC_DATA != 0)                                                        //Si no se recibio la cantidad correcta de caracteres pone a cero el array CMD_FROM_PC 
0DD00:  MOVLB  0
0DD02:  MOVF   x99,F
0DD04:  BZ    DD1A
....................          { 
....................             CMD_FROM_PC[0] = 0; 
0DD06:  CLRF   x7E
....................             CMD_FROM_PC[1] = 0; 
0DD08:  CLRF   x7F
....................             CMD_FROM_PC[2] = 0; 
0DD0A:  CLRF   x80
....................             CMD_FROM_PC[3] = 0; 
0DD0C:  CLRF   x81
....................             CMD_FROM_PC[4] = 0; 
0DD0E:  CLRF   x82
....................             CMD_FROM_PC[5] = 0; 
0DD10:  CLRF   x83
....................             CMD_FROM_PC[6] = 0; 
0DD12:  CLRF   x84
....................             CMD_FROM_PC[7] = 0; 
0DD14:  CLRF   x85
....................             COM_DATA = 0; 
0DD16:  CLRF   x96
....................             PC_DATA = 0; 
0DD18:  CLRF   x99
....................          } 
....................       } 
....................       delay_ms(400);  
0DD1A:  MOVLW  02
0DD1C:  MOVLB  2
0DD1E:  MOVWF  xDA
0DD20:  MOVLW  C8
0DD22:  MOVLB  3
0DD24:  MOVWF  x19
0DD26:  MOVLB  0
0DD28:  CALL   1F78
0DD2C:  MOVLB  2
0DD2E:  DECFSZ xDA,F
0DD30:  BRA    DD20
0DD32:  MOVLB  0
0DD34:  BRA    DB24
....................     
....................    } 
....................  
.................... } 
....................  
0DD36:  SLEEP 
....................  

Configuration Fuses:
   Word  1: F6A0   STVREN NOXINST NODEBUG NOBROWNOUT BORV18 NOPROTECT
   Word  2: FFA2   PR SOSC_DIG CLOCKOUT IESO NOPLL
   Word  3: F032   HS
   Word  4: F7FF   WPFP WPDIS WPEND NOWPCFG
   Word  5: FF03   T5G_IS_T5G CINA_DEFAULT IOL1WAY LS48MHZ MSSP2MSK7 MSSPMSK7
   Word  6: FCFF   WDTWIN_25% WDTCLK_FRC WDT32768 NOWDT WINDIS WPRES128
   Word  7: F01D   NOVREGSLEEP VBATBOR DSBOR DS_SW
   Word  8: F3F8   DSWDT_25DAYS DSWDT DSWDTOSC_INT
