CCS PCH C Compiler, Version 5.056, 29513               06-Feb-20 12:17

               Filename:   C:\Users\maisun\Documents\PhD\offline\code\ccs\BIRDS3_FM\birds3_fm.lst

               ROM used:   53966 bytes (41%)
                           Largest free fragment is 65520
               RAM used:   674 (19%) at main() level
                           750 (21%) worst case
               Stack used: 11 locations (9 in main + 2 for interrupts)
               Stack size: 31

*
00000:  NOP   
00002:  GOTO   CD3A
*
00008:  GOTO   00F2
0000C:  NOP   
0000E:  NOP   
00010:  NOP   
00012:  NOP   
00014:  NOP   
00016:  NOP   
00018:  MOVWF  04
0001A:  MOVFF  FD8,05
0001E:  MOVFF  FE0,06
00022:  MOVLB  0
00024:  MOVFF  FE9,0C
00028:  MOVFF  FEA,07
0002C:  MOVFF  FE1,08
00030:  MOVFF  FE2,09
00034:  MOVFF  FD9,0A
00038:  MOVFF  FDA,0B
0003C:  MOVFF  FF3,12
00040:  MOVFF  FF4,13
00044:  MOVFF  FFA,14
00048:  MOVFF  FF5,15
0004C:  MOVFF  FF6,16
00050:  MOVFF  FF7,17
00054:  MOVFF  FF8,18
00058:  MOVFF  FFB,19
0005C:  MOVFF  00,0E
00060:  MOVFF  01,0F
00064:  MOVFF  02,10
00068:  MOVFF  03,11
0006C:  BTFSS  FF2.5
0006E:  GOTO   0078
00072:  BTFSC  FF2.2
00074:  GOTO   0BC6
00078:  BTFSS  F9D.5
0007A:  GOTO   0084
0007E:  BTFSC  F9E.5
00080:  GOTO   0C50
00084:  BTFSS  F61.5
00086:  GOTO   0090
0008A:  BTFSC  FA6.5
0008C:  GOTO   0CAA
00090:  BTFSS  F61.7
00092:  GOTO   009C
00096:  BTFSC  FA6.7
00098:  GOTO   0CE0
0009C:  MOVFF  0E,00
000A0:  MOVFF  0F,01
000A4:  MOVFF  10,02
000A8:  MOVFF  11,03
000AC:  MOVFF  0C,FE9
000B0:  MOVFF  07,FEA
000B4:  BSF    07.7
000B6:  MOVFF  08,FE1
000BA:  MOVFF  09,FE2
000BE:  MOVFF  0A,FD9
000C2:  MOVFF  0B,FDA
000C6:  MOVFF  12,FF3
000CA:  MOVFF  13,FF4
000CE:  MOVFF  14,FFA
000D2:  MOVFF  15,FF5
000D6:  MOVFF  16,FF6
000DA:  MOVFF  17,FF7
000DE:  MOVFF  18,FF8
000E2:  MOVFF  19,FFB
000E6:  MOVF   04,W
000E8:  MOVFF  06,FE0
000EC:  MOVFF  05,FD8
000F0:  RETFIE 0
000F2:  MOVLB  0
000F4:  MOVFF  FE9,20
000F8:  MOVFF  FEA,1B
000FC:  MOVFF  FE1,1C
00100:  MOVFF  FE2,1D
00104:  MOVFF  FD9,1E
00108:  MOVFF  FDA,1F
0010C:  MOVFF  FF3,26
00110:  MOVFF  FF4,27
00114:  MOVFF  FFA,28
00118:  MOVFF  FF5,29
0011C:  MOVFF  FF6,2A
00120:  MOVFF  FF7,2B
00124:  MOVFF  FF8,2C
00128:  MOVFF  FFB,2D
0012C:  MOVFF  00,22
00130:  MOVFF  01,23
00134:  MOVFF  02,24
00138:  MOVFF  03,25
0013C:  BTFSS  FA3.5
0013E:  GOTO   0148
00142:  BTFSC  FA4.5
00144:  GOTO   0C82
00148:  MOVFF  22,00
0014C:  MOVFF  23,01
00150:  MOVFF  24,02
00154:  MOVFF  25,03
00158:  MOVFF  20,FE9
0015C:  MOVFF  1B,FEA
00160:  BSF    1B.7
00162:  MOVFF  1C,FE1
00166:  MOVFF  1D,FE2
0016A:  MOVFF  1E,FD9
0016E:  MOVFF  1F,FDA
00172:  MOVFF  26,FF3
00176:  MOVFF  27,FF4
0017A:  MOVFF  28,FFA
0017E:  MOVFF  29,FF5
00182:  MOVFF  2A,FF6
00186:  MOVFF  2B,FF7
0018A:  MOVFF  2C,FF8
0018E:  MOVFF  2D,FFB
00192:  RETFIE 1
.................... //////////////////////////////////////////////////////////////////////////////////////////////////////////////// 
.................... // 
.................... //FM_version_2.3 
.................... //Final Flight Model Code 
.................... //2019_02_16 
.................... //Yuta KAKIMOTO 
.................... // 
.................... //////////////////////////////////////////////////////////////////////////////////////////////////////////////// 
....................  
.................... #include <birds3_fm.h> 
.................... #include <18F67J94.h> 
.................... //////////// Standard Header file for the PIC18F67J94 device //////////////// 
.................... /////////////////////////////////////////////////////////////////////////// 
.................... ////        (C) Copyright 1996, 2014 Custom Computer Services          //// 
.................... //// This source code may only be used by licensed users of the CCS C  //// 
.................... //// compiler.  This source code may only be distributed to other      //// 
.................... //// licensed users of the CCS C compiler.  No other use, reproduction //// 
.................... //// or distribution is permitted without written permission.          //// 
.................... //// Derivative programs created using this software in object code    //// 
.................... //// form are not restricted in any way.                               //// 
.................... /////////////////////////////////////////////////////////////////////////// 
.................... #device PIC18F67J94 
00194:  DATA 0D,0A
00196:  DATA 50,41
00198:  DATA 53,53
0019A:  DATA 45,44
0019C:  DATA 20,44
0019E:  DATA 41,59
001A0:  DATA 53,3A
001A2:  DATA 25,78
001A4:  DATA 0D,0A
001A6:  DATA 00,00
001A8:  DATA 52,45
001AA:  DATA 53,45
001AC:  DATA 52,56
001AE:  DATA 45,20
001B0:  DATA 43,48
001B2:  DATA 45,43
001B4:  DATA 4B,3A
001B6:  DATA 25,78
001B8:  DATA 0D,0A
001BA:  DATA 00,00
001BC:  DATA 4B,69
001BE:  DATA 6C,6C
001C0:  DATA 20,46
001C2:  DATA 4C,41
001C4:  DATA 47,20
001C6:  DATA 4D,41
001C8:  DATA 49,4E
001CA:  DATA 3A,25
001CC:  DATA 78,0D
001CE:  DATA 0A,00
001D0:  DATA 4B,69
001D2:  DATA 6C,6C
001D4:  DATA 20,46
001D6:  DATA 4C,41
001D8:  DATA 47,20
001DA:  DATA 46,41
001DC:  DATA 42,3A
001DE:  DATA 25,78
001E0:  DATA 0D,0A
001E2:  DATA 00,00
001E4:  DATA 41,55
001E6:  DATA 54,4F
001E8:  DATA 20,48
001EA:  DATA 49,47
001EC:  DATA 48,20
001EE:  DATA 53,41
001F0:  DATA 4D,50
001F2:  DATA 4C,49
001F4:  DATA 4E,47
001F6:  DATA 3A,25
001F8:  DATA 78,0D
001FA:  DATA 0A,00
001FC:  DATA 41,55
001FE:  DATA 54,4F
00200:  DATA 20,43
00202:  DATA 41,4D
00204:  DATA 3A,25
00206:  DATA 78,0D
00208:  DATA 0A,00
0020A:  DATA 41,55
0020C:  DATA 54,4F
0020E:  DATA 20,4C
00210:  DATA 44,4D
00212:  DATA 3A,25
00214:  DATA 78,0D
00216:  DATA 0A,00
00218:  DATA 41,55
0021A:  DATA 54,4F
0021C:  DATA 20,41
0021E:  DATA 44,43
00220:  DATA 53,3A
00222:  DATA 25,78
00224:  DATA 0D,0A
00226:  DATA 00,00
00228:  DATA 41,4E
0022A:  DATA 54,45
0022C:  DATA 4E,4E
0022E:  DATA 41,20
00230:  DATA 44,45
00232:  DATA 50,4C
00234:  DATA 4F,59
00236:  DATA 3A,25
00238:  DATA 78,0D
0023A:  DATA 0A,00
0023C:  DATA 41,4E
0023E:  DATA 54,45
00240:  DATA 4E,4E
00242:  DATA 41,20
00244:  DATA 44,45
00246:  DATA 50,4C
00248:  DATA 4F,59
0024A:  DATA 20,41
0024C:  DATA 54,54
0024E:  DATA 45,4D
00250:  DATA 50,54
00252:  DATA 3A,25
00254:  DATA 78,0D
00256:  DATA 0A,00
00258:  DATA 55,50
0025A:  DATA 4C,49
0025C:  DATA 4E,4B
0025E:  DATA 20,53
00260:  DATA 55,43
00262:  DATA 43,45
00264:  DATA 53,53
00266:  DATA 3A,25
00268:  DATA 78,0D
0026A:  DATA 0A,0D
0026C:  DATA 0A,00
0026E:  DATA 0D,0A
00270:  DATA 41,44
00272:  DATA 44,20
00274:  DATA 49,4E
00276:  DATA 46,4F
00278:  DATA 20,41
0027A:  DATA 44,44
0027C:  DATA 52,45
0027E:  DATA 53,53
00280:  DATA 3A,25
00282:  DATA 6C,78
00284:  DATA 0D,0A
00286:  DATA 0D,0A
00288:  DATA 00,00
0028A:  DATA 46,4C
0028C:  DATA 41,47
0028E:  DATA 20,44
00290:  DATA 41,54
00292:  DATA 41,20
00294:  DATA 41,44
00296:  DATA 44,52
00298:  DATA 45,53
0029A:  DATA 53,3A
0029C:  DATA 25,78
0029E:  DATA 25,78
002A0:  DATA 25,78
002A2:  DATA 25,78
002A4:  DATA 0D,0A
002A6:  DATA 00,00
002A8:  DATA 52,45
002AA:  DATA 53,45
002AC:  DATA 52,56
002AE:  DATA 41,54
002B0:  DATA 49,4F
002B2:  DATA 4E,20
002B4:  DATA 54,41
002B6:  DATA 42,4C
002B8:  DATA 45,20
002BA:  DATA 41,44
002BC:  DATA 44,52
002BE:  DATA 45,53
002C0:  DATA 53,3A
002C2:  DATA 25,78
002C4:  DATA 25,78
002C6:  DATA 25,78
002C8:  DATA 25,78
002CA:  DATA 0D,0A
002CC:  DATA 00,00
002CE:  DATA 53,41
002D0:  DATA 54,45
002D2:  DATA 4C,4C
002D4:  DATA 49,54
002D6:  DATA 45,20
002D8:  DATA 4C,4F
002DA:  DATA 47,20
002DC:  DATA 41,44
002DE:  DATA 44,52
002E0:  DATA 45,53
002E2:  DATA 53,3A
002E4:  DATA 25,78
002E6:  DATA 25,78
002E8:  DATA 25,78
002EA:  DATA 25,78
002EC:  DATA 0D,0A
002EE:  DATA 00,00
002F0:  DATA 43,41
002F2:  DATA 4D,20
002F4:  DATA 41,44
002F6:  DATA 44,52
002F8:  DATA 45,53
002FA:  DATA 53,3A
002FC:  DATA 25,78
002FE:  DATA 25,78
00300:  DATA 25,78
00302:  DATA 25,78
00304:  DATA 0D,0A
00306:  DATA 00,00
00308:  DATA 46,41
0030A:  DATA 42,20
0030C:  DATA 48,4B
0030E:  DATA 20,41
00310:  DATA 44,44
00312:  DATA 52,45
00314:  DATA 53,53
00316:  DATA 3A,25
00318:  DATA 78,25
0031A:  DATA 78,25
0031C:  DATA 78,25
0031E:  DATA 78,0D
00320:  DATA 0A,00
00322:  DATA 46,41
00324:  DATA 42,20
00326:  DATA 43,57
00328:  DATA 20,41
0032A:  DATA 44,44
0032C:  DATA 45,52
0032E:  DATA 53,53
00330:  DATA 3A,25
00332:  DATA 78,25
00334:  DATA 78,25
00336:  DATA 78,25
00338:  DATA 78,0D
0033A:  DATA 0A,00
0033C:  DATA 41,44
0033E:  DATA 43,53
00340:  DATA 20,53
00342:  DATA 45,4E
00344:  DATA 53,4F
00346:  DATA 52,20
00348:  DATA 41,44
0034A:  DATA 44,52
0034C:  DATA 45,53
0034E:  DATA 53,3A
00350:  DATA 25,78
00352:  DATA 25,78
00354:  DATA 25,78
00356:  DATA 25,78
00358:  DATA 0D,0A
0035A:  DATA 00,00
0035C:  DATA 4C,44
0035E:  DATA 4D,20
00360:  DATA 41,44
00362:  DATA 44,52
00364:  DATA 45,53
00366:  DATA 53,3A
00368:  DATA 25,78
0036A:  DATA 25,78
0036C:  DATA 25,78
0036E:  DATA 25,78
00370:  DATA 0D,0A
00372:  DATA 00,00
00374:  DATA 48,49
00376:  DATA 47,48
00378:  DATA 20,53
0037A:  DATA 41,4D
0037C:  DATA 50,20
0037E:  DATA 48,4B
00380:  DATA 20,41
00382:  DATA 44,44
00384:  DATA 45,52
00386:  DATA 53,53
00388:  DATA 3A,25
0038A:  DATA 78,25
0038C:  DATA 78,25
0038E:  DATA 78,25
00390:  DATA 78,0D
00392:  DATA 0A,00
00394:  DATA 57,52
00396:  DATA 49,54
00398:  DATA 45,20
0039A:  DATA 25,6C
0039C:  DATA 78,20
0039E:  DATA 54,49
003A0:  DATA 4D,45
003A2:  DATA 53,0D
003A4:  DATA 0A,00
003A6:  DATA 0D,0A
003A8:  DATA 50,41
003AA:  DATA 53,53
003AC:  DATA 45,44
003AE:  DATA 20,44
003B0:  DATA 41,59
003B2:  DATA 53,3A
003B4:  DATA 25,6C
003B6:  DATA 78,0D
003B8:  DATA 0A,00
003BA:  DATA 52,45
003BC:  DATA 53,45
003BE:  DATA 52,56
003C0:  DATA 45,20
003C2:  DATA 43,48
003C4:  DATA 45,43
003C6:  DATA 4B,3A
003C8:  DATA 25,78
003CA:  DATA 0D,0A
003CC:  DATA 00,00
003CE:  DATA 4B,69
003D0:  DATA 6C,6C
003D2:  DATA 20,46
003D4:  DATA 4C,41
003D6:  DATA 47,20
003D8:  DATA 4D,41
003DA:  DATA 49,4E
003DC:  DATA 3A,25
003DE:  DATA 78,0D
003E0:  DATA 0A,00
003E2:  DATA 4B,69
003E4:  DATA 6C,6C
003E6:  DATA 20,46
003E8:  DATA 4C,41
003EA:  DATA 47,20
003EC:  DATA 46,41
003EE:  DATA 42,3A
003F0:  DATA 25,78
003F2:  DATA 0D,0A
003F4:  DATA 00,00
003F6:  DATA 41,55
003F8:  DATA 54,4F
003FA:  DATA 20,48
003FC:  DATA 49,47
003FE:  DATA 48,20
00400:  DATA 53,41
00402:  DATA 4D,50
00404:  DATA 4C,49
00406:  DATA 4E,47
00408:  DATA 3A,25
0040A:  DATA 78,0D
0040C:  DATA 0A,00
0040E:  DATA 41,55
00410:  DATA 54,4F
00412:  DATA 20,43
00414:  DATA 41,4D
00416:  DATA 3A,25
00418:  DATA 78,0D
0041A:  DATA 0A,00
0041C:  DATA 41,55
0041E:  DATA 54,4F
00420:  DATA 20,4C
00422:  DATA 44,4D
00424:  DATA 3A,25
00426:  DATA 78,0D
00428:  DATA 0A,00
0042A:  DATA 41,55
0042C:  DATA 54,4F
0042E:  DATA 20,41
00430:  DATA 44,43
00432:  DATA 53,3A
00434:  DATA 25,78
00436:  DATA 0D,0A
00438:  DATA 00,00
0043A:  DATA 41,4E
0043C:  DATA 54,45
0043E:  DATA 4E,4E
00440:  DATA 41,20
00442:  DATA 44,45
00444:  DATA 50,4C
00446:  DATA 4F,59
00448:  DATA 3A,25
0044A:  DATA 78,0D
0044C:  DATA 0A,00
0044E:  DATA 55,50
00450:  DATA 4C,49
00452:  DATA 4E,4B
00454:  DATA 20,53
00456:  DATA 55,43
00458:  DATA 43,45
0045A:  DATA 53,53
0045C:  DATA 3A,25
0045E:  DATA 78,0D
00460:  DATA 0A,0D
00462:  DATA 0A,00
00464:  DATA 53,74
00466:  DATA 6F,72
00468:  DATA 65,69
0046A:  DATA 6E,67
0046C:  DATA 20,46
0046E:  DATA 4C,41
00470:  DATA 47,20
00472:  DATA 49,4E
00474:  DATA 46,4F
00476:  DATA 20,44
00478:  DATA 4F,4E
0047A:  DATA 45,0D
0047C:  DATA 0A,00
0047E:  DATA 0D,0A
00480:  DATA 61,64
00482:  DATA 64,3A
00484:  DATA 25,6C
00486:  DATA 78,0D
00488:  DATA 0A,00
0048A:  DATA 41,44
0048C:  DATA 20,43
0048E:  DATA 4F,55
00490:  DATA 4E,54
00492:  DATA 45,52
00494:  DATA 3A,25
00496:  DATA 6C,78
00498:  DATA 0D,0A
0049A:  DATA 00,00
0049C:  DATA 43,48
0049E:  DATA 41,4E
004A0:  DATA 47,45
004A2:  DATA 20,4D
004A4:  DATA 45,4D
004A6:  DATA 4F,52
004A8:  DATA 59,20
004AA:  DATA 41,44
004AC:  DATA 44,52
004AE:  DATA 45,53
004B0:  DATA 53,3A
004B2:  DATA 00,00
004B4:  DATA 53,74
004B6:  DATA 61,72
004B8:  DATA 74,20
004BA:  DATA 53,74
004BC:  DATA 6F,72
004BE:  DATA 65,69
004C0:  DATA 6E,67
004C2:  DATA 0D,0A
004C4:  DATA 00,00
004C6:  DATA 53,74
004C8:  DATA 6F,72
004CA:  DATA 65,69
004CC:  DATA 6E,67
004CE:  DATA 20,41
004D0:  DATA 44,44
004D2:  DATA 20,44
004D4:  DATA 4F,4E
004D6:  DATA 45,3A
004D8:  DATA 25,6C
004DA:  DATA 78,0D
004DC:  DATA 0A,00
004DE:  DATA 45,52
004E0:  DATA 41,53
004E2:  DATA 45,20
004E4:  DATA 53,54
004E6:  DATA 41,52
004E8:  DATA 54,0D
004EA:  DATA 0A,00
004EC:  DATA 44,4F
004EE:  DATA 4E,45
004F0:  DATA 00,00
004F2:  DATA 65,72
004F4:  DATA 61,73
004F6:  DATA 69,6E
004F8:  DATA 67,20
004FA:  DATA 6E,65
004FC:  DATA 78,74
004FE:  DATA 20,73
00500:  DATA 65,63
00502:  DATA 74,6F
00504:  DATA 72,0D
00506:  DATA 0A,00
00508:  DATA 65,72
0050A:  DATA 61,73
0050C:  DATA 69,6E
0050E:  DATA 67,20
00510:  DATA 6E,65
00512:  DATA 78,74
00514:  DATA 20,73
00516:  DATA 65,63
00518:  DATA 74,6F
0051A:  DATA 72,0D
0051C:  DATA 0A,00
0051E:  DATA 65,72
00520:  DATA 61,73
00522:  DATA 69,6E
00524:  DATA 67,20
00526:  DATA 6E,65
00528:  DATA 78,74
0052A:  DATA 20,73
0052C:  DATA 65,63
0052E:  DATA 74,6F
00530:  DATA 72,0D
00532:  DATA 0A,00
00534:  DATA 65,72
00536:  DATA 61,73
00538:  DATA 69,6E
0053A:  DATA 67,20
0053C:  DATA 6E,65
0053E:  DATA 78,74
00540:  DATA 20,73
00542:  DATA 65,63
00544:  DATA 74,6F
00546:  DATA 72,0D
00548:  DATA 0A,00
0054A:  DATA 65,72
0054C:  DATA 61,73
0054E:  DATA 69,6E
00550:  DATA 67,20
00552:  DATA 6E,65
00554:  DATA 78,74
00556:  DATA 20,73
00558:  DATA 65,63
0055A:  DATA 74,6F
0055C:  DATA 72,0D
0055E:  DATA 0A,00
00560:  DATA 52,45
00562:  DATA 53,45
00564:  DATA 52,56
00566:  DATA 45,5F
00568:  DATA 43,48
0056A:  DATA 45,43
0056C:  DATA 4B,20
0056E:  DATA 3D,20
00570:  DATA 25,78
00572:  DATA 0D,0A
00574:  DATA 00,00
00576:  DATA 4E,45
00578:  DATA 58,54
0057A:  DATA 20,4D
0057C:  DATA 49,53
0057E:  DATA 53,49
00580:  DATA 4F,4E
00582:  DATA 5F,43
00584:  DATA 4F,4E
00586:  DATA 54,45
00588:  DATA 4E,54
0058A:  DATA 53,20
0058C:  DATA 3D,20
0058E:  DATA 25,78
00590:  DATA 0D,0A
00592:  DATA 00,00
00594:  DATA 52,45
00596:  DATA 53,45
00598:  DATA 52,56
0059A:  DATA 45,5F
0059C:  DATA 54,41
0059E:  DATA 52,47
005A0:  DATA 45,54
005A2:  DATA 5F,46
005A4:  DATA 4C,41
005A6:  DATA 47,20
005A8:  DATA 3D,20
005AA:  DATA 25,78
005AC:  DATA 0D,0A
005AE:  DATA 00,00
005B0:  DATA 4E,45
005B2:  DATA 58,54
005B4:  DATA 20,4D
005B6:  DATA 49,53
005B8:  DATA 53,49
005BA:  DATA 4F,4E
005BC:  DATA 20,44
005BE:  DATA 45,54
005C0:  DATA 41,49
005C2:  DATA 4C,20
005C4:  DATA 3D,20
005C6:  DATA 25,78
005C8:  DATA 0D,0A
005CA:  DATA 00,00
005CC:  DATA 52,45
005CE:  DATA 53,45
005D0:  DATA 52,56
005D2:  DATA 45,5F
005D4:  DATA 4D,49
005D6:  DATA 4E,5F
005D8:  DATA 46,4C
005DA:  DATA 41,47
005DC:  DATA 20,3D
005DE:  DATA 20,25
005E0:  DATA 78,0D
005E2:  DATA 0A,00
005E4:  DATA 74,61
005E6:  DATA 62,6C
005E8:  DATA 65,5F
005EA:  DATA 6E,75
005EC:  DATA 6D,20
005EE:  DATA 3D,20
005F0:  DATA 25,78
005F2:  DATA 0D,0A
005F4:  DATA 00,00
005F6:  DATA 52,65
005F8:  DATA 73,65
005FA:  DATA 72,76
005FC:  DATA 61,74
005FE:  DATA 69,6F
00600:  DATA 6E,20
00602:  DATA 46,75
00604:  DATA 6C,6C
00606:  DATA 21,0D
00608:  DATA 0A,0D
0060A:  DATA 0A,00
0060C:  DATA 52,65
0060E:  DATA 73,65
00610:  DATA 72,76
00612:  DATA 61,74
00614:  DATA 69,6F
00616:  DATA 6E,20
00618:  DATA 46,75
0061A:  DATA 6C,6C
0061C:  DATA 21,0D
0061E:  DATA 0A,0D
00620:  DATA 0A,00
00622:  DATA 72,65
00624:  DATA 6D,6F
00626:  DATA 76,65
00628:  DATA 20,66
0062A:  DATA 69,6E
0062C:  DATA 69,73
0062E:  DATA 68,65
00630:  DATA 64,20
00632:  DATA 63,6F
00634:  DATA 6D,6D
00636:  DATA 61,6E
00638:  DATA 64,3A
0063A:  DATA 00,00
0063C:  DATA 72,65
0063E:  DATA 73,65
00640:  DATA 72,76
00642:  DATA 65,0D
00644:  DATA 0A,00
00646:  DATA 72,65
00648:  DATA 73,65
0064A:  DATA 72,76
0064C:  DATA 65,0D
0064E:  DATA 0A,00
00650:  DATA 72,65
00652:  DATA 73,65
00654:  DATA 72,76
00656:  DATA 65,20
00658:  DATA 6E,65
0065A:  DATA 78,74
0065C:  DATA 0D,0A
0065E:  DATA 00,00
00660:  DATA 67,65
00662:  DATA 74,20
00664:  DATA 72,65
00666:  DATA 61,64
00668:  DATA 79,20
0066A:  DATA 66,6F
0066C:  DATA 72,20
0066E:  DATA 72,65
00670:  DATA 73,65
00672:  DATA 74,00
00674:  DATA 4C,4F
00676:  DATA 47,20
00678:  DATA 73,61
0067A:  DATA 76,69
0067C:  DATA 6E,67
0067E:  DATA 20,64
00680:  DATA 6F,6E
00682:  DATA 65,0D
00684:  DATA 0A,00
00686:  DATA 45,52
00688:  DATA 41,53
0068A:  DATA 45,20
0068C:  DATA 4F,46
0068E:  DATA 3A,25
00690:  DATA 78,25
00692:  DATA 78,25
00694:  DATA 78,25
00696:  DATA 78,0D
00698:  DATA 0A,00
0069A:  DATA 45,52
0069C:  DATA 41,53
0069E:  DATA 45,20
006A0:  DATA 53,43
006A2:  DATA 46,3A
006A4:  DATA 25,78
006A6:  DATA 25,78
006A8:  DATA 25,78
006AA:  DATA 25,78
006AC:  DATA 0D,0A
006AE:  DATA 00,00
006B0:  DATA 45,52
006B2:  DATA 41,53
006B4:  DATA 45,20
006B6:  DATA 53,4D
006B8:  DATA 46,3A
006BA:  DATA 25,78
006BC:  DATA 25,78
006BE:  DATA 25,78
006C0:  DATA 25,78
006C2:  DATA 0D,0A
006C4:  DATA 00,00
006C6:  DATA 74,72
006C8:  DATA 61,6E
006CA:  DATA 73,66
006CC:  DATA 65,72
006CE:  DATA 3A,25
006D0:  DATA 78,25
006D2:  DATA 78,25
006D4:  DATA 78,25
006D6:  DATA 78,0D
006D8:  DATA 0A,00
006DA:  DATA 74,72
006DC:  DATA 61,6E
006DE:  DATA 73,66
006E0:  DATA 65,72
006E2:  DATA 3A,25
006E4:  DATA 78,25
006E6:  DATA 78,25
006E8:  DATA 78,25
006EA:  DATA 78,0D
006EC:  DATA 0A,00
006EE:  DATA 74,72
006F0:  DATA 61,6E
006F2:  DATA 73,66
006F4:  DATA 65,72
006F6:  DATA 3A,25
006F8:  DATA 78,25
006FA:  DATA 78,25
006FC:  DATA 78,25
006FE:  DATA 78,0D
00700:  DATA 0A,00
00702:  DATA 74,72
00704:  DATA 61,6E
00706:  DATA 73,66
00708:  DATA 65,72
0070A:  DATA 3A,25
0070C:  DATA 78,25
0070E:  DATA 78,25
00710:  DATA 78,25
00712:  DATA 78,0D
00714:  DATA 0A,00
00716:  DATA 74,72
00718:  DATA 61,6E
0071A:  DATA 73,66
0071C:  DATA 65,72
0071E:  DATA 3A,25
00720:  DATA 78,25
00722:  DATA 78,25
00724:  DATA 78,25
00726:  DATA 78,0D
00728:  DATA 0A,00
0072A:  DATA 74,72
0072C:  DATA 61,6E
0072E:  DATA 73,66
00730:  DATA 65,72
00732:  DATA 3A,25
00734:  DATA 78,25
00736:  DATA 78,25
00738:  DATA 78,25
0073A:  DATA 78,0D
0073C:  DATA 0A,00
0073E:  DATA 67,69
00740:  DATA 76,65
00742:  DATA 20,61
00744:  DATA 63,63
00746:  DATA 65,73
00748:  DATA 73,20
0074A:  DATA 74,6F
0074C:  DATA 20,43
0074E:  DATA 4F,4D
00750:  DATA 0D,0A
00752:  DATA 00,00
00754:  DATA 42,61
00756:  DATA 63,6B
00758:  DATA 20,74
0075A:  DATA 6F,20
0075C:  DATA 4E,6F
0075E:  DATA 6D,61
00760:  DATA 6C,20
00762:  DATA 4F,70
00764:  DATA 65,72
00766:  DATA 61,74
00768:  DATA 69,6F
0076A:  DATA 6E,0D
0076C:  DATA 0A,00
0076E:  DATA 64,61
00770:  DATA 74,61
00772:  DATA 5F,6C
00774:  DATA 3A,25
00776:  DATA 78,20
00778:  DATA 0D,0A
0077A:  DATA 00,00
0077C:  DATA 64,61
0077E:  DATA 74,61
00780:  DATA 5F,68
00782:  DATA 3A,25
00784:  DATA 78,20
00786:  DATA 0D,0A
00788:  DATA 00,00
0078A:  DATA 43,75
0078C:  DATA 72,72
0078E:  DATA 65,6E
00790:  DATA 74,20
00792:  DATA 54,65
00794:  DATA 6D,70
00796:  DATA 3A,20
00798:  DATA 25,31
0079A:  DATA 2E,31
0079C:  DATA 66,0D
0079E:  DATA 0A,00
007A0:  DATA 54,75
007A2:  DATA 72,6E
007A4:  DATA 65,64
007A6:  DATA 20,4F
007A8:  DATA 4E,20
007AA:  DATA 42,43
007AC:  DATA 0D,0A
007AE:  DATA 00,00
007B0:  DATA 4D,41
007B2:  DATA 58,49
007B4:  DATA 4D,55
007B6:  DATA 4D,20
007B8:  DATA 54,45
007BA:  DATA 4D,50
007BC:  DATA 45,52
007BE:  DATA 41,54
007C0:  DATA 55,52
007C2:  DATA 45,20
007C4:  DATA 69,73
007C6:  DATA 20,25
007C8:  DATA 31,2E
007CA:  DATA 31,66
007CC:  DATA 0D,0A
007CE:  DATA 0D,0A
007D0:  DATA 00,00
007D2:  DATA 0D,0A
007D4:  DATA 46,6C
007D6:  DATA 61,67
007D8:  DATA 20,64
007DA:  DATA 65,6C
007DC:  DATA 65,74
007DE:  DATA 65,20
007E0:  DATA 64,6F
007E2:  DATA 6E,65
007E4:  DATA 0D,0A
007E6:  DATA 00,00
007E8:  DATA 0D,0A
007EA:  DATA 46,6C
007EC:  DATA 61,67
007EE:  DATA 3A,31
007F0:  DATA 0D,0A
007F2:  DATA 00,00
007F4:  DATA 0D,0A
007F6:  DATA 46,6C
007F8:  DATA 61,67
007FA:  DATA 3A,32
007FC:  DATA 0D,0A
007FE:  DATA 00,00
00800:  DATA 0D,0A
00802:  DATA 46,6C
00804:  DATA 61,67
00806:  DATA 3A,33
00808:  DATA 0D,0A
0080A:  DATA 00,00
0080C:  DATA 0D,0A
0080E:  DATA 46,6C
00810:  DATA 61,67
00812:  DATA 3A,34
00814:  DATA 0D,0A
00816:  DATA 00,00
00818:  DATA 73,65
0081A:  DATA 6E,64
0081C:  DATA 20,63
0081E:  DATA 6F,6D
00820:  DATA 6D,61
00822:  DATA 6E,64
00824:  DATA 20,74
00826:  DATA 6F,20
00828:  DATA 52,45
0082A:  DATA 53,45
0082C:  DATA 54,20
0082E:  DATA 50,49
00830:  DATA 43,0D
00832:  DATA 0A,00
00834:  DATA 0D,0A
00836:  DATA 41,4E
00838:  DATA 53,3A
0083A:  DATA 00,00
0083C:  DATA 4E,4F
0083E:  DATA 20,44
00840:  DATA 41,54
00842:  DATA 41,0D
00844:  DATA 0A,00
00846:  DATA 25,6C
00848:  DATA 75,64
0084A:  DATA 2C,25
0084C:  DATA 6C,75
0084E:  DATA 64,0D
00850:  DATA 0A,00
00852:  DATA 47,45
00854:  DATA 54,20
00856:  DATA 41,44
00858:  DATA 43,53
0085A:  DATA 20,44
0085C:  DATA 41,54
0085E:  DATA 41,0D
00860:  DATA 0A,00
00862:  DATA 44,61
00864:  DATA 74,61
00866:  DATA 20,77
00868:  DATA 61,73
0086A:  DATA 20,77
0086C:  DATA 72,6F
0086E:  DATA 6E,67
00870:  DATA 0D,0A
00872:  DATA 00,00
00874:  DATA 61,6E
00876:  DATA 67,3A
00878:  DATA 25,2E
0087A:  DATA 34,66
0087C:  DATA 0D,0A
0087E:  DATA 00,00
00880:  DATA 61,6E
00882:  DATA 67,3A
00884:  DATA 25,2E
00886:  DATA 34,66
00888:  DATA 0D,0A
0088A:  DATA 00,00
0088C:  DATA 61,6E
0088E:  DATA 67,3A
00890:  DATA 25,2E
00892:  DATA 34,66
00894:  DATA 0D,0A
00896:  DATA 00,00
00898:  DATA 53,65
0089A:  DATA 6E,64
0089C:  DATA 69,6E
0089E:  DATA 67,20
008A0:  DATA 44,6F
008A2:  DATA 6E,65
008A4:  DATA 0D,0A
008A6:  DATA 00,00
008A8:  DATA 0D,0A
008AA:  DATA 53,41
008AC:  DATA 56,45
008AE:  DATA 20,43
008B0:  DATA 57,0D
008B2:  DATA 0A,00
008B4:  DATA 47,45
008B6:  DATA 54,20
008B8:  DATA 53,45
008BA:  DATA 4E,53
008BC:  DATA 4F,52
008BE:  DATA 20,44
008C0:  DATA 41,54
008C2:  DATA 41,0D
008C4:  DATA 0A,00
008C6:  DATA 47,45
008C8:  DATA 54,20
008CA:  DATA 52,45
008CC:  DATA 53,45
008CE:  DATA 54,0D
008D0:  DATA 0A,00
008D2:  DATA 4E,4F
008D4:  DATA 20,52
008D6:  DATA 45,53
008D8:  DATA 45,54
008DA:  DATA 0D,0A
008DC:  DATA 00,00
008DE:  DATA 0D,0A
008E0:  DATA 43,57
008E2:  DATA 3A,0D
008E4:  DATA 0A,00
008E6:  DATA 46,41
008E8:  DATA 42,20
008EA:  DATA 63,6F
008EC:  DATA 6D,6D
008EE:  DATA 75,6E
008F0:  DATA 69,63
008F2:  DATA 61,74
008F4:  DATA 69,6F
008F6:  DATA 6E,20
008F8:  DATA 73,74
008FA:  DATA 61,72
008FC:  DATA 74,0D
008FE:  DATA 0A,00
00900:  DATA 53,45
00902:  DATA 4E,44
00904:  DATA 49,4E
00906:  DATA 47,20
00908:  DATA 43,4F
0090A:  DATA 4D,4D
0090C:  DATA 41,4E
0090E:  DATA 44,20
00910:  DATA 54,4F
00912:  DATA 20,46
00914:  DATA 41,42
00916:  DATA 0D,0A
00918:  DATA 00,00
0091A:  DATA 0D,0A
0091C:  DATA 43,6F
0091E:  DATA 6C,6C
00920:  DATA 65,63
00922:  DATA 74,69
00924:  DATA 6E,67
00926:  DATA 20,48
00928:  DATA 4B,20
0092A:  DATA 61,6E
0092C:  DATA 64,20
0092E:  DATA 4D,61
00930:  DATA 6B,69
00932:  DATA 6E,67
00934:  DATA 20,43
00936:  DATA 57,46
00938:  DATA 6F,72
0093A:  DATA 6D,61
0093C:  DATA 74,20
0093E:  DATA 44,6F
00940:  DATA 6E,65
00942:  DATA 0D,0A
00944:  DATA 0D,0A
00946:  DATA 00,00
00948:  DATA 0D,0A
0094A:  DATA 0D,0A
0094C:  DATA 53,65
0094E:  DATA 6E,73
00950:  DATA 6F,72
00952:  DATA 3A,00
00954:  DATA 0D,0A
00956:  DATA 53,45
00958:  DATA 4E,53
0095A:  DATA 4F,52
0095C:  DATA 20,53
0095E:  DATA 41,56
00960:  DATA 49,4E
00962:  DATA 47,20
00964:  DATA 44,4F
00966:  DATA 4E,45
00968:  DATA 0D,0A
0096A:  DATA 00,00
0096C:  DATA 4E,4F
0096E:  DATA 20,52
00970:  DATA 45,53
00972:  DATA 50,4F
00974:  DATA 4E,53
00976:  DATA 45,20
00978:  DATA 46,52
0097A:  DATA 4F,4D
0097C:  DATA 20,46
0097E:  DATA 41,42
00980:  DATA 0D,0A
00982:  DATA 0D,0A
00984:  DATA 00,00
00986:  DATA 54,75
00988:  DATA 72,6E
0098A:  DATA 20,4F
0098C:  DATA 6E,20
0098E:  DATA 41,44
00990:  DATA 43,53
00992:  DATA 0D,0A
00994:  DATA 00,00
00996:  DATA 53,65
00998:  DATA 6E,64
0099A:  DATA 20,43
0099C:  DATA 6F,6D
0099E:  DATA 6D,61
009A0:  DATA 6E,64
009A2:  DATA 20,74
009A4:  DATA 6F,20
009A6:  DATA 41,44
009A8:  DATA 43,53
009AA:  DATA 0D,0A
009AC:  DATA 00,00
009AE:  DATA 64,6F
009B0:  DATA 6E,65
009B2:  DATA 0D,0A
009B4:  DATA 00,00
009B6:  DATA 53,74
009B8:  DATA 6F,70
009BA:  DATA 20,41
009BC:  DATA 44,43
009BE:  DATA 53,20
009C0:  DATA 4D,69
009C2:  DATA 73,73
009C4:  DATA 69,6F
009C6:  DATA 6E,0D
009C8:  DATA 0A,00
009CA:  DATA 0D,0A
009CC:  DATA 0D,0A
009CE:  DATA 54,72
009D0:  DATA 75,6E
009D2:  DATA 5F,4F
009D4:  DATA 46,46
009D6:  DATA 5F,41
009D8:  DATA 44,43
009DA:  DATA 53,0D
009DC:  DATA 0A,0D
009DE:  DATA 0A,0D
009E0:  DATA 0A,00
009E2:  DATA 47,45
009E4:  DATA 54,20
009E6:  DATA 53,45
009E8:  DATA 4E,53
009EA:  DATA 4F,52
009EC:  DATA 20,44
009EE:  DATA 41,54
009F0:  DATA 41,0D
009F2:  DATA 0A,00
009F4:  DATA 47,45
009F6:  DATA 54,20
009F8:  DATA 52,45
009FA:  DATA 53,45
009FC:  DATA 54,0D
009FE:  DATA 0A,00
00A00:  DATA 4E,4F
00A02:  DATA 20,52
00A04:  DATA 45,53
00A06:  DATA 45,54
00A08:  DATA 0D,0A
00A0A:  DATA 00,00
00A0C:  DATA 0D,0A
00A0E:  DATA 39,30
00A10:  DATA 73,65
00A12:  DATA 63,0D
00A14:  DATA 0A,00
00A16:  DATA 0D,0A
00A18:  DATA 53,75
00A1A:  DATA 63,63
00A1C:  DATA 65,73
00A1E:  DATA 73,25
00A20:  DATA 78,0D
00A22:  DATA 0A,00
00A24:  DATA 0D,0A
00A26:  DATA 43,4F
00A28:  DATA 55,4E
00A2A:  DATA 54,3A
00A2C:  DATA 25,78
00A2E:  DATA 0D,0A
00A30:  DATA 00,00
00A32:  DATA 43,41
00A34:  DATA 4D,20
00A36:  DATA 53,74
00A38:  DATA 61,72
00A3A:  DATA 74,0D
00A3C:  DATA 0A,00
00A3E:  DATA 44,65
00A40:  DATA 6C,65
00A42:  DATA 74,65
00A44:  DATA 20,42
00A46:  DATA 75,66
00A48:  DATA 66,65
00A4A:  DATA 72,0D
00A4C:  DATA 0A,00
00A4E:  DATA 54,75
00A50:  DATA 72,6E
00A52:  DATA 65,64
00A54:  DATA 20,4F
00A56:  DATA 6E,20
00A58:  DATA 4D,55
00A5A:  DATA 58,20
00A5C:  DATA 41,6E
00A5E:  DATA 64,20
00A60:  DATA 43,41
00A62:  DATA 4D,0D
00A64:  DATA 0A,00
00A66:  DATA 53,65
00A68:  DATA 6E,64
00A6A:  DATA 20,43
00A6C:  DATA 6F,6D
00A6E:  DATA 6D,61
00A70:  DATA 6E,64
00A72:  DATA 20,74
00A74:  DATA 6F,20
00A76:  DATA 43,41
00A78:  DATA 4D,0D
00A7A:  DATA 0A,00
00A7C:  DATA 41,43
00A7E:  DATA 4B,20
00A80:  DATA 47,65
00A82:  DATA 74,0D
00A84:  DATA 0A,0D
00A86:  DATA 0A,00
00A88:  DATA 53,65
00A8A:  DATA 6E,64
00A8C:  DATA 20,74
00A8E:  DATA 68,65
00A90:  DATA 20,6D
00A92:  DATA 6F,64
00A94:  DATA 65,20
00A96:  DATA 64,61
00A98:  DATA 74,61
00A9A:  DATA 0D,0A
00A9C:  DATA 00,00
00A9E:  DATA 57,61
00AA0:  DATA 69,74
00AA2:  DATA 20,4E
00AA4:  DATA 65,78
00AA6:  DATA 74,20
00AA8:  DATA 43,6F
00AAA:  DATA 6D,6D
00AAC:  DATA 61,6E
00AAE:  DATA 64,2E
00AB0:  DATA 2E,2E
00AB2:  DATA 0D,0A
00AB4:  DATA 0D,0A
00AB6:  DATA 00,00
00AB8:  DATA 50,48
00ABA:  DATA 4F,54
00ABC:  DATA 4F,20
00ABE:  DATA 53,41
00AC0:  DATA 56,49
00AC2:  DATA 4E,47
00AC4:  DATA 20,44
00AC6:  DATA 4F,4E
00AC8:  DATA 45,0D
00ACA:  DATA 0A,00
00ACC:  DATA 43,6F
00ACE:  DATA 70,79
00AD0:  DATA 20,61
00AD2:  DATA 6E,64
00AD4:  DATA 20,52
00AD6:  DATA 65,61
00AD8:  DATA 64,20
00ADA:  DATA 53,74
00ADC:  DATA 61,72
00ADE:  DATA 74,0D
00AE0:  DATA 0A,00
00AE2:  DATA 53,41
00AE4:  DATA 56,49
00AE6:  DATA 4E,47
00AE8:  DATA 20,46
00AEA:  DATA 41,49
00AEC:  DATA 4C,55
00AEE:  DATA 52,45
00AF0:  DATA 44,0D
00AF2:  DATA 0A,00
00AF4:  DATA 41,43
00AF6:  DATA 4B,20
00AF8:  DATA 46,41
00AFA:  DATA 49,4C
00AFC:  DATA 55,52
00AFE:  DATA 45,44
00B00:  DATA 0D,0A
00B02:  DATA 00,00
00B04:  DATA 54,75
00B06:  DATA 72,6E
00B08:  DATA 65,64
00B0A:  DATA 20,4F
00B0C:  DATA 46,46
00B0E:  DATA 20,43
00B10:  DATA 41,4D
00B12:  DATA 0D,0A
00B14:  DATA 00,00
00B16:  DATA 54,72
00B18:  DATA 75,6E
00B1A:  DATA 20,4F
00B1C:  DATA 4E,20
00B1E:  DATA 4C,44
00B20:  DATA 4D,0D
00B22:  DATA 0A,00
00B24:  DATA 47,65
00B26:  DATA 74,20
00B28:  DATA 41,43
00B2A:  DATA 4B,20
00B2C:  DATA 46,72
00B2E:  DATA 6F,6D
00B30:  DATA 20,4C
00B32:  DATA 44,4D
00B34:  DATA 0D,0A
00B36:  DATA 00,00
00B38:  DATA 46,41
00B3A:  DATA 49,4C
00B3C:  DATA 55,45
00B3E:  DATA 44,20
00B40:  DATA 47,45
00B42:  DATA 54,54
00B44:  DATA 49,4E
00B46:  DATA 47,20
00B48:  DATA 41,43
00B4A:  DATA 4B,20
00B4C:  DATA 46,72
00B4E:  DATA 6F,6D
00B50:  DATA 20,44
00B52:  DATA 43,0D
00B54:  DATA 0A,00
00B56:  DATA 54,75
00B58:  DATA 72,6E
00B5A:  DATA 20,4F
00B5C:  DATA 46,46
00B5E:  DATA 2E,2E
00B60:  DATA 2E,0D
00B62:  DATA 0A,00
00B64:  DATA 4B,69
00B66:  DATA 6C,6C
00B68:  DATA 20,63
00B6A:  DATA 6F,75
00B6C:  DATA 6E,74
00B6E:  DATA 65,72
00B70:  DATA 3A,20
00B72:  DATA 25,78
00B74:  DATA 0D,0A
00B76:  DATA 00,00
00B78:  DATA 4B,69
00B7A:  DATA 6C,6C
00B7C:  DATA 20,63
00B7E:  DATA 6F,75
00B80:  DATA 6E,74
00B82:  DATA 65,72
00B84:  DATA 3A,20
00B86:  DATA 25,78
00B88:  DATA 0D,0A
00B8A:  DATA 00,00
00B8C:  DATA 73,65
00B8E:  DATA 6E,64
00B90:  DATA 20,63
00B92:  DATA 6F,6D
00B94:  DATA 6D,61
00B96:  DATA 6E,64
00B98:  DATA 20,74
00B9A:  DATA 6F,20
00B9C:  DATA 52,45
00B9E:  DATA 53,45
00BA0:  DATA 54,20
00BA2:  DATA 50,49
00BA4:  DATA 43,0D
00BA6:  DATA 0A,00
00BA8:  DATA 48,53
00BAA:  DATA 53,43
00BAC:  DATA 20,44
00BAE:  DATA 4F,4E
00BB0:  DATA 45,0D
00BB2:  DATA 0A,00
00BB4:  DATA 2C,41
00BB6:  DATA 55,54
00BB8:  DATA 4F,0D
00BBA:  DATA 0A,00
00BBC:  DATA 2C,4E
00BBE:  DATA 4F,4D
00BC0:  DATA 41,4C
00BC2:  DATA 0D,0A
00BC4:  DATA 00,00
*
00C24:  MOVLB  2
00C26:  MOVF   xEA,W
00C28:  CLRF   01
00C2A:  SUBWF  xE9,W
00C2C:  BC    0C34
00C2E:  MOVFF  2E9,00
00C32:  BRA    0C4C
00C34:  CLRF   00
00C36:  MOVLW  08
00C38:  MOVWF  xEB
00C3A:  RLCF   xE9,F
00C3C:  RLCF   00,F
00C3E:  MOVF   xEA,W
00C40:  SUBWF  00,W
00C42:  BTFSC  FD8.0
00C44:  MOVWF  00
00C46:  RLCF   01,F
00C48:  DECFSZ xEB,F
00C4A:  BRA    0C3A
00C4C:  MOVLB  0
00C4E:  RETURN 0
*
00D22:  DATA 53,74
00D24:  DATA 61,72
00D26:  DATA 74,20
00D28:  DATA 4F,70
00D2A:  DATA 65,72
00D2C:  DATA 61,74
00D2E:  DATA 69,6E
00D30:  DATA 67,0D
00D32:  DATA 0A,00
00D34:  DATA 43,57
00D36:  DATA 3A,00
00D38:  DATA 39,30
00D3A:  DATA 73,65
00D3C:  DATA 63,20
00D3E:  DATA 70,61
00D40:  DATA 73,73
00D42:  DATA 65,64
00D44:  DATA 0D,0A
00D46:  DATA 00,00
00D48:  DATA 43,57
00D4A:  DATA 3A,00
00D4C:  DATA 65,78
00D4E:  DATA 65,63
00D50:  DATA 75,74
00D52:  DATA 65,20
00D54:  DATA 72,65
00D56:  DATA 73,65
00D58:  DATA 72,76
00D5A:  DATA 65,64
00D5C:  DATA 20,63
00D5E:  DATA 6F,6D
00D60:  DATA 6D,61
00D62:  DATA 6E,64
00D64:  DATA 0D,0A
00D66:  DATA 00,00
00D68:  DATA 43,4F
00D6A:  DATA 4D,20
00D6C:  DATA 43,4F
00D6E:  DATA 4D,4D
00D70:  DATA 41,4E
00D72:  DATA 44,0D
00D74:  DATA 0A,00
00D76:  DATA 50,43
00D78:  DATA 20,43
00D7A:  DATA 4F,4D
00D7C:  DATA 4D,41
00D7E:  DATA 4E,44
00D80:  DATA 3A,00
*
0120C:  TBLRD*+
0120E:  MOVFF  FF6,2D3
01212:  MOVFF  FF7,2D4
01216:  MOVFF  FF8,2D5
0121A:  MOVF   FF5,W
0121C:  BTFSS  F9E.4
0121E:  BRA    121C
01220:  MOVWF  FAD
01222:  MOVFF  2D3,FF6
01226:  MOVFF  2D4,FF7
0122A:  MOVFF  2D5,FF8
0122E:  MOVLB  2
01230:  DECFSZ xD2,F
01232:  BRA    1236
01234:  BRA    123A
01236:  MOVLB  0
01238:  BRA    120C
0123A:  MOVLB  0
0123C:  RETURN 0
0123E:  MOVLB  2
01240:  BTFSC  xD4.7
01242:  BRA    1264
01244:  MOVLW  0F
01246:  MOVWF  00
01248:  SWAPF  xD3,W
0124A:  ANDWF  00,F
0124C:  MOVLW  0A
0124E:  SUBWF  00,W
01250:  BC    1258
01252:  MOVLW  30
01254:  ADDWF  00,F
01256:  BRA    125C
01258:  MOVF   xD4,W
0125A:  ADDWF  00,F
0125C:  MOVF   00,W
0125E:  BTFSS  F9E.4
01260:  BRA    125E
01262:  MOVWF  FAD
01264:  MOVLW  0F
01266:  ANDWF  xD3,F
01268:  MOVLW  0A
0126A:  SUBWF  xD3,W
0126C:  BC    1272
0126E:  MOVLW  30
01270:  BRA    1276
01272:  BCF    xD4.7
01274:  MOVF   xD4,W
01276:  ADDWF  xD3,F
01278:  MOVF   xD3,W
0127A:  BTFSS  F9E.4
0127C:  BRA    127A
0127E:  MOVWF  FAD
01280:  MOVLB  0
01282:  RETURN 0
*
024F4:  TBLRD*+
024F6:  MOVF   FF5,F
024F8:  BZ    251C
024FA:  MOVFF  FF6,2D2
024FE:  MOVFF  FF7,2D3
02502:  MOVFF  FF8,2D4
02506:  MOVF   FF5,W
02508:  BTFSS  F9E.4
0250A:  BRA    2508
0250C:  MOVWF  FAD
0250E:  MOVFF  2D2,FF6
02512:  MOVFF  2D3,FF7
02516:  MOVFF  2D4,FF8
0251A:  BRA    24F4
0251C:  RETURN 0
*
03A90:  MOVLW  8E
03A92:  MOVWF  00
03A94:  MOVFF  2B8,01
03A98:  MOVFF  2B7,02
03A9C:  CLRF   03
03A9E:  BTFSS  01.7
03AA0:  BRA    3AAC
03AA2:  COMF   01,F
03AA4:  COMF   02,F
03AA6:  INCF   02,F
03AA8:  BNZ   3AAC
03AAA:  INCF   01,F
03AAC:  MOVF   01,F
03AAE:  BNZ   3AC2
03AB0:  MOVFF  02,01
03AB4:  CLRF   02
03AB6:  MOVLW  08
03AB8:  SUBWF  00,F
03ABA:  MOVF   01,F
03ABC:  BNZ   3AC2
03ABE:  CLRF   00
03AC0:  BRA    3ADE
03AC2:  BCF    FD8.0
03AC4:  BTFSC  01.7
03AC6:  BRA    3AD0
03AC8:  RLCF   02,F
03ACA:  RLCF   01,F
03ACC:  DECF   00,F
03ACE:  BRA    3AC2
03AD0:  MOVLB  2
03AD2:  BTFSS  xB8.7
03AD4:  BRA    3ADA
03AD6:  MOVLB  0
03AD8:  BRA    3ADE
03ADA:  BCF    01.7
03ADC:  MOVLB  0
03ADE:  RETURN 0
03AE0:  MOVLB  2
03AE2:  MOVF   xC4,W
03AE4:  BTFSC  FD8.2
03AE6:  BRA    3BCA
03AE8:  MOVWF  00
03AEA:  MOVF   xC8,W
03AEC:  BTFSC  FD8.2
03AEE:  BRA    3BCA
03AF0:  ADDWF  00,F
03AF2:  BNC   3AFC
03AF4:  MOVLW  81
03AF6:  ADDWF  00,F
03AF8:  BC    3BCA
03AFA:  BRA    3B04
03AFC:  MOVLW  7F
03AFE:  SUBWF  00,F
03B00:  BNC   3BCA
03B02:  BZ    3BCA
03B04:  MOVFF  2C5,2CC
03B08:  MOVF   xC9,W
03B0A:  XORWF  xCC,F
03B0C:  BSF    xC5.7
03B0E:  BSF    xC9.7
03B10:  MOVF   xC7,W
03B12:  MULWF  xCB
03B14:  MOVFF  FF4,2CE
03B18:  MOVF   xC6,W
03B1A:  MULWF  xCA
03B1C:  MOVFF  FF4,03
03B20:  MOVFF  FF3,2CD
03B24:  MULWF  xCB
03B26:  MOVF   FF3,W
03B28:  ADDWF  xCE,F
03B2A:  MOVF   FF4,W
03B2C:  ADDWFC xCD,F
03B2E:  MOVLW  00
03B30:  ADDWFC 03,F
03B32:  MOVF   xC7,W
03B34:  MULWF  xCA
03B36:  MOVF   FF3,W
03B38:  ADDWF  xCE,F
03B3A:  MOVF   FF4,W
03B3C:  ADDWFC xCD,F
03B3E:  MOVLW  00
03B40:  CLRF   02
03B42:  ADDWFC 03,F
03B44:  ADDWFC 02,F
03B46:  MOVF   xC5,W
03B48:  MULWF  xCB
03B4A:  MOVF   FF3,W
03B4C:  ADDWF  xCD,F
03B4E:  MOVF   FF4,W
03B50:  ADDWFC 03,F
03B52:  MOVLW  00
03B54:  ADDWFC 02,F
03B56:  MOVF   xC5,W
03B58:  MULWF  xCA
03B5A:  MOVF   FF3,W
03B5C:  ADDWF  03,F
03B5E:  MOVF   FF4,W
03B60:  ADDWFC 02,F
03B62:  MOVLW  00
03B64:  CLRF   01
03B66:  ADDWFC 01,F
03B68:  MOVF   xC7,W
03B6A:  MULWF  xC9
03B6C:  MOVF   FF3,W
03B6E:  ADDWF  xCD,F
03B70:  MOVF   FF4,W
03B72:  ADDWFC 03,F
03B74:  MOVLW  00
03B76:  ADDWFC 02,F
03B78:  ADDWFC 01,F
03B7A:  MOVF   xC6,W
03B7C:  MULWF  xC9
03B7E:  MOVF   FF3,W
03B80:  ADDWF  03,F
03B82:  MOVF   FF4,W
03B84:  ADDWFC 02,F
03B86:  MOVLW  00
03B88:  ADDWFC 01,F
03B8A:  MOVF   xC5,W
03B8C:  MULWF  xC9
03B8E:  MOVF   FF3,W
03B90:  ADDWF  02,F
03B92:  MOVF   FF4,W
03B94:  ADDWFC 01,F
03B96:  INCF   00,F
03B98:  BTFSC  01.7
03B9A:  BRA    3BA6
03B9C:  RLCF   xCD,F
03B9E:  RLCF   03,F
03BA0:  RLCF   02,F
03BA2:  RLCF   01,F
03BA4:  DECF   00,F
03BA6:  MOVLW  00
03BA8:  BTFSS  xCD.7
03BAA:  BRA    3BC0
03BAC:  INCF   03,F
03BAE:  ADDWFC 02,F
03BB0:  ADDWFC 01,F
03BB2:  MOVF   01,W
03BB4:  BNZ   3BC0
03BB6:  MOVF   02,W
03BB8:  BNZ   3BC0
03BBA:  MOVF   03,W
03BBC:  BNZ   3BC0
03BBE:  INCF   00,F
03BC0:  BTFSC  xCC.7
03BC2:  BSF    01.7
03BC4:  BTFSS  xCC.7
03BC6:  BCF    01.7
03BC8:  BRA    3BD2
03BCA:  CLRF   00
03BCC:  CLRF   01
03BCE:  CLRF   02
03BD0:  CLRF   03
03BD2:  MOVLB  0
03BD4:  RETURN 0
03BD6:  MOVLW  80
03BD8:  BTFSS  FD8.1
03BDA:  BRA    3BE0
03BDC:  MOVLB  2
03BDE:  XORWF  xC0,F
03BE0:  MOVLB  2
03BE2:  CLRF   xC5
03BE4:  CLRF   xC6
03BE6:  MOVFF  2BC,2C4
03BEA:  MOVF   xC0,W
03BEC:  XORWF  xC4,F
03BEE:  MOVF   xBB,W
03BF0:  BTFSC  FD8.2
03BF2:  BRA    3DB2
03BF4:  MOVWF  xC3
03BF6:  MOVWF  00
03BF8:  MOVF   xBF,W
03BFA:  BTFSC  FD8.2
03BFC:  BRA    3DC4
03BFE:  SUBWF  xC3,F
03C00:  BTFSC  FD8.2
03C02:  BRA    3D0A
03C04:  BNC   3C82
03C06:  MOVFF  2C0,2C9
03C0A:  BSF    xC9.7
03C0C:  MOVFF  2C1,2C8
03C10:  MOVFF  2C2,2C7
03C14:  CLRF   xC6
03C16:  BCF    FD8.0
03C18:  RRCF   xC9,F
03C1A:  RRCF   xC8,F
03C1C:  RRCF   xC7,F
03C1E:  RRCF   xC6,F
03C20:  DECFSZ xC3,F
03C22:  BRA    3C14
03C24:  BTFSS  xC4.7
03C26:  BRA    3C2E
03C28:  BSF    xC5.0
03C2A:  BRA    3DEC
03C2C:  BCF    xC5.0
03C2E:  BCF    xC3.0
03C30:  BSF    xC5.4
03C32:  MOVLW  02
03C34:  MOVWF  FEA
03C36:  MOVLW  BE
03C38:  MOVWF  FE9
03C3A:  BRA    3E12
03C3C:  BCF    xC5.4
03C3E:  BTFSC  xC4.7
03C40:  BRA    3C56
03C42:  BTFSS  xC3.0
03C44:  BRA    3C6C
03C46:  RRCF   xC9,F
03C48:  RRCF   xC8,F
03C4A:  RRCF   xC7,F
03C4C:  RRCF   xC6,F
03C4E:  INCF   00,F
03C50:  BTFSC  FD8.2
03C52:  BRA    3DE2
03C54:  BRA    3C6C
03C56:  BTFSC  xC9.7
03C58:  BRA    3C72
03C5A:  BCF    FD8.0
03C5C:  RLCF   xC6,F
03C5E:  RLCF   xC7,F
03C60:  RLCF   xC8,F
03C62:  RLCF   xC9,F
03C64:  DECF   00,F
03C66:  BTFSC  FD8.2
03C68:  BRA    3DE2
03C6A:  BRA    3C56
03C6C:  BSF    xC5.6
03C6E:  BRA    3D4A
03C70:  BCF    xC5.6
03C72:  MOVFF  2BC,2C4
03C76:  BTFSS  xBC.7
03C78:  BRA    3C7E
03C7A:  BSF    xC9.7
03C7C:  BRA    3DD4
03C7E:  BCF    xC9.7
03C80:  BRA    3DD4
03C82:  MOVFF  2BF,2C3
03C86:  MOVFF  2BF,00
03C8A:  MOVF   xBB,W
03C8C:  SUBWF  xC3,F
03C8E:  MOVFF  2BC,2C9
03C92:  BSF    xC9.7
03C94:  MOVFF  2BD,2C8
03C98:  MOVFF  2BE,2C7
03C9C:  CLRF   xC6
03C9E:  BCF    FD8.0
03CA0:  RRCF   xC9,F
03CA2:  RRCF   xC8,F
03CA4:  RRCF   xC7,F
03CA6:  RRCF   xC6,F
03CA8:  DECFSZ xC3,F
03CAA:  BRA    3C9C
03CAC:  BTFSS  xC4.7
03CAE:  BRA    3CB6
03CB0:  BSF    xC5.1
03CB2:  BRA    3DEC
03CB4:  BCF    xC5.1
03CB6:  BCF    xC3.0
03CB8:  BSF    xC5.5
03CBA:  MOVLW  02
03CBC:  MOVWF  FEA
03CBE:  MOVLW  C2
03CC0:  MOVWF  FE9
03CC2:  BRA    3E12
03CC4:  BCF    xC5.5
03CC6:  BTFSC  xC4.7
03CC8:  BRA    3CDE
03CCA:  BTFSS  xC3.0
03CCC:  BRA    3CF4
03CCE:  RRCF   xC9,F
03CD0:  RRCF   xC8,F
03CD2:  RRCF   xC7,F
03CD4:  RRCF   xC6,F
03CD6:  INCF   00,F
03CD8:  BTFSC  FD8.2
03CDA:  BRA    3DE2
03CDC:  BRA    3CF4
03CDE:  BTFSC  xC9.7
03CE0:  BRA    3CFA
03CE2:  BCF    FD8.0
03CE4:  RLCF   xC6,F
03CE6:  RLCF   xC7,F
03CE8:  RLCF   xC8,F
03CEA:  RLCF   xC9,F
03CEC:  DECF   00,F
03CEE:  BTFSC  FD8.2
03CF0:  BRA    3DE2
03CF2:  BRA    3CDE
03CF4:  BSF    xC5.7
03CF6:  BRA    3D4A
03CF8:  BCF    xC5.7
03CFA:  MOVFF  2C0,2C4
03CFE:  BTFSS  xC0.7
03D00:  BRA    3D06
03D02:  BSF    xC9.7
03D04:  BRA    3DD4
03D06:  BCF    xC9.7
03D08:  BRA    3DD4
03D0A:  MOVFF  2C0,2C9
03D0E:  BSF    xC9.7
03D10:  MOVFF  2C1,2C8
03D14:  MOVFF  2C2,2C7
03D18:  BTFSS  xC4.7
03D1A:  BRA    3D24
03D1C:  BCF    xC9.7
03D1E:  BSF    xC5.2
03D20:  BRA    3DEC
03D22:  BCF    xC5.2
03D24:  CLRF   xC6
03D26:  BCF    xC3.0
03D28:  MOVLW  02
03D2A:  MOVWF  FEA
03D2C:  MOVLW  BE
03D2E:  MOVWF  FE9
03D30:  BRA    3E12
03D32:  BTFSC  xC4.7
03D34:  BRA    3D6E
03D36:  MOVFF  2BC,2C4
03D3A:  BTFSS  xC3.0
03D3C:  BRA    3D4A
03D3E:  RRCF   xC9,F
03D40:  RRCF   xC8,F
03D42:  RRCF   xC7,F
03D44:  RRCF   xC6,F
03D46:  INCF   00,F
03D48:  BZ    3DE2
03D4A:  BTFSS  xC6.7
03D4C:  BRA    3D64
03D4E:  INCF   xC7,F
03D50:  BNZ   3D64
03D52:  INCF   xC8,F
03D54:  BNZ   3D64
03D56:  INCF   xC9,F
03D58:  BNZ   3D64
03D5A:  RRCF   xC9,F
03D5C:  RRCF   xC8,F
03D5E:  RRCF   xC7,F
03D60:  INCF   00,F
03D62:  BZ    3DE2
03D64:  BTFSC  xC5.6
03D66:  BRA    3C70
03D68:  BTFSC  xC5.7
03D6A:  BRA    3CF8
03D6C:  BRA    3DA6
03D6E:  MOVLW  80
03D70:  XORWF  xC9,F
03D72:  BTFSS  xC9.7
03D74:  BRA    3D7E
03D76:  BRA    3DEC
03D78:  MOVFF  2C0,2C4
03D7C:  BRA    3D92
03D7E:  MOVFF  2BC,2C4
03D82:  MOVF   xC9,F
03D84:  BNZ   3D92
03D86:  MOVF   xC8,F
03D88:  BNZ   3D92
03D8A:  MOVF   xC7,F
03D8C:  BNZ   3D92
03D8E:  CLRF   00
03D90:  BRA    3DD4
03D92:  BTFSC  xC9.7
03D94:  BRA    3DA6
03D96:  BCF    FD8.0
03D98:  RLCF   xC6,F
03D9A:  RLCF   xC7,F
03D9C:  RLCF   xC8,F
03D9E:  RLCF   xC9,F
03DA0:  DECFSZ 00,F
03DA2:  BRA    3D92
03DA4:  BRA    3DE2
03DA6:  BTFSS  xC4.7
03DA8:  BRA    3DAE
03DAA:  BSF    xC9.7
03DAC:  BRA    3DD4
03DAE:  BCF    xC9.7
03DB0:  BRA    3DD4
03DB2:  MOVFF  2BF,00
03DB6:  MOVFF  2C0,2C9
03DBA:  MOVFF  2C1,2C8
03DBE:  MOVFF  2C2,2C7
03DC2:  BRA    3DD4
03DC4:  MOVFF  2BB,00
03DC8:  MOVFF  2BC,2C9
03DCC:  MOVFF  2BD,2C8
03DD0:  MOVFF  2BE,2C7
03DD4:  MOVFF  2C9,01
03DD8:  MOVFF  2C8,02
03DDC:  MOVFF  2C7,03
03DE0:  BRA    3E4A
03DE2:  CLRF   00
03DE4:  CLRF   01
03DE6:  CLRF   02
03DE8:  CLRF   03
03DEA:  BRA    3E4A
03DEC:  CLRF   xC6
03DEE:  COMF   xC7,F
03DF0:  COMF   xC8,F
03DF2:  COMF   xC9,F
03DF4:  COMF   xC6,F
03DF6:  INCF   xC6,F
03DF8:  BNZ   3E04
03DFA:  INCF   xC7,F
03DFC:  BNZ   3E04
03DFE:  INCF   xC8,F
03E00:  BNZ   3E04
03E02:  INCF   xC9,F
03E04:  BTFSC  xC5.0
03E06:  BRA    3C2C
03E08:  BTFSC  xC5.1
03E0A:  BRA    3CB4
03E0C:  BTFSC  xC5.2
03E0E:  BRA    3D22
03E10:  BRA    3D78
03E12:  MOVF   FEF,W
03E14:  ADDWF  xC7,F
03E16:  BNC   3E22
03E18:  INCF   xC8,F
03E1A:  BNZ   3E22
03E1C:  INCF   xC9,F
03E1E:  BTFSC  FD8.2
03E20:  BSF    xC3.0
03E22:  MOVF   FED,F
03E24:  MOVF   FEF,W
03E26:  ADDWF  xC8,F
03E28:  BNC   3E30
03E2A:  INCF   xC9,F
03E2C:  BTFSC  FD8.2
03E2E:  BSF    xC3.0
03E30:  MOVF   FED,F
03E32:  MOVF   FEF,W
03E34:  BTFSC  FEF.7
03E36:  BRA    3E3A
03E38:  XORLW  80
03E3A:  ADDWF  xC9,F
03E3C:  BTFSC  FD8.0
03E3E:  BSF    xC3.0
03E40:  BTFSC  xC5.4
03E42:  BRA    3C3C
03E44:  BTFSC  xC5.5
03E46:  BRA    3CC4
03E48:  BRA    3D32
03E4A:  MOVLB  0
03E4C:  RETURN 0
03E4E:  MOVLB  2
03E50:  MOVF   xC4,W
03E52:  SUBLW  B6
03E54:  MOVWF  xC4
03E56:  CLRF   03
03E58:  MOVFF  2C5,2C8
03E5C:  BSF    xC5.7
03E5E:  BCF    FD8.0
03E60:  RRCF   xC5,F
03E62:  RRCF   xC6,F
03E64:  RRCF   xC7,F
03E66:  RRCF   03,F
03E68:  RRCF   02,F
03E6A:  RRCF   01,F
03E6C:  RRCF   00,F
03E6E:  DECFSZ xC4,F
03E70:  BRA    3E5E
03E72:  BTFSS  xC8.7
03E74:  BRA    3E8C
03E76:  COMF   00,F
03E78:  COMF   01,F
03E7A:  COMF   02,F
03E7C:  COMF   03,F
03E7E:  INCF   00,F
03E80:  BTFSC  FD8.2
03E82:  INCF   01,F
03E84:  BTFSC  FD8.2
03E86:  INCF   02,F
03E88:  BTFSC  FD8.2
03E8A:  INCF   03,F
03E8C:  MOVLB  0
03E8E:  GOTO   3F7C (RETURN)
03E92:  BTFSC  FD8.1
03E94:  BRA    3E9E
03E96:  MOVLW  02
03E98:  MOVWF  FEA
03E9A:  MOVLW  CC
03E9C:  MOVWF  FE9
03E9E:  CLRF   00
03EA0:  CLRF   01
03EA2:  CLRF   02
03EA4:  CLRF   03
03EA6:  MOVLB  2
03EA8:  CLRF   xCC
03EAA:  CLRF   xCD
03EAC:  CLRF   xCE
03EAE:  CLRF   xCF
03EB0:  MOVF   xCB,W
03EB2:  IORWF  xCA,W
03EB4:  IORWF  xC9,W
03EB6:  IORWF  xC8,W
03EB8:  BZ    3F12
03EBA:  MOVLW  20
03EBC:  MOVWF  xD0
03EBE:  BCF    FD8.0
03EC0:  RLCF   xC4,F
03EC2:  RLCF   xC5,F
03EC4:  RLCF   xC6,F
03EC6:  RLCF   xC7,F
03EC8:  RLCF   xCC,F
03ECA:  RLCF   xCD,F
03ECC:  RLCF   xCE,F
03ECE:  RLCF   xCF,F
03ED0:  MOVF   xCB,W
03ED2:  SUBWF  xCF,W
03ED4:  BNZ   3EE6
03ED6:  MOVF   xCA,W
03ED8:  SUBWF  xCE,W
03EDA:  BNZ   3EE6
03EDC:  MOVF   xC9,W
03EDE:  SUBWF  xCD,W
03EE0:  BNZ   3EE6
03EE2:  MOVF   xC8,W
03EE4:  SUBWF  xCC,W
03EE6:  BNC   3F06
03EE8:  MOVF   xC8,W
03EEA:  SUBWF  xCC,F
03EEC:  MOVF   xC9,W
03EEE:  BTFSS  FD8.0
03EF0:  INCFSZ xC9,W
03EF2:  SUBWF  xCD,F
03EF4:  MOVF   xCA,W
03EF6:  BTFSS  FD8.0
03EF8:  INCFSZ xCA,W
03EFA:  SUBWF  xCE,F
03EFC:  MOVF   xCB,W
03EFE:  BTFSS  FD8.0
03F00:  INCFSZ xCB,W
03F02:  SUBWF  xCF,F
03F04:  BSF    FD8.0
03F06:  RLCF   00,F
03F08:  RLCF   01,F
03F0A:  RLCF   02,F
03F0C:  RLCF   03,F
03F0E:  DECFSZ xD0,F
03F10:  BRA    3EBE
03F12:  MOVFF  2CC,FEF
03F16:  MOVFF  2CD,FEC
03F1A:  MOVFF  2CE,FEC
03F1E:  MOVFF  2CF,FEC
03F22:  MOVLB  0
03F24:  RETURN 0
03F26:  MOVF   FE9,W
03F28:  MOVLB  2
03F2A:  MOVWF  xBC
03F2C:  MOVF   xBB,W
03F2E:  MOVWF  xBE
03F30:  BZ    3F68
03F32:  MOVFF  2BA,2C7
03F36:  MOVFF  2B9,2C6
03F3A:  MOVFF  2B8,2C5
03F3E:  MOVFF  2B7,2C4
03F42:  CLRF   xCB
03F44:  CLRF   xCA
03F46:  MOVLW  20
03F48:  MOVWF  xC9
03F4A:  MOVLW  82
03F4C:  MOVWF  xC8
03F4E:  MOVLB  0
03F50:  RCALL  3AE0
03F52:  MOVFF  03,2BA
03F56:  MOVFF  02,2B9
03F5A:  MOVFF  01,2B8
03F5E:  MOVFF  00,2B7
03F62:  MOVLB  2
03F64:  DECFSZ xBE,F
03F66:  BRA    3F32
03F68:  MOVFF  2BA,2C7
03F6C:  MOVFF  2B9,2C6
03F70:  MOVFF  2B8,2C5
03F74:  MOVFF  2B7,2C4
03F78:  MOVLB  0
03F7A:  BRA    3E4E
03F7C:  MOVFF  03,2BA
03F80:  MOVFF  02,2B9
03F84:  MOVFF  01,2B8
03F88:  MOVFF  00,2B7
03F8C:  MOVLB  2
03F8E:  BTFSS  xBA.7
03F90:  BRA    3FAC
03F92:  DECF   xBC,F
03F94:  BSF    xBC.5
03F96:  COMF   xB7,F
03F98:  COMF   xB8,F
03F9A:  COMF   xB9,F
03F9C:  COMF   xBA,F
03F9E:  INCF   xB7,F
03FA0:  BTFSC  FD8.2
03FA2:  INCF   xB8,F
03FA4:  BTFSC  FD8.2
03FA6:  INCF   xB9,F
03FA8:  BTFSC  FD8.2
03FAA:  INCF   xBA,F
03FAC:  MOVLW  3B
03FAE:  MOVWF  xC3
03FB0:  MOVLW  9A
03FB2:  MOVWF  xC2
03FB4:  MOVLW  CA
03FB6:  MOVWF  xC1
03FB8:  CLRF   xC0
03FBA:  MOVLW  0A
03FBC:  MOVWF  xBE
03FBE:  MOVF   xBB,W
03FC0:  BTFSC  FD8.2
03FC2:  INCF   xBC,F
03FC4:  BSF    FD8.1
03FC6:  MOVLW  02
03FC8:  MOVWF  FEA
03FCA:  MOVLW  B7
03FCC:  MOVWF  FE9
03FCE:  MOVFF  2BA,2C7
03FD2:  MOVFF  2B9,2C6
03FD6:  MOVFF  2B8,2C5
03FDA:  MOVFF  2B7,2C4
03FDE:  MOVFF  2C3,2CB
03FE2:  MOVFF  2C2,2CA
03FE6:  MOVFF  2C1,2C9
03FEA:  MOVFF  2C0,2C8
03FEE:  MOVLB  0
03FF0:  RCALL  3E92
03FF2:  MOVF   01,W
03FF4:  MOVF   00,F
03FF6:  BNZ   401E
03FF8:  MOVLB  2
03FFA:  INCF   xBB,W
03FFC:  SUBWF  xBE,W
03FFE:  BTFSS  FD8.2
04000:  BRA    4006
04002:  MOVLB  0
04004:  BRA    401E
04006:  MOVF   xBC,W
04008:  BZ    4024
0400A:  ANDLW  0F
0400C:  SUBWF  xBE,W
0400E:  BZ    4012
04010:  BC    408A
04012:  BTFSC  xBC.7
04014:  BRA    408A
04016:  BTFSC  xBC.6
04018:  BRA    4024
0401A:  MOVLW  20
0401C:  BRA    4080
0401E:  MOVLW  20
04020:  MOVLB  2
04022:  ANDWF  xBC,F
04024:  BTFSS  xBC.5
04026:  BRA    4042
04028:  BCF    xBC.5
0402A:  MOVF   xBB,W
0402C:  BTFSS  FD8.2
0402E:  DECF   xBC,F
04030:  MOVF   00,W
04032:  MOVWF  xBC
04034:  MOVLW  2D
04036:  BTFSS  F9E.4
04038:  BRA    4036
0403A:  MOVWF  FAD
0403C:  MOVF   xBC,W
0403E:  MOVWF  00
04040:  CLRF   xBC
04042:  MOVF   xBB,W
04044:  SUBWF  xBE,W
04046:  BNZ   405E
04048:  MOVF   00,W
0404A:  MOVWF  xBC
0404C:  MOVLW  2E
0404E:  BTFSS  F9E.4
04050:  BRA    404E
04052:  MOVWF  FAD
04054:  MOVF   xBC,W
04056:  MOVWF  00
04058:  MOVLW  20
0405A:  ANDWF  xBC,F
0405C:  MOVLW  00
0405E:  MOVLW  30
04060:  BTFSS  xBC.5
04062:  BRA    4080
04064:  BCF    xBC.5
04066:  MOVF   xBB,W
04068:  BTFSS  FD8.2
0406A:  DECF   xBC,F
0406C:  MOVF   00,W
0406E:  MOVWF  xBC
04070:  MOVLW  2D
04072:  BTFSS  F9E.4
04074:  BRA    4072
04076:  MOVWF  FAD
04078:  MOVF   xBC,W
0407A:  MOVWF  00
0407C:  CLRF   xBC
0407E:  MOVLW  30
04080:  ADDWF  00,F
04082:  MOVF   00,W
04084:  BTFSS  F9E.4
04086:  BRA    4084
04088:  MOVWF  FAD
0408A:  BCF    FD8.1
0408C:  MOVFF  2C3,2C7
04090:  MOVFF  2C2,2C6
04094:  MOVFF  2C1,2C5
04098:  MOVFF  2C0,2C4
0409C:  CLRF   xCB
0409E:  CLRF   xCA
040A0:  CLRF   xC9
040A2:  MOVLW  0A
040A4:  MOVWF  xC8
040A6:  MOVLB  0
040A8:  RCALL  3E92
040AA:  MOVFF  03,2C3
040AE:  MOVFF  02,2C2
040B2:  MOVFF  01,2C1
040B6:  MOVFF  00,2C0
040BA:  MOVLB  2
040BC:  DECFSZ xBE,F
040BE:  BRA    3FC4
040C0:  MOVLB  0
040C2:  RETURN 0
040C4:  MOVLW  8E
040C6:  MOVWF  00
040C8:  MOVLB  2
040CA:  MOVF   xB7,W
040CC:  SUBWF  00,F
040CE:  MOVFF  2B8,02
040D2:  MOVFF  2B9,01
040D6:  BSF    02.7
040D8:  MOVF   00,F
040DA:  BZ    40EE
040DC:  BCF    FD8.0
040DE:  MOVF   02,F
040E0:  BNZ   40E6
040E2:  MOVF   01,F
040E4:  BZ    40EE
040E6:  RRCF   02,F
040E8:  RRCF   01,F
040EA:  DECFSZ 00,F
040EC:  BRA    40DC
040EE:  BTFSS  xB8.7
040F0:  BRA    40FC
040F2:  COMF   01,F
040F4:  COMF   02,F
040F6:  INCF   01,F
040F8:  BTFSC  FD8.2
040FA:  INCF   02,F
040FC:  MOVLB  0
040FE:  RETURN 0
*
05280:  MOVLW  C0
05282:  ANDWF  FF6,F
05284:  MOVLW  3F
05286:  MOVWF  00
05288:  TBLRD*
0528A:  TBLWT*+
0528C:  DECFSZ 00,F
0528E:  BRA    5288
05290:  TBLRD*
05292:  TBLWT*
05294:  RETURN 0
05296:  MOVF   FF2,W
05298:  MOVWF  03
0529A:  BCF    FF2.7
0529C:  BSF    F7F.2
0529E:  MOVLB  F
052A0:  MOVLW  55
052A2:  MOVWF  F7E
052A4:  MOVLW  AA
052A6:  MOVWF  F7E
052A8:  BSF    F7F.1
052AA:  NOP   
052AC:  MOVF   03,W
052AE:  IORWF  FF2,F
052B0:  MOVLB  0
052B2:  RETURN 0
*
056D8:  MOVLW  8E
056DA:  MOVWF  00
056DC:  MOVFF  2B3,01
056E0:  MOVFF  2B2,02
056E4:  CLRF   03
056E6:  MOVF   01,F
056E8:  BNZ   56FC
056EA:  MOVFF  02,01
056EE:  CLRF   02
056F0:  MOVLW  08
056F2:  SUBWF  00,F
056F4:  MOVF   01,F
056F6:  BNZ   56FC
056F8:  CLRF   00
056FA:  BRA    570C
056FC:  BCF    FD8.0
056FE:  BTFSC  01.7
05700:  BRA    570A
05702:  RLCF   02,F
05704:  RLCF   01,F
05706:  DECF   00,F
05708:  BRA    56FC
0570A:  BCF    01.7
0570C:  GOTO   5944 (RETURN)
05710:  MOVLB  2
05712:  MOVF   xB2,W
05714:  BTFSC  FD8.2
05716:  BRA    5862
05718:  MOVWF  xBE
0571A:  MOVF   xB6,W
0571C:  BTFSC  FD8.2
0571E:  BRA    5862
05720:  SUBWF  xBE,F
05722:  BNC   572E
05724:  MOVLW  7F
05726:  ADDWF  xBE,F
05728:  BTFSC  FD8.0
0572A:  BRA    5862
0572C:  BRA    573A
0572E:  MOVLW  81
05730:  SUBWF  xBE,F
05732:  BTFSS  FD8.0
05734:  BRA    5862
05736:  BTFSC  FD8.2
05738:  BRA    5862
0573A:  MOVFF  2BE,00
0573E:  CLRF   01
05740:  CLRF   02
05742:  CLRF   03
05744:  CLRF   xBD
05746:  MOVFF  2B3,2BC
0574A:  BSF    xBC.7
0574C:  MOVFF  2B4,2BB
05750:  MOVFF  2B5,2BA
05754:  MOVLW  19
05756:  MOVWF  xBE
05758:  MOVF   xB9,W
0575A:  SUBWF  xBA,F
0575C:  BC    5778
0575E:  MOVLW  01
05760:  SUBWF  xBB,F
05762:  BC    5778
05764:  SUBWF  xBC,F
05766:  BC    5778
05768:  SUBWF  xBD,F
0576A:  BC    5778
0576C:  INCF   xBD,F
0576E:  INCF   xBC,F
05770:  INCF   xBB,F
05772:  MOVF   xB9,W
05774:  ADDWF  xBA,F
05776:  BRA    57C8
05778:  MOVF   xB8,W
0577A:  SUBWF  xBB,F
0577C:  BC    57A2
0577E:  MOVLW  01
05780:  SUBWF  xBC,F
05782:  BC    57A2
05784:  SUBWF  xBD,F
05786:  BC    57A2
05788:  INCF   xBD,F
0578A:  INCF   xBC,F
0578C:  MOVF   xB8,W
0578E:  ADDWF  xBB,F
05790:  MOVF   xB9,W
05792:  ADDWF  xBA,F
05794:  BNC   57C8
05796:  INCF   xBB,F
05798:  BNZ   57C8
0579A:  INCF   xBC,F
0579C:  BNZ   57C8
0579E:  INCF   xBD,F
057A0:  BRA    57C8
057A2:  MOVF   xB7,W
057A4:  IORLW  80
057A6:  SUBWF  xBC,F
057A8:  BC    57C6
057AA:  MOVLW  01
057AC:  SUBWF  xBD,F
057AE:  BC    57C6
057B0:  INCF   xBD,F
057B2:  MOVF   xB7,W
057B4:  IORLW  80
057B6:  ADDWF  xBC,F
057B8:  MOVF   xB8,W
057BA:  ADDWF  xBB,F
057BC:  BNC   5790
057BE:  INCF   xBC,F
057C0:  BNZ   5790
057C2:  INCF   xBD,F
057C4:  BRA    5790
057C6:  BSF    03.0
057C8:  DECFSZ xBE,F
057CA:  BRA    57CE
057CC:  BRA    57E4
057CE:  BCF    FD8.0
057D0:  RLCF   xBA,F
057D2:  RLCF   xBB,F
057D4:  RLCF   xBC,F
057D6:  RLCF   xBD,F
057D8:  BCF    FD8.0
057DA:  RLCF   03,F
057DC:  RLCF   02,F
057DE:  RLCF   01,F
057E0:  RLCF   xBF,F
057E2:  BRA    5758
057E4:  BTFSS  xBF.0
057E6:  BRA    57F4
057E8:  BCF    FD8.0
057EA:  RRCF   01,F
057EC:  RRCF   02,F
057EE:  RRCF   03,F
057F0:  RRCF   xBF,F
057F2:  BRA    57F8
057F4:  DECF   00,F
057F6:  BZ    5862
057F8:  BTFSC  xBF.7
057FA:  BRA    5838
057FC:  BCF    FD8.0
057FE:  RLCF   xBA,F
05800:  RLCF   xBB,F
05802:  RLCF   xBC,F
05804:  RLCF   xBD,F
05806:  MOVF   xB9,W
05808:  SUBWF  xBA,F
0580A:  BC    581A
0580C:  MOVLW  01
0580E:  SUBWF  xBB,F
05810:  BC    581A
05812:  SUBWF  xBC,F
05814:  BC    581A
05816:  SUBWF  xBD,F
05818:  BNC   584E
0581A:  MOVF   xB8,W
0581C:  SUBWF  xBB,F
0581E:  BC    582A
05820:  MOVLW  01
05822:  SUBWF  xBC,F
05824:  BC    582A
05826:  SUBWF  xBD,F
05828:  BNC   584E
0582A:  MOVF   xB7,W
0582C:  IORLW  80
0582E:  SUBWF  xBC,F
05830:  BC    5838
05832:  MOVLW  01
05834:  SUBWF  xBD,F
05836:  BNC   584E
05838:  INCF   03,F
0583A:  BNZ   584E
0583C:  INCF   02,F
0583E:  BNZ   584E
05840:  INCF   01,F
05842:  BNZ   584E
05844:  INCF   00,F
05846:  BZ    5862
05848:  RRCF   01,F
0584A:  RRCF   02,F
0584C:  RRCF   03,F
0584E:  MOVFF  2B3,2BE
05852:  MOVF   xB7,W
05854:  XORWF  xBE,F
05856:  BTFSS  xBE.7
05858:  BRA    585E
0585A:  BSF    01.7
0585C:  BRA    586A
0585E:  BCF    01.7
05860:  BRA    586A
05862:  CLRF   00
05864:  CLRF   01
05866:  CLRF   02
05868:  CLRF   03
0586A:  MOVLB  0
0586C:  GOTO   5974 (RETURN)
05870:  MOVFF  2B7,2BE
05874:  MOVLB  2
05876:  MOVF   xBB,W
05878:  XORWF  xBE,F
0587A:  BTFSS  xBE.7
0587C:  BRA    5888
0587E:  BCF    FD8.2
05880:  BCF    FD8.0
05882:  BTFSC  xB7.7
05884:  BSF    FD8.0
05886:  BRA    58E6
05888:  MOVFF  2B7,2BE
0588C:  MOVFF  2BA,2BF
05890:  MOVF   xB6,W
05892:  SUBWF  xBF,F
05894:  BZ    58A2
05896:  BTFSS  xBE.7
05898:  BRA    58E6
0589A:  MOVF   FD8,W
0589C:  XORLW  01
0589E:  MOVWF  FD8
058A0:  BRA    58E6
058A2:  MOVFF  2BB,2BF
058A6:  MOVF   xB7,W
058A8:  SUBWF  xBF,F
058AA:  BZ    58B8
058AC:  BTFSS  xBE.7
058AE:  BRA    58E6
058B0:  MOVF   FD8,W
058B2:  XORLW  01
058B4:  MOVWF  FD8
058B6:  BRA    58E6
058B8:  MOVFF  2BC,2BF
058BC:  MOVF   xB8,W
058BE:  SUBWF  xBF,F
058C0:  BZ    58CE
058C2:  BTFSS  xBE.7
058C4:  BRA    58E6
058C6:  MOVF   FD8,W
058C8:  XORLW  01
058CA:  MOVWF  FD8
058CC:  BRA    58E6
058CE:  MOVFF  2BD,2BF
058D2:  MOVF   xB9,W
058D4:  SUBWF  xBF,F
058D6:  BZ    58E4
058D8:  BTFSS  xBE.7
058DA:  BRA    58E6
058DC:  MOVF   FD8,W
058DE:  XORLW  01
058E0:  MOVWF  FD8
058E2:  BRA    58E6
058E4:  BCF    FD8.0
058E6:  MOVLB  0
058E8:  RETURN 0
*
05D4E:  CLRF   01
05D50:  CLRF   02
05D52:  CLRF   00
05D54:  CLRF   03
05D56:  MOVLB  2
05D58:  MOVF   xB6,W
05D5A:  BNZ   5D60
05D5C:  MOVF   xB5,W
05D5E:  BZ    5D90
05D60:  MOVLW  10
05D62:  MOVWF  xB7
05D64:  BCF    FD8.0
05D66:  RLCF   xB3,F
05D68:  RLCF   xB4,F
05D6A:  RLCF   00,F
05D6C:  RLCF   03,F
05D6E:  MOVF   xB6,W
05D70:  SUBWF  03,W
05D72:  BNZ   5D78
05D74:  MOVF   xB5,W
05D76:  SUBWF  00,W
05D78:  BNC   5D88
05D7A:  MOVF   xB5,W
05D7C:  SUBWF  00,F
05D7E:  BTFSS  FD8.0
05D80:  DECF   03,F
05D82:  MOVF   xB6,W
05D84:  SUBWF  03,F
05D86:  BSF    FD8.0
05D88:  RLCF   01,F
05D8A:  RLCF   02,F
05D8C:  DECFSZ xB7,F
05D8E:  BRA    5D64
05D90:  MOVLB  0
05D92:  RETURN 0
*
07424:  MOVLB  2
07426:  MOVF   xAA,W
07428:  MULWF  xAC
0742A:  MOVFF  FF3,01
0742E:  MOVFF  FF4,00
07432:  MULWF  xAD
07434:  MOVF   FF3,W
07436:  ADDWF  00,F
07438:  MOVF   xAB,W
0743A:  MULWF  xAC
0743C:  MOVF   FF3,W
0743E:  ADDWFC 00,W
07440:  MOVWF  02
07442:  MOVLB  0
07444:  RETURN 0
07446:  MOVLB  2
07448:  CLRF   xAA
0744A:  CLRF   xAB
0744C:  MOVLW  01
0744E:  MOVWF  xAC
07450:  CLRF   FDA
07452:  CLRF   FD9
07454:  MOVLW  02
07456:  MOVWF  xAF
07458:  MOVLW  A2
0745A:  MOVWF  xAE
0745C:  MOVLW  02
0745E:  MOVWF  FEA
07460:  MOVLW  A6
07462:  MOVWF  FE9
07464:  MOVFF  2AF,FE2
07468:  MOVFF  2AE,FE1
0746C:  MOVFF  2AC,2AD
07470:  BCF    FD8.0
07472:  MOVF   FE5,W
07474:  MULWF  FEE
07476:  MOVF   FF3,W
07478:  ADDWFC xAA,F
0747A:  MOVF   FF4,W
0747C:  ADDWFC xAB,F
0747E:  DECFSZ xAD,F
07480:  BRA    7470
07482:  MOVFF  2AA,FDE
07486:  MOVFF  2AB,2AA
0748A:  CLRF   xAB
0748C:  BTFSC  FD8.0
0748E:  INCF   xAB,F
07490:  INCF   xAE,F
07492:  BTFSC  FD8.2
07494:  INCF   xAF,F
07496:  INCF   xAC,F
07498:  MOVF   xAC,W
0749A:  SUBLW  05
0749C:  BNZ   745C
0749E:  MOVLB  0
074A0:  RETURN 0
*
08972:  MOVFF  FEA,2C3
08976:  MOVFF  FE9,2C2
0897A:  MOVLB  2
0897C:  BTFSS  xBC.7
0897E:  BRA    8990
08980:  BSF    xC2.7
08982:  BTFSS  xC2.4
08984:  INCF   xC2,F
08986:  COMF   xBB,F
08988:  COMF   xBC,F
0898A:  INCF   xBB,F
0898C:  BTFSC  FD8.2
0898E:  INCF   xBC,F
08990:  SWAPF  xBC,W
08992:  IORLW  F0
08994:  MOVWF  xBE
08996:  ADDWF  xBE,F
08998:  ADDLW  E2
0899A:  MOVWF  xBF
0899C:  ADDLW  32
0899E:  MOVWF  xC1
089A0:  MOVF   xBC,W
089A2:  ANDLW  0F
089A4:  ADDWF  xBF,F
089A6:  ADDWF  xBF,F
089A8:  ADDWF  xC1,F
089AA:  ADDLW  E9
089AC:  MOVWF  xC0
089AE:  ADDWF  xC0,F
089B0:  ADDWF  xC0,F
089B2:  SWAPF  xBB,W
089B4:  ANDLW  0F
089B6:  ADDWF  xC0,F
089B8:  ADDWF  xC1,F
089BA:  RLCF   xC0,F
089BC:  RLCF   xC1,F
089BE:  COMF   xC1,F
089C0:  RLCF   xC1,F
089C2:  MOVF   xBB,W
089C4:  ANDLW  0F
089C6:  ADDWF  xC1,F
089C8:  RLCF   xBE,F
089CA:  MOVLW  07
089CC:  MOVWF  xBD
089CE:  MOVLW  0A
089D0:  DECF   xC0,F
089D2:  ADDWF  xC1,F
089D4:  BNC   89D0
089D6:  DECF   xBF,F
089D8:  ADDWF  xC0,F
089DA:  BNC   89D6
089DC:  DECF   xBE,F
089DE:  ADDWF  xBF,F
089E0:  BNC   89DC
089E2:  DECF   xBD,F
089E4:  ADDWF  xBE,F
089E6:  BNC   89E2
089E8:  MOVLW  02
089EA:  MOVWF  FEA
089EC:  MOVLW  BD
089EE:  MOVWF  FE9
089F0:  MOVLW  07
089F2:  ANDWF  xC2,W
089F4:  BCF    xC2.6
089F6:  MOVF   FED,F
089F8:  ANDWF  xC2,W
089FA:  BNZ   8A0A
089FC:  BTFSC  xC2.4
089FE:  MOVF   FEE,F
08A00:  BTFSC  xC2.4
08A02:  BRA    8A0A
08A04:  MOVLW  20
08A06:  MOVWF  00
08A08:  BRA    8A4C
08A0A:  ADDWF  FE9,F
08A0C:  MOVLW  00
08A0E:  ADDWFC FEA,F
08A10:  MOVF   FE9,W
08A12:  SUBLW  C1
08A14:  BNZ   8A1E
08A16:  MOVF   FEA,W
08A18:  SUBLW  02
08A1A:  BNZ   8A1E
08A1C:  BSF    xC2.6
08A1E:  MOVF   FEF,W
08A20:  MOVWF  00
08A22:  BNZ   8A34
08A24:  BTFSC  xC2.6
08A26:  BRA    8A34
08A28:  BTFSC  xC2.4
08A2A:  BRA    8A54
08A2C:  BTFSC  xC2.3
08A2E:  BRA    8A34
08A30:  MOVLW  20
08A32:  BRA    8A4A
08A34:  BTFSS  xC2.7
08A36:  BRA    8A44
08A38:  MOVLW  2D
08A3A:  MOVWF  00
08A3C:  MOVF   FED,W
08A3E:  BCF    xC2.6
08A40:  BCF    xC2.7
08A42:  BRA    8A4C
08A44:  BSF    xC2.3
08A46:  BCF    xC2.4
08A48:  MOVLW  30
08A4A:  ADDWF  00,F
08A4C:  MOVF   00,W
08A4E:  BTFSS  F9E.4
08A50:  BRA    8A4E
08A52:  MOVWF  FAD
08A54:  MOVF   FEE,W
08A56:  BTFSS  xC2.6
08A58:  BRA    8A10
08A5A:  MOVLB  0
08A5C:  GOTO   8E2A (RETURN)
....................  
.................... #list 
....................  
.................... #FUSES NOWDT NOBROWNOUT 
.................... #use delay(crystal=16Mhz, clock=16Mhz) 
*
0155A:  MOVLW  04
0155C:  MOVLB  2
0155E:  SUBWF  xCB,F
01560:  BNC   1576
01562:  MOVLW  02
01564:  MOVWF  FEA
01566:  MOVLW  CB
01568:  MOVWF  FE9
0156A:  MOVF   FEF,W
0156C:  BZ    1576
0156E:  BRA    1572
01570:  NOP   
01572:  DECFSZ FEF,F
01574:  BRA    1570
01576:  MOVLB  0
01578:  GOTO   15E2 (RETURN)
*
0230E:  MOVLW  02
02310:  MOVWF  FEA
02312:  MOVLW  DB
02314:  MOVWF  FE9
02316:  MOVF   FEF,W
02318:  BZ    2336
0231A:  MOVLW  05
0231C:  MOVWF  01
0231E:  CLRF   00
02320:  DECFSZ 00,F
02322:  BRA    2320
02324:  DECFSZ 01,F
02326:  BRA    231E
02328:  MOVLW  2E
0232A:  MOVWF  00
0232C:  DECFSZ 00,F
0232E:  BRA    232C
02330:  BRA    2332
02332:  DECFSZ FEF,F
02334:  BRA    231A
02336:  RETURN 0
.................... #include<PIC18F67J94_registers.h> 
.................... #byte ADCBUF0H = 0xFC3 
.................... #byte ADCBUF0L = 0xFC2 
.................... #byte ADCON1H = 0xFC1 
.................... #bit    FORM0 = ADCON1H.0 
.................... #bit    FORM1 = ADCON1H.1 
.................... #bit    MODE12 = ADCON1H.2 
.................... #bit    DMAEN = ADCON1H.3 
.................... #bit    DMABM = ADCON1H.4 
.................... #bit    ADSIDL = ADCON1H.5 
.................... #bit    ADFRZ = ADCON1H.6 
.................... #bit    ADON = ADCON1H.7 
.................... #byte ADCON1L = 0xFC0 
.................... #bit    DONE = ADCON1L.0 
.................... #bit    SAMP = ADCON1L.1 
.................... #bit    ASAM = ADCON1L.2 
.................... #bit    SIMSAM = ADCON1L.3 
.................... #bit    SSRC0 = ADCON1L.4 
.................... #bit    SSRC1 = ADCON1L.5 
.................... #bit    SSRC2 = ADCON1L.6 
.................... #bit    SSRC3 = ADCON1L.7 
.................... #byte TRISG = 0xF98 
.................... #byte TRISF = 0xF97 
.................... #byte TRISE = 0xF96 
.................... #byte TRISD = 0xF95 
.................... #byte TRISC = 0xF94 
.................... #byte TRISB = 0xF93 
....................  
.................... #byte TRISA = 0xF92 
.................... #bit    TRISA0 = TRISA.0 
.................... #bit    TRISA1 = TRISA.1 
.................... #bit    TRISA2 = TRISA.2 
....................  
....................  
.................... #byte LATG = 0xF8F 
.................... #byte LATF = 0xF8E 
.................... #byte LATE = 0xF8D 
.................... #byte LATD = 0xF8C 
.................... #byte LATC = 0xF8B 
.................... #byte LATB = 0xF8A 
....................  
.................... #byte LATA = 0xF89 
.................... #bit    LATA0 = LATA.0 
.................... #bit    LATA1 = LATA.1 
.................... #bit    LATA2 = LATA.2 
.................... #bit    LATA3 = LATA.3 
....................  
.................... #byte PORTG = 0xF86 
.................... #bit    RG0 = PORTG.0 
.................... #bit    RG1 = PORTG.1 
.................... #bit    RG2 = PORTG.2 
.................... #bit    RG3 = PORTG.3 
.................... #bit    RG4 = PORTG.4 
.................... #bit    RG6 = PORTG.6 
.................... #bit    RG7 = PORTG.7 
.................... #byte PORTF = 0xF85 
.................... #bit    RF2 = PORTF.2 
.................... #bit    RF3 = PORTF.3 
.................... #bit    RF4 = PORTF.4 
.................... #bit    RF5 = PORTF.5 
.................... #bit    RF6 = PORTF.6 
.................... #bit    RF7 = PORTF.7 
.................... #byte PORTE = 0xF84 
.................... #byte PORTD = 0xF83 
.................... #byte PORTC = 0xF82 
.................... #bit    RC0 = PORTC.0 
.................... #bit    RC1 = PORTC.1 
.................... #bit    RC2 = PORTC.2 
.................... #bit    RC3 = PORTC.3 
.................... #bit    RC4 = PORTC.4 
.................... #bit    RC5 = PORTC.5 
.................... #bit    RC6 = PORTC.6 
.................... #bit    RC7 = PORTC.7 
.................... #byte PORTB = 0xF81 
.................... #byte PORTA = 0xF80 
.................... #bit    RA0 = PORTA.0 
.................... #bit    RA1 = PORTA.1 
.................... #bit    RA2 = PORTA.2 
.................... #bit    RA3 = PORTA.3 
.................... #bit    RA4 = PORTA.4 
.................... #bit    RA5 = PORTA.5 
.................... #bit    RA6 = PORTA.6 
.................... #bit    RA7 = PORTA.7 
.................... #byte TRISVP = 0xF73 
.................... #byte LATVP = 0xF72 
.................... #byte PORTVP = 0xF71 
.................... #byte WPUB = 0xF62 
.................... #byte ALRMVALH = 0xF59 
.................... #byte ALRMVALL = 0xF58 
.................... #byte ANCFG = 0xF01 
.................... #bit    VBGEN = ANCFG.0 
.................... #bit    VBG2EN = ANCFG.1 
.................... #bit    VBG6EN = ANCFG.2 
.................... #byte ODCON1 = 0xEEB 
.................... #bit    SSP1OD = ODCON1.0 
.................... #bit    SSP2OD = ODCON1.1 
.................... #bit    USART1OD = ODCON1.2 
.................... #bit    USART2OD = ODCON1.3 
.................... #bit    USART3OD = ODCON1.4 
.................... #bit    USART4OD = ODCON1.5 
.................... #bit    ECCP1OD = ODCON1.6 
.................... #bit    ECCP2OD = ODCON1.7 
.................... #byte ODCON2 = 0xEEA 
.................... #bit    ECCP3OD = ODCON2.0 
.................... #bit    CCP4OD = ODCON2.1 
.................... #bit    CCP5OD = ODCON2.2 
.................... #bit    CCP6OD = ODCON2.3 
.................... #bit    CCP7OD = ODCON2.4 
.................... #bit    CCP8OD = ODCON2.5 
.................... #bit    CCP9OD = ODCON2.6 
.................... #bit    CCP10OD = ODCON2.7 
.................... #byte ADCON2H = 0xE8D 
.................... #bit    CHPS0 = ADCON2H.0 
.................... #bit    CHPS1 = ADCON2H.1 
.................... #bit    CSCNA = ADCON2H.2 
.................... #bit    BUFREGEN = ADCON2H.3 
.................... #bit    OFFCAL = ADCON2H.4 
.................... #bit    NVCFG0 = ADCON2H.5 
.................... #bit    PVCFG0 = ADCON2H.6 
.................... #bit    PVCFG1 = ADCON2H.7 
.................... #byte ADCON2L = 0xE8C 
.................... #bit    ALTS = ADCON2L.0 
.................... #bit    BUFM = ADCON2L.1 
.................... #bit    SMPI0 = ADCON2L.2 
.................... #bit    SMPI1 = ADCON2L.3 
.................... #bit    SMPI2 = ADCON2L.4 
.................... #bit    SMPI3 = ADCON2L.5 
.................... #bit    SMPI4 = ADCON2L.6 
.................... #bit    BUFS = ADCON2L.7 
.................... #byte ADCON3H = 0xE8B 
.................... #bit    SAMC0 = ADCON3H.0 
.................... #bit    SAMC1 = ADCON3H.1 
.................... #bit    SAMC2 = ADCON3H.2 
.................... #bit    SAMC3 = ADCON3H.3 
.................... #bit    SAMC4 = ADCON3H.4 
.................... #bit    PUMPEN = ADCON3H.5 
.................... #bit    EXTSAM = ADCON3H.6 
.................... #bit    ADRC = ADCON3H.7 
.................... #byte ADCON3L = 0xE8A 
.................... #byte ADCON5H = 0xE89 
.................... #bit    ASINTMD0 = ADCON5H.0 
.................... #bit    ASINTMD1 = ADCON5H.1 
.................... #bit    VREGSREQ = ADCON5H.3 
.................... #bit    BGREQ = ADCON5H.4 
.................... #bit    CTMUREQ = ADCON5H.5 
.................... #bit    LPENA = ADCON5H.6 
.................... #bit    ASENA = ADCON5H.7 
.................... #byte ADCON5L = 0xE88 
.................... #bit    CM0 = ADCON5L.0 
.................... #bit    CM1 = ADCON5L.1 
.................... #bit    WM0 = ADCON5L.2 
.................... #bit    WM1 = ADCON5L.3 
.................... #byte ADCHS0H = 0xE87 
.................... #bit    CH0SB0 = ADCHS0H.0 
.................... #bit    CH0SB1 = ADCHS0H.1 
.................... #bit    CH0SB2 = ADCHS0H.2 
.................... #bit    CH0SB3 = ADCHS0H.3 
.................... #bit    CH0SB4 = ADCHS0H.4 
.................... #bit    CH0NB0 = ADCHS0H.5 
.................... #bit    CH0NB1 = ADCHS0H.6 
.................... #bit    CH0NB2 = ADCHS0H.7 
.................... #byte ADCHS0L = 0xE86 
.................... #bit    CH0SA0 = ADCHS0L.0 
.................... #bit    CH0SA1 = ADCHS0L.1 
.................... #bit    CH0SA2 = ADCHS0L.2 
.................... #bit    CH0SA3 = ADCHS0L.3 
.................... #bit    CH0SA4 = ADCHS0L.4 
.................... #bit    CH0NA0 = ADCHS0L.5 
.................... #bit    CH0NA1 = ADCHS0L.6 
.................... #bit    CH0NA2 = ADCHS0L.7 
.................... #byte ADCSS1H = 0xE85 
.................... #bit    CSS24 = ADCSS1H.0 
.................... #bit    CSS25 = ADCSS1H.1 
.................... #bit    CSS26 = ADCSS1H.2 
.................... #bit    CSS27 = ADCSS1H.3 
.................... #bit    CSS28 = ADCSS1H.4 
.................... #bit    CSS29 = ADCSS1H.5 
.................... #bit    CSS30 = ADCSS1H.6 
.................... #bit    CSS31 = ADCSS1H.7 
.................... #byte ADCSS1L = 0xE84 
.................... #bit    CSS16 = ADCSS1L.0 
.................... #bit    CSS17 = ADCSS1L.1 
.................... #bit    CSS18 = ADCSS1L.2 
.................... #bit    CSS19 = ADCSS1L.3 
.................... #bit    CSS20 = ADCSS1L.4 
.................... #bit    CSS21 = ADCSS1L.5 
.................... #bit    CSS22 = ADCSS1L.6 
.................... #bit    CSS23 = ADCSS1L.7 
.................... #byte ADCSS0H = 0xE83 
.................... #bit    CSS8 = ADCSS0H.0 
.................... #bit    CSS9 = ADCSS0H.1 
.................... #bit    CSS10 = ADCSS0H.2 
.................... #bit    CSS11 = ADCSS0H.3 
.................... #bit    CSS12 = ADCSS0H.4 
.................... #bit    CSS13 = ADCSS0H.5 
.................... #bit    CSS14 = ADCSS0H.6 
.................... #bit    CSS15 = ADCSS0H.7 
.................... #byte ADCSS0L = 0xE82 
.................... #byte ADCHIT1H = 0xE81 
.................... #bit    CHH24 = ADCHIT1H.0 
.................... #bit    CHH25 = ADCHIT1H.1 
.................... #bit    CHH26 = ADCHIT1H.2 
.................... #bit    CHH27 = ADCHIT1H.3 
.................... #bit    CHH28 = ADCHIT1H.4 
.................... #bit    CHH29 = ADCHIT1H.5 
.................... #bit    CHH30 = ADCHIT1H.6 
.................... #bit    CHH31 = ADCHIT1H.7 
.................... #byte ADCHIT1L = 0xE80 
.................... #bit    CHH16 = ADCHIT1L.0 
.................... #bit    CHH17 = ADCHIT1L.1 
.................... #bit    CHH18 = ADCHIT1L.2 
.................... #bit    CHH19 = ADCHIT1L.3 
.................... #bit    CHH20 = ADCHIT1L.4 
.................... #bit    CHH21 = ADCHIT1L.5 
.................... #bit    CHH22 = ADCHIT1L.6 
.................... #bit    CHH23 = ADCHIT1L.7 
.................... #byte ADCHIT0H = 0xE7F 
.................... #bit    CHH8 = ADCHIT0H.0 
.................... #bit    CHH9 = ADCHIT0H.1 
.................... #bit    CHH10 = ADCHIT0H.2 
.................... #bit    CHH11 = ADCHIT0H.3 
.................... #bit    CHH12 = ADCHIT0H.4 
.................... #bit    CHH13 = ADCHIT0H.5 
.................... #bit    CHH14 = ADCHIT0H.6 
.................... #bit    CHH15 = ADCHIT0H.7 
.................... #byte ADCHIT0L = 0xE7E 
.................... #byte ADCTMUEN1H = 0xE7D 
.................... #bit    CTUMEN24 = ADCTMUEN1H.0 
.................... #bit    CTUMEN25 = ADCTMUEN1H.1 
.................... #bit    CTUMEN26 = ADCTMUEN1H.2 
.................... #bit    CTUMEN27 = ADCTMUEN1H.3 
.................... #bit    CTUMEN28 = ADCTMUEN1H.4 
.................... #bit    CTUMEN29 = ADCTMUEN1H.5 
.................... #bit    CTMUEN30 = ADCTMUEN1H.6 
.................... #bit    CTMUEN31 = ADCTMUEN1H.7 
.................... #byte ADCTMUEN1L = 0xE7C 
.................... #bit    CTUMEN16 = ADCTMUEN1L.0 
.................... #bit    CTUMEN17 = ADCTMUEN1L.1 
.................... #bit    CTUMEN18 = ADCTMUEN1L.2 
.................... #bit    CTUMEN19 = ADCTMUEN1L.3 
.................... #bit    CTMUEN20 = ADCTMUEN1L.4 
.................... #bit    CTMUEN21 = ADCTMUEN1L.5 
.................... #bit    CTMUEN22 = ADCTMUEN1L.6 
.................... #bit    CTMUEN23 = ADCTMUEN1L.7 
.................... #byte ADCTMUEN0H = 0xE7B 
.................... #bit    CTMUEN8 = ADCTMUEN0H.0 
.................... #bit    CTMUEN9 = ADCTMUEN0H.1 
.................... #bit    CTMUEN10 = ADCTMUEN0H.2 
.................... #bit    CTMUEN11 = ADCTMUEN0H.3 
.................... #bit    CTMUEN12 = ADCTMUEN0H.4 
.................... #bit    CTMUEN13 = ADCTMUEN0H.5 
.................... #bit    CTMUEN14 = ADCTMUEN0H.6 
.................... #bit    CTMUEN15 = ADCTMUEN0H.7 
.................... #byte ADCTMUEN0L = 0xE7A 
.................... #byte ADCBUF25H = 0xE79 
.................... #byte ADCBUF25L = 0xE78 
.................... #byte ADCBUF24H = 0xE77 
.................... #byte ADCBUF24L = 0xE76 
.................... #byte ADCBUF23H = 0xE75 
.................... #byte ADCBUF23L = 0xE74 
.................... #byte ADCBUF22H = 0xE73 
.................... #byte ADCBUF22L = 0xE72 
.................... #byte ADCBUF21H = 0xE71 
.................... #byte ADCBUF21L = 0xE70 
.................... #byte ADCBUF20H = 0xE6F 
.................... #byte ADCBUF20L = 0xE6E 
.................... #byte ADCBUF19H = 0xE6D 
.................... #byte ADCBUF19L = 0xE6C 
.................... #byte ADCBUF18H = 0xE6B 
.................... #byte ADCBUF18L = 0xE6A 
.................... #byte ADCBUF17H = 0xE69 
.................... #byte ADCBUF17L = 0xE68 
.................... #byte ADCBUF16H = 0xE67 
.................... #byte ADCBUF16L = 0xE66 
.................... #byte ADCBUF15H = 0xE65 
.................... #byte ADCBUF15L = 0xE64 
.................... #byte ADCBUF14H = 0xE63 
.................... #byte ADCBUF14L = 0xE62 
.................... #byte ADCBUF13H = 0xE61 
.................... #byte ADCBUF13L = 0xE60 
.................... #byte ADCBUF12H = 0xE5F 
.................... #byte ADCBUF12L = 0xE5E 
.................... #byte ADCBUF11H = 0xE5D 
.................... #byte ADCBUF11L = 0xE5C 
.................... #byte ADCBUF10H = 0xE5B 
.................... #byte ADCBUF10L = 0xE5A 
.................... #byte ADCBUF9H = 0xE59 
.................... #byte ADCBUF9L = 0xE58 
.................... #byte ADCBUF8H = 0xE57 
.................... #byte ADCBUF8L = 0xE56 
.................... #byte ADCBUF7H = 0xE55 
.................... #byte ADCBUF7L = 0xE54 
.................... #byte ADCBUF6H = 0xE53 
.................... #byte ADCBUF6L = 0xE52 
.................... #byte ADCBUF5H = 0xE51 
.................... #byte ADCBUF5L = 0xE50 
.................... #byte ADCBUF4H = 0xE4F 
.................... #byte ADCBUF4L = 0xE4E 
.................... #byte ADCBUF3H = 0xE4D 
.................... #byte ADCBUF3L = 0xE4C 
.................... #byte ADCBUF2H = 0xE4B 
.................... #byte ADCBUF2L = 0xE4A 
.................... #byte ADCBUF1H = 0xE49 
.................... #byte ADCBUF1L = 0xE48 
.................... #byte ANCON1 = 0xE47 
.................... #byte ANCON2 = 0xE46 
.................... #bit    ANSEL8 = ANCON2.0 
.................... #bit    ANSEL9 = ANCON2.1 
.................... #bit    ANSEL10 = ANCON2.2 
.................... #bit    ANSEL11 = ANCON2.3 
.................... #bit    ANSEL12 = ANCON2.4 
.................... #bit    ANSEL13 = ANCON2.5 
.................... #bit    ANSEL14 = ANCON2.6 
.................... #bit    ANSEL15 = ANCON2.7 
.................... #byte ANCON3 = 0xE45 
.................... #bit    ANSEL16 = ANCON3.0 
.................... #bit    ANSEL17 = ANCON3.1 
.................... #bit    ANSEL18 = ANCON3.2 
.................... #bit    ANSEL19 = ANCON3.3 
.................... #bit    ANSEL20 = ANCON3.4 
.................... #bit    ANSEL21 = ANCON3.5 
.................... #bit    ANSEL22 = ANCON3.6 
.................... #bit    ANSEL23 = ANCON3.7 
....................  
....................  
.................... //#include<HAMING_CORRECT.h> 
.................... //#org 0x100, 0x11000 DEFAULT  
.................... //#org DEFAULT  
....................  
.................... #device HIGH_INTS=TRUE 
....................  
.................... //-------------UART and SPI Setting-------------------------------------------- 
.................... #pin_select TX1=PIN_C6 
.................... #pin_select RX1=PIN_C7 
.................... //#pin_select TX1=PIN_G0 
.................... //#pin_select RX1=PIN_G1 
.................... #use rs232(baud=115200,parity=N,UART1,bits=8,stream=pc) // MAIN to MISSION BOARD(Now just putted) 
*
03446:  BTFSS  F9E.4
03448:  BRA    3446
0344A:  MOVWF  FAD
0344C:  RETURN 0
.................... //#use rs232(baud=9600,parity=N,xmit=PIN_B7,rcv=PIN_B6,bits=8,stream=pc) 
....................  
.................... #pin_select TX2=PIN_D3 
.................... #pin_select RX2=PIN_D2 
.................... #use rs232(baud=9600,parity=N,UART2,bits=8,stream=com) // Main to COM PIC 
*
0312C:  BTFSS  FA4.4
0312E:  BRA    312C
03130:  MOVLB  F
03132:  MOVWF  x1D
03134:  MOVLB  0
03136:  RETURN 0
....................  
.................... #pin_select TX3=PIN_E5   
.................... #pin_select RX3=PIN_E4 
.................... #use rs232(baud=9600,parity=N,UART3,bits=8,stream=fab) //MAIN to FAB PIC 
*
0339A:  BTFSS  FA6.4
0339C:  BRA    339A
0339E:  MOVLB  F
033A0:  MOVWF  x29
033A2:  MOVLB  0
033A4:  RETURN 0
....................  
.................... #pin_select TX4=PIN_E3   
.................... #pin_select RX4=PIN_F2 
.................... #use rs232(baud=9600,parity=N,UART4,bits=8,stream=reset) //MAIN to RESET PIC 
*
0154E:  BTFSS  FA6.6
01550:  BRA    154E
01552:  MOVLB  E
01554:  MOVWF  xF9
01556:  MOVLB  0
01558:  RETURN 0
....................  
.................... #use rs232(baud=9600,parity=N,xmit=pin_F7,rcv=pin_F6,bits=8,stream=ADCS) //MAIN to ADCS 
*
03752:  BCF    F97.7
03754:  BCF    F8E.7
03756:  MOVLW  08
03758:  MOVWF  01
0375A:  BRA    375C
0375C:  NOP   
0375E:  BSF    01.7
03760:  BRA    3782
03762:  BCF    01.7
03764:  MOVLB  2
03766:  RRCF   xB9,F
03768:  MOVLB  0
0376A:  BTFSC  FD8.0
0376C:  BSF    F8E.7
0376E:  BTFSS  FD8.0
03770:  BCF    F8E.7
03772:  BSF    01.6
03774:  BRA    3782
03776:  BCF    01.6
03778:  DECFSZ 01,F
0377A:  BRA    3764
0377C:  BRA    377E
0377E:  NOP   
03780:  BSF    F8E.7
03782:  MOVLW  84
03784:  MOVWF  FE9
03786:  DECFSZ FE9,F
03788:  BRA    3786
0378A:  BRA    378C
0378C:  NOP   
0378E:  BTFSC  01.7
03790:  BRA    3762
03792:  BTFSC  01.6
03794:  BRA    3776
03796:  RETURN 0
03798:  BSF    F97.6
0379A:  BTFSC  F85.6
0379C:  BRA    379A
0379E:  MOVLW  08
037A0:  MOVWF  00
037A2:  MOVLB  2
037A4:  CLRF   xBF
037A6:  BSF    00.7
037A8:  BRA    37C6
037AA:  BCF    00.7
037AC:  BRA    37C6
037AE:  BCF    FD8.0
037B0:  BTFSC  F85.6
037B2:  BSF    FD8.0
037B4:  RRCF   xBF,F
037B6:  BSF    00.6
037B8:  BRA    37C6
037BA:  BCF    00.6
037BC:  DECFSZ 00,F
037BE:  BRA    37AE
037C0:  MOVFF  2BF,01
037C4:  BRA    37DE
037C6:  MOVLW  84
037C8:  BTFSC  00.7
037CA:  MOVLW  24
037CC:  MOVWF  01
037CE:  DECFSZ 01,F
037D0:  BRA    37CE
037D2:  BRA    37D4
037D4:  BTFSC  00.7
037D6:  BRA    37AA
037D8:  BTFSC  00.6
037DA:  BRA    37BA
037DC:  BRA    37AE
037DE:  MOVLB  0
037E0:  RETURN 0
.................... #use rs232(baud=9600,parity=N,xmit=pin_G2,rcv=pin_G3,bits=8,stream=CAM) //MAIN to CAM 
*
075E0:  BCF    F98.2
075E2:  BCF    F8F.2
075E4:  MOVLW  08
075E6:  MOVWF  01
075E8:  BRA    75EA
075EA:  NOP   
075EC:  BSF    01.7
075EE:  BRA    7610
075F0:  BCF    01.7
075F2:  MOVLB  2
075F4:  RRCF   xAA,F
075F6:  MOVLB  0
075F8:  BTFSC  FD8.0
075FA:  BSF    F8F.2
075FC:  BTFSS  FD8.0
075FE:  BCF    F8F.2
07600:  BSF    01.6
07602:  BRA    7610
07604:  BCF    01.6
07606:  DECFSZ 01,F
07608:  BRA    75F2
0760A:  BRA    760C
0760C:  NOP   
0760E:  BSF    F8F.2
07610:  MOVLW  84
07612:  MOVWF  FE9
07614:  DECFSZ FE9,F
07616:  BRA    7614
07618:  BRA    761A
0761A:  NOP   
0761C:  BTFSC  01.7
0761E:  BRA    75F0
07620:  BTFSC  01.6
07622:  BRA    7604
07624:  RETURN 0
*
07630:  BSF    F98.3
07632:  BTFSC  F86.3
07634:  BRA    7632
07636:  MOVLW  08
07638:  MOVWF  00
0763A:  MOVLB  2
0763C:  CLRF   xAD
0763E:  BSF    00.7
07640:  BRA    765E
07642:  BCF    00.7
07644:  BRA    765E
07646:  BCF    FD8.0
07648:  BTFSC  F86.3
0764A:  BSF    FD8.0
0764C:  RRCF   xAD,F
0764E:  BSF    00.6
07650:  BRA    765E
07652:  BCF    00.6
07654:  DECFSZ 00,F
07656:  BRA    7646
07658:  MOVFF  2AD,01
0765C:  BRA    7676
0765E:  MOVLW  84
07660:  BTFSC  00.7
07662:  MOVLW  24
07664:  MOVWF  01
07666:  DECFSZ 01,F
07668:  BRA    7666
0766A:  BRA    766C
0766C:  BTFSC  00.7
0766E:  BRA    7642
07670:  BTFSC  00.6
07672:  BRA    7652
07674:  BRA    7646
07676:  MOVLB  0
07678:  RETURN 0
.................... #use rs232(baud=19200,parity=N,xmit=pin_G0,rcv=pin_G1,bits=8,stream=DC) //MAIN to DCM 
*
07F3E:  BSF    F98.1
07F40:  BTFSC  F86.1
07F42:  BRA    7F40
07F44:  MOVLW  08
07F46:  MOVWF  00
07F48:  MOVLB  2
07F4A:  CLRF   xB3
07F4C:  BSF    00.7
07F4E:  BRA    7F6C
07F50:  BCF    00.7
07F52:  BRA    7F6C
07F54:  BCF    FD8.0
07F56:  BTFSC  F86.1
07F58:  BSF    FD8.0
07F5A:  RRCF   xB3,F
07F5C:  BSF    00.6
07F5E:  BRA    7F6C
07F60:  BCF    00.6
07F62:  DECFSZ 00,F
07F64:  BRA    7F54
07F66:  MOVFF  2B3,01
07F6A:  BRA    7F82
07F6C:  MOVLW  3F
07F6E:  BTFSC  00.7
07F70:  MOVLW  11
07F72:  MOVWF  01
07F74:  DECFSZ 01,F
07F76:  BRA    7F74
07F78:  BTFSC  00.7
07F7A:  BRA    7F50
07F7C:  BTFSC  00.6
07F7E:  BRA    7F60
07F80:  BRA    7F54
07F82:  MOVLB  0
07F84:  RETURN 0
*
07FDC:  BCF    F98.0
07FDE:  BCF    F8F.0
07FE0:  MOVLW  08
07FE2:  MOVWF  01
07FE4:  BRA    7FE6
07FE6:  NOP   
07FE8:  BSF    01.7
07FEA:  BRA    800C
07FEC:  BCF    01.7
07FEE:  MOVLB  2
07FF0:  RRCF   xAF,F
07FF2:  MOVLB  0
07FF4:  BTFSC  FD8.0
07FF6:  BSF    F8F.0
07FF8:  BTFSS  FD8.0
07FFA:  BCF    F8F.0
07FFC:  BSF    01.6
07FFE:  BRA    800C
08000:  BCF    01.6
08002:  DECFSZ 01,F
08004:  BRA    7FEE
08006:  BRA    8008
08008:  NOP   
0800A:  BSF    F8F.0
0800C:  MOVLW  3F
0800E:  MOVWF  FE9
08010:  DECFSZ FE9,F
08012:  BRA    8010
08014:  NOP   
08016:  BTFSC  01.7
08018:  BRA    7FEC
0801A:  BTFSC  01.6
0801C:  BRA    8000
0801E:  GOTO   802C (RETURN)
....................  
.................... #use spi(MASTER, CLK=PIN_E1, DI=PIN_E0, DO=PIN_E6,  BAUD=1000000, BITS=8, STREAM=MAIN_FM, MODE=0) //MAIN flash memory port 
*
00D82:  MOVLB  2
00D84:  MOVF   xE3,W
00D86:  SUBLW  08
00D88:  BZ    0D92
00D8A:  MOVWF  xE4
00D8C:  RLCF   xE2,F
00D8E:  DECFSZ xE4,F
00D90:  BRA    0D8C
00D92:  BSF    F96.0
00D94:  BCF    F96.6
00D96:  BCF    F96.1
00D98:  BCF    F8D.1
00D9A:  MOVFF  2E3,2E4
00D9E:  BTFSS  xE2.7
00DA0:  BCF    F8D.6
00DA2:  BTFSC  xE2.7
00DA4:  BSF    F8D.6
00DA6:  RLCF   xE2,F
00DA8:  BSF    F8D.1
00DAA:  RLCF   01,F
00DAC:  BTFSS  F84.0
00DAE:  BCF    01.0
00DB0:  BTFSC  F84.0
00DB2:  BSF    01.0
00DB4:  BCF    F8D.1
00DB6:  DECFSZ xE4,F
00DB8:  BRA    0D9E
00DBA:  MOVLB  0
00DBC:  RETURN 0
.................... #use spi(MASTER, CLK=PIN_B2, DI=PIN_B5, DO=PIN_B4,  BAUD=1000000, BITS=8, STREAM=COM_FM, MODE=0) //COM flash memory port 
*
00E3A:  MOVLB  2
00E3C:  MOVF   xDD,W
00E3E:  SUBLW  08
00E40:  BZ    0E4A
00E42:  MOVWF  xDE
00E44:  RLCF   xDC,F
00E46:  DECFSZ xDE,F
00E48:  BRA    0E44
00E4A:  BSF    F93.5
00E4C:  BCF    F93.4
00E4E:  BCF    F93.2
00E50:  BCF    F8A.2
00E52:  MOVFF  2DD,2DE
00E56:  BTFSS  xDC.7
00E58:  BCF    F8A.4
00E5A:  BTFSC  xDC.7
00E5C:  BSF    F8A.4
00E5E:  RLCF   xDC,F
00E60:  BSF    F8A.2
00E62:  RLCF   01,F
00E64:  BTFSS  F81.5
00E66:  BCF    01.0
00E68:  BTFSC  F81.5
00E6A:  BSF    01.0
00E6C:  BCF    F8A.2
00E6E:  DECFSZ xDE,F
00E70:  BRA    0E56
00E72:  MOVLB  0
00E74:  RETURN 0
.................... #use spi(MASTER, CLK=PIN_A3, DI=PIN_A0, DO=PIN_A1,  BAUD=1000000, BITS=8, STREAM=MISSION_FM, MODE=0) //MISSION flash memory port 
*
00EF2:  MOVLB  2
00EF4:  MOVF   xDD,W
00EF6:  SUBLW  08
00EF8:  BZ    0F02
00EFA:  MOVWF  xDE
00EFC:  RLCF   xDC,F
00EFE:  DECFSZ xDE,F
00F00:  BRA    0EFC
00F02:  BSF    F92.0
00F04:  BCF    F92.1
00F06:  BCF    F92.3
00F08:  BCF    F89.3
00F0A:  MOVFF  2DD,2DE
00F0E:  BTFSS  xDC.7
00F10:  BCF    F89.1
00F12:  BTFSC  xDC.7
00F14:  BSF    F89.1
00F16:  RLCF   xDC,F
00F18:  BSF    F89.3
00F1A:  RLCF   01,F
00F1C:  BTFSS  F80.0
00F1E:  BCF    01.0
00F20:  BTFSC  F80.0
00F22:  BSF    01.0
00F24:  BCF    F89.3
00F26:  DECFSZ xDE,F
00F28:  BRA    0F0E
00F2A:  MOVLB  0
00F2C:  RETURN 0
....................  
....................  
.................... //-------------mainpic_function.c---------------------------------------------- 
....................  
....................  
.................... void Check_UART(); 
.................... void waiting(int32 counterval); 
.................... //void Turn_On_PWM(int a) 
.................... //void Turn_OFF_PWM() 
....................  
....................  
.................... /////////////MAIN PIC Buffer///////////// 
.................... void SerialDataReceive(); //get buffer data one by one 
.................... void Delete_Buffer(); //get buffer data one by one 
.................... void Transfer_Buffer(int PORT_NUM); //get buffer data one by one 
....................  
.................... SerialDataReceive(); 
.................... Transfer_Buffer(int PORT_NUM); //1:PC 2:COMPIC 3:RESETPIC 4:ADCS 5:S&F 6:CAM 
....................  
.................... /////////////RESET SENSOR collection///////////// 
....................  
.................... void DELETE_RESET(); 
.................... void COLLECT_RESET_DATA(); 
....................  
.................... /////////////FAB SENSOR collection///////////// 
.................... void Delete_in_HK(); 
.................... void Delete_HKDATA(); 
.................... void Delete_CWFORMAT(); 
.................... void MAKE_CW_FORMAT(); 
.................... void SAVE_HKDATA_TO_OF(unsigned int32 Memory_Adress); 
.................... void SAVE_HKDATA_TO_SCF(unsigned int32 Memory_Adress); 
.................... void SAVE_CWFORMAT_TO_OF(unsigned int32 Memory_Adress); 
.................... void SAVE_CWFORMAT_TO_SCF(unsigned int32 Memory_Adress); 
.................... void Send_COMMAND_TO_FAB(int8 cmd); 
.................... int8 ACK_FROM_FAB(); 
.................... void Send_HKDATA_to_SCF(int32 adress); 
.................... void Send_HKDATA_to_OF(int32 adress); 
.................... void SEND_CWFORMAT_TO_SCF(int32 adress); 
.................... void SEND_CWFORMAT_TO_OF(int32 adress); 
.................... void Send_HKDATA_to_PC(int32 adress); 
.................... void CHECK_HKDATA(int8 in); 
.................... void VERIFY_FABDATA(int32 delaytime1,int32 delaytime2); 
.................... void FAB_TEST_OPERATION(); 
.................... void GET_RESET_DATA(); 
....................  
.................... ///////////////HIGH SAMPLING HK collection////////////// 
.................... void SAVE_HIGH_HKDATA_TO_SCF(unsigned int32 Memory_Adress); 
.................... void Send_HIGH_HKDATA_to_SCF(int32 adress); 
.................... void SAVE_HIGH_HKDATA_TO_OF(unsigned int32 Memory_Adress); 
.................... void Send_HIGH_HKDATA_to_OF(int32 adress); 
.................... void CHECK_HIGH_SAMP_FABDATA(int8 in); 
.................... void VERIFY_HIGH_SAMP_FABDATA(int32 delaytime); 
.................... void GET_HIGH_SAMP_RESET_DATA(); 
.................... void HIGH_SAMP_FAB_OPERATION(); 
.................... void HIGHSAMP_SENSOR_COLLECTION(int16 second); 
....................  
.................... /////////////ANTENNA DEPLOYMENT///////////// 
.................... void BC_SETUP(); 
.................... void BC_READ_TO_PC(); 
.................... void CHECK_BC_TEMP(); 
.................... void Turn_ON_BC(); 
.................... void Turn_OFF_BC(); 
.................... void CHECK_POWER(); 
.................... void BC_OPERATION(); 
.................... void CLEAR_BC_FLAG(); 
.................... void MAKE_BC_FLAG_1(); 
.................... void MAKE_BC_FLAG_2(); 
.................... void MAKE_BC_FLAG_3(); 
.................... void MAKE_BC_FLAG_4(); 
....................  
....................  
.................... /////////////CAM MISSION///////////// 
.................... void Turn_On_CAM(); 
.................... void Turn_Off_CAM(); 
.................... void Send_Command_to_CAM(int8 data); 
.................... int8 ACK_from_CAM(); 
.................... void Transfer_Photo(); 
.................... void CAM_TEST_OPERATION(int8 mode); 
....................  
....................  
.................... /////////////ADCS MISSION///////////// 
....................  
.................... void Turn_On_ADCS(); 
.................... void Turn_Off_ADCS(); 
.................... void Send_Command_to_ADCS(int8 data); 
.................... void DELETE_ADCS_SENSOR(); 
.................... void ADCS_SETTINGS();//initiallize 
.................... void DISPLAY_ADCS_SENSOR_TO_PC();//for testing 
.................... void Get_ADCS_Data(); 
.................... void SAVE_SENSOR_TO_SMF(); 
.................... void TRANSFER_SENSOR_FROM_SMF_TO_SCF(); 
.................... void ADCS_TEST_OPERATION(); 
....................  
....................  
.................... /////////////Data Collection MISSION///////////// 
.................... void Turn_On_DC(); 
.................... void Turn_Off_DC(); 
.................... void DATACOLLECTION_TEST_OPERATION(); 
....................  
.................... /////////////KILL FUNCTION/////////////////////// 
.................... void Count_Kill_Flag(); 
....................  
.................... /////////////OTHER FUNCTION////////////////////// 
.................... void COLLECT_RESET_DATA(); 
.................... void CURRENT_ADDRESS_OF_COM_FLASH(); 
.................... void STORE_ADRESS_DATA_TO_FLASH(); 
.................... void TAKE_ADDRESS_DATA_FROM_OF(); 
.................... void MAKE_ADDRESS_DATA(); 
.................... void CHECK_ADDRESS_DATA(); 
.................... void MEMORY_ERASE(); 
....................  
....................  
.................... ////////////////////////////////RESERVATION FUNCTION (reserve_function.c)///////////////////////////////// 
.................... void initialize_table(); 
.................... void sort_table();//(command info, time info, mission mode)~10compare the time and sort 
.................... void Save_RSV(); 
.................... void table_refresh(); 
.................... void Get_RSV(); 
.................... void Disp_RSV();//show the reserve status (reserve command and reserve table) 
.................... void input_reservation_COM();//put the command into the table and sort 
.................... void input_reservation_PC();//put the command into the table and sort 
.................... void Remove_1_Reservation();//after executing the mission, it should be finished 
.................... void Reserve_command_COM();//reservation from COM 
.................... void Reserve_command_PC();//reservation from PC 
.................... void Reserve_next();//after finishing executing the reservation command, this function should be execute 
....................  
.................... #include<mainpic_function.h> 
.................... #include<flash_ memory_ MT25QL01GBBB_OF.c>//all flash memory 
.................... #define SPIPORT MAIN_FM 
.................... #define SPIPORT_2 COM_FM 
.................... #define SPIPORT_3 MISSION_FM 
....................  
.................... #define CS_PIN PIN_E2 
.................... #define CS_PIN_2 PIN_B3 
.................... #define CS_PIN_3 PIN_A2 
....................  
.................... #define READ_ID              0x9F 
.................... #define READ_STATUS_REG      0x05  
.................... #define READ_DATA_BYTES      0x13  //0x03 for byte 
.................... #define ENABLE_WRITE         0x06 
.................... #define WRITE_PAGE           0x12  //0x02 for 3byte 
.................... #define ERASE_SECTOR         0xDC  //0xD8 for 3byte 
.................... #define ERASE_4KB_SUBSECTOR  0x21 
.................... #define ERASE_32KB_SUBSECTOR 0x5C 
.................... #define DIE_ERASE            0xC4 
....................  
....................  
....................  
.................... void WRITE_ENABLE_OF(){ 
....................  output_low(CS_PIN); 
*
01068:  BCF    F96.2
0106A:  BCF    F8D.2
....................   
....................  ///////////////////////////////////////////////////////////// 
....................  //delay_ms(2); 
....................  spi_xfer(SPIPORT,ENABLE_WRITE);                //Send 0x06 
0106C:  MOVLW  06
0106E:  MOVLB  2
01070:  MOVWF  xE2
01072:  MOVLW  08
01074:  MOVWF  xE3
01076:  MOVLB  0
01078:  RCALL  0D82
....................  ///////////////////////////////////////////////////////////// 
....................   
....................  output_high(CS_PIN);   
0107A:  BCF    F96.2
0107C:  BSF    F8D.2
....................  return; 
0107E:  RETURN 0
.................... } 
.................... void WRITE_ENABLE_SCF(){ 
....................  output_low(CS_PIN_2); 
*
010F4:  BCF    F93.3
010F6:  BCF    F8A.3
....................   
....................  ///////////////////////////////////////////////////////////// 
....................  //delay_ms(2); 
....................  spi_xfer(SPIPORT_2,ENABLE_WRITE);                //Send 0x06 
010F8:  MOVLW  06
010FA:  MOVLB  2
010FC:  MOVWF  xDC
010FE:  MOVLW  08
01100:  MOVWF  xDD
01102:  MOVLB  0
01104:  RCALL  0E3A
....................  ///////////////////////////////////////////////////////////// 
....................   
....................  output_high(CS_PIN_2);   
01106:  BCF    F93.3
01108:  BSF    F8A.3
....................  return; 
0110A:  RETURN 0
.................... } 
.................... void WRITE_ENABLE_SMF(){ 
....................  output_low(CS_PIN_3); 
*
01180:  BCF    F92.2
01182:  BCF    F89.2
....................   
....................  ///////////////////////////////////////////////////////////// 
....................  //delay_ms(2); 
....................  spi_xfer(SPIPORT_3,ENABLE_WRITE);                //Send 0x06 
01184:  MOVLW  06
01186:  MOVLB  2
01188:  MOVWF  xDC
0118A:  MOVLW  08
0118C:  MOVWF  xDD
0118E:  MOVLB  0
01190:  RCALL  0EF2
....................  ///////////////////////////////////////////////////////////// 
....................   
....................  output_high(CS_PIN_3);   
01192:  BCF    F92.2
01194:  BSF    F89.2
....................  return; 
01196:  RETURN 0
.................... } 
....................  
.................... void sector_erase_OF(unsigned int32 sector_address) 
.................... { 
....................    unsigned int8 adsress[4]; 
....................     
....................    adsress[0]  = (unsigned int8)((sector_address>>24) & 0xFF);   // 0x _ _ 00 00 00 
*
028E6:  MOVLB  2
028E8:  MOVFF  2CB,2CC
....................    adsress[1]  = (unsigned int8)((sector_address>>16) & 0xFF);   // 0x 00 _ _ 00 00 
028EC:  MOVFF  2CA,2CD
....................    adsress[2]  = (unsigned int8)((sector_address>>8) & 0xFF);    // 0x 00 00 _ _ 00 
028F0:  MOVFF  2C9,2CE
....................    adsress[3]  = (unsigned int8)((sector_address) & 0xFF);       // 0x 00 00 00 _ _ 
028F4:  MOVFF  2C8,2CF
....................     
....................     
....................    WRITE_ENABLE_OF(); 
028F8:  MOVLB  0
028FA:  CALL   1068
....................    output_low(CS_PIN);             //lower the CS PIN 
028FE:  BCF    F96.2
02900:  BCF    F8D.2
....................    delay_us(2); 
02902:  MOVLW  02
02904:  MOVWF  00
02906:  DECFSZ 00,F
02908:  BRA    2906
0290A:  NOP   
....................     
....................    /////////////////////////////////////////////////////////////////// 
....................    spi_xfer(SPIPORT,ERASE_SECTOR); //SECTOR ERASE COMAND   (0xDC) 
0290C:  MOVLW  DC
0290E:  MOVLB  2
02910:  MOVWF  xE2
02912:  MOVLW  08
02914:  MOVWF  xE3
02916:  MOVLB  0
02918:  CALL   0D82
....................     
....................    spi_xfer(SPIPORT,adsress[0]);    
0291C:  MOVFF  2CC,2E2
02920:  MOVLW  08
02922:  MOVLB  2
02924:  MOVWF  xE3
02926:  MOVLB  0
02928:  CALL   0D82
....................    spi_xfer(SPIPORT,adsress[1]);     
0292C:  MOVFF  2CD,2E2
02930:  MOVLW  08
02932:  MOVLB  2
02934:  MOVWF  xE3
02936:  MOVLB  0
02938:  CALL   0D82
....................    spi_xfer(SPIPORT,adsress[2]);     
0293C:  MOVFF  2CE,2E2
02940:  MOVLW  08
02942:  MOVLB  2
02944:  MOVWF  xE3
02946:  MOVLB  0
02948:  CALL   0D82
....................    spi_xfer(SPIPORT,adsress[3]); 
0294C:  MOVFF  2CF,2E2
02950:  MOVLW  08
02952:  MOVLB  2
02954:  MOVWF  xE3
02956:  MOVLB  0
02958:  CALL   0D82
....................    ////////////////////////////////////////////////////////////////// 
....................     
....................    delay_us(2); 
0295C:  MOVLW  02
0295E:  MOVWF  00
02960:  DECFSZ 00,F
02962:  BRA    2960
02964:  NOP   
....................    output_high(CS_PIN);           //take CS PIN higher back 
02966:  BCF    F96.2
02968:  BSF    F8D.2
....................    //delay_ms(1000); 
....................    delay_ms(750); 
0296A:  MOVLW  03
0296C:  MOVLB  2
0296E:  MOVWF  xD0
02970:  MOVLW  FA
02972:  MOVWF  xDB
02974:  MOVLB  0
02976:  RCALL  230E
02978:  MOVLB  2
0297A:  DECFSZ xD0,F
0297C:  BRA    2970
....................     
....................    return; 
0297E:  MOVLB  0
02980:  RETURN 0
.................... } 
.................... void sector_erase_SCF(unsigned int32 sector_address) 
.................... { 
....................    unsigned int8 adsress[4]; 
....................     
....................    adsress[0]  = (unsigned int8)((sector_address>>24) & 0xFF);   // 0x _ _ 00 00 00 
02982:  MOVLB  2
02984:  MOVFF  2CB,2CC
....................    adsress[1]  = (unsigned int8)((sector_address>>16) & 0xFF);   // 0x 00 _ _ 00 00 
02988:  MOVFF  2CA,2CD
....................    adsress[2]  = (unsigned int8)((sector_address>>8) & 0xFF);    // 0x 00 00 _ _ 00 
0298C:  MOVFF  2C9,2CE
....................    adsress[3]  = (unsigned int8)((sector_address) & 0xFF);       // 0x 00 00 00 _ _ 
02990:  MOVFF  2C8,2CF
....................     
....................     
....................    WRITE_ENABLE_SCF(); 
02994:  MOVLB  0
02996:  CALL   10F4
....................    output_low(CS_PIN_2);             //lower the CS PIN 
0299A:  BCF    F93.3
0299C:  BCF    F8A.3
....................    delay_us(2); 
0299E:  MOVLW  02
029A0:  MOVWF  00
029A2:  DECFSZ 00,F
029A4:  BRA    29A2
029A6:  NOP   
....................     
....................    /////////////////////////////////////////////////////////////////// 
....................    spi_xfer(SPIPORT_2,ERASE_SECTOR); //SECTOR ERASE COMAND   (0xDC) 
029A8:  MOVLW  DC
029AA:  MOVLB  2
029AC:  MOVWF  xDC
029AE:  MOVLW  08
029B0:  MOVWF  xDD
029B2:  MOVLB  0
029B4:  CALL   0E3A
....................     
....................    spi_xfer(SPIPORT_2,adsress[0]);    
029B8:  MOVFF  2CC,2DC
029BC:  MOVLW  08
029BE:  MOVLB  2
029C0:  MOVWF  xDD
029C2:  MOVLB  0
029C4:  CALL   0E3A
....................    spi_xfer(SPIPORT_2,adsress[1]);     
029C8:  MOVFF  2CD,2DC
029CC:  MOVLW  08
029CE:  MOVLB  2
029D0:  MOVWF  xDD
029D2:  MOVLB  0
029D4:  CALL   0E3A
....................    spi_xfer(SPIPORT_2,adsress[2]);     
029D8:  MOVFF  2CE,2DC
029DC:  MOVLW  08
029DE:  MOVLB  2
029E0:  MOVWF  xDD
029E2:  MOVLB  0
029E4:  CALL   0E3A
....................    spi_xfer(SPIPORT_2,adsress[3]); 
029E8:  MOVFF  2CF,2DC
029EC:  MOVLW  08
029EE:  MOVLB  2
029F0:  MOVWF  xDD
029F2:  MOVLB  0
029F4:  CALL   0E3A
....................    ////////////////////////////////////////////////////////////////// 
....................     
....................    delay_us(2); 
029F8:  MOVLW  02
029FA:  MOVWF  00
029FC:  DECFSZ 00,F
029FE:  BRA    29FC
02A00:  NOP   
....................    output_high(CS_PIN_2);           //take CS PIN higher back 
02A02:  BCF    F93.3
02A04:  BSF    F8A.3
....................    //delay_ms(1000); 
....................    delay_ms(750); 
02A06:  MOVLW  03
02A08:  MOVLB  2
02A0A:  MOVWF  xD0
02A0C:  MOVLW  FA
02A0E:  MOVWF  xDB
02A10:  MOVLB  0
02A12:  RCALL  230E
02A14:  MOVLB  2
02A16:  DECFSZ xD0,F
02A18:  BRA    2A0C
....................     
....................    return; 
02A1A:  MOVLB  0
02A1C:  RETURN 0
.................... } 
.................... void sector_erase_SMF(unsigned int32 sector_address) 
.................... { 
....................    unsigned int8 adsress[4]; 
....................     
....................    adsress[0]  = (unsigned int8)((sector_address>>24) & 0xFF);   // 0x _ _ 00 00 00 
02A1E:  MOVLB  2
02A20:  MOVFF  2CB,2CC
....................    adsress[1]  = (unsigned int8)((sector_address>>16) & 0xFF);   // 0x 00 _ _ 00 00 
02A24:  MOVFF  2CA,2CD
....................    adsress[2]  = (unsigned int8)((sector_address>>8) & 0xFF);    // 0x 00 00 _ _ 00 
02A28:  MOVFF  2C9,2CE
....................    adsress[3]  = (unsigned int8)((sector_address) & 0xFF);       // 0x 00 00 00 _ _ 
02A2C:  MOVFF  2C8,2CF
....................     
....................     
....................    WRITE_ENABLE_SMF(); 
02A30:  MOVLB  0
02A32:  CALL   1180
....................    output_low(CS_PIN_3);             //lower the CS PIN 
02A36:  BCF    F92.2
02A38:  BCF    F89.2
....................    delay_us(2); 
02A3A:  MOVLW  02
02A3C:  MOVWF  00
02A3E:  DECFSZ 00,F
02A40:  BRA    2A3E
02A42:  NOP   
....................     
....................    /////////////////////////////////////////////////////////////////// 
....................    spi_xfer(SPIPORT_3,ERASE_SECTOR); //SECTOR ERASE COMAND   (0xDC) 
02A44:  MOVLW  DC
02A46:  MOVLB  2
02A48:  MOVWF  xDC
02A4A:  MOVLW  08
02A4C:  MOVWF  xDD
02A4E:  MOVLB  0
02A50:  CALL   0EF2
....................     
....................    spi_xfer(SPIPORT_3,adsress[0]);    
02A54:  MOVFF  2CC,2DC
02A58:  MOVLW  08
02A5A:  MOVLB  2
02A5C:  MOVWF  xDD
02A5E:  MOVLB  0
02A60:  CALL   0EF2
....................    spi_xfer(SPIPORT_3,adsress[1]);     
02A64:  MOVFF  2CD,2DC
02A68:  MOVLW  08
02A6A:  MOVLB  2
02A6C:  MOVWF  xDD
02A6E:  MOVLB  0
02A70:  CALL   0EF2
....................    spi_xfer(SPIPORT_3,adsress[2]);     
02A74:  MOVFF  2CE,2DC
02A78:  MOVLW  08
02A7A:  MOVLB  2
02A7C:  MOVWF  xDD
02A7E:  MOVLB  0
02A80:  CALL   0EF2
....................    spi_xfer(SPIPORT_3,adsress[3]); 
02A84:  MOVFF  2CF,2DC
02A88:  MOVLW  08
02A8A:  MOVLB  2
02A8C:  MOVWF  xDD
02A8E:  MOVLB  0
02A90:  CALL   0EF2
....................    ////////////////////////////////////////////////////////////////// 
....................     
....................    delay_us(2); 
02A94:  MOVLW  02
02A96:  MOVWF  00
02A98:  DECFSZ 00,F
02A9A:  BRA    2A98
02A9C:  NOP   
....................    output_high(CS_PIN_3);           //take CS PIN higher back 
02A9E:  BCF    F92.2
02AA0:  BSF    F89.2
....................    //delay_ms(1000);   
....................    delay_ms(750); 
02AA2:  MOVLW  03
02AA4:  MOVLB  2
02AA6:  MOVWF  xD0
02AA8:  MOVLW  FA
02AAA:  MOVWF  xDB
02AAC:  MOVLB  0
02AAE:  RCALL  230E
02AB0:  MOVLB  2
02AB2:  DECFSZ xD0,F
02AB4:  BRA    2AA8
....................    return; 
02AB6:  MOVLB  0
02AB8:  RETURN 0
.................... } 
....................  
.................... void SUBSECTOR_4KB_ERASE_OF(unsigned int32 sector_address) 
.................... { 
....................    unsigned int8 adsress[4]; 
....................     
....................    adsress[0]  = (unsigned int8)((sector_address>>24) & 0xFF);   // 0x _ _ 00 00 00 
*
02338:  MOVLB  2
0233A:  MOVFF  2D5,2D6
....................    adsress[1]  = (unsigned int8)((sector_address>>16) & 0xFF);   // 0x 00 _ _ 00 00 
0233E:  MOVFF  2D4,2D7
....................    adsress[2]  = (unsigned int8)((sector_address>>8) & 0xFF);    // 0x 00 00 _ _ 00 
02342:  MOVFF  2D3,2D8
....................    adsress[3]  = (unsigned int8)((sector_address) & 0xFF);       // 0x 00 00 00 _ _ 
02346:  MOVFF  2D2,2D9
....................     
....................     
....................    WRITE_ENABLE_OF(); 
0234A:  MOVLB  0
0234C:  CALL   1068
....................    output_low(CS_PIN);             //lower the CS PIN 
02350:  BCF    F96.2
02352:  BCF    F8D.2
....................    delay_us(2); 
02354:  MOVLW  02
02356:  MOVWF  00
02358:  DECFSZ 00,F
0235A:  BRA    2358
0235C:  NOP   
....................     
....................    /////////////////////////////////////////////////////////////////// 
....................    spi_xfer(SPIPORT,ERASE_4KB_SUBSECTOR); //SECTOR ERASE COMAND   (0xDC) 
0235E:  MOVLW  21
02360:  MOVLB  2
02362:  MOVWF  xE2
02364:  MOVLW  08
02366:  MOVWF  xE3
02368:  MOVLB  0
0236A:  CALL   0D82
....................     
....................    spi_xfer(SPIPORT,adsress[0]);    
0236E:  MOVFF  2D6,2E2
02372:  MOVLW  08
02374:  MOVLB  2
02376:  MOVWF  xE3
02378:  MOVLB  0
0237A:  CALL   0D82
....................    spi_xfer(SPIPORT,adsress[1]);     
0237E:  MOVFF  2D7,2E2
02382:  MOVLW  08
02384:  MOVLB  2
02386:  MOVWF  xE3
02388:  MOVLB  0
0238A:  CALL   0D82
....................    spi_xfer(SPIPORT,adsress[2]);     
0238E:  MOVFF  2D8,2E2
02392:  MOVLW  08
02394:  MOVLB  2
02396:  MOVWF  xE3
02398:  MOVLB  0
0239A:  CALL   0D82
....................    spi_xfer(SPIPORT,adsress[3]); 
0239E:  MOVFF  2D9,2E2
023A2:  MOVLW  08
023A4:  MOVLB  2
023A6:  MOVWF  xE3
023A8:  MOVLB  0
023AA:  CALL   0D82
....................    ////////////////////////////////////////////////////////////////// 
....................     
....................    delay_us(2); 
023AE:  MOVLW  02
023B0:  MOVWF  00
023B2:  DECFSZ 00,F
023B4:  BRA    23B2
023B6:  NOP   
....................    output_high(CS_PIN);           //take CS PIN higher back 
023B8:  BCF    F96.2
023BA:  BSF    F8D.2
....................    delay_ms(100);   
023BC:  MOVLW  64
023BE:  MOVLB  2
023C0:  MOVWF  xDB
023C2:  MOVLB  0
023C4:  RCALL  230E
....................     
....................    return; 
023C6:  RETURN 0
.................... } 
.................... void SUBSECTOR_4KB_ERASE_SCF(unsigned int32 sector_address) 
.................... { 
....................    unsigned int8 adsress[4]; 
....................     
....................    adsress[0]  = (unsigned int8)((sector_address>>24) & 0xFF);   // 0x _ _ 00 00 00 
023C8:  MOVLB  2
023CA:  MOVFF  2D5,2D6
....................    adsress[1]  = (unsigned int8)((sector_address>>16) & 0xFF);   // 0x 00 _ _ 00 00 
023CE:  MOVFF  2D4,2D7
....................    adsress[2]  = (unsigned int8)((sector_address>>8) & 0xFF);    // 0x 00 00 _ _ 00 
023D2:  MOVFF  2D3,2D8
....................    adsress[3]  = (unsigned int8)((sector_address) & 0xFF);       // 0x 00 00 00 _ _ 
023D6:  MOVFF  2D2,2D9
....................     
....................     
....................    WRITE_ENABLE_SCF(); 
023DA:  MOVLB  0
023DC:  CALL   10F4
....................    output_low(CS_PIN_2);             //lower the CS PIN 
023E0:  BCF    F93.3
023E2:  BCF    F8A.3
....................    delay_us(2); 
023E4:  MOVLW  02
023E6:  MOVWF  00
023E8:  DECFSZ 00,F
023EA:  BRA    23E8
023EC:  NOP   
....................     
....................    /////////////////////////////////////////////////////////////////// 
....................    spi_xfer(SPIPORT_2,ERASE_4KB_SUBSECTOR); //SECTOR ERASE COMAND   (0xDC) 
023EE:  MOVLW  21
023F0:  MOVLB  2
023F2:  MOVWF  xDC
023F4:  MOVLW  08
023F6:  MOVWF  xDD
023F8:  MOVLB  0
023FA:  CALL   0E3A
....................     
....................    spi_xfer(SPIPORT_2,adsress[0]);    
023FE:  MOVFF  2D6,2DC
02402:  MOVLW  08
02404:  MOVLB  2
02406:  MOVWF  xDD
02408:  MOVLB  0
0240A:  CALL   0E3A
....................    spi_xfer(SPIPORT_2,adsress[1]);     
0240E:  MOVFF  2D7,2DC
02412:  MOVLW  08
02414:  MOVLB  2
02416:  MOVWF  xDD
02418:  MOVLB  0
0241A:  CALL   0E3A
....................    spi_xfer(SPIPORT_2,adsress[2]);     
0241E:  MOVFF  2D8,2DC
02422:  MOVLW  08
02424:  MOVLB  2
02426:  MOVWF  xDD
02428:  MOVLB  0
0242A:  CALL   0E3A
....................    spi_xfer(SPIPORT_2,adsress[3]); 
0242E:  MOVFF  2D9,2DC
02432:  MOVLW  08
02434:  MOVLB  2
02436:  MOVWF  xDD
02438:  MOVLB  0
0243A:  CALL   0E3A
....................    ////////////////////////////////////////////////////////////////// 
....................     
....................    delay_us(2); 
0243E:  MOVLW  02
02440:  MOVWF  00
02442:  DECFSZ 00,F
02444:  BRA    2442
02446:  NOP   
....................    output_high(CS_PIN_2);           //take CS PIN higher back 
02448:  BCF    F93.3
0244A:  BSF    F8A.3
....................    delay_ms(10);   
0244C:  MOVLW  0A
0244E:  MOVLB  2
02450:  MOVWF  xDB
02452:  MOVLB  0
02454:  RCALL  230E
....................     
....................    return; 
02456:  RETURN 0
.................... } 
.................... void SUBSECTOR_4KB_ERASE_SMF(unsigned int32 sector_address) 
.................... { 
....................    unsigned int8 adsress[4]; 
....................     
....................    adsress[0]  = (unsigned int8)((sector_address>>24) & 0xFF);   // 0x _ _ 00 00 00 
02458:  MOVLB  2
0245A:  MOVFF  2D5,2D6
....................    adsress[1]  = (unsigned int8)((sector_address>>16) & 0xFF);   // 0x 00 _ _ 00 00 
0245E:  MOVFF  2D4,2D7
....................    adsress[2]  = (unsigned int8)((sector_address>>8) & 0xFF);    // 0x 00 00 _ _ 00 
02462:  MOVFF  2D3,2D8
....................    adsress[3]  = (unsigned int8)((sector_address) & 0xFF);       // 0x 00 00 00 _ _ 
02466:  MOVFF  2D2,2D9
....................     
....................     
....................    WRITE_ENABLE_SMF(); 
0246A:  MOVLB  0
0246C:  CALL   1180
....................    output_low(CS_PIN_3);             //lower the CS PIN 
02470:  BCF    F92.2
02472:  BCF    F89.2
....................    delay_us(2); 
02474:  MOVLW  02
02476:  MOVWF  00
02478:  DECFSZ 00,F
0247A:  BRA    2478
0247C:  NOP   
....................     
....................    /////////////////////////////////////////////////////////////////// 
....................    spi_xfer(SPIPORT_3,ERASE_4KB_SUBSECTOR); //SECTOR ERASE COMAND   (0xDC) 
0247E:  MOVLW  21
02480:  MOVLB  2
02482:  MOVWF  xDC
02484:  MOVLW  08
02486:  MOVWF  xDD
02488:  MOVLB  0
0248A:  CALL   0EF2
....................     
....................    spi_xfer(SPIPORT_3,adsress[0]);    
0248E:  MOVFF  2D6,2DC
02492:  MOVLW  08
02494:  MOVLB  2
02496:  MOVWF  xDD
02498:  MOVLB  0
0249A:  CALL   0EF2
....................    spi_xfer(SPIPORT_3,adsress[1]);     
0249E:  MOVFF  2D7,2DC
024A2:  MOVLW  08
024A4:  MOVLB  2
024A6:  MOVWF  xDD
024A8:  MOVLB  0
024AA:  CALL   0EF2
....................    spi_xfer(SPIPORT_3,adsress[2]);     
024AE:  MOVFF  2D8,2DC
024B2:  MOVLW  08
024B4:  MOVLB  2
024B6:  MOVWF  xDD
024B8:  MOVLB  0
024BA:  CALL   0EF2
....................    spi_xfer(SPIPORT_3,adsress[3]); 
024BE:  MOVFF  2D9,2DC
024C2:  MOVLW  08
024C4:  MOVLB  2
024C6:  MOVWF  xDD
024C8:  MOVLB  0
024CA:  CALL   0EF2
....................    ////////////////////////////////////////////////////////////////// 
....................     
....................    delay_us(2); 
024CE:  MOVLW  02
024D0:  MOVWF  00
024D2:  DECFSZ 00,F
024D4:  BRA    24D2
024D6:  NOP   
....................    output_high(CS_PIN_3);           //take CS PIN higher back 
024D8:  BCF    F92.2
024DA:  BSF    F89.2
....................    delay_ms(1000);   
024DC:  MOVLW  04
024DE:  MOVLB  2
024E0:  MOVWF  xDA
024E2:  MOVLW  FA
024E4:  MOVWF  xDB
024E6:  MOVLB  0
024E8:  RCALL  230E
024EA:  MOVLB  2
024EC:  DECFSZ xDA,F
024EE:  BRA    24E2
....................     
....................    return; 
024F0:  MOVLB  0
024F2:  RETURN 0
.................... } 
....................  
.................... void SUBSECTOR_32KB_ERASE_OF(unsigned int32 sector_address) 
.................... { 
....................    unsigned int8 adsress[4]; 
....................     
....................    adsress[0]  = (unsigned int8)((sector_address>>24) & 0xFF);   // 0x _ _ 00 00 00 
....................    adsress[1]  = (unsigned int8)((sector_address>>16) & 0xFF);   // 0x 00 _ _ 00 00 
....................    adsress[2]  = (unsigned int8)((sector_address>>8) & 0xFF);    // 0x 00 00 _ _ 00 
....................    adsress[3]  = (unsigned int8)((sector_address) & 0xFF);       // 0x 00 00 00 _ _ 
....................     
....................     
....................    WRITE_ENABLE_OF(); 
....................    output_low(CS_PIN);             //lower the CS PIN 
....................    delay_us(2); 
....................     
....................    /////////////////////////////////////////////////////////////////// 
....................    spi_xfer(SPIPORT,ERASE_32KB_SUBSECTOR); //SECTOR ERASE COMAND   (0xDC) 
....................     
....................    spi_xfer(SPIPORT,adsress[0]);    
....................    spi_xfer(SPIPORT,adsress[1]);     
....................    spi_xfer(SPIPORT,adsress[2]);     
....................    spi_xfer(SPIPORT,adsress[3]); 
....................    ////////////////////////////////////////////////////////////////// 
....................     
....................    delay_us(2); 
....................    output_high(CS_PIN);           //take CS PIN higher back 
....................    delay_ms(1000);   
....................     
....................    return; 
.................... } 
.................... void SUBSECTOR_32KB_ERASE_SCF(unsigned int32 sector_address) 
.................... { 
....................    unsigned int8 adsress[4]; 
....................     
....................    adsress[0]  = (unsigned int8)((sector_address>>24) & 0xFF);   // 0x _ _ 00 00 00 
....................    adsress[1]  = (unsigned int8)((sector_address>>16) & 0xFF);   // 0x 00 _ _ 00 00 
....................    adsress[2]  = (unsigned int8)((sector_address>>8) & 0xFF);    // 0x 00 00 _ _ 00 
....................    adsress[3]  = (unsigned int8)((sector_address) & 0xFF);       // 0x 00 00 00 _ _ 
....................     
....................     
....................    WRITE_ENABLE_SCF(); 
....................    output_low(CS_PIN_2);             //lower the CS PIN 
....................    delay_us(2); 
....................     
....................    /////////////////////////////////////////////////////////////////// 
....................    spi_xfer(SPIPORT_2,ERASE_32KB_SUBSECTOR); //SECTOR ERASE COMAND   (0xDC) 
....................     
....................    spi_xfer(SPIPORT_2,adsress[0]);    
....................    spi_xfer(SPIPORT_2,adsress[1]);     
....................    spi_xfer(SPIPORT_2,adsress[2]);     
....................    spi_xfer(SPIPORT_2,adsress[3]); 
....................    ////////////////////////////////////////////////////////////////// 
....................     
....................    delay_us(2); 
....................    output_high(CS_PIN_2);           //take CS PIN higher back 
....................    delay_ms(1000);   
....................     
....................    return; 
.................... } 
.................... void SUBSECTOR_32KB_ERASE_SMF(unsigned int32 sector_address) 
.................... { 
....................    unsigned int8 adsress[4]; 
....................     
....................    adsress[0]  = (unsigned int8)((sector_address>>24) & 0xFF);   // 0x _ _ 00 00 00 
....................    adsress[1]  = (unsigned int8)((sector_address>>16) & 0xFF);   // 0x 00 _ _ 00 00 
....................    adsress[2]  = (unsigned int8)((sector_address>>8) & 0xFF);    // 0x 00 00 _ _ 00 
....................    adsress[3]  = (unsigned int8)((sector_address) & 0xFF);       // 0x 00 00 00 _ _ 
....................     
....................     
....................    WRITE_ENABLE_SMF(); 
....................    output_low(CS_PIN_3);             //lower the CS PIN 
....................    delay_us(2); 
....................     
....................    /////////////////////////////////////////////////////////////////// 
....................    spi_xfer(SPIPORT_3,ERASE_32KB_SUBSECTOR); //SECTOR ERASE COMAND   (0xDC) 
....................     
....................    spi_xfer(SPIPORT_3,adsress[0]);    
....................    spi_xfer(SPIPORT_3,adsress[1]);     
....................    spi_xfer(SPIPORT_3,adsress[2]);     
....................    spi_xfer(SPIPORT_3,adsress[3]); 
....................    ////////////////////////////////////////////////////////////////// 
....................     
....................    delay_us(2); 
....................    output_high(CS_PIN_3);           //take CS PIN higher back 
....................    delay_ms(1000);   
....................     
....................    return; 
.................... } 
....................  
.................... void ALL_SECTOR_ERASE_OF() 
.................... { 
....................    int32 ADRESS = 0; 
....................    for(int16 i = 0; i < 2048; i++) 
....................    { 
....................       sector_erase_OF(ADRESS); 
....................       ADRESS = ADRESS + 65536; 
....................    } 
.................... } 
.................... void ALL_SECTOR_ERASE_SCF() 
.................... { 
....................    int32 ADRESS = 0; 
....................    for(int16 i = 0; i < 2048; i++) 
....................    { 
....................       sector_erase_SCF(ADRESS); 
....................       ADRESS = ADRESS + 65536; 
....................    } 
.................... } 
.................... void ALL_SECTOR_ERASE_SMF() 
.................... { 
....................    int32 ADRESS = 0; 
....................    for(int16 i = 0; i < 2048; i++) 
....................    { 
....................       sector_erase_SMF(ADRESS); 
....................       ADRESS = ADRESS + 65536; 
....................    } 
.................... } 
....................  
.................... void WRITE_DATA_BYTE_OF(unsigned int32 page_address, int8 data) 
.................... { 
....................    unsigned int8 adsress[4]; 
....................     
....................    //Byte extraction 
....................    adsress[0]  = (unsigned int8)((page_address>>24) & 0xFF);   // 0x _ _ 00 00 00 
*
01080:  MOVLB  2
01082:  MOVFF  2D6,2D8
....................    adsress[1]  = (unsigned int8)((page_address>>16) & 0xFF);   // 0x 00 _ _ 00 00 
01086:  MOVFF  2D5,2D9
....................    adsress[2]  = (unsigned int8)((page_address>>8) & 0xFF);    // 0x 00 00 _ _ 00 
0108A:  MOVFF  2D4,2DA
....................    adsress[3]  = (unsigned int8)((page_address) & 0xFF);       // 0x 00 00 00 _ _ 
0108E:  MOVFF  2D3,2DB
....................     
....................    WRITE_ENABLE_OF(); 
01092:  MOVLB  0
01094:  RCALL  1068
....................    output_low(CS_PIN);           //lower the CS PIN 
01096:  BCF    F96.2
01098:  BCF    F8D.2
....................    //delay_us(2); 
....................     
....................    //////////////////////////////////////////////////////////////// 
....................    spi_xfer(SPIPORT,WRITE_PAGE); //PAGE WRITE COMAND  (0x12) 
0109A:  MOVLW  12
0109C:  MOVLB  2
0109E:  MOVWF  xE2
010A0:  MOVLW  08
010A2:  MOVWF  xE3
010A4:  MOVLB  0
010A6:  RCALL  0D82
....................    
....................    spi_xfer(SPIPORT,adsress[0]);     
010A8:  MOVFF  2D8,2E2
010AC:  MOVLW  08
010AE:  MOVLB  2
010B0:  MOVWF  xE3
010B2:  MOVLB  0
010B4:  RCALL  0D82
....................    spi_xfer(SPIPORT,adsress[1]);     
010B6:  MOVFF  2D9,2E2
010BA:  MOVLW  08
010BC:  MOVLB  2
010BE:  MOVWF  xE3
010C0:  MOVLB  0
010C2:  RCALL  0D82
....................    spi_xfer(SPIPORT,adsress[2]);     
010C4:  MOVFF  2DA,2E2
010C8:  MOVLW  08
010CA:  MOVLB  2
010CC:  MOVWF  xE3
010CE:  MOVLB  0
010D0:  RCALL  0D82
....................    spi_xfer(SPIPORT,adsress[3]); 
010D2:  MOVFF  2DB,2E2
010D6:  MOVLW  08
010D8:  MOVLB  2
010DA:  MOVWF  xE3
010DC:  MOVLB  0
010DE:  RCALL  0D82
....................     
....................    spi_xfer(SPIPORT,data);  
010E0:  MOVFF  2D7,2E2
010E4:  MOVLW  08
010E6:  MOVLB  2
010E8:  MOVWF  xE3
010EA:  MOVLB  0
010EC:  RCALL  0D82
....................    //////////////////////////////////////////////////////////////// 
....................     
....................    output_high(CS_PIN);        //take CS PIN higher back 
010EE:  BCF    F96.2
010F0:  BSF    F8D.2
....................  
....................    //delay_us(5);   
....................     
....................    return; 
010F2:  RETURN 0
.................... } 
.................... void WRITE_DATA_BYTE_SCF(unsigned int32 page_address, int8 data) 
.................... { 
....................    unsigned int8 adsress[4]; 
....................     
....................    //Byte extraction 
....................    adsress[0]  = (unsigned int8)((page_address>>24) & 0xFF);   // 0x _ _ 00 00 00 
*
0110C:  MOVLB  2
0110E:  MOVFF  2D6,2D8
....................    adsress[1]  = (unsigned int8)((page_address>>16) & 0xFF);   // 0x 00 _ _ 00 00 
01112:  MOVFF  2D5,2D9
....................    adsress[2]  = (unsigned int8)((page_address>>8) & 0xFF);    // 0x 00 00 _ _ 00 
01116:  MOVFF  2D4,2DA
....................    adsress[3]  = (unsigned int8)((page_address) & 0xFF);       // 0x 00 00 00 _ _ 
0111A:  MOVFF  2D3,2DB
....................     
....................    WRITE_ENABLE_SCF(); 
0111E:  MOVLB  0
01120:  RCALL  10F4
....................    output_low(CS_PIN_2);           //lower the CS PIN 
01122:  BCF    F93.3
01124:  BCF    F8A.3
....................    //delay_us(2); 
....................     
....................    //////////////////////////////////////////////////////////////// 
....................    spi_xfer(SPIPORT_2,WRITE_PAGE); //PAGE WRITE COMAND  (0x12) 
01126:  MOVLW  12
01128:  MOVLB  2
0112A:  MOVWF  xDC
0112C:  MOVLW  08
0112E:  MOVWF  xDD
01130:  MOVLB  0
01132:  RCALL  0E3A
....................    
....................    spi_xfer(SPIPORT_2,adsress[0]);     
01134:  MOVFF  2D8,2DC
01138:  MOVLW  08
0113A:  MOVLB  2
0113C:  MOVWF  xDD
0113E:  MOVLB  0
01140:  RCALL  0E3A
....................    spi_xfer(SPIPORT_2,adsress[1]);     
01142:  MOVFF  2D9,2DC
01146:  MOVLW  08
01148:  MOVLB  2
0114A:  MOVWF  xDD
0114C:  MOVLB  0
0114E:  RCALL  0E3A
....................    spi_xfer(SPIPORT_2,adsress[2]);     
01150:  MOVFF  2DA,2DC
01154:  MOVLW  08
01156:  MOVLB  2
01158:  MOVWF  xDD
0115A:  MOVLB  0
0115C:  RCALL  0E3A
....................    spi_xfer(SPIPORT_2,adsress[3]); 
0115E:  MOVFF  2DB,2DC
01162:  MOVLW  08
01164:  MOVLB  2
01166:  MOVWF  xDD
01168:  MOVLB  0
0116A:  RCALL  0E3A
....................     
....................    spi_xfer(SPIPORT_2,data);  
0116C:  MOVFF  2D7,2DC
01170:  MOVLW  08
01172:  MOVLB  2
01174:  MOVWF  xDD
01176:  MOVLB  0
01178:  RCALL  0E3A
....................    //////////////////////////////////////////////////////////////// 
....................     
....................    output_high(CS_PIN_2);        //take CS PIN higher back 
0117A:  BCF    F93.3
0117C:  BSF    F8A.3
....................  
....................    //delay_us(5);   
....................     
....................    return; 
0117E:  RETURN 0
.................... } 
.................... void WRITE_DATA_BYTE_SMF(unsigned int32 page_address, int8 data) 
.................... { 
....................    unsigned int8 adsress[4]; 
....................     
....................    //Byte extraction 
....................    adsress[0]  = (unsigned int8)((page_address>>24) & 0xFF);   // 0x _ _ 00 00 00 
*
01198:  MOVLB  2
0119A:  MOVFF  2D6,2D8
....................    adsress[1]  = (unsigned int8)((page_address>>16) & 0xFF);   // 0x 00 _ _ 00 00 
0119E:  MOVFF  2D5,2D9
....................    adsress[2]  = (unsigned int8)((page_address>>8) & 0xFF);    // 0x 00 00 _ _ 00 
011A2:  MOVFF  2D4,2DA
....................    adsress[3]  = (unsigned int8)((page_address) & 0xFF);       // 0x 00 00 00 _ _ 
011A6:  MOVFF  2D3,2DB
....................     
....................    WRITE_ENABLE_SMF(); 
011AA:  MOVLB  0
011AC:  RCALL  1180
....................    output_low(CS_PIN_3);           //lower the CS PIN 
011AE:  BCF    F92.2
011B0:  BCF    F89.2
....................    //delay_us(2); 
....................     
....................    //////////////////////////////////////////////////////////////// 
....................    spi_xfer(SPIPORT_3,WRITE_PAGE); //PAGE WRITE COMAND  (0x12) 
011B2:  MOVLW  12
011B4:  MOVLB  2
011B6:  MOVWF  xDC
011B8:  MOVLW  08
011BA:  MOVWF  xDD
011BC:  MOVLB  0
011BE:  RCALL  0EF2
....................    
....................    spi_xfer(SPIPORT_3,adsress[0]);     
011C0:  MOVFF  2D8,2DC
011C4:  MOVLW  08
011C6:  MOVLB  2
011C8:  MOVWF  xDD
011CA:  MOVLB  0
011CC:  RCALL  0EF2
....................    spi_xfer(SPIPORT_3,adsress[1]);     
011CE:  MOVFF  2D9,2DC
011D2:  MOVLW  08
011D4:  MOVLB  2
011D6:  MOVWF  xDD
011D8:  MOVLB  0
011DA:  RCALL  0EF2
....................    spi_xfer(SPIPORT_3,adsress[2]);     
011DC:  MOVFF  2DA,2DC
011E0:  MOVLW  08
011E2:  MOVLB  2
011E4:  MOVWF  xDD
011E6:  MOVLB  0
011E8:  RCALL  0EF2
....................    spi_xfer(SPIPORT_3,adsress[3]); 
011EA:  MOVFF  2DB,2DC
011EE:  MOVLW  08
011F0:  MOVLB  2
011F2:  MOVWF  xDD
011F4:  MOVLB  0
011F6:  RCALL  0EF2
....................     
....................    spi_xfer(SPIPORT_3,data);  
011F8:  MOVFF  2D7,2DC
011FC:  MOVLW  08
011FE:  MOVLB  2
01200:  MOVWF  xDD
01202:  MOVLB  0
01204:  RCALL  0EF2
....................    //////////////////////////////////////////////////////////////// 
....................     
....................    output_high(CS_PIN_3);        //take CS PIN higher back 
01206:  BCF    F92.2
01208:  BSF    F89.2
....................  
....................    //delay_us(10);   
....................     
....................    return; 
0120A:  RETURN 0
.................... } 
....................  
.................... int8 READ_CHIP_ID_OF() 
.................... { 
....................  output_low(CS_PIN);           //lower the CS PIN 
....................   
....................  //////////////////////////////////////////////////////////////// 
....................  int8 chip_id; 
....................  spi_xfer(SPIPORT,READ_ID);    //READ ID COMAND   (0x9F) 
....................  chip_id = spi_xfer(SPIPORT); 
....................  //////////////////////////////////////////////////////////////// 
....................   
....................  output_high(CS_PIN);         //take CS PIN higher back 
....................  return chip_id; 
.................... } 
.................... int8 READ_CHIP_ID_SCF() 
.................... { 
....................  output_low(CS_PIN_2);           //lower the CS PIN 
....................   
....................  //////////////////////////////////////////////////////////////// 
....................  int8 chip_id; 
....................  spi_xfer(SPIPORT_2,READ_ID);    //READ ID COMAND   (0x9F) 
....................  chip_id = spi_xfer(SPIPORT_2); 
....................  //////////////////////////////////////////////////////////////// 
....................   
....................  output_high(CS_PIN_2);         //take CS PIN higher back 
....................  return chip_id; 
.................... } 
.................... int8 READ_CHIP_ID_SMF() 
.................... { 
....................  output_low(CS_PIN_3);           //lower the CS PIN 
....................   
....................  //////////////////////////////////////////////////////////////// 
....................  int8 chip_id; 
....................  spi_xfer(SPIPORT_3,READ_ID);    //READ ID COMAND   (0x9F) 
....................  chip_id = spi_xfer(SPIPORT_3); 
....................  //////////////////////////////////////////////////////////////// 
....................   
....................  output_high(CS_PIN_3);         //take CS PIN higher back 
....................  return chip_id; 
.................... } 
....................  
.................... int8 READ_STATUS_REGISTER_OF() 
.................... { 
....................  output_low(CS_PIN);           //lower the CS PIN 
....................   
....................  ///////////////////////////////////////////////////////////////// 
....................  int8 status_reg; 
....................  spi_xfer(SPIPORT,READ_STATUS_REG); //READ STATUS REGISTER COMAND  (0x05) 
....................  status_reg = spi_xfer(SPIPORT); 
....................  ///////////////////////////////////////////////////////////////// 
....................   
....................  output_high(CS_PIN);         //take CS PIN higher back 
....................  return status_reg; 
.................... } 
.................... int8 READ_STATUS_REGISTER_SCF() 
.................... { 
....................  output_low(CS_PIN_2);           //lower the CS PIN 
....................   
....................  ///////////////////////////////////////////////////////////////// 
....................  int8 status_reg; 
....................  spi_xfer(SPIPORT_2,READ_STATUS_REG); //READ STATUS REGISTER COMAND  (0x05) 
....................  status_reg = spi_xfer(SPIPORT_2); 
....................  ///////////////////////////////////////////////////////////////// 
....................   
....................  output_high(CS_PIN_2);         //take CS PIN higher back 
....................  return status_reg; 
.................... } 
.................... int8 READ_STATUS_REGISTER_SMF() 
.................... { 
....................  output_low(CS_PIN_3);           //lower the CS PIN 
....................   
....................  ///////////////////////////////////////////////////////////////// 
....................  int8 status_reg; 
....................  spi_xfer(SPIPORT_3,READ_STATUS_REG); //READ STATUS REGISTER COMAND  (0x05) 
....................  status_reg = spi_xfer(SPIPORT_3); 
....................  ///////////////////////////////////////////////////////////////// 
....................   
....................  output_high(CS_PIN_3);         //take CS PIN higher back 
....................  return status_reg; 
.................... } 
....................  
.................... int8 READ_DATA_BYTE_OF(unsigned INT32 ADDRESS) 
.................... { 
....................  
....................  unsigned int8 adsress[4]; 
....................    //Byte extraction 
....................    adsress[0]  = (unsigned int8)((ADDRESS>>24) & 0xFF);   // 0x _ _ 00 00 00 
*
00DBE:  MOVLB  2
00DC0:  MOVFF  2DC,2DD
....................    adsress[1]  = (unsigned int8)((ADDRESS>>16) & 0xFF);   // 0x 00 _ _ 00 00 
00DC4:  MOVFF  2DB,2DE
....................    adsress[2]  = (unsigned int8)((ADDRESS>>8) & 0xFF);    // 0x 00 00 _ _ 00 
00DC8:  MOVFF  2DA,2DF
....................    adsress[3]  = (unsigned int8)((ADDRESS) & 0xFF);       // 0x 00 00 00 _ _ 
00DCC:  MOVFF  2D9,2E0
....................     
....................  output_low(CS_PIN);                 //lower the CS PIN 
00DD0:  BCF    F96.2
00DD2:  BCF    F8D.2
....................   
....................  ////////////////////////////////////////////////////////////////// 
....................  int8 data; 
....................  spi_xfer(SPIPORT,READ_DATA_BYTES);  //READ DATA COMAND   (0x13) 
00DD4:  MOVLW  13
00DD6:  MOVWF  xE2
00DD8:  MOVLW  08
00DDA:  MOVWF  xE3
00DDC:  MOVLB  0
00DDE:  RCALL  0D82
....................   
....................  spi_xfer(SPIPORT,adsress[0]); 
00DE0:  MOVFF  2DD,2E2
00DE4:  MOVLW  08
00DE6:  MOVLB  2
00DE8:  MOVWF  xE3
00DEA:  MOVLB  0
00DEC:  RCALL  0D82
....................  spi_xfer(SPIPORT,adsress[1]); 
00DEE:  MOVFF  2DE,2E2
00DF2:  MOVLW  08
00DF4:  MOVLB  2
00DF6:  MOVWF  xE3
00DF8:  MOVLB  0
00DFA:  RCALL  0D82
....................  spi_xfer(SPIPORT,adsress[2]); 
00DFC:  MOVFF  2DF,2E2
00E00:  MOVLW  08
00E02:  MOVLB  2
00E04:  MOVWF  xE3
00E06:  MOVLB  0
00E08:  RCALL  0D82
....................  spi_xfer(SPIPORT,adsress[3]); 
00E0A:  MOVFF  2E0,2E2
00E0E:  MOVLW  08
00E10:  MOVLB  2
00E12:  MOVWF  xE3
00E14:  MOVLB  0
00E16:  RCALL  0D82
....................  data = spi_xfer(SPIPORT); 
00E18:  MOVLW  01
00E1A:  MOVLB  2
00E1C:  MOVWF  xE2
00E1E:  MOVLW  08
00E20:  MOVWF  xE3
00E22:  MOVLB  0
00E24:  RCALL  0D82
00E26:  MOVF   01,W
00E28:  MOVFF  01,2E1
....................  ////////////////////////////////////////////////////////////////// 
....................   
....................  output_high(CS_PIN);               //take CS PIN higher back 
00E2C:  BCF    F96.2
00E2E:  BSF    F8D.2
....................  return data; 
00E30:  MOVLB  2
00E32:  MOVFF  2E1,01
00E36:  MOVLB  0
00E38:  RETURN 0
....................   
.................... } 
.................... int8 READ_DATA_BYTE_SCF(unsigned INT32 ADDRESS) 
.................... { 
....................  
....................  unsigned int8 adsress[4]; 
....................    //Byte extraction 
....................    adsress[0]  = (unsigned int8)((ADDRESS>>24) & 0xFF);   // 0x _ _ 00 00 00 
*
00E76:  MOVLB  2
00E78:  MOVFF  2C3,2C4
....................    adsress[1]  = (unsigned int8)((ADDRESS>>16) & 0xFF);   // 0x 00 _ _ 00 00 
00E7C:  MOVFF  2C2,2C5
....................    adsress[2]  = (unsigned int8)((ADDRESS>>8) & 0xFF);    // 0x 00 00 _ _ 00 
00E80:  MOVFF  2C1,2C6
....................    adsress[3]  = (unsigned int8)((ADDRESS) & 0xFF);       // 0x 00 00 00 _ _ 
00E84:  MOVFF  2C0,2C7
....................     
....................  output_low(CS_PIN_2);                 //lower the CS PIN 
00E88:  BCF    F93.3
00E8A:  BCF    F8A.3
....................   
....................  ////////////////////////////////////////////////////////////////// 
....................  int8 data; 
....................  spi_xfer(SPIPORT_2,READ_DATA_BYTES);  //READ DATA COMAND   (0x13) 
00E8C:  MOVLW  13
00E8E:  MOVWF  xDC
00E90:  MOVLW  08
00E92:  MOVWF  xDD
00E94:  MOVLB  0
00E96:  RCALL  0E3A
....................   
....................  spi_xfer(SPIPORT_2,adsress[0]); 
00E98:  MOVFF  2C4,2DC
00E9C:  MOVLW  08
00E9E:  MOVLB  2
00EA0:  MOVWF  xDD
00EA2:  MOVLB  0
00EA4:  RCALL  0E3A
....................  spi_xfer(SPIPORT_2,adsress[1]); 
00EA6:  MOVFF  2C5,2DC
00EAA:  MOVLW  08
00EAC:  MOVLB  2
00EAE:  MOVWF  xDD
00EB0:  MOVLB  0
00EB2:  RCALL  0E3A
....................  spi_xfer(SPIPORT_2,adsress[2]); 
00EB4:  MOVFF  2C6,2DC
00EB8:  MOVLW  08
00EBA:  MOVLB  2
00EBC:  MOVWF  xDD
00EBE:  MOVLB  0
00EC0:  RCALL  0E3A
....................  spi_xfer(SPIPORT_2,adsress[3]); 
00EC2:  MOVFF  2C7,2DC
00EC6:  MOVLW  08
00EC8:  MOVLB  2
00ECA:  MOVWF  xDD
00ECC:  MOVLB  0
00ECE:  RCALL  0E3A
....................  data = spi_xfer(SPIPORT_2); 
00ED0:  MOVLW  02
00ED2:  MOVLB  2
00ED4:  MOVWF  xDC
00ED6:  MOVLW  08
00ED8:  MOVWF  xDD
00EDA:  MOVLB  0
00EDC:  RCALL  0E3A
00EDE:  MOVF   01,W
00EE0:  MOVFF  01,2C8
....................  ////////////////////////////////////////////////////////////////// 
....................   
....................  output_high(CS_PIN_2);               //take CS PIN higher back 
00EE4:  BCF    F93.3
00EE6:  BSF    F8A.3
....................  return data; 
00EE8:  MOVLB  2
00EEA:  MOVFF  2C8,01
00EEE:  MOVLB  0
00EF0:  RETURN 0
....................   
.................... } 
.................... int8 READ_DATA_BYTE_SMF(unsigned INT32 ADDRESS) 
.................... { 
....................  
....................  unsigned int8 adsress[4]; 
....................    //Byte extraction 
....................    adsress[0]  = (unsigned int8)((ADDRESS>>24) & 0xFF);   // 0x _ _ 00 00 00 
*
00F2E:  MOVLB  2
00F30:  MOVFF  2C3,2C4
....................    adsress[1]  = (unsigned int8)((ADDRESS>>16) & 0xFF);   // 0x 00 _ _ 00 00 
00F34:  MOVFF  2C2,2C5
....................    adsress[2]  = (unsigned int8)((ADDRESS>>8) & 0xFF);    // 0x 00 00 _ _ 00 
00F38:  MOVFF  2C1,2C6
....................    adsress[3]  = (unsigned int8)((ADDRESS) & 0xFF);       // 0x 00 00 00 _ _ 
00F3C:  MOVFF  2C0,2C7
....................     
....................  output_low(CS_PIN_3);                 //lower the CS PIN 
00F40:  BCF    F92.2
00F42:  BCF    F89.2
....................   
....................  ////////////////////////////////////////////////////////////////// 
....................  int8 data; 
....................  spi_xfer(SPIPORT_3,READ_DATA_BYTES);  //READ DATA COMAND   (0x13) 
00F44:  MOVLW  13
00F46:  MOVWF  xDC
00F48:  MOVLW  08
00F4A:  MOVWF  xDD
00F4C:  MOVLB  0
00F4E:  RCALL  0EF2
....................   
....................  spi_xfer(SPIPORT_3,adsress[0]); 
00F50:  MOVFF  2C4,2DC
00F54:  MOVLW  08
00F56:  MOVLB  2
00F58:  MOVWF  xDD
00F5A:  MOVLB  0
00F5C:  RCALL  0EF2
....................  spi_xfer(SPIPORT_3,adsress[1]); 
00F5E:  MOVFF  2C5,2DC
00F62:  MOVLW  08
00F64:  MOVLB  2
00F66:  MOVWF  xDD
00F68:  MOVLB  0
00F6A:  RCALL  0EF2
....................  spi_xfer(SPIPORT_3,adsress[2]); 
00F6C:  MOVFF  2C6,2DC
00F70:  MOVLW  08
00F72:  MOVLB  2
00F74:  MOVWF  xDD
00F76:  MOVLB  0
00F78:  RCALL  0EF2
....................  spi_xfer(SPIPORT_3,adsress[3]); 
00F7A:  MOVFF  2C7,2DC
00F7E:  MOVLW  08
00F80:  MOVLB  2
00F82:  MOVWF  xDD
00F84:  MOVLB  0
00F86:  RCALL  0EF2
....................  data = spi_xfer(SPIPORT_3); 
00F88:  MOVLW  03
00F8A:  MOVLB  2
00F8C:  MOVWF  xDC
00F8E:  MOVLW  08
00F90:  MOVWF  xDD
00F92:  MOVLB  0
00F94:  RCALL  0EF2
00F96:  MOVF   01,W
00F98:  MOVFF  01,2C8
....................  ////////////////////////////////////////////////////////////////// 
....................   
....................  output_high(CS_PIN_3);               //take CS PIN higher back 
00F9C:  BCF    F92.2
00F9E:  BSF    F89.2
....................  return data; 
00FA0:  MOVLB  2
00FA2:  MOVFF  2C8,01
00FA6:  MOVLB  0
00FA8:  RETURN 0
....................   
.................... } 
....................  
.................... void TRANSFER_DATA_256byte_OF(unsigned INT32 ADRESS, int PORT_NUM) //read and send the specified data 
.................... { 
....................    unsigned long int i; 
....................     
....................    switch(PORT_NUM) 
....................    { 
....................       case 1: 
....................          for (i=0 ; i < 256 ; i++) 
....................          { 
....................             fputc(READ_DATA_BYTE_OF(ADRESS),PC); 
....................             ADRESS++; 
....................          } 
....................          break; 
....................       case 2: 
....................          for (i=0 ; i < 256 ; i++) 
....................          { 
....................             fputc(READ_DATA_BYTE_OF(ADRESS),reset); 
....................             ADRESS++; 
....................          } 
....................          break; 
....................       case 3: 
....................          for (i=0 ; i < 256 ; i++) 
....................          { 
....................             fputc(READ_DATA_BYTE_OF(ADRESS),com); 
....................             ADRESS++; 
....................          } 
....................          break; 
....................    } 
....................    return;  
.................... } 
.................... void TRANSFER_DATA_256byte_SCF(unsigned INT32 ADRESS, int PORT_NUM) //read and send the specified data 
.................... { 
....................    unsigned long int i; 
....................     
....................    switch(PORT_NUM) 
....................    { 
....................       case 1: 
....................          for (i=0 ; i < 256 ; i++) 
....................          { 
....................             fputc(READ_DATA_BYTE_SCF(ADRESS),PC); 
....................             ADRESS++; 
....................          } 
....................          break; 
....................       case 2: 
....................          for (i=0 ; i < 256 ; i++) 
....................          { 
....................             fputc(READ_DATA_BYTE_SCF(ADRESS),reset); 
....................             ADRESS++; 
....................          } 
....................          break; 
....................       case 3: 
....................          for (i=0 ; i < 256 ; i++) 
....................          { 
....................             fputc(READ_DATA_BYTE_SCF(ADRESS),com); 
....................             ADRESS++; 
....................          } 
....................          break; 
....................    } 
....................     return;   
.................... } 
.................... void TRANSFER_DATA_256byte_SMF(unsigned INT32 ADRESS, int PORT_NUM) //read and send the specified data 
.................... { 
....................    unsigned long int i; 
....................     
....................    switch(PORT_NUM) 
....................    { 
....................       case 1: 
....................          for (i=0 ; i < 256 ; i++) 
....................          { 
....................             fputc(READ_DATA_BYTE_SMF(ADRESS),PC); 
....................             ADRESS++; 
....................          } 
....................          break; 
....................       case 2: 
....................          for (i=0 ; i < 256 ; i++) 
....................          { 
....................             fputc(READ_DATA_BYTE_SMF(ADRESS),reset); 
....................             ADRESS++; 
....................          } 
....................          break; 
....................       case 3: 
....................          for (i=0 ; i < 256 ; i++) 
....................          { 
....................             fputc(READ_DATA_BYTE_SMF(ADRESS),com); 
....................             ADRESS++; 
....................          } 
....................          break; 
....................    } 
....................     return;   
.................... } 
....................  
.................... void WRITE_DATA_NBYTE_OF(unsigned INT32 ADDRES,int32 data_byte) //read and send the specified data 
.................... { 
....................    for (int32 i=0 ; i < data_byte ; i++) 
....................    { 
....................       WRITE_DATA_BYTE_OF(ADDRES,0x77); 
....................       ADDRES++; 
....................    } 
....................    return; 
.................... } 
.................... void WRITE_DATA_NBYTE_SCF(unsigned INT32 ADDRES,int32 data_byte) //read and send the specified data 
.................... { 
....................    for (int32 i=0 ; i < data_byte ; i++) 
....................    { 
....................       WRITE_DATA_BYTE_SCF(ADDRES,0x69); 
....................       ADDRES++; 
....................    } 
....................    return; 
.................... } 
.................... void WRITE_DATA_NBYTE_SMF(unsigned INT32 ADDRES,int32 data_byte) //read and send the specified data 
.................... { 
....................    for (int32 i=0 ; i < data_byte ; i++) 
....................    { 
....................       WRITE_DATA_BYTE_SMF(ADDRES,0x55); 
....................       ADDRES++; 
....................    } 
....................    return; 
.................... } 
....................  
.................... void TRANSFER_DATA_NBYTE_TOPC_OF(unsigned INT32 ADRESS,int32 data_byte) //read and send the specified data 
.................... { 
....................    for (int32 i=0 ; i < data_byte ; i++) 
*
04734:  MOVLB  2
04736:  CLRF   xBE
04738:  CLRF   xBD
0473A:  CLRF   xBC
0473C:  CLRF   xBB
0473E:  MOVF   xBE,W
04740:  SUBWF  xBA,W
04742:  BNC   47A4
04744:  BNZ   475C
04746:  MOVF   xBD,W
04748:  SUBWF  xB9,W
0474A:  BNC   47A4
0474C:  BNZ   475C
0474E:  MOVF   xBC,W
04750:  SUBWF  xB8,W
04752:  BNC   47A4
04754:  BNZ   475C
04756:  MOVF   xB7,W
04758:  SUBWF  xBB,W
0475A:  BC    47A4
....................    { 
....................       fputc(READ_DATA_BYTE_OF(ADRESS),PC); 
0475C:  MOVFF  2B6,2DC
04760:  MOVFF  2B5,2DB
04764:  MOVFF  2B4,2DA
04768:  MOVFF  2B3,2D9
0476C:  MOVLB  0
0476E:  CALL   0DBE
04772:  MOVFF  01,2BF
04776:  MOVLB  2
04778:  MOVF   xBF,W
0477A:  MOVLB  0
0477C:  CALL   3446
....................       ADRESS++; 
04780:  MOVLW  01
04782:  MOVLB  2
04784:  ADDWF  xB3,F
04786:  BTFSC  FD8.0
04788:  INCF   xB4,F
0478A:  BTFSC  FD8.2
0478C:  INCF   xB5,F
0478E:  BTFSC  FD8.2
04790:  INCF   xB6,F
04792:  MOVLW  01
04794:  ADDWF  xBB,F
04796:  BTFSC  FD8.0
04798:  INCF   xBC,F
0479A:  BTFSC  FD8.2
0479C:  INCF   xBD,F
0479E:  BTFSC  FD8.2
047A0:  INCF   xBE,F
047A2:  BRA    473E
....................    } 
....................    return; 
047A4:  MOVLB  0
047A6:  GOTO   47DC (RETURN)
.................... } 
.................... void TRANSFER_DATA_NBYTE_TOPC_SCF(unsigned INT32 ADRESS,int32 data_byte) //read and send the specified data 
.................... { 
....................    for (int32 i=0 ; i < data_byte ; i++) 
*
0788E:  MOVLB  2
07890:  CLRF   xB4
07892:  CLRF   xB3
07894:  CLRF   xB2
07896:  CLRF   xB1
07898:  MOVF   xB4,W
0789A:  SUBWF  xB0,W
0789C:  BNC   7904
0789E:  BNZ   78B6
078A0:  MOVF   xB3,W
078A2:  SUBWF  xAF,W
078A4:  BNC   7904
078A6:  BNZ   78B6
078A8:  MOVF   xB2,W
078AA:  SUBWF  xAE,W
078AC:  BNC   7904
078AE:  BNZ   78B6
078B0:  MOVF   xAD,W
078B2:  SUBWF  xB1,W
078B4:  BC    7904
....................    { 
....................       fprintf(PC,"%x",READ_DATA_BYTE_SCF(ADRESS)); 
078B6:  MOVFF  2AC,2C3
078BA:  MOVFF  2AB,2C2
078BE:  MOVFF  2AA,2C1
078C2:  MOVFF  2A9,2C0
078C6:  MOVLB  0
078C8:  CALL   0E76
078CC:  MOVFF  01,2B5
078D0:  MOVFF  01,2D3
078D4:  MOVLW  57
078D6:  MOVLB  2
078D8:  MOVWF  xD4
078DA:  MOVLB  0
078DC:  CALL   123E
....................       ADRESS++; 
078E0:  MOVLW  01
078E2:  MOVLB  2
078E4:  ADDWF  xA9,F
078E6:  BTFSC  FD8.0
078E8:  INCF   xAA,F
078EA:  BTFSC  FD8.2
078EC:  INCF   xAB,F
078EE:  BTFSC  FD8.2
078F0:  INCF   xAC,F
078F2:  MOVLW  01
078F4:  ADDWF  xB1,F
078F6:  BTFSC  FD8.0
078F8:  INCF   xB2,F
078FA:  BTFSC  FD8.2
078FC:  INCF   xB3,F
078FE:  BTFSC  FD8.2
07900:  INCF   xB4,F
07902:  BRA    7898
....................    } 
....................    return; 
07904:  MOVLB  0
07906:  RETURN 0
.................... } 
.................... void TRANSFER_DATA_NBYTE_TOPC_SMF(unsigned INT32 ADRESS,int32 data_byte) //read and send the specified data 
.................... { 
....................    for (int32 i=0 ; i < data_byte ; i++) 
....................    { 
....................       fputc(READ_DATA_BYTE_SMF(ADRESS),PC); 
....................       ADRESS++; 
....................    } 
....................    return; 
.................... } 
....................  
.................... void TRANSFER_DATA_NBYTE_OFtoSCF(unsigned INT32 FROM_ADRESS,unsigned INT32 TO_ADRESS,int32 data_byte) //transfer data from MAIN FLASH to COM FLASH 
.................... { 
....................    for (int32 i=0 ; i < data_byte ; i++) 
....................    { 
....................       WRITE_DATA_BYTE_SCF(TO_ADRESS,READ_DATA_BYTE_OF(FROM_ADRESS)); 
....................       FROM_ADRESS++; 
....................       TO_ADRESS++; 
....................    } 
....................    return; 
.................... } 
.................... void TRANSFER_DATA_NBYTE_SCFtoOF(unsigned INT32 FROM_ADRESS,unsigned INT32 TO_ADRESS,int32 data_byte) //transfer data from COM FLASH to MAIN FLASH 
.................... { 
....................    for (int32 i=0 ; i < data_byte ; i++) 
....................    { 
....................       WRITE_DATA_BYTE_OF(TO_ADRESS,READ_DATA_BYTE_SCF(FROM_ADRESS)); 
....................       FROM_ADRESS++; 
....................       TO_ADRESS++; 
....................    } 
....................    return; 
.................... } 
.................... void TRANSFER_DATA_NBYTE_OFtoSMF(unsigned INT32 FROM_ADRESS,unsigned INT32 TO_ADRESS,int32 data_byte) //transfer data from MAIN FLASH to MISSION FLASH 
.................... { 
....................    for (int32 i=0 ; i < data_byte ; i++) 
....................    { 
....................       WRITE_DATA_BYTE_SMF(TO_ADRESS,READ_DATA_BYTE_OF(FROM_ADRESS)); 
....................       FROM_ADRESS++; 
....................       TO_ADRESS++; 
....................    } 
....................    return; 
.................... } 
.................... void TRANSFER_DATA_NBYTE_SMFtoOF(unsigned INT32 FROM_ADRESS,unsigned INT32 TO_ADRESS,int32 data_byte) //transfer data from MISSION FLASH to MAIN FLASH 
.................... { 
....................    for (int32 i=0 ; i < data_byte ; i++) 
*
077FC:  MOVLB  2
077FE:  CLRF   xB8
07800:  CLRF   xB7
07802:  CLRF   xB6
07804:  CLRF   xB5
07806:  MOVF   xB8,W
07808:  SUBWF  xB4,W
0780A:  BNC   788A
0780C:  BNZ   7824
0780E:  MOVF   xB7,W
07810:  SUBWF  xB3,W
07812:  BNC   788A
07814:  BNZ   7824
07816:  MOVF   xB6,W
07818:  SUBWF  xB2,W
0781A:  BNC   788A
0781C:  BNZ   7824
0781E:  MOVF   xB1,W
07820:  SUBWF  xB5,W
07822:  BC    788A
....................    { 
....................       WRITE_DATA_BYTE_OF(TO_ADRESS,READ_DATA_BYTE_SMF(FROM_ADRESS)); 
07824:  MOVFF  2AC,2C3
07828:  MOVFF  2AB,2C2
0782C:  MOVFF  2AA,2C1
07830:  MOVFF  2A9,2C0
07834:  MOVLB  0
07836:  CALL   0F2E
0783A:  MOVFF  01,2B9
0783E:  MOVFF  2B0,2D6
07842:  MOVFF  2AF,2D5
07846:  MOVFF  2AE,2D4
0784A:  MOVFF  2AD,2D3
0784E:  MOVFF  01,2D7
07852:  CALL   1080
....................       FROM_ADRESS++; 
07856:  MOVLW  01
07858:  MOVLB  2
0785A:  ADDWF  xA9,F
0785C:  BTFSC  FD8.0
0785E:  INCF   xAA,F
07860:  BTFSC  FD8.2
07862:  INCF   xAB,F
07864:  BTFSC  FD8.2
07866:  INCF   xAC,F
....................       TO_ADRESS++; 
07868:  MOVLW  01
0786A:  ADDWF  xAD,F
0786C:  BTFSC  FD8.0
0786E:  INCF   xAE,F
07870:  BTFSC  FD8.2
07872:  INCF   xAF,F
07874:  BTFSC  FD8.2
07876:  INCF   xB0,F
07878:  MOVLW  01
0787A:  ADDWF  xB5,F
0787C:  BTFSC  FD8.0
0787E:  INCF   xB6,F
07880:  BTFSC  FD8.2
07882:  INCF   xB7,F
07884:  BTFSC  FD8.2
07886:  INCF   xB8,F
07888:  BRA    7806
....................    } 
....................    return; 
0788A:  MOVLB  0
0788C:  RETURN 0
.................... } 
.................... void TRANSFER_DATA_NBYTE_SMFtoSCF(unsigned INT32 FROM_ADRESS,unsigned INT32 TO_ADRESS,int32 data_byte) //transfer data from MISSION FLASH to COM FLASH 
.................... { 
....................    for (int32 i=0 ; i < data_byte ; i++) 
*
0776A:  MOVLB  2
0776C:  CLRF   xB8
0776E:  CLRF   xB7
07770:  CLRF   xB6
07772:  CLRF   xB5
07774:  MOVF   xB8,W
07776:  SUBWF  xB4,W
07778:  BNC   77F8
0777A:  BNZ   7792
0777C:  MOVF   xB7,W
0777E:  SUBWF  xB3,W
07780:  BNC   77F8
07782:  BNZ   7792
07784:  MOVF   xB6,W
07786:  SUBWF  xB2,W
07788:  BNC   77F8
0778A:  BNZ   7792
0778C:  MOVF   xB1,W
0778E:  SUBWF  xB5,W
07790:  BC    77F8
....................    { 
....................       WRITE_DATA_BYTE_SCF(TO_ADRESS,READ_DATA_BYTE_SMF(FROM_ADRESS)); 
07792:  MOVFF  2AC,2C3
07796:  MOVFF  2AB,2C2
0779A:  MOVFF  2AA,2C1
0779E:  MOVFF  2A9,2C0
077A2:  MOVLB  0
077A4:  CALL   0F2E
077A8:  MOVFF  01,2B9
077AC:  MOVFF  2B0,2D6
077B0:  MOVFF  2AF,2D5
077B4:  MOVFF  2AE,2D4
077B8:  MOVFF  2AD,2D3
077BC:  MOVFF  01,2D7
077C0:  CALL   110C
....................       FROM_ADRESS++; 
077C4:  MOVLW  01
077C6:  MOVLB  2
077C8:  ADDWF  xA9,F
077CA:  BTFSC  FD8.0
077CC:  INCF   xAA,F
077CE:  BTFSC  FD8.2
077D0:  INCF   xAB,F
077D2:  BTFSC  FD8.2
077D4:  INCF   xAC,F
....................       TO_ADRESS++; 
077D6:  MOVLW  01
077D8:  ADDWF  xAD,F
077DA:  BTFSC  FD8.0
077DC:  INCF   xAE,F
077DE:  BTFSC  FD8.2
077E0:  INCF   xAF,F
077E2:  BTFSC  FD8.2
077E4:  INCF   xB0,F
077E6:  MOVLW  01
077E8:  ADDWF  xB5,F
077EA:  BTFSC  FD8.0
077EC:  INCF   xB6,F
077EE:  BTFSC  FD8.2
077F0:  INCF   xB7,F
077F2:  BTFSC  FD8.2
077F4:  INCF   xB8,F
077F6:  BRA    7774
....................    } 
....................    return; 
077F8:  MOVLB  0
077FA:  RETURN 0
.................... } 
.................... void TRANSFER_DATA_NBYTE_SCFtoSMF(unsigned INT32 FROM_ADRESS,unsigned INT32 TO_ADRESS,int32 data_byte) //transfer data from COM FLASH to MISSION FLASH 
.................... { 
....................    for (int32 i=0 ; i < data_byte ; i++) 
....................    { 
....................       WRITE_DATA_BYTE_SMF(TO_ADRESS,READ_DATA_BYTE_SCF(FROM_ADRESS)); 
....................       FROM_ADRESS++; 
....................       TO_ADRESS++; 
....................    } 
....................    return; 
.................... } 
.................... void TRANSFER_DATA_NBYTE_SCF(unsigned INT32 FROM_ADRESS,unsigned INT32 TO_ADRESS,int32 data_byte) //read and send the specified data 
.................... { 
....................    for (int32 i=0 ; i < data_byte ; i++) 
....................    { 
....................       WRITE_DATA_BYTE_SMF(TO_ADRESS,READ_DATA_BYTE_SCF(FROM_ADRESS)); 
....................       FROM_ADRESS++; 
....................       TO_ADRESS++; 
....................    } 
....................    return; 
.................... } 
....................  
....................  
....................  
....................  
....................  
.................... #include<MEMORY_OPERATION.c> 
.................... //-------------------------ADDRESS (PREVIOUS)---------------------------------- 
.................... //!/////////////////previous////////////////////////////// 
.................... //!Static int32 ADCS_SENSOR_ADDRESS = 65536*500; 
.................... //!Static int32 FAB_HK_ADDRESS = 65536 * 200; 
.................... //!Static int32 FAB_CW_ADDRESS = 65536 * 50; 
.................... //!Static int32 FAB_CW_ADDRESS_FOR_MF = 65536; //sector1 
.................... //!Static int32 HIGH_SAMP_HK_ADDRESS = 65536 * 1800; 
.................... //!Static int32 CAM_ADDRESS = 65536; 
.................... //!Static int32 DC_STATUS_ADDRESS = 65536*300; 
.................... //!/////////////////////////////////////////////////////// 
.................... #define SECT 65536 
....................  
.................... Static int32 ADD_INFO_ADDRESS = 4096;//for keeping the address data to flash memory 
.................... Static int32 ADDRESS_WRITING_COUNTER = 0;//if address writing more than 30000 times, change the store address 
....................  
.................... Static int32 FLAG_DATA_ADDRESS = SECT*4;//1sector 
.................... Static int32 RSV_DATA_ADDRESS=SECT*5;//1sector 
.................... Static int32 SAT_LOG = SECT*6;//2sector 
.................... Static int32 CAM_ADDRESS = SECT*8;//90sector 
.................... Static int32 FAB_HK_ADDRESS = SECT*98;//1000sector 
.................... Static int32 FAB_CW_ADDRESS = SECT*1098;//40sector 
.................... Static int32 ADCS_SENSOR_ADDRESS = SECT*1138;//500sector 
.................... Static int32 DC_STATUS_ADDRESS = SECT*1638;//1sector 
.................... Static int32 HIGH_SAMP_HK_ADDRESS = SECT*1639;//409sector 
.................... Static int32 FLAG_ADDRESS_EEPROM = 0x18000;//from 75 percent of the programming memory 
.................... Static int32 FLASH_AD_ADDRESS_EEPROM = 0x18000 + 28;//after flag info 
....................  
.................... #define FLAG_DATA_ADDRESS_END  SECT*5-26 
.................... #define RSV_DATA_ADDRESS_END  SECT*6-60 
.................... #define SAT_LOG_END  SECT*8-22 
.................... #define CAM_ADDRESS_END  SECT*98-SECT*2 
.................... #define FAB_HK_ADDRESS_END  SECT*1098-SECT-248 
.................... #define FAB_CW_ADDRESS_END  SECT*1138-10 
.................... #define FAB_CW_ADDRESS_FOR_MF_END FAB_CW_ADDRESS_END 
.................... #define ADCS_SENSOR_ADDRESS_END  SECT*1638-408000//408000 is for 2 hour data(85*3600*2/1.5) 
.................... #define DC_STATUS_ADDRESS_END SECT*1639-415 
.................... #define HIGH_SAMP_HK_ADDRESS_END  SECT*2047-178560//178560 is for 2 hour data(124*3600*2/5) 
....................  
.................... int8 BC_ATTEMPT_FLAG = 0; 
.................... int16 PASSED_DAYS = 0; 
.................... int8 RESERVE_CHECK = 0; 
.................... int8 RESERVE_MIN_FLAG = 0; 
.................... int8 RESERVE_TARGET_FLAG = 0; 
.................... int8 MISSION_CONTENTS = 0; 
.................... int8 MISSION_DETAIL = 0; 
.................... int8 Kill_FLAG_MAIN = 0; 
.................... int8 Kill_FLAG_FAB = 0; 
.................... int8 FIRST_HSSC_DONE = 0; 
.................... int8 AUTO_CAM_DONE = 0; 
.................... int8 AUTO_LDM_DONE = 0; 
.................... int8 AUTO_ADCS_DONE = 0; 
.................... int8 ANT_DEP_STATUS = 0; 
.................... int8 UPLINK_SUCCESS = 0; 
....................  
.................... int8 RESERVE_SEC_FLAG = 0; 
....................  
.................... //--------MAIN PIC Buffer------------------------------------------------------ 
.................... int8 CMD_FROM_PC[6] = {}; 
.................... unsigned int8 in_bffr_main[16] = {}; 
.................... int8 COM_DATA= 0; 
.................... static int8 CW_IDENTIFIER = 0; 
.................... int8 OPERATION_MODE = 0x00; 
.................... int8 PC_DATA = 0;                                   
.................... int8 COM_ONEBYTE_COMMAND = 0; //for GS testing 
....................  
.................... #define buffer_from_com  (in_bffr_main[0]==0xAA) && (in_bffr_main[15]==0xBB) 
.................... #define buffer_flash  (in_bffr_main[7]==0x73) 
.................... #define START_ADCS_MISSION  (in_bffr_main[1]==0x73) 
.................... #define ADCS_SENSOR_SIZE 78//for testing additional 6byte for checking duty 
....................  
.................... int8 ADCS_SENSOR_DATA[ADCS_SENSOR_SIZE] = {}; 
.................... int8 ADCS_ACK = 0; 
.................... int8 ADCS_ACK_COMMING = 0; //for Checking ACK from ADCS 
.................... #define ATTEMPT_TIME 8 
....................  
....................  
.................... #define EX_PANEL_THRESHHOLD 0x14 
.................... #define HIGH_SAMP_TIMES 12//for 2 hours 
....................  
.................... //----------RESET-------------------------------------------------------------- 
.................... #define Reset_size 11 //1byte ack, 4byte time, 10byte sensor 
.................... int8 RESET_DATA = 0; 
.................... int8 reset_bffr[Reset_size] = {}; 
.................... int8 reset_flag = 0; 
....................  
.................... //---------OTHER FUNCTUON------------------------------------------------------ 
.................... #define FLASH_ADD_SIZE 41//10 kinds of address(40byte), 1 frag(1byte), 1 WITING COUNTER(4byte) 
.................... #define FLAG_INFO_SIZE 16 
.................... unsigned int8 sec_add_bfr[FLASH_ADD_SIZE] = {}; 
.................... unsigned int8 flag_info_bffr[FLAG_INFO_SIZE] = {}; 
....................  
.................... void CURRENT_FLAG_STATUS() 
.................... { 
....................    fprintf(PC,"\r\nPASSED DAYS:%x\r\n",PASSED_DAYS); 
*
0209C:  MOVLW  94
0209E:  MOVWF  FF6
020A0:  MOVLW  01
020A2:  MOVWF  FF7
020A4:  MOVLW  00
020A6:  MOVWF  FF8
020A8:  MOVLW  0E
020AA:  MOVLB  2
020AC:  MOVWF  xD2
020AE:  MOVLB  0
020B0:  CALL   120C
020B4:  MOVFF  64,2D3
020B8:  MOVLW  57
020BA:  MOVLB  2
020BC:  MOVWF  xD4
020BE:  MOVLB  0
020C0:  CALL   123E
020C4:  MOVLW  0D
020C6:  BTFSS  F9E.4
020C8:  BRA    20C6
020CA:  MOVWF  FAD
020CC:  MOVLW  0A
020CE:  BTFSS  F9E.4
020D0:  BRA    20CE
020D2:  MOVWF  FAD
....................    fprintf(PC,"RESERVE CHECK:%x\r\n",RESERVE_CHECK); 
020D4:  MOVLW  A8
020D6:  MOVWF  FF6
020D8:  MOVLW  01
020DA:  MOVWF  FF7
020DC:  MOVLW  00
020DE:  MOVWF  FF8
020E0:  MOVLW  0E
020E2:  MOVLB  2
020E4:  MOVWF  xD2
020E6:  MOVLB  0
020E8:  CALL   120C
020EC:  MOVFF  66,2D3
020F0:  MOVLW  57
020F2:  MOVLB  2
020F4:  MOVWF  xD4
020F6:  MOVLB  0
020F8:  CALL   123E
020FC:  MOVLW  0D
020FE:  BTFSS  F9E.4
02100:  BRA    20FE
02102:  MOVWF  FAD
02104:  MOVLW  0A
02106:  BTFSS  F9E.4
02108:  BRA    2106
0210A:  MOVWF  FAD
....................    fprintf(PC,"Kill FLAG MAIN:%x\r\n",Kill_FLAG_MAIN); 
0210C:  MOVLW  BC
0210E:  MOVWF  FF6
02110:  MOVLW  01
02112:  MOVWF  FF7
02114:  MOVLW  00
02116:  MOVWF  FF8
02118:  MOVLW  0F
0211A:  MOVLB  2
0211C:  MOVWF  xD2
0211E:  MOVLB  0
02120:  CALL   120C
02124:  MOVFF  6B,2D3
02128:  MOVLW  57
0212A:  MOVLB  2
0212C:  MOVWF  xD4
0212E:  MOVLB  0
02130:  CALL   123E
02134:  MOVLW  0D
02136:  BTFSS  F9E.4
02138:  BRA    2136
0213A:  MOVWF  FAD
0213C:  MOVLW  0A
0213E:  BTFSS  F9E.4
02140:  BRA    213E
02142:  MOVWF  FAD
....................    fprintf(PC,"Kill FLAG FAB:%x\r\n",Kill_FLAG_FAB); 
02144:  MOVLW  D0
02146:  MOVWF  FF6
02148:  MOVLW  01
0214A:  MOVWF  FF7
0214C:  MOVLW  00
0214E:  MOVWF  FF8
02150:  MOVLW  0E
02152:  MOVLB  2
02154:  MOVWF  xD2
02156:  MOVLB  0
02158:  CALL   120C
0215C:  MOVFF  6C,2D3
02160:  MOVLW  57
02162:  MOVLB  2
02164:  MOVWF  xD4
02166:  MOVLB  0
02168:  CALL   123E
0216C:  MOVLW  0D
0216E:  BTFSS  F9E.4
02170:  BRA    216E
02172:  MOVWF  FAD
02174:  MOVLW  0A
02176:  BTFSS  F9E.4
02178:  BRA    2176
0217A:  MOVWF  FAD
....................    fprintf(PC,"AUTO HIGH SAMPLING:%x\r\n",FIRST_HSSC_DONE); 
0217C:  MOVLW  E4
0217E:  MOVWF  FF6
02180:  MOVLW  01
02182:  MOVWF  FF7
02184:  MOVLW  00
02186:  MOVWF  FF8
02188:  MOVLW  13
0218A:  MOVLB  2
0218C:  MOVWF  xD2
0218E:  MOVLB  0
02190:  CALL   120C
02194:  MOVFF  6D,2D3
02198:  MOVLW  57
0219A:  MOVLB  2
0219C:  MOVWF  xD4
0219E:  MOVLB  0
021A0:  CALL   123E
021A4:  MOVLW  0D
021A6:  BTFSS  F9E.4
021A8:  BRA    21A6
021AA:  MOVWF  FAD
021AC:  MOVLW  0A
021AE:  BTFSS  F9E.4
021B0:  BRA    21AE
021B2:  MOVWF  FAD
....................    fprintf(PC,"AUTO CAM:%x\r\n",AUTO_CAM_DONE); 
021B4:  MOVLW  FC
021B6:  MOVWF  FF6
021B8:  MOVLW  01
021BA:  MOVWF  FF7
021BC:  MOVLW  00
021BE:  MOVWF  FF8
021C0:  MOVLW  09
021C2:  MOVLB  2
021C4:  MOVWF  xD2
021C6:  MOVLB  0
021C8:  CALL   120C
021CC:  MOVFF  6E,2D3
021D0:  MOVLW  57
021D2:  MOVLB  2
021D4:  MOVWF  xD4
021D6:  MOVLB  0
021D8:  CALL   123E
021DC:  MOVLW  0D
021DE:  BTFSS  F9E.4
021E0:  BRA    21DE
021E2:  MOVWF  FAD
021E4:  MOVLW  0A
021E6:  BTFSS  F9E.4
021E8:  BRA    21E6
021EA:  MOVWF  FAD
....................    fprintf(PC,"AUTO LDM:%x\r\n",AUTO_LDM_DONE); 
021EC:  MOVLW  0A
021EE:  MOVWF  FF6
021F0:  MOVLW  02
021F2:  MOVWF  FF7
021F4:  MOVLW  00
021F6:  MOVWF  FF8
021F8:  MOVLW  09
021FA:  MOVLB  2
021FC:  MOVWF  xD2
021FE:  MOVLB  0
02200:  CALL   120C
02204:  MOVFF  6F,2D3
02208:  MOVLW  57
0220A:  MOVLB  2
0220C:  MOVWF  xD4
0220E:  MOVLB  0
02210:  CALL   123E
02214:  MOVLW  0D
02216:  BTFSS  F9E.4
02218:  BRA    2216
0221A:  MOVWF  FAD
0221C:  MOVLW  0A
0221E:  BTFSS  F9E.4
02220:  BRA    221E
02222:  MOVWF  FAD
....................    fprintf(PC,"AUTO ADCS:%x\r\n",AUTO_ADCS_DONE); 
02224:  MOVLW  18
02226:  MOVWF  FF6
02228:  MOVLW  02
0222A:  MOVWF  FF7
0222C:  MOVLW  00
0222E:  MOVWF  FF8
02230:  MOVLW  0A
02232:  MOVLB  2
02234:  MOVWF  xD2
02236:  MOVLB  0
02238:  CALL   120C
0223C:  MOVFF  70,2D3
02240:  MOVLW  57
02242:  MOVLB  2
02244:  MOVWF  xD4
02246:  MOVLB  0
02248:  CALL   123E
0224C:  MOVLW  0D
0224E:  BTFSS  F9E.4
02250:  BRA    224E
02252:  MOVWF  FAD
02254:  MOVLW  0A
02256:  BTFSS  F9E.4
02258:  BRA    2256
0225A:  MOVWF  FAD
....................    fprintf(PC,"ANTENNA DEPLOY:%x\r\n",ANT_DEP_STATUS); 
0225C:  MOVLW  28
0225E:  MOVWF  FF6
02260:  MOVLW  02
02262:  MOVWF  FF7
02264:  MOVLW  00
02266:  MOVWF  FF8
02268:  MOVLW  0F
0226A:  MOVLB  2
0226C:  MOVWF  xD2
0226E:  MOVLB  0
02270:  CALL   120C
02274:  MOVFF  71,2D3
02278:  MOVLW  57
0227A:  MOVLB  2
0227C:  MOVWF  xD4
0227E:  MOVLB  0
02280:  CALL   123E
02284:  MOVLW  0D
02286:  BTFSS  F9E.4
02288:  BRA    2286
0228A:  MOVWF  FAD
0228C:  MOVLW  0A
0228E:  BTFSS  F9E.4
02290:  BRA    228E
02292:  MOVWF  FAD
....................    fprintf(PC,"ANTENNA DEPLOY ATTEMPT:%x\r\n",BC_ATTEMPT_FLAG); 
02294:  MOVLW  3C
02296:  MOVWF  FF6
02298:  MOVLW  02
0229A:  MOVWF  FF7
0229C:  MOVLW  00
0229E:  MOVWF  FF8
022A0:  MOVLW  17
022A2:  MOVLB  2
022A4:  MOVWF  xD2
022A6:  MOVLB  0
022A8:  CALL   120C
022AC:  MOVFF  63,2D3
022B0:  MOVLW  57
022B2:  MOVLB  2
022B4:  MOVWF  xD4
022B6:  MOVLB  0
022B8:  CALL   123E
022BC:  MOVLW  0D
022BE:  BTFSS  F9E.4
022C0:  BRA    22BE
022C2:  MOVWF  FAD
022C4:  MOVLW  0A
022C6:  BTFSS  F9E.4
022C8:  BRA    22C6
022CA:  MOVWF  FAD
....................    fprintf(PC,"UPLINK SUCCESS:%x\r\n\r\n",UPLINK_SUCCESS); 
022CC:  MOVLW  58
022CE:  MOVWF  FF6
022D0:  MOVLW  02
022D2:  MOVWF  FF7
022D4:  MOVLW  00
022D6:  MOVWF  FF8
022D8:  MOVLW  0F
022DA:  MOVLB  2
022DC:  MOVWF  xD2
022DE:  MOVLB  0
022E0:  CALL   120C
022E4:  MOVFF  72,2D3
022E8:  MOVLW  57
022EA:  MOVLB  2
022EC:  MOVWF  xD4
022EE:  MOVLB  0
022F0:  CALL   123E
022F4:  MOVLW  69
022F6:  MOVWF  FF6
022F8:  MOVLW  02
022FA:  MOVWF  FF7
022FC:  MOVLW  00
022FE:  MOVWF  FF8
02300:  MOVLW  04
02302:  MOVLB  2
02304:  MOVWF  xD2
02306:  MOVLB  0
02308:  CALL   120C
....................    return; 
0230C:  RETURN 0
.................... } 
....................  
....................  
.................... void CURRENT_ADDRESS_OF_FLASH() 
.................... {   
....................    fprintf(PC,"\r\nADD INFO ADDRESS:%lx\r\n\r\n",ADD_INFO_ADDRESS); 
*
04AD6:  MOVLW  6E
04AD8:  MOVWF  FF6
04ADA:  MOVLW  02
04ADC:  MOVWF  FF7
04ADE:  MOVLW  00
04AE0:  MOVWF  FF8
04AE2:  MOVLW  13
04AE4:  MOVLB  2
04AE6:  MOVWF  xD2
04AE8:  MOVLB  0
04AEA:  CALL   120C
04AEE:  MOVFF  32,2D3
04AF2:  MOVLW  57
04AF4:  MOVLB  2
04AF6:  MOVWF  xD4
04AF8:  MOVLB  0
04AFA:  CALL   123E
04AFE:  MOVFF  31,2D3
04B02:  MOVLW  57
04B04:  MOVLB  2
04B06:  MOVWF  xD4
04B08:  MOVLB  0
04B0A:  CALL   123E
04B0E:  MOVFF  30,2D3
04B12:  MOVLW  57
04B14:  MOVLB  2
04B16:  MOVWF  xD4
04B18:  MOVLB  0
04B1A:  CALL   123E
04B1E:  MOVFF  2F,2D3
04B22:  MOVLW  57
04B24:  MOVLB  2
04B26:  MOVWF  xD4
04B28:  MOVLB  0
04B2A:  CALL   123E
04B2E:  MOVLW  84
04B30:  MOVWF  FF6
04B32:  MOVLW  02
04B34:  MOVWF  FF7
04B36:  MOVLW  00
04B38:  MOVWF  FF8
04B3A:  MOVLW  04
04B3C:  MOVLB  2
04B3E:  MOVWF  xD2
04B40:  MOVLB  0
04B42:  CALL   120C
....................    fprintf(PC,"FLAG DATA ADDRESS:%x%x%x%x\r\n",FLAG_DATA_ADDRESS>>24,FLAG_DATA_ADDRESS>>16,FLAG_DATA_ADDRESS>>8,FLAG_DATA_ADDRESS); 
04B46:  MOVFF  3A,2A9
04B4A:  MOVLB  2
04B4C:  CLRF   xAA
04B4E:  CLRF   xAB
04B50:  CLRF   xAC
04B52:  MOVFF  39,2AE
04B56:  MOVFF  3A,2AF
04B5A:  CLRF   xB0
04B5C:  CLRF   xB1
04B5E:  MOVFF  38,2B3
04B62:  MOVFF  39,2B4
04B66:  MOVFF  3A,2B5
04B6A:  CLRF   xB6
04B6C:  MOVLW  8A
04B6E:  MOVWF  FF6
04B70:  MOVLW  02
04B72:  MOVWF  FF7
04B74:  MOVLW  00
04B76:  MOVWF  FF8
04B78:  MOVLW  12
04B7A:  MOVWF  xD2
04B7C:  MOVLB  0
04B7E:  CALL   120C
04B82:  MOVFF  2A9,2D3
04B86:  MOVLW  57
04B88:  MOVLB  2
04B8A:  MOVWF  xD4
04B8C:  MOVLB  0
04B8E:  CALL   123E
04B92:  MOVFF  2AE,2D3
04B96:  MOVLW  57
04B98:  MOVLB  2
04B9A:  MOVWF  xD4
04B9C:  MOVLB  0
04B9E:  CALL   123E
04BA2:  MOVFF  2B3,2D3
04BA6:  MOVLW  57
04BA8:  MOVLB  2
04BAA:  MOVWF  xD4
04BAC:  MOVLB  0
04BAE:  CALL   123E
04BB2:  MOVFF  37,2D3
04BB6:  MOVLW  57
04BB8:  MOVLB  2
04BBA:  MOVWF  xD4
04BBC:  MOVLB  0
04BBE:  CALL   123E
04BC2:  MOVLW  0D
04BC4:  BTFSS  F9E.4
04BC6:  BRA    4BC4
04BC8:  MOVWF  FAD
04BCA:  MOVLW  0A
04BCC:  BTFSS  F9E.4
04BCE:  BRA    4BCC
04BD0:  MOVWF  FAD
....................    fprintf(PC,"RESERVATION TABLE ADDRESS:%x%x%x%x\r\n",RSV_DATA_ADDRESS>>24,RSV_DATA_ADDRESS>>16,RSV_DATA_ADDRESS>>8,RSV_DATA_ADDRESS); 
04BD2:  MOVFF  3E,2A9
04BD6:  MOVLB  2
04BD8:  CLRF   xAA
04BDA:  CLRF   xAB
04BDC:  CLRF   xAC
04BDE:  MOVFF  3D,2AE
04BE2:  MOVFF  3E,2AF
04BE6:  CLRF   xB0
04BE8:  CLRF   xB1
04BEA:  MOVFF  3C,2B3
04BEE:  MOVFF  3D,2B4
04BF2:  MOVFF  3E,2B5
04BF6:  CLRF   xB6
04BF8:  MOVLW  A8
04BFA:  MOVWF  FF6
04BFC:  MOVLW  02
04BFE:  MOVWF  FF7
04C00:  MOVLW  00
04C02:  MOVWF  FF8
04C04:  MOVLW  1A
04C06:  MOVWF  xD2
04C08:  MOVLB  0
04C0A:  CALL   120C
04C0E:  MOVFF  2A9,2D3
04C12:  MOVLW  57
04C14:  MOVLB  2
04C16:  MOVWF  xD4
04C18:  MOVLB  0
04C1A:  CALL   123E
04C1E:  MOVFF  2AE,2D3
04C22:  MOVLW  57
04C24:  MOVLB  2
04C26:  MOVWF  xD4
04C28:  MOVLB  0
04C2A:  CALL   123E
04C2E:  MOVFF  2B3,2D3
04C32:  MOVLW  57
04C34:  MOVLB  2
04C36:  MOVWF  xD4
04C38:  MOVLB  0
04C3A:  CALL   123E
04C3E:  MOVFF  3B,2D3
04C42:  MOVLW  57
04C44:  MOVLB  2
04C46:  MOVWF  xD4
04C48:  MOVLB  0
04C4A:  CALL   123E
04C4E:  MOVLW  0D
04C50:  BTFSS  F9E.4
04C52:  BRA    4C50
04C54:  MOVWF  FAD
04C56:  MOVLW  0A
04C58:  BTFSS  F9E.4
04C5A:  BRA    4C58
04C5C:  MOVWF  FAD
....................    fprintf(PC,"SATELLITE LOG ADDRESS:%x%x%x%x\r\n",SAT_LOG>>24,SAT_LOG>>16,SAT_LOG>>8,SAT_LOG); 
04C5E:  MOVFF  42,2A9
04C62:  MOVLB  2
04C64:  CLRF   xAA
04C66:  CLRF   xAB
04C68:  CLRF   xAC
04C6A:  MOVFF  41,2AE
04C6E:  MOVFF  42,2AF
04C72:  CLRF   xB0
04C74:  CLRF   xB1
04C76:  MOVFF  40,2B3
04C7A:  MOVFF  41,2B4
04C7E:  MOVFF  42,2B5
04C82:  CLRF   xB6
04C84:  MOVLW  CE
04C86:  MOVWF  FF6
04C88:  MOVLW  02
04C8A:  MOVWF  FF7
04C8C:  MOVLW  00
04C8E:  MOVWF  FF8
04C90:  MOVLW  16
04C92:  MOVWF  xD2
04C94:  MOVLB  0
04C96:  CALL   120C
04C9A:  MOVFF  2A9,2D3
04C9E:  MOVLW  57
04CA0:  MOVLB  2
04CA2:  MOVWF  xD4
04CA4:  MOVLB  0
04CA6:  CALL   123E
04CAA:  MOVFF  2AE,2D3
04CAE:  MOVLW  57
04CB0:  MOVLB  2
04CB2:  MOVWF  xD4
04CB4:  MOVLB  0
04CB6:  CALL   123E
04CBA:  MOVFF  2B3,2D3
04CBE:  MOVLW  57
04CC0:  MOVLB  2
04CC2:  MOVWF  xD4
04CC4:  MOVLB  0
04CC6:  CALL   123E
04CCA:  MOVFF  3F,2D3
04CCE:  MOVLW  57
04CD0:  MOVLB  2
04CD2:  MOVWF  xD4
04CD4:  MOVLB  0
04CD6:  CALL   123E
04CDA:  MOVLW  0D
04CDC:  BTFSS  F9E.4
04CDE:  BRA    4CDC
04CE0:  MOVWF  FAD
04CE2:  MOVLW  0A
04CE4:  BTFSS  F9E.4
04CE6:  BRA    4CE4
04CE8:  MOVWF  FAD
....................    fprintf(PC,"CAM ADDRESS:%x%x%x%x\r\n",CAM_ADDRESS>>24,CAM_ADDRESS>>16,CAM_ADDRESS>>8,CAM_ADDRESS); 
04CEA:  MOVFF  46,2A9
04CEE:  MOVLB  2
04CF0:  CLRF   xAA
04CF2:  CLRF   xAB
04CF4:  CLRF   xAC
04CF6:  MOVFF  45,2AE
04CFA:  MOVFF  46,2AF
04CFE:  CLRF   xB0
04D00:  CLRF   xB1
04D02:  MOVFF  44,2B3
04D06:  MOVFF  45,2B4
04D0A:  MOVFF  46,2B5
04D0E:  CLRF   xB6
04D10:  MOVLW  F0
04D12:  MOVWF  FF6
04D14:  MOVLW  02
04D16:  MOVWF  FF7
04D18:  MOVLW  00
04D1A:  MOVWF  FF8
04D1C:  MOVLW  0C
04D1E:  MOVWF  xD2
04D20:  MOVLB  0
04D22:  CALL   120C
04D26:  MOVFF  2A9,2D3
04D2A:  MOVLW  57
04D2C:  MOVLB  2
04D2E:  MOVWF  xD4
04D30:  MOVLB  0
04D32:  CALL   123E
04D36:  MOVFF  2AE,2D3
04D3A:  MOVLW  57
04D3C:  MOVLB  2
04D3E:  MOVWF  xD4
04D40:  MOVLB  0
04D42:  CALL   123E
04D46:  MOVFF  2B3,2D3
04D4A:  MOVLW  57
04D4C:  MOVLB  2
04D4E:  MOVWF  xD4
04D50:  MOVLB  0
04D52:  CALL   123E
04D56:  MOVFF  43,2D3
04D5A:  MOVLW  57
04D5C:  MOVLB  2
04D5E:  MOVWF  xD4
04D60:  MOVLB  0
04D62:  CALL   123E
04D66:  MOVLW  0D
04D68:  BTFSS  F9E.4
04D6A:  BRA    4D68
04D6C:  MOVWF  FAD
04D6E:  MOVLW  0A
04D70:  BTFSS  F9E.4
04D72:  BRA    4D70
04D74:  MOVWF  FAD
....................    fprintf(PC,"FAB HK ADDRESS:%x%x%x%x\r\n",FAB_HK_ADDRESS>>24,FAB_HK_ADDRESS>>16,FAB_HK_ADDRESS>>8,FAB_HK_ADDRESS); 
04D76:  MOVFF  4A,2A9
04D7A:  MOVLB  2
04D7C:  CLRF   xAA
04D7E:  CLRF   xAB
04D80:  CLRF   xAC
04D82:  MOVFF  49,2AE
04D86:  MOVFF  4A,2AF
04D8A:  CLRF   xB0
04D8C:  CLRF   xB1
04D8E:  MOVFF  48,2B3
04D92:  MOVFF  49,2B4
04D96:  MOVFF  4A,2B5
04D9A:  CLRF   xB6
04D9C:  MOVLW  08
04D9E:  MOVWF  FF6
04DA0:  MOVLW  03
04DA2:  MOVWF  FF7
04DA4:  MOVLW  00
04DA6:  MOVWF  FF8
04DA8:  MOVLW  0F
04DAA:  MOVWF  xD2
04DAC:  MOVLB  0
04DAE:  CALL   120C
04DB2:  MOVFF  2A9,2D3
04DB6:  MOVLW  57
04DB8:  MOVLB  2
04DBA:  MOVWF  xD4
04DBC:  MOVLB  0
04DBE:  CALL   123E
04DC2:  MOVFF  2AE,2D3
04DC6:  MOVLW  57
04DC8:  MOVLB  2
04DCA:  MOVWF  xD4
04DCC:  MOVLB  0
04DCE:  CALL   123E
04DD2:  MOVFF  2B3,2D3
04DD6:  MOVLW  57
04DD8:  MOVLB  2
04DDA:  MOVWF  xD4
04DDC:  MOVLB  0
04DDE:  CALL   123E
04DE2:  MOVFF  47,2D3
04DE6:  MOVLW  57
04DE8:  MOVLB  2
04DEA:  MOVWF  xD4
04DEC:  MOVLB  0
04DEE:  CALL   123E
04DF2:  MOVLW  0D
04DF4:  BTFSS  F9E.4
04DF6:  BRA    4DF4
04DF8:  MOVWF  FAD
04DFA:  MOVLW  0A
04DFC:  BTFSS  F9E.4
04DFE:  BRA    4DFC
04E00:  MOVWF  FAD
....................    fprintf(PC,"FAB CW ADDERSS:%x%x%x%x\r\n",FAB_CW_ADDRESS>>24,FAB_CW_ADDRESS>>16,FAB_CW_ADDRESS>>8,FAB_CW_ADDRESS); 
04E02:  MOVFF  4E,2A9
04E06:  MOVLB  2
04E08:  CLRF   xAA
04E0A:  CLRF   xAB
04E0C:  CLRF   xAC
04E0E:  MOVFF  4D,2AE
04E12:  MOVFF  4E,2AF
04E16:  CLRF   xB0
04E18:  CLRF   xB1
04E1A:  MOVFF  4C,2B3
04E1E:  MOVFF  4D,2B4
04E22:  MOVFF  4E,2B5
04E26:  CLRF   xB6
04E28:  MOVLW  22
04E2A:  MOVWF  FF6
04E2C:  MOVLW  03
04E2E:  MOVWF  FF7
04E30:  MOVLW  00
04E32:  MOVWF  FF8
04E34:  MOVLW  0F
04E36:  MOVWF  xD2
04E38:  MOVLB  0
04E3A:  CALL   120C
04E3E:  MOVFF  2A9,2D3
04E42:  MOVLW  57
04E44:  MOVLB  2
04E46:  MOVWF  xD4
04E48:  MOVLB  0
04E4A:  CALL   123E
04E4E:  MOVFF  2AE,2D3
04E52:  MOVLW  57
04E54:  MOVLB  2
04E56:  MOVWF  xD4
04E58:  MOVLB  0
04E5A:  CALL   123E
04E5E:  MOVFF  2B3,2D3
04E62:  MOVLW  57
04E64:  MOVLB  2
04E66:  MOVWF  xD4
04E68:  MOVLB  0
04E6A:  CALL   123E
04E6E:  MOVFF  4B,2D3
04E72:  MOVLW  57
04E74:  MOVLB  2
04E76:  MOVWF  xD4
04E78:  MOVLB  0
04E7A:  CALL   123E
04E7E:  MOVLW  0D
04E80:  BTFSS  F9E.4
04E82:  BRA    4E80
04E84:  MOVWF  FAD
04E86:  MOVLW  0A
04E88:  BTFSS  F9E.4
04E8A:  BRA    4E88
04E8C:  MOVWF  FAD
....................    fprintf(PC,"ADCS SENSOR ADDRESS:%x%x%x%x\r\n",ADCS_SENSOR_ADDRESS>>24,ADCS_SENSOR_ADDRESS>>16,ADCS_SENSOR_ADDRESS>>8,ADCS_SENSOR_ADDRESS); 
04E8E:  MOVFF  52,2A9
04E92:  MOVLB  2
04E94:  CLRF   xAA
04E96:  CLRF   xAB
04E98:  CLRF   xAC
04E9A:  MOVFF  51,2AE
04E9E:  MOVFF  52,2AF
04EA2:  CLRF   xB0
04EA4:  CLRF   xB1
04EA6:  MOVFF  50,2B3
04EAA:  MOVFF  51,2B4
04EAE:  MOVFF  52,2B5
04EB2:  CLRF   xB6
04EB4:  MOVLW  3C
04EB6:  MOVWF  FF6
04EB8:  MOVLW  03
04EBA:  MOVWF  FF7
04EBC:  MOVLW  00
04EBE:  MOVWF  FF8
04EC0:  MOVLW  14
04EC2:  MOVWF  xD2
04EC4:  MOVLB  0
04EC6:  CALL   120C
04ECA:  MOVFF  2A9,2D3
04ECE:  MOVLW  57
04ED0:  MOVLB  2
04ED2:  MOVWF  xD4
04ED4:  MOVLB  0
04ED6:  CALL   123E
04EDA:  MOVFF  2AE,2D3
04EDE:  MOVLW  57
04EE0:  MOVLB  2
04EE2:  MOVWF  xD4
04EE4:  MOVLB  0
04EE6:  CALL   123E
04EEA:  MOVFF  2B3,2D3
04EEE:  MOVLW  57
04EF0:  MOVLB  2
04EF2:  MOVWF  xD4
04EF4:  MOVLB  0
04EF6:  CALL   123E
04EFA:  MOVFF  4F,2D3
04EFE:  MOVLW  57
04F00:  MOVLB  2
04F02:  MOVWF  xD4
04F04:  MOVLB  0
04F06:  CALL   123E
04F0A:  MOVLW  0D
04F0C:  BTFSS  F9E.4
04F0E:  BRA    4F0C
04F10:  MOVWF  FAD
04F12:  MOVLW  0A
04F14:  BTFSS  F9E.4
04F16:  BRA    4F14
04F18:  MOVWF  FAD
....................    fprintf(PC,"LDM ADDRESS:%x%x%x%x\r\n",DC_STATUS_ADDRESS>>24,DC_STATUS_ADDRESS>>16,DC_STATUS_ADDRESS>>8,DC_STATUS_ADDRESS); 
04F1A:  MOVFF  56,2A9
04F1E:  MOVLB  2
04F20:  CLRF   xAA
04F22:  CLRF   xAB
04F24:  CLRF   xAC
04F26:  MOVFF  55,2AE
04F2A:  MOVFF  56,2AF
04F2E:  CLRF   xB0
04F30:  CLRF   xB1
04F32:  MOVFF  54,2B3
04F36:  MOVFF  55,2B4
04F3A:  MOVFF  56,2B5
04F3E:  CLRF   xB6
04F40:  MOVLW  5C
04F42:  MOVWF  FF6
04F44:  MOVLW  03
04F46:  MOVWF  FF7
04F48:  MOVLW  00
04F4A:  MOVWF  FF8
04F4C:  MOVLW  0C
04F4E:  MOVWF  xD2
04F50:  MOVLB  0
04F52:  CALL   120C
04F56:  MOVFF  2A9,2D3
04F5A:  MOVLW  57
04F5C:  MOVLB  2
04F5E:  MOVWF  xD4
04F60:  MOVLB  0
04F62:  CALL   123E
04F66:  MOVFF  2AE,2D3
04F6A:  MOVLW  57
04F6C:  MOVLB  2
04F6E:  MOVWF  xD4
04F70:  MOVLB  0
04F72:  CALL   123E
04F76:  MOVFF  2B3,2D3
04F7A:  MOVLW  57
04F7C:  MOVLB  2
04F7E:  MOVWF  xD4
04F80:  MOVLB  0
04F82:  CALL   123E
04F86:  MOVFF  53,2D3
04F8A:  MOVLW  57
04F8C:  MOVLB  2
04F8E:  MOVWF  xD4
04F90:  MOVLB  0
04F92:  CALL   123E
04F96:  MOVLW  0D
04F98:  BTFSS  F9E.4
04F9A:  BRA    4F98
04F9C:  MOVWF  FAD
04F9E:  MOVLW  0A
04FA0:  BTFSS  F9E.4
04FA2:  BRA    4FA0
04FA4:  MOVWF  FAD
....................    fprintf(PC,"HIGH SAMP HK ADDERSS:%x%x%x%x\r\n",HIGH_SAMP_HK_ADDRESS>>24,HIGH_SAMP_HK_ADDRESS>>16,HIGH_SAMP_HK_ADDRESS>>8,HIGH_SAMP_HK_ADDRESS); 
04FA6:  MOVFF  5A,2A9
04FAA:  MOVLB  2
04FAC:  CLRF   xAA
04FAE:  CLRF   xAB
04FB0:  CLRF   xAC
04FB2:  MOVFF  59,2AE
04FB6:  MOVFF  5A,2AF
04FBA:  CLRF   xB0
04FBC:  CLRF   xB1
04FBE:  MOVFF  58,2B3
04FC2:  MOVFF  59,2B4
04FC6:  MOVFF  5A,2B5
04FCA:  CLRF   xB6
04FCC:  MOVLW  74
04FCE:  MOVWF  FF6
04FD0:  MOVLW  03
04FD2:  MOVWF  FF7
04FD4:  MOVLW  00
04FD6:  MOVWF  FF8
04FD8:  MOVLW  15
04FDA:  MOVWF  xD2
04FDC:  MOVLB  0
04FDE:  CALL   120C
04FE2:  MOVFF  2A9,2D3
04FE6:  MOVLW  57
04FE8:  MOVLB  2
04FEA:  MOVWF  xD4
04FEC:  MOVLB  0
04FEE:  CALL   123E
04FF2:  MOVFF  2AE,2D3
04FF6:  MOVLW  57
04FF8:  MOVLB  2
04FFA:  MOVWF  xD4
04FFC:  MOVLB  0
04FFE:  CALL   123E
05002:  MOVFF  2B3,2D3
05006:  MOVLW  57
05008:  MOVLB  2
0500A:  MOVWF  xD4
0500C:  MOVLB  0
0500E:  CALL   123E
05012:  MOVFF  57,2D3
05016:  MOVLW  57
05018:  MOVLB  2
0501A:  MOVWF  xD4
0501C:  MOVLB  0
0501E:  CALL   123E
05022:  MOVLW  0D
05024:  BTFSS  F9E.4
05026:  BRA    5024
05028:  MOVWF  FAD
0502A:  MOVLW  0A
0502C:  BTFSS  F9E.4
0502E:  BRA    502C
05030:  MOVWF  FAD
....................    fprintf(PC,"WRITE %lx TIMES\r\n",ADDRESS_WRITING_COUNTER); 
05032:  MOVLW  94
05034:  MOVWF  FF6
05036:  MOVLW  03
05038:  MOVWF  FF7
0503A:  MOVLW  00
0503C:  MOVWF  FF8
0503E:  MOVLW  06
05040:  MOVLB  2
05042:  MOVWF  xD2
05044:  MOVLB  0
05046:  CALL   120C
0504A:  MOVFF  36,2D3
0504E:  MOVLW  57
05050:  MOVLB  2
05052:  MOVWF  xD4
05054:  MOVLB  0
05056:  CALL   123E
0505A:  MOVFF  35,2D3
0505E:  MOVLW  57
05060:  MOVLB  2
05062:  MOVWF  xD4
05064:  MOVLB  0
05066:  CALL   123E
0506A:  MOVFF  34,2D3
0506E:  MOVLW  57
05070:  MOVLB  2
05072:  MOVWF  xD4
05074:  MOVLB  0
05076:  CALL   123E
0507A:  MOVFF  33,2D3
0507E:  MOVLW  57
05080:  MOVLB  2
05082:  MOVWF  xD4
05084:  MOVLB  0
05086:  CALL   123E
0508A:  MOVLW  9D
0508C:  MOVWF  FF6
0508E:  MOVLW  03
05090:  MOVWF  FF7
05092:  MOVLW  00
05094:  MOVWF  FF8
05096:  MOVLW  08
05098:  MOVLB  2
0509A:  MOVWF  xD2
0509C:  MOVLB  0
0509E:  CALL   120C
....................    return; 
050A2:  RETURN 0
.................... } 
....................  
.................... void ERASE_EEPROM_INFO() 
.................... { 
....................    erase_program_eeprom(FLAG_ADDRESS_EEPROM);//erase 512byte(from 0x18000 to 0x181ff) 
*
0C74E:  BSF    FD0.6
0C750:  MOVFF  5D,FF8
0C754:  MOVFF  5C,FF7
0C758:  MOVFF  5B,FF6
0C75C:  BSF    F7F.4
0C75E:  CALL   5296
0C762:  CLRF   FF8
....................    return; 
0C764:  GOTO   CAAE (RETURN)
.................... } 
....................  
.................... void WRITE_FLAG_to_EEPROM() 
.................... { 
.................... //total programming memory size is 128KB 
.................... //start writing the important flag from 75 percent of the programming memory(from the address of 96KB --> 0x18000) 
....................    int16 DATA; 
....................    DATA = (int16)BC_ATTEMPT_FLAG; 
*
052B4:  MOVLB  2
052B6:  CLRF   xB1
052B8:  MOVFF  63,2B0
....................    WRITE_PROGRAM_EEPROM(FLAG_ADDRESS_EEPROM, DATA); 
052BC:  BSF    FD0.6
052BE:  MOVFF  5D,FF8
052C2:  MOVFF  5C,FF7
052C6:  MOVFF  5B,FF6
052CA:  MOVLB  0
052CC:  RCALL  5280
052CE:  MOVFF  5B,FF6
052D2:  MOVFF  2B0,FF5
052D6:  TBLWT*+
052D8:  MOVFF  2B1,FF5
052DC:  TBLWT*
052DE:  RCALL  5296
052E0:  CLRF   FF8
052E2:  CLRF   FF8
....................    DATA = (int16)PASSED_DAYS; 
052E4:  MOVFF  65,2B1
052E8:  MOVFF  64,2B0
....................    WRITE_PROGRAM_EEPROM(FLAG_ADDRESS_EEPROM+2, DATA); 
052EC:  MOVLW  02
052EE:  ADDWF  5B,W
052F0:  MOVLB  2
052F2:  MOVWF  xB2
052F4:  MOVLW  00
052F6:  ADDWFC 5C,W
052F8:  MOVWF  xB3
052FA:  MOVLW  00
052FC:  ADDWFC 5D,W
052FE:  MOVWF  xB4
05300:  MOVLW  00
05302:  ADDWFC 5E,W
05304:  MOVWF  xB5
05306:  BSF    FD0.6
05308:  MOVFF  2B4,FF8
0530C:  MOVFF  2B3,FF7
05310:  MOVFF  2B2,FF6
05314:  MOVLB  0
05316:  RCALL  5280
05318:  MOVFF  2B2,FF6
0531C:  MOVFF  2B0,FF5
05320:  TBLWT*+
05322:  MOVFF  2B1,FF5
05326:  TBLWT*
05328:  RCALL  5296
0532A:  CLRF   FF8
0532C:  CLRF   FF8
....................    DATA = (int16)RESERVE_CHECK; 
0532E:  MOVLB  2
05330:  CLRF   xB1
05332:  MOVFF  66,2B0
....................    WRITE_PROGRAM_EEPROM(FLAG_ADDRESS_EEPROM+4, DATA); 
05336:  MOVLW  04
05338:  ADDWF  5B,W
0533A:  MOVWF  xB2
0533C:  MOVLW  00
0533E:  ADDWFC 5C,W
05340:  MOVWF  xB3
05342:  MOVLW  00
05344:  ADDWFC 5D,W
05346:  MOVWF  xB4
05348:  MOVLW  00
0534A:  ADDWFC 5E,W
0534C:  MOVWF  xB5
0534E:  BSF    FD0.6
05350:  MOVFF  2B4,FF8
05354:  MOVFF  2B3,FF7
05358:  MOVFF  2B2,FF6
0535C:  MOVLB  0
0535E:  RCALL  5280
05360:  MOVFF  2B2,FF6
05364:  MOVFF  2B0,FF5
05368:  TBLWT*+
0536A:  MOVFF  2B1,FF5
0536E:  TBLWT*
05370:  RCALL  5296
05372:  CLRF   FF8
05374:  CLRF   FF8
....................    DATA = (int16)RESERVE_MIN_FLAG; 
05376:  MOVLB  2
05378:  CLRF   xB1
0537A:  MOVFF  67,2B0
....................    WRITE_PROGRAM_EEPROM(FLAG_ADDRESS_EEPROM+6, DATA); 
0537E:  MOVLW  06
05380:  ADDWF  5B,W
05382:  MOVWF  xB2
05384:  MOVLW  00
05386:  ADDWFC 5C,W
05388:  MOVWF  xB3
0538A:  MOVLW  00
0538C:  ADDWFC 5D,W
0538E:  MOVWF  xB4
05390:  MOVLW  00
05392:  ADDWFC 5E,W
05394:  MOVWF  xB5
05396:  BSF    FD0.6
05398:  MOVFF  2B4,FF8
0539C:  MOVFF  2B3,FF7
053A0:  MOVFF  2B2,FF6
053A4:  MOVLB  0
053A6:  RCALL  5280
053A8:  MOVFF  2B2,FF6
053AC:  MOVFF  2B0,FF5
053B0:  TBLWT*+
053B2:  MOVFF  2B1,FF5
053B6:  TBLWT*
053B8:  RCALL  5296
053BA:  CLRF   FF8
053BC:  CLRF   FF8
....................    DATA = (int16)RESERVE_TARGET_FLAG; 
053BE:  MOVLB  2
053C0:  CLRF   xB1
053C2:  MOVFF  68,2B0
....................    WRITE_PROGRAM_EEPROM(FLAG_ADDRESS_EEPROM+8, DATA); 
053C6:  MOVLW  08
053C8:  ADDWF  5B,W
053CA:  MOVWF  xB2
053CC:  MOVLW  00
053CE:  ADDWFC 5C,W
053D0:  MOVWF  xB3
053D2:  MOVLW  00
053D4:  ADDWFC 5D,W
053D6:  MOVWF  xB4
053D8:  MOVLW  00
053DA:  ADDWFC 5E,W
053DC:  MOVWF  xB5
053DE:  BSF    FD0.6
053E0:  MOVFF  2B4,FF8
053E4:  MOVFF  2B3,FF7
053E8:  MOVFF  2B2,FF6
053EC:  MOVLB  0
053EE:  RCALL  5280
053F0:  MOVFF  2B2,FF6
053F4:  MOVFF  2B0,FF5
053F8:  TBLWT*+
053FA:  MOVFF  2B1,FF5
053FE:  TBLWT*
05400:  RCALL  5296
05402:  CLRF   FF8
05404:  CLRF   FF8
....................    DATA = (int16)MISSION_CONTENTS; 
05406:  MOVLB  2
05408:  CLRF   xB1
0540A:  MOVFF  69,2B0
....................    WRITE_PROGRAM_EEPROM(FLAG_ADDRESS_EEPROM+10, DATA); 
0540E:  MOVLW  0A
05410:  ADDWF  5B,W
05412:  MOVWF  xB2
05414:  MOVLW  00
05416:  ADDWFC 5C,W
05418:  MOVWF  xB3
0541A:  MOVLW  00
0541C:  ADDWFC 5D,W
0541E:  MOVWF  xB4
05420:  MOVLW  00
05422:  ADDWFC 5E,W
05424:  MOVWF  xB5
05426:  BSF    FD0.6
05428:  MOVFF  2B4,FF8
0542C:  MOVFF  2B3,FF7
05430:  MOVFF  2B2,FF6
05434:  MOVLB  0
05436:  RCALL  5280
05438:  MOVFF  2B2,FF6
0543C:  MOVFF  2B0,FF5
05440:  TBLWT*+
05442:  MOVFF  2B1,FF5
05446:  TBLWT*
05448:  RCALL  5296
0544A:  CLRF   FF8
0544C:  CLRF   FF8
....................    DATA = (int16)MISSION_DETAIL; 
0544E:  MOVLB  2
05450:  CLRF   xB1
05452:  MOVFF  6A,2B0
....................    WRITE_PROGRAM_EEPROM(FLAG_ADDRESS_EEPROM+12, DATA); 
05456:  MOVLW  0C
05458:  ADDWF  5B,W
0545A:  MOVWF  xB2
0545C:  MOVLW  00
0545E:  ADDWFC 5C,W
05460:  MOVWF  xB3
05462:  MOVLW  00
05464:  ADDWFC 5D,W
05466:  MOVWF  xB4
05468:  MOVLW  00
0546A:  ADDWFC 5E,W
0546C:  MOVWF  xB5
0546E:  BSF    FD0.6
05470:  MOVFF  2B4,FF8
05474:  MOVFF  2B3,FF7
05478:  MOVFF  2B2,FF6
0547C:  MOVLB  0
0547E:  RCALL  5280
05480:  MOVFF  2B2,FF6
05484:  MOVFF  2B0,FF5
05488:  TBLWT*+
0548A:  MOVFF  2B1,FF5
0548E:  TBLWT*
05490:  RCALL  5296
05492:  CLRF   FF8
05494:  CLRF   FF8
....................    DATA = (int16)Kill_FLAG_MAIN; 
05496:  MOVLB  2
05498:  CLRF   xB1
0549A:  MOVFF  6B,2B0
....................    WRITE_PROGRAM_EEPROM(FLAG_ADDRESS_EEPROM+14, DATA); 
0549E:  MOVLW  0E
054A0:  ADDWF  5B,W
054A2:  MOVWF  xB2
054A4:  MOVLW  00
054A6:  ADDWFC 5C,W
054A8:  MOVWF  xB3
054AA:  MOVLW  00
054AC:  ADDWFC 5D,W
054AE:  MOVWF  xB4
054B0:  MOVLW  00
054B2:  ADDWFC 5E,W
054B4:  MOVWF  xB5
054B6:  BSF    FD0.6
054B8:  MOVFF  2B4,FF8
054BC:  MOVFF  2B3,FF7
054C0:  MOVFF  2B2,FF6
054C4:  MOVLB  0
054C6:  RCALL  5280
054C8:  MOVFF  2B2,FF6
054CC:  MOVFF  2B0,FF5
054D0:  TBLWT*+
054D2:  MOVFF  2B1,FF5
054D6:  TBLWT*
054D8:  RCALL  5296
054DA:  CLRF   FF8
054DC:  CLRF   FF8
....................    DATA = (int16)Kill_FLAG_FAB; 
054DE:  MOVLB  2
054E0:  CLRF   xB1
054E2:  MOVFF  6C,2B0
....................    WRITE_PROGRAM_EEPROM(FLAG_ADDRESS_EEPROM+16, DATA); 
054E6:  MOVLW  10
054E8:  ADDWF  5B,W
054EA:  MOVWF  xB2
054EC:  MOVLW  00
054EE:  ADDWFC 5C,W
054F0:  MOVWF  xB3
054F2:  MOVLW  00
054F4:  ADDWFC 5D,W
054F6:  MOVWF  xB4
054F8:  MOVLW  00
054FA:  ADDWFC 5E,W
054FC:  MOVWF  xB5
054FE:  BSF    FD0.6
05500:  MOVFF  2B4,FF8
05504:  MOVFF  2B3,FF7
05508:  MOVFF  2B2,FF6
0550C:  MOVLB  0
0550E:  RCALL  5280
05510:  MOVFF  2B2,FF6
05514:  MOVFF  2B0,FF5
05518:  TBLWT*+
0551A:  MOVFF  2B1,FF5
0551E:  TBLWT*
05520:  RCALL  5296
05522:  CLRF   FF8
05524:  CLRF   FF8
....................    DATA = (int16)FIRST_HSSC_DONE; 
05526:  MOVLB  2
05528:  CLRF   xB1
0552A:  MOVFF  6D,2B0
....................    WRITE_PROGRAM_EEPROM(FLAG_ADDRESS_EEPROM+18, DATA); 
0552E:  MOVLW  12
05530:  ADDWF  5B,W
05532:  MOVWF  xB2
05534:  MOVLW  00
05536:  ADDWFC 5C,W
05538:  MOVWF  xB3
0553A:  MOVLW  00
0553C:  ADDWFC 5D,W
0553E:  MOVWF  xB4
05540:  MOVLW  00
05542:  ADDWFC 5E,W
05544:  MOVWF  xB5
05546:  BSF    FD0.6
05548:  MOVFF  2B4,FF8
0554C:  MOVFF  2B3,FF7
05550:  MOVFF  2B2,FF6
05554:  MOVLB  0
05556:  RCALL  5280
05558:  MOVFF  2B2,FF6
0555C:  MOVFF  2B0,FF5
05560:  TBLWT*+
05562:  MOVFF  2B1,FF5
05566:  TBLWT*
05568:  RCALL  5296
0556A:  CLRF   FF8
0556C:  CLRF   FF8
....................    DATA = (int16)AUTO_CAM_DONE; 
0556E:  MOVLB  2
05570:  CLRF   xB1
05572:  MOVFF  6E,2B0
....................    WRITE_PROGRAM_EEPROM(FLAG_ADDRESS_EEPROM+20, DATA); 
05576:  MOVLW  14
05578:  ADDWF  5B,W
0557A:  MOVWF  xB2
0557C:  MOVLW  00
0557E:  ADDWFC 5C,W
05580:  MOVWF  xB3
05582:  MOVLW  00
05584:  ADDWFC 5D,W
05586:  MOVWF  xB4
05588:  MOVLW  00
0558A:  ADDWFC 5E,W
0558C:  MOVWF  xB5
0558E:  BSF    FD0.6
05590:  MOVFF  2B4,FF8
05594:  MOVFF  2B3,FF7
05598:  MOVFF  2B2,FF6
0559C:  MOVLB  0
0559E:  RCALL  5280
055A0:  MOVFF  2B2,FF6
055A4:  MOVFF  2B0,FF5
055A8:  TBLWT*+
055AA:  MOVFF  2B1,FF5
055AE:  TBLWT*
055B0:  RCALL  5296
055B2:  CLRF   FF8
055B4:  CLRF   FF8
....................    DATA = (int16)AUTO_LDM_DONE; 
055B6:  MOVLB  2
055B8:  CLRF   xB1
055BA:  MOVFF  6F,2B0
....................    WRITE_PROGRAM_EEPROM(FLAG_ADDRESS_EEPROM+22, DATA); 
055BE:  MOVLW  16
055C0:  ADDWF  5B,W
055C2:  MOVWF  xB2
055C4:  MOVLW  00
055C6:  ADDWFC 5C,W
055C8:  MOVWF  xB3
055CA:  MOVLW  00
055CC:  ADDWFC 5D,W
055CE:  MOVWF  xB4
055D0:  MOVLW  00
055D2:  ADDWFC 5E,W
055D4:  MOVWF  xB5
055D6:  BSF    FD0.6
055D8:  MOVFF  2B4,FF8
055DC:  MOVFF  2B3,FF7
055E0:  MOVFF  2B2,FF6
055E4:  MOVLB  0
055E6:  RCALL  5280
055E8:  MOVFF  2B2,FF6
055EC:  MOVFF  2B0,FF5
055F0:  TBLWT*+
055F2:  MOVFF  2B1,FF5
055F6:  TBLWT*
055F8:  RCALL  5296
055FA:  CLRF   FF8
055FC:  CLRF   FF8
....................    DATA = (int16)AUTO_ADCS_DONE; 
055FE:  MOVLB  2
05600:  CLRF   xB1
05602:  MOVFF  70,2B0
....................    WRITE_PROGRAM_EEPROM(FLAG_ADDRESS_EEPROM+24, DATA); 
05606:  MOVLW  18
05608:  ADDWF  5B,W
0560A:  MOVWF  xB2
0560C:  MOVLW  00
0560E:  ADDWFC 5C,W
05610:  MOVWF  xB3
05612:  MOVLW  00
05614:  ADDWFC 5D,W
05616:  MOVWF  xB4
05618:  MOVLW  00
0561A:  ADDWFC 5E,W
0561C:  MOVWF  xB5
0561E:  BSF    FD0.6
05620:  MOVFF  2B4,FF8
05624:  MOVFF  2B3,FF7
05628:  MOVFF  2B2,FF6
0562C:  MOVLB  0
0562E:  RCALL  5280
05630:  MOVFF  2B2,FF6
05634:  MOVFF  2B0,FF5
05638:  TBLWT*+
0563A:  MOVFF  2B1,FF5
0563E:  TBLWT*
05640:  RCALL  5296
05642:  CLRF   FF8
05644:  CLRF   FF8
....................    DATA = (int16)ANT_DEP_STATUS; 
05646:  MOVLB  2
05648:  CLRF   xB1
0564A:  MOVFF  71,2B0
....................    WRITE_PROGRAM_EEPROM(FLAG_ADDRESS_EEPROM+26, DATA); 
0564E:  MOVLW  1A
05650:  ADDWF  5B,W
05652:  MOVWF  xB2
05654:  MOVLW  00
05656:  ADDWFC 5C,W
05658:  MOVWF  xB3
0565A:  MOVLW  00
0565C:  ADDWFC 5D,W
0565E:  MOVWF  xB4
05660:  MOVLW  00
05662:  ADDWFC 5E,W
05664:  MOVWF  xB5
05666:  BSF    FD0.6
05668:  MOVFF  2B4,FF8
0566C:  MOVFF  2B3,FF7
05670:  MOVFF  2B2,FF6
05674:  MOVLB  0
05676:  RCALL  5280
05678:  MOVFF  2B2,FF6
0567C:  MOVFF  2B0,FF5
05680:  TBLWT*+
05682:  MOVFF  2B1,FF5
05686:  TBLWT*
05688:  RCALL  5296
0568A:  CLRF   FF8
0568C:  CLRF   FF8
....................    DATA = (int16)UPLINK_SUCCESS; 
0568E:  MOVLB  2
05690:  CLRF   xB1
05692:  MOVFF  72,2B0
....................    WRITE_PROGRAM_EEPROM(FLAG_ADDRESS_EEPROM+28, DATA); 
05696:  MOVLW  1C
05698:  ADDWF  5B,W
0569A:  MOVWF  xB2
0569C:  MOVLW  00
0569E:  ADDWFC 5C,W
056A0:  MOVWF  xB3
056A2:  MOVLW  00
056A4:  ADDWFC 5D,W
056A6:  MOVWF  xB4
056A8:  MOVLW  00
056AA:  ADDWFC 5E,W
056AC:  MOVWF  xB5
056AE:  BSF    FD0.6
056B0:  MOVFF  2B4,FF8
056B4:  MOVFF  2B3,FF7
056B8:  MOVFF  2B2,FF6
056BC:  MOVLB  0
056BE:  RCALL  5280
056C0:  MOVFF  2B2,FF6
056C4:  MOVFF  2B0,FF5
056C8:  TBLWT*+
056CA:  MOVFF  2B1,FF5
056CE:  TBLWT*
056D0:  RCALL  5296
056D2:  CLRF   FF8
056D4:  CLRF   FF8
....................    return; 
056D6:  RETURN 0
.................... } 
....................  
.................... void WRITE_AD_INFO_to_EEPROM() 
.................... { 
....................    int16 DATA; 
....................    DATA = BC_ATTEMPT_FLAG >> 16; 
....................    WRITE_PROGRAM_EEPROM(FLASH_AD_ADDRESS_EEPROM, DATA); 
....................    DATA = BC_ATTEMPT_FLAG; 
....................    WRITE_PROGRAM_EEPROM(FLASH_AD_ADDRESS_EEPROM+2, DATA); 
....................    return; 
.................... } 
....................  
.................... void MAKE_FLAG_from_EEPROM() 
.................... { 
....................    if((READ_PROGRAM_EEPROM(FLAG_ADDRESS_EEPROM)!=0xffff)&&(READ_PROGRAM_EEPROM(FLAG_ADDRESS_EEPROM+26)!=0xffff)) 
*
01658:  MOVFF  FF2,2A3
0165C:  BCF    FF2.7
0165E:  MOVFF  5D,FF8
01662:  MOVFF  5C,FF7
01666:  MOVFF  5B,FF6
0166A:  TBLRD*+
0166C:  MOVF   FF5,W
0166E:  TBLRD*
01670:  MOVFF  FF5,03
01674:  CLRF   FF8
01676:  MOVLB  2
01678:  BTFSC  xA3.7
0167A:  BSF    FF2.7
0167C:  MOVWF  xA3
0167E:  MOVFF  03,2A4
01682:  INCFSZ xA3,W
01684:  BRA    168C
01686:  INCFSZ xA4,W
01688:  BRA    168C
0168A:  BRA    1A66
0168C:  MOVLW  1A
0168E:  ADDWF  5B,W
01690:  MOVWF  xA3
01692:  MOVLW  00
01694:  ADDWFC 5C,W
01696:  MOVWF  xA4
01698:  MOVLW  00
0169A:  ADDWFC 5D,W
0169C:  MOVWF  xA5
0169E:  MOVLW  00
016A0:  ADDWFC 5E,W
016A2:  MOVWF  xA6
016A4:  MOVFF  FF2,2A7
016A8:  BCF    FF2.7
016AA:  MOVFF  2A5,FF8
016AE:  MOVFF  2A4,FF7
016B2:  MOVFF  2A3,FF6
016B6:  TBLRD*+
016B8:  MOVF   FF5,W
016BA:  TBLRD*
016BC:  MOVFF  FF5,03
016C0:  CLRF   FF8
016C2:  BTFSC  xA7.7
016C4:  BSF    FF2.7
016C6:  MOVWF  xA3
016C8:  MOVFF  03,2A4
016CC:  INCFSZ xA3,W
016CE:  BRA    16D6
016D0:  INCFSZ xA4,W
016D2:  BRA    16D6
016D4:  BRA    1A66
....................    { 
....................       BC_ATTEMPT_FLAG = (int8)READ_PROGRAM_EEPROM(FLAG_ADDRESS_EEPROM); 
016D6:  MOVFF  FF2,2A3
016DA:  BCF    FF2.7
016DC:  MOVFF  5D,FF8
016E0:  MOVFF  5C,FF7
016E4:  MOVFF  5B,FF6
016E8:  TBLRD*+
016EA:  MOVF   FF5,W
016EC:  TBLRD*
016EE:  MOVFF  FF5,03
016F2:  CLRF   FF8
016F4:  BTFSC  xA3.7
016F6:  BSF    FF2.7
016F8:  MOVLB  0
016FA:  MOVWF  x63
....................       PASSED_DAYS = (int16)READ_PROGRAM_EEPROM(FLAG_ADDRESS_EEPROM+2); 
016FC:  MOVLW  02
016FE:  ADDWF  5B,W
01700:  MOVLB  2
01702:  MOVWF  xA3
01704:  MOVLW  00
01706:  ADDWFC 5C,W
01708:  MOVWF  xA4
0170A:  MOVLW  00
0170C:  ADDWFC 5D,W
0170E:  MOVWF  xA5
01710:  MOVLW  00
01712:  ADDWFC 5E,W
01714:  MOVFF  FF2,2A7
01718:  BCF    FF2.7
0171A:  MOVFF  2A5,FF8
0171E:  MOVFF  2A4,FF7
01722:  MOVFF  2A3,FF6
01726:  TBLRD*+
01728:  MOVF   FF5,W
0172A:  TBLRD*
0172C:  MOVFF  FF5,03
01730:  CLRF   FF8
01732:  BTFSC  xA7.7
01734:  BSF    FF2.7
01736:  MOVLB  0
01738:  MOVWF  x64
0173A:  MOVFF  03,65
....................       RESERVE_CHECK = (int8)READ_PROGRAM_EEPROM(FLAG_ADDRESS_EEPROM+4); 
0173E:  MOVLW  04
01740:  ADDWF  5B,W
01742:  MOVLB  2
01744:  MOVWF  xA3
01746:  MOVLW  00
01748:  ADDWFC 5C,W
0174A:  MOVWF  xA4
0174C:  MOVLW  00
0174E:  ADDWFC 5D,W
01750:  MOVWF  xA5
01752:  MOVLW  00
01754:  ADDWFC 5E,W
01756:  MOVFF  FF2,2A7
0175A:  BCF    FF2.7
0175C:  MOVFF  2A5,FF8
01760:  MOVFF  2A4,FF7
01764:  MOVFF  2A3,FF6
01768:  TBLRD*+
0176A:  MOVF   FF5,W
0176C:  TBLRD*
0176E:  MOVFF  FF5,03
01772:  CLRF   FF8
01774:  BTFSC  xA7.7
01776:  BSF    FF2.7
01778:  MOVLB  0
0177A:  MOVWF  x66
....................       RESERVE_MIN_FLAG = (int8)READ_PROGRAM_EEPROM(FLAG_ADDRESS_EEPROM+6); 
0177C:  MOVLW  06
0177E:  ADDWF  5B,W
01780:  MOVLB  2
01782:  MOVWF  xA3
01784:  MOVLW  00
01786:  ADDWFC 5C,W
01788:  MOVWF  xA4
0178A:  MOVLW  00
0178C:  ADDWFC 5D,W
0178E:  MOVWF  xA5
01790:  MOVLW  00
01792:  ADDWFC 5E,W
01794:  MOVFF  FF2,2A7
01798:  BCF    FF2.7
0179A:  MOVFF  2A5,FF8
0179E:  MOVFF  2A4,FF7
017A2:  MOVFF  2A3,FF6
017A6:  TBLRD*+
017A8:  MOVF   FF5,W
017AA:  TBLRD*
017AC:  MOVFF  FF5,03
017B0:  CLRF   FF8
017B2:  BTFSC  xA7.7
017B4:  BSF    FF2.7
017B6:  MOVLB  0
017B8:  MOVWF  x67
....................       RESERVE_TARGET_FLAG = (int8)READ_PROGRAM_EEPROM(FLAG_ADDRESS_EEPROM+8); 
017BA:  MOVLW  08
017BC:  ADDWF  5B,W
017BE:  MOVLB  2
017C0:  MOVWF  xA3
017C2:  MOVLW  00
017C4:  ADDWFC 5C,W
017C6:  MOVWF  xA4
017C8:  MOVLW  00
017CA:  ADDWFC 5D,W
017CC:  MOVWF  xA5
017CE:  MOVLW  00
017D0:  ADDWFC 5E,W
017D2:  MOVFF  FF2,2A7
017D6:  BCF    FF2.7
017D8:  MOVFF  2A5,FF8
017DC:  MOVFF  2A4,FF7
017E0:  MOVFF  2A3,FF6
017E4:  TBLRD*+
017E6:  MOVF   FF5,W
017E8:  TBLRD*
017EA:  MOVFF  FF5,03
017EE:  CLRF   FF8
017F0:  BTFSC  xA7.7
017F2:  BSF    FF2.7
017F4:  MOVLB  0
017F6:  MOVWF  x68
....................       MISSION_CONTENTS = (int8)READ_PROGRAM_EEPROM(FLAG_ADDRESS_EEPROM+10); 
017F8:  MOVLW  0A
017FA:  ADDWF  5B,W
017FC:  MOVLB  2
017FE:  MOVWF  xA3
01800:  MOVLW  00
01802:  ADDWFC 5C,W
01804:  MOVWF  xA4
01806:  MOVLW  00
01808:  ADDWFC 5D,W
0180A:  MOVWF  xA5
0180C:  MOVLW  00
0180E:  ADDWFC 5E,W
01810:  MOVFF  FF2,2A7
01814:  BCF    FF2.7
01816:  MOVFF  2A5,FF8
0181A:  MOVFF  2A4,FF7
0181E:  MOVFF  2A3,FF6
01822:  TBLRD*+
01824:  MOVF   FF5,W
01826:  TBLRD*
01828:  MOVFF  FF5,03
0182C:  CLRF   FF8
0182E:  BTFSC  xA7.7
01830:  BSF    FF2.7
01832:  MOVLB  0
01834:  MOVWF  x69
....................       MISSION_DETAIL = (int8)READ_PROGRAM_EEPROM(FLAG_ADDRESS_EEPROM+12); 
01836:  MOVLW  0C
01838:  ADDWF  5B,W
0183A:  MOVLB  2
0183C:  MOVWF  xA3
0183E:  MOVLW  00
01840:  ADDWFC 5C,W
01842:  MOVWF  xA4
01844:  MOVLW  00
01846:  ADDWFC 5D,W
01848:  MOVWF  xA5
0184A:  MOVLW  00
0184C:  ADDWFC 5E,W
0184E:  MOVFF  FF2,2A7
01852:  BCF    FF2.7
01854:  MOVFF  2A5,FF8
01858:  MOVFF  2A4,FF7
0185C:  MOVFF  2A3,FF6
01860:  TBLRD*+
01862:  MOVF   FF5,W
01864:  TBLRD*
01866:  MOVFF  FF5,03
0186A:  CLRF   FF8
0186C:  BTFSC  xA7.7
0186E:  BSF    FF2.7
01870:  MOVLB  0
01872:  MOVWF  x6A
....................       Kill_FLAG_MAIN = (int8)READ_PROGRAM_EEPROM(FLAG_ADDRESS_EEPROM+14); 
01874:  MOVLW  0E
01876:  ADDWF  5B,W
01878:  MOVLB  2
0187A:  MOVWF  xA3
0187C:  MOVLW  00
0187E:  ADDWFC 5C,W
01880:  MOVWF  xA4
01882:  MOVLW  00
01884:  ADDWFC 5D,W
01886:  MOVWF  xA5
01888:  MOVLW  00
0188A:  ADDWFC 5E,W
0188C:  MOVFF  FF2,2A7
01890:  BCF    FF2.7
01892:  MOVFF  2A5,FF8
01896:  MOVFF  2A4,FF7
0189A:  MOVFF  2A3,FF6
0189E:  TBLRD*+
018A0:  MOVF   FF5,W
018A2:  TBLRD*
018A4:  MOVFF  FF5,03
018A8:  CLRF   FF8
018AA:  BTFSC  xA7.7
018AC:  BSF    FF2.7
018AE:  MOVLB  0
018B0:  MOVWF  x6B
....................       Kill_FLAG_FAB = (int8)READ_PROGRAM_EEPROM(FLAG_ADDRESS_EEPROM+16); 
018B2:  MOVLW  10
018B4:  ADDWF  5B,W
018B6:  MOVLB  2
018B8:  MOVWF  xA3
018BA:  MOVLW  00
018BC:  ADDWFC 5C,W
018BE:  MOVWF  xA4
018C0:  MOVLW  00
018C2:  ADDWFC 5D,W
018C4:  MOVWF  xA5
018C6:  MOVLW  00
018C8:  ADDWFC 5E,W
018CA:  MOVFF  FF2,2A7
018CE:  BCF    FF2.7
018D0:  MOVFF  2A5,FF8
018D4:  MOVFF  2A4,FF7
018D8:  MOVFF  2A3,FF6
018DC:  TBLRD*+
018DE:  MOVF   FF5,W
018E0:  TBLRD*
018E2:  MOVFF  FF5,03
018E6:  CLRF   FF8
018E8:  BTFSC  xA7.7
018EA:  BSF    FF2.7
018EC:  MOVLB  0
018EE:  MOVWF  x6C
....................       FIRST_HSSC_DONE = (int8)READ_PROGRAM_EEPROM(FLAG_ADDRESS_EEPROM+18); 
018F0:  MOVLW  12
018F2:  ADDWF  5B,W
018F4:  MOVLB  2
018F6:  MOVWF  xA3
018F8:  MOVLW  00
018FA:  ADDWFC 5C,W
018FC:  MOVWF  xA4
018FE:  MOVLW  00
01900:  ADDWFC 5D,W
01902:  MOVWF  xA5
01904:  MOVLW  00
01906:  ADDWFC 5E,W
01908:  MOVFF  FF2,2A7
0190C:  BCF    FF2.7
0190E:  MOVFF  2A5,FF8
01912:  MOVFF  2A4,FF7
01916:  MOVFF  2A3,FF6
0191A:  TBLRD*+
0191C:  MOVF   FF5,W
0191E:  TBLRD*
01920:  MOVFF  FF5,03
01924:  CLRF   FF8
01926:  BTFSC  xA7.7
01928:  BSF    FF2.7
0192A:  MOVLB  0
0192C:  MOVWF  x6D
....................       AUTO_CAM_DONE = (int8)READ_PROGRAM_EEPROM(FLAG_ADDRESS_EEPROM+20); 
0192E:  MOVLW  14
01930:  ADDWF  5B,W
01932:  MOVLB  2
01934:  MOVWF  xA3
01936:  MOVLW  00
01938:  ADDWFC 5C,W
0193A:  MOVWF  xA4
0193C:  MOVLW  00
0193E:  ADDWFC 5D,W
01940:  MOVWF  xA5
01942:  MOVLW  00
01944:  ADDWFC 5E,W
01946:  MOVFF  FF2,2A7
0194A:  BCF    FF2.7
0194C:  MOVFF  2A5,FF8
01950:  MOVFF  2A4,FF7
01954:  MOVFF  2A3,FF6
01958:  TBLRD*+
0195A:  MOVF   FF5,W
0195C:  TBLRD*
0195E:  MOVFF  FF5,03
01962:  CLRF   FF8
01964:  BTFSC  xA7.7
01966:  BSF    FF2.7
01968:  MOVLB  0
0196A:  MOVWF  x6E
....................       AUTO_LDM_DONE = (int8)READ_PROGRAM_EEPROM(FLAG_ADDRESS_EEPROM+22); 
0196C:  MOVLW  16
0196E:  ADDWF  5B,W
01970:  MOVLB  2
01972:  MOVWF  xA3
01974:  MOVLW  00
01976:  ADDWFC 5C,W
01978:  MOVWF  xA4
0197A:  MOVLW  00
0197C:  ADDWFC 5D,W
0197E:  MOVWF  xA5
01980:  MOVLW  00
01982:  ADDWFC 5E,W
01984:  MOVFF  FF2,2A7
01988:  BCF    FF2.7
0198A:  MOVFF  2A5,FF8
0198E:  MOVFF  2A4,FF7
01992:  MOVFF  2A3,FF6
01996:  TBLRD*+
01998:  MOVF   FF5,W
0199A:  TBLRD*
0199C:  MOVFF  FF5,03
019A0:  CLRF   FF8
019A2:  BTFSC  xA7.7
019A4:  BSF    FF2.7
019A6:  MOVLB  0
019A8:  MOVWF  x6F
....................       AUTO_ADCS_DONE = (int8)READ_PROGRAM_EEPROM(FLAG_ADDRESS_EEPROM+24); 
019AA:  MOVLW  18
019AC:  ADDWF  5B,W
019AE:  MOVLB  2
019B0:  MOVWF  xA3
019B2:  MOVLW  00
019B4:  ADDWFC 5C,W
019B6:  MOVWF  xA4
019B8:  MOVLW  00
019BA:  ADDWFC 5D,W
019BC:  MOVWF  xA5
019BE:  MOVLW  00
019C0:  ADDWFC 5E,W
019C2:  MOVFF  FF2,2A7
019C6:  BCF    FF2.7
019C8:  MOVFF  2A5,FF8
019CC:  MOVFF  2A4,FF7
019D0:  MOVFF  2A3,FF6
019D4:  TBLRD*+
019D6:  MOVF   FF5,W
019D8:  TBLRD*
019DA:  MOVFF  FF5,03
019DE:  CLRF   FF8
019E0:  BTFSC  xA7.7
019E2:  BSF    FF2.7
019E4:  MOVLB  0
019E6:  MOVWF  x70
....................       ANT_DEP_STATUS = (int8)READ_PROGRAM_EEPROM(FLAG_ADDRESS_EEPROM+26); 
019E8:  MOVLW  1A
019EA:  ADDWF  5B,W
019EC:  MOVLB  2
019EE:  MOVWF  xA3
019F0:  MOVLW  00
019F2:  ADDWFC 5C,W
019F4:  MOVWF  xA4
019F6:  MOVLW  00
019F8:  ADDWFC 5D,W
019FA:  MOVWF  xA5
019FC:  MOVLW  00
019FE:  ADDWFC 5E,W
01A00:  MOVFF  FF2,2A7
01A04:  BCF    FF2.7
01A06:  MOVFF  2A5,FF8
01A0A:  MOVFF  2A4,FF7
01A0E:  MOVFF  2A3,FF6
01A12:  TBLRD*+
01A14:  MOVF   FF5,W
01A16:  TBLRD*
01A18:  MOVFF  FF5,03
01A1C:  CLRF   FF8
01A1E:  BTFSC  xA7.7
01A20:  BSF    FF2.7
01A22:  MOVLB  0
01A24:  MOVWF  x71
....................       UPLINK_SUCCESS = (int8)READ_PROGRAM_EEPROM(FLAG_ADDRESS_EEPROM+28); 
01A26:  MOVLW  1C
01A28:  ADDWF  5B,W
01A2A:  MOVLB  2
01A2C:  MOVWF  xA3
01A2E:  MOVLW  00
01A30:  ADDWFC 5C,W
01A32:  MOVWF  xA4
01A34:  MOVLW  00
01A36:  ADDWFC 5D,W
01A38:  MOVWF  xA5
01A3A:  MOVLW  00
01A3C:  ADDWFC 5E,W
01A3E:  MOVFF  FF2,2A7
01A42:  BCF    FF2.7
01A44:  MOVFF  2A5,FF8
01A48:  MOVFF  2A4,FF7
01A4C:  MOVFF  2A3,FF6
01A50:  TBLRD*+
01A52:  MOVF   FF5,W
01A54:  TBLRD*
01A56:  MOVFF  FF5,03
01A5A:  CLRF   FF8
01A5C:  BTFSC  xA7.7
01A5E:  BSF    FF2.7
01A60:  MOVLB  0
01A62:  MOVWF  x72
01A64:  MOVLB  2
....................    } 
....................     
....................    fprintf(PC,"\r\nPASSED DAYS:%lx\r\n",PASSED_DAYS); 
01A66:  MOVLW  A6
01A68:  MOVWF  FF6
01A6A:  MOVLW  03
01A6C:  MOVWF  FF7
01A6E:  MOVLW  00
01A70:  MOVWF  FF8
01A72:  MOVLW  0E
01A74:  MOVWF  xD2
01A76:  MOVLB  0
01A78:  CALL   120C
01A7C:  MOVFF  65,2D3
01A80:  MOVLW  57
01A82:  MOVLB  2
01A84:  MOVWF  xD4
01A86:  MOVLB  0
01A88:  CALL   123E
01A8C:  MOVFF  64,2D3
01A90:  MOVLW  57
01A92:  MOVLB  2
01A94:  MOVWF  xD4
01A96:  MOVLB  0
01A98:  CALL   123E
01A9C:  MOVLW  0D
01A9E:  BTFSS  F9E.4
01AA0:  BRA    1A9E
01AA2:  MOVWF  FAD
01AA4:  MOVLW  0A
01AA6:  BTFSS  F9E.4
01AA8:  BRA    1AA6
01AAA:  MOVWF  FAD
....................    fprintf(PC,"RESERVE CHECK:%x\r\n",RESERVE_CHECK); 
01AAC:  MOVLW  BA
01AAE:  MOVWF  FF6
01AB0:  MOVLW  03
01AB2:  MOVWF  FF7
01AB4:  MOVLW  00
01AB6:  MOVWF  FF8
01AB8:  MOVLW  0E
01ABA:  MOVLB  2
01ABC:  MOVWF  xD2
01ABE:  MOVLB  0
01AC0:  CALL   120C
01AC4:  MOVFF  66,2D3
01AC8:  MOVLW  57
01ACA:  MOVLB  2
01ACC:  MOVWF  xD4
01ACE:  MOVLB  0
01AD0:  CALL   123E
01AD4:  MOVLW  0D
01AD6:  BTFSS  F9E.4
01AD8:  BRA    1AD6
01ADA:  MOVWF  FAD
01ADC:  MOVLW  0A
01ADE:  BTFSS  F9E.4
01AE0:  BRA    1ADE
01AE2:  MOVWF  FAD
....................    fprintf(PC,"Kill FLAG MAIN:%x\r\n",Kill_FLAG_MAIN); 
01AE4:  MOVLW  CE
01AE6:  MOVWF  FF6
01AE8:  MOVLW  03
01AEA:  MOVWF  FF7
01AEC:  MOVLW  00
01AEE:  MOVWF  FF8
01AF0:  MOVLW  0F
01AF2:  MOVLB  2
01AF4:  MOVWF  xD2
01AF6:  MOVLB  0
01AF8:  CALL   120C
01AFC:  MOVFF  6B,2D3
01B00:  MOVLW  57
01B02:  MOVLB  2
01B04:  MOVWF  xD4
01B06:  MOVLB  0
01B08:  CALL   123E
01B0C:  MOVLW  0D
01B0E:  BTFSS  F9E.4
01B10:  BRA    1B0E
01B12:  MOVWF  FAD
01B14:  MOVLW  0A
01B16:  BTFSS  F9E.4
01B18:  BRA    1B16
01B1A:  MOVWF  FAD
....................    fprintf(PC,"Kill FLAG FAB:%x\r\n",Kill_FLAG_FAB); 
01B1C:  MOVLW  E2
01B1E:  MOVWF  FF6
01B20:  MOVLW  03
01B22:  MOVWF  FF7
01B24:  MOVLW  00
01B26:  MOVWF  FF8
01B28:  MOVLW  0E
01B2A:  MOVLB  2
01B2C:  MOVWF  xD2
01B2E:  MOVLB  0
01B30:  CALL   120C
01B34:  MOVFF  6C,2D3
01B38:  MOVLW  57
01B3A:  MOVLB  2
01B3C:  MOVWF  xD4
01B3E:  MOVLB  0
01B40:  CALL   123E
01B44:  MOVLW  0D
01B46:  BTFSS  F9E.4
01B48:  BRA    1B46
01B4A:  MOVWF  FAD
01B4C:  MOVLW  0A
01B4E:  BTFSS  F9E.4
01B50:  BRA    1B4E
01B52:  MOVWF  FAD
....................    fprintf(PC,"AUTO HIGH SAMPLING:%x\r\n",FIRST_HSSC_DONE); 
01B54:  MOVLW  F6
01B56:  MOVWF  FF6
01B58:  MOVLW  03
01B5A:  MOVWF  FF7
01B5C:  MOVLW  00
01B5E:  MOVWF  FF8
01B60:  MOVLW  13
01B62:  MOVLB  2
01B64:  MOVWF  xD2
01B66:  MOVLB  0
01B68:  CALL   120C
01B6C:  MOVFF  6D,2D3
01B70:  MOVLW  57
01B72:  MOVLB  2
01B74:  MOVWF  xD4
01B76:  MOVLB  0
01B78:  CALL   123E
01B7C:  MOVLW  0D
01B7E:  BTFSS  F9E.4
01B80:  BRA    1B7E
01B82:  MOVWF  FAD
01B84:  MOVLW  0A
01B86:  BTFSS  F9E.4
01B88:  BRA    1B86
01B8A:  MOVWF  FAD
....................    fprintf(PC,"AUTO CAM:%x\r\n",AUTO_CAM_DONE); 
01B8C:  MOVLW  0E
01B8E:  MOVWF  FF6
01B90:  MOVLW  04
01B92:  MOVWF  FF7
01B94:  MOVLW  00
01B96:  MOVWF  FF8
01B98:  MOVLW  09
01B9A:  MOVLB  2
01B9C:  MOVWF  xD2
01B9E:  MOVLB  0
01BA0:  CALL   120C
01BA4:  MOVFF  6E,2D3
01BA8:  MOVLW  57
01BAA:  MOVLB  2
01BAC:  MOVWF  xD4
01BAE:  MOVLB  0
01BB0:  CALL   123E
01BB4:  MOVLW  0D
01BB6:  BTFSS  F9E.4
01BB8:  BRA    1BB6
01BBA:  MOVWF  FAD
01BBC:  MOVLW  0A
01BBE:  BTFSS  F9E.4
01BC0:  BRA    1BBE
01BC2:  MOVWF  FAD
....................    fprintf(PC,"AUTO LDM:%x\r\n",AUTO_LDM_DONE); 
01BC4:  MOVLW  1C
01BC6:  MOVWF  FF6
01BC8:  MOVLW  04
01BCA:  MOVWF  FF7
01BCC:  MOVLW  00
01BCE:  MOVWF  FF8
01BD0:  MOVLW  09
01BD2:  MOVLB  2
01BD4:  MOVWF  xD2
01BD6:  MOVLB  0
01BD8:  CALL   120C
01BDC:  MOVFF  6F,2D3
01BE0:  MOVLW  57
01BE2:  MOVLB  2
01BE4:  MOVWF  xD4
01BE6:  MOVLB  0
01BE8:  CALL   123E
01BEC:  MOVLW  0D
01BEE:  BTFSS  F9E.4
01BF0:  BRA    1BEE
01BF2:  MOVWF  FAD
01BF4:  MOVLW  0A
01BF6:  BTFSS  F9E.4
01BF8:  BRA    1BF6
01BFA:  MOVWF  FAD
....................    fprintf(PC,"AUTO ADCS:%x\r\n",AUTO_ADCS_DONE); 
01BFC:  MOVLW  2A
01BFE:  MOVWF  FF6
01C00:  MOVLW  04
01C02:  MOVWF  FF7
01C04:  MOVLW  00
01C06:  MOVWF  FF8
01C08:  MOVLW  0A
01C0A:  MOVLB  2
01C0C:  MOVWF  xD2
01C0E:  MOVLB  0
01C10:  CALL   120C
01C14:  MOVFF  70,2D3
01C18:  MOVLW  57
01C1A:  MOVLB  2
01C1C:  MOVWF  xD4
01C1E:  MOVLB  0
01C20:  CALL   123E
01C24:  MOVLW  0D
01C26:  BTFSS  F9E.4
01C28:  BRA    1C26
01C2A:  MOVWF  FAD
01C2C:  MOVLW  0A
01C2E:  BTFSS  F9E.4
01C30:  BRA    1C2E
01C32:  MOVWF  FAD
....................    fprintf(PC,"ANTENNA DEPLOY:%x\r\n",ANT_DEP_STATUS); 
01C34:  MOVLW  3A
01C36:  MOVWF  FF6
01C38:  MOVLW  04
01C3A:  MOVWF  FF7
01C3C:  MOVLW  00
01C3E:  MOVWF  FF8
01C40:  MOVLW  0F
01C42:  MOVLB  2
01C44:  MOVWF  xD2
01C46:  MOVLB  0
01C48:  CALL   120C
01C4C:  MOVFF  71,2D3
01C50:  MOVLW  57
01C52:  MOVLB  2
01C54:  MOVWF  xD4
01C56:  MOVLB  0
01C58:  CALL   123E
01C5C:  MOVLW  0D
01C5E:  BTFSS  F9E.4
01C60:  BRA    1C5E
01C62:  MOVWF  FAD
01C64:  MOVLW  0A
01C66:  BTFSS  F9E.4
01C68:  BRA    1C66
01C6A:  MOVWF  FAD
....................    fprintf(PC,"UPLINK SUCCESS:%x\r\n\r\n",UPLINK_SUCCESS); 
01C6C:  MOVLW  4E
01C6E:  MOVWF  FF6
01C70:  MOVLW  04
01C72:  MOVWF  FF7
01C74:  MOVLW  00
01C76:  MOVWF  FF8
01C78:  MOVLW  0F
01C7A:  MOVLB  2
01C7C:  MOVWF  xD2
01C7E:  MOVLB  0
01C80:  CALL   120C
01C84:  MOVFF  72,2D3
01C88:  MOVLW  57
01C8A:  MOVLB  2
01C8C:  MOVWF  xD4
01C8E:  MOVLB  0
01C90:  CALL   123E
01C94:  MOVLW  5F
01C96:  MOVWF  FF6
01C98:  MOVLW  04
01C9A:  MOVWF  FF7
01C9C:  MOVLW  00
01C9E:  MOVWF  FF8
01CA0:  MOVLW  04
01CA2:  MOVLB  2
01CA4:  MOVWF  xD2
01CA6:  MOVLB  0
01CA8:  CALL   120C
....................     
....................    return; 
01CAC:  GOTO   1D20 (RETURN)
.................... } 
....................  
.................... void TAKE_AD_INFO_from_EEPROM() 
*
00FAA:  MOVFF  FF2,2AE
00FAE:  BCF    FF2.7
00FB0:  MOVFF  61,FF8
00FB4:  MOVFF  60,FF7
00FB8:  MOVFF  5F,FF6
00FBC:  TBLRD*+
00FBE:  MOVF   FF5,W
00FC0:  TBLRD*
00FC2:  MOVFF  FF5,03
00FC6:  CLRF   FF8
00FC8:  MOVLB  2
00FCA:  BTFSC  xAE.7
00FCC:  BSF    FF2.7
00FCE:  MOVWF  xA6
00FD0:  MOVFF  03,2A7
00FD4:  MOVLW  02
00FD6:  ADDWF  5F,W
00FD8:  MOVWF  xAE
00FDA:  MOVLW  00
00FDC:  MOVLB  0
00FDE:  ADDWFC x60,W
00FE0:  MOVLB  2
00FE2:  MOVWF  xAF
00FE4:  MOVLW  00
00FE6:  MOVLB  0
00FE8:  ADDWFC x61,W
00FEA:  MOVLB  2
00FEC:  MOVWF  xB0
00FEE:  MOVLW  00
00FF0:  MOVLB  0
00FF2:  ADDWFC x62,W
00FF4:  MOVLB  2
00FF6:  MOVWF  xB1
00FF8:  MOVFF  FF2,2B2
00FFC:  BCF    FF2.7
00FFE:  MOVFF  2B0,FF8
01002:  MOVFF  2AF,FF7
01006:  MOVFF  2AE,FF6
0100A:  TBLRD*+
0100C:  MOVF   FF5,W
0100E:  TBLRD*
01010:  MOVFF  FF5,03
01014:  CLRF   FF8
01016:  BTFSC  xB2.7
01018:  BSF    FF2.7
0101A:  MOVWF  xA8
0101C:  MOVFF  03,2A9
01020:  CLRF   xAE
01022:  CLRF   xAF
01024:  CLRF   02
01026:  CLRF   03
01028:  MOVF   xA8,W
0102A:  IORWF  xAE,W
0102C:  MOVWF  xAA
0102E:  MOVF   xA9,W
01030:  IORWF  xAF,W
01032:  MOVWF  xAB
01034:  MOVF   02,W
01036:  IORWF  xA6,W
01038:  MOVWF  xAC
0103A:  MOVF   03,W
0103C:  IORWF  xA7,W
0103E:  MOVWF  xAD
.................... { 
....................    int16 DATA_high = READ_PROGRAM_EEPROM(FLASH_AD_ADDRESS_EEPROM); 
....................    int16 DATA_low = READ_PROGRAM_EEPROM(FLASH_AD_ADDRESS_EEPROM+2); 
....................    int32 DATA = (((int32)DATA_high<<16) | (int32)DATA_low); 
....................    if(DATA != 0xffffffff) 
01040:  INCFSZ xAA,W
01042:  BRA    1052
01044:  INCFSZ xAB,W
01046:  BRA    1052
01048:  INCFSZ xAC,W
0104A:  BRA    1052
0104C:  INCFSZ xAD,W
0104E:  BRA    1052
01050:  BRA    1062
....................    { 
....................       ADD_INFO_ADDRESS = DATA; 
01052:  MOVFF  2AD,32
01056:  MOVFF  2AC,31
0105A:  MOVFF  2AB,30
0105E:  MOVFF  2AA,2F
....................    } 
....................    return; 
01062:  MOVLB  0
01064:  GOTO   12C4 (RETURN)
.................... } 
....................  
.................... void STORE_FLAG_INFO()//save flag data to flash memory 
.................... { 
....................    flag_info_bffr[0] = BC_ATTEMPT_FLAG; 
*
050A4:  MOVFF  63,115
....................    flag_info_bffr[1] = PASSED_DAYS >> 8; 
050A8:  MOVFF  65,116
....................    flag_info_bffr[2] = PASSED_DAYS; 
050AC:  MOVFF  64,117
....................    flag_info_bffr[3] = RESERVE_CHECK; 
050B0:  MOVFF  66,118
....................    flag_info_bffr[4] = RESERVE_TARGET_FLAG; 
050B4:  MOVFF  68,119
....................    flag_info_bffr[5] = RESERVE_MIN_FLAG; 
050B8:  MOVFF  67,11A
....................    flag_info_bffr[6] = MISSION_CONTENTS; 
050BC:  MOVFF  69,11B
....................    flag_info_bffr[7] = MISSION_DETAIL; 
050C0:  MOVFF  6A,11C
....................    flag_info_bffr[8] = Kill_FLAG_MAIN; 
050C4:  MOVFF  6B,11D
....................    flag_info_bffr[9] = Kill_FLAG_FAB; 
050C8:  MOVFF  6C,11E
....................    flag_info_bffr[10] = FIRST_HSSC_DONE; 
050CC:  MOVFF  6D,11F
....................    flag_info_bffr[11] = AUTO_CAM_DONE; 
050D0:  MOVFF  6E,120
....................    flag_info_bffr[12] = AUTO_LDM_DONE; 
050D4:  MOVFF  6F,121
....................    flag_info_bffr[13] = AUTO_ADCS_DONE; 
050D8:  MOVFF  70,122
....................    flag_info_bffr[14] = ANT_DEP_STATUS; 
050DC:  MOVFF  71,123
....................    flag_info_bffr[15] = UPLINK_SUCCESS; 
050E0:  MOVFF  72,124
....................     
....................    output_low(PIN_A5);//CAM_MUX MAINSIDE 
050E4:  BCF    F92.5
050E6:  BCF    F89.5
....................    output_low(PIN_C4);//COM_MUX MAINSIDE 
050E8:  BCF    F94.4
050EA:  BCF    F8B.4
....................    SUBSECTOR_4KB_ERASE_OF(FLAG_DATA_ADDRESS); 
050EC:  MOVFF  3A,2D5
050F0:  MOVFF  39,2D4
050F4:  MOVFF  38,2D3
050F8:  MOVFF  37,2D2
050FC:  CALL   2338
....................    delay_ms(200); 
05100:  MOVLW  C8
05102:  MOVLB  2
05104:  MOVWF  xDB
05106:  MOVLB  0
05108:  CALL   230E
....................    for(int8 num = 0; num < FLAG_INFO_SIZE; num++) 
0510C:  MOVLB  2
0510E:  CLRF   xB4
05110:  MOVF   xB4,W
05112:  SUBLW  0F
05114:  BNC   5164
....................    { 
....................       WRITE_DATA_BYTE_OF(FLAG_DATA_ADDRESS + num,flag_info_bffr[num]); 
05116:  MOVF   xB4,W
05118:  ADDWF  37,W
0511A:  MOVWF  xB5
0511C:  MOVLW  00
0511E:  ADDWFC 38,W
05120:  MOVWF  xB6
05122:  MOVLW  00
05124:  ADDWFC 39,W
05126:  MOVWF  xB7
05128:  MOVLW  00
0512A:  ADDWFC 3A,W
0512C:  MOVWF  xB8
0512E:  CLRF   03
05130:  MOVF   xB4,W
05132:  ADDLW  15
05134:  MOVWF  FE9
05136:  MOVLW  01
05138:  ADDWFC 03,W
0513A:  MOVWF  FEA
0513C:  MOVFF  FEF,2D7
05140:  MOVFF  2B8,2D6
05144:  MOVFF  2B7,2D5
05148:  MOVFF  2B6,2D4
0514C:  MOVFF  2B5,2D3
05150:  MOVLB  0
05152:  CALL   1080
....................       delay_us(10); 
05156:  MOVLW  0D
05158:  MOVWF  00
0515A:  DECFSZ 00,F
0515C:  BRA    515A
0515E:  MOVLB  2
05160:  INCF   xB4,F
05162:  BRA    5110
....................    } 
....................    delay_ms(10); 
05164:  MOVLW  0A
05166:  MOVWF  xDB
05168:  MOVLB  0
0516A:  CALL   230E
....................    SUBSECTOR_4KB_ERASE_SCF(FLAG_DATA_ADDRESS); 
0516E:  MOVFF  3A,2D5
05172:  MOVFF  39,2D4
05176:  MOVFF  38,2D3
0517A:  MOVFF  37,2D2
0517E:  CALL   23C8
....................    delay_ms(200); 
05182:  MOVLW  C8
05184:  MOVLB  2
05186:  MOVWF  xDB
05188:  MOVLB  0
0518A:  CALL   230E
....................    for(num = 0; num < FLAG_INFO_SIZE; num++) 
0518E:  MOVLB  2
05190:  CLRF   xB4
05192:  MOVF   xB4,W
05194:  SUBLW  0F
05196:  BNC   51E6
....................    { 
....................       WRITE_DATA_BYTE_SCF(FLAG_DATA_ADDRESS + num,flag_info_bffr[num]); 
05198:  MOVF   xB4,W
0519A:  ADDWF  37,W
0519C:  MOVWF  xB5
0519E:  MOVLW  00
051A0:  ADDWFC 38,W
051A2:  MOVWF  xB6
051A4:  MOVLW  00
051A6:  ADDWFC 39,W
051A8:  MOVWF  xB7
051AA:  MOVLW  00
051AC:  ADDWFC 3A,W
051AE:  MOVWF  xB8
051B0:  CLRF   03
051B2:  MOVF   xB4,W
051B4:  ADDLW  15
051B6:  MOVWF  FE9
051B8:  MOVLW  01
051BA:  ADDWFC 03,W
051BC:  MOVWF  FEA
051BE:  MOVFF  FEF,2D7
051C2:  MOVFF  2B8,2D6
051C6:  MOVFF  2B7,2D5
051CA:  MOVFF  2B6,2D4
051CE:  MOVFF  2B5,2D3
051D2:  MOVLB  0
051D4:  CALL   110C
....................       delay_us(10); 
051D8:  MOVLW  0D
051DA:  MOVWF  00
051DC:  DECFSZ 00,F
051DE:  BRA    51DC
051E0:  MOVLB  2
051E2:  INCF   xB4,F
051E4:  BRA    5192
....................    } 
....................    delay_ms(10); 
051E6:  MOVLW  0A
051E8:  MOVWF  xDB
051EA:  MOVLB  0
051EC:  CALL   230E
....................    SUBSECTOR_4KB_ERASE_SMF(FLAG_DATA_ADDRESS); 
051F0:  MOVFF  3A,2D5
051F4:  MOVFF  39,2D4
051F8:  MOVFF  38,2D3
051FC:  MOVFF  37,2D2
05200:  CALL   2458
....................    delay_ms(200); 
05204:  MOVLW  C8
05206:  MOVLB  2
05208:  MOVWF  xDB
0520A:  MOVLB  0
0520C:  CALL   230E
....................    for(num = 0; num < FLAG_INFO_SIZE; num++) 
05210:  MOVLB  2
05212:  CLRF   xB4
05214:  MOVF   xB4,W
05216:  SUBLW  0F
05218:  BNC   5268
....................    { 
....................       WRITE_DATA_BYTE_SMF(FLAG_DATA_ADDRESS + num,flag_info_bffr[num]); 
0521A:  MOVF   xB4,W
0521C:  ADDWF  37,W
0521E:  MOVWF  xB5
05220:  MOVLW  00
05222:  ADDWFC 38,W
05224:  MOVWF  xB6
05226:  MOVLW  00
05228:  ADDWFC 39,W
0522A:  MOVWF  xB7
0522C:  MOVLW  00
0522E:  ADDWFC 3A,W
05230:  MOVWF  xB8
05232:  CLRF   03
05234:  MOVF   xB4,W
05236:  ADDLW  15
05238:  MOVWF  FE9
0523A:  MOVLW  01
0523C:  ADDWFC 03,W
0523E:  MOVWF  FEA
05240:  MOVFF  FEF,2D7
05244:  MOVFF  2B8,2D6
05248:  MOVFF  2B7,2D5
0524C:  MOVFF  2B6,2D4
05250:  MOVFF  2B5,2D3
05254:  MOVLB  0
05256:  CALL   1198
....................       delay_us(10); 
0525A:  MOVLW  0D
0525C:  MOVWF  00
0525E:  DECFSZ 00,F
05260:  BRA    525E
05262:  MOVLB  2
05264:  INCF   xB4,F
05266:  BRA    5214
....................    } 
....................     
....................    output_high(PIN_C4);//COM_MUX COMSIDE 
05268:  BCF    F94.4
0526A:  BSF    F8B.4
....................     
....................    fprintf(PC,"Storeing FLAG INFO DONE\r\n"); 
0526C:  MOVLW  64
0526E:  MOVWF  FF6
05270:  MOVLW  04
05272:  MOVWF  FF7
05274:  MOVLW  00
05276:  MOVWF  FF8
05278:  MOVLB  0
0527A:  CALL   24F4
....................    return; 
0527E:  RETURN 0
....................     
.................... } 
....................  
.................... void RESET_FLAG_DATA() 
.................... { 
....................    //BC_ATTEMPT_FLAG = 0; 
....................    PASSED_DAYS = 0; 
*
0C7A0:  CLRF   x65
0C7A2:  CLRF   x64
....................    //RESERVE_CHECK = 0; 
....................    //RESERVE_MIN_FLAG = 0; 
....................    //RESERVE_TARGET_FLAG = 0; 
....................    //MISSION_CONTENTS = 0; 
....................    //MISSION_DETAIL = 0; 
....................    Kill_FLAG_MAIN = 0; 
0C7A4:  CLRF   x6B
....................    Kill_FLAG_FAB = 0; 
0C7A6:  CLRF   x6C
....................    FIRST_HSSC_DONE = 0; 
0C7A8:  CLRF   x6D
....................    AUTO_CAM_DONE = 0; 
0C7AA:  CLRF   x6E
....................    AUTO_LDM_DONE = 0; 
0C7AC:  CLRF   x6F
....................    AUTO_ADCS_DONE = 0; 
0C7AE:  CLRF   x70
....................    //ANT_DEP_STATUS = 0; 
....................    UPLINK_SUCCESS = 0; 
0C7B0:  CLRF   x72
....................    STORE_FLAG_INFO(); 
0C7B2:  CALL   50A4
....................    WRITE_FLAG_to_EEPROM(); 
0C7B6:  CALL   52B4
....................    return; 
0C7BA:  GOTO   CB90 (RETURN)
.................... } 
....................  
.................... void READ_WRTITING_ADDRESS_LOCATION() 
.................... { 
....................    int i; 
....................    int8 ad_location_bfr[4]; 
....................    output_low(PIN_C4); 
*
01284:  BCF    F94.4
01286:  BCF    F8B.4
....................    output_low(PIN_A5); 
01288:  BCF    F92.5
0128A:  BCF    F89.5
....................    if(READ_DATA_BYTE_OF(0) == 0xff)//this means there is no address data in OBC Flash 
0128C:  MOVLB  2
0128E:  CLRF   xDC
01290:  CLRF   xDB
01292:  CLRF   xDA
01294:  CLRF   xD9
01296:  MOVLB  0
01298:  RCALL  0DBE
0129A:  INCFSZ 01,W
0129C:  BRA    1396
....................    { 
....................       if(READ_DATA_BYTE_SCF(0) == 0xff)//this means there is no address data in Shared COM Flash 
0129E:  MOVLB  2
012A0:  CLRF   xC3
012A2:  CLRF   xC2
012A4:  CLRF   xC1
012A6:  CLRF   xC0
012A8:  MOVLB  0
012AA:  RCALL  0E76
012AC:  INCFSZ 01,W
012AE:  BRA    1336
....................       { 
....................          if(READ_DATA_BYTE_SMF(0) == 0xff)//if all memory was empty, location should be initial value 
012B0:  MOVLB  2
012B2:  CLRF   xC3
012B4:  CLRF   xC2
012B6:  CLRF   xC1
012B8:  CLRF   xC0
012BA:  MOVLB  0
012BC:  RCALL  0F2E
012BE:  INCFSZ 01,W
012C0:  BRA    12D6
....................          { 
....................             TAKE_AD_INFO_from_EEPROM();//if inside of eeprom is also empty, use the initial value 
012C2:  BRA    0FAA
....................             ad_location_bfr[0] = ADD_INFO_ADDRESS >> 24; 
012C4:  MOVFF  32,2A2
....................             ad_location_bfr[1] = ADD_INFO_ADDRESS >> 16; 
012C8:  MOVFF  31,2A3
....................             ad_location_bfr[2] = ADD_INFO_ADDRESS >> 8; 
012CC:  MOVFF  30,2A4
....................             ad_location_bfr[3] = ADD_INFO_ADDRESS; 
012D0:  MOVFF  2F,2A5
....................          }else{ 
012D4:  BRA    1334
....................             ad_location_bfr[0] = READ_DATA_BYTE_SMF(0); 
012D6:  MOVLB  2
012D8:  CLRF   xC3
012DA:  CLRF   xC2
012DC:  CLRF   xC1
012DE:  CLRF   xC0
012E0:  MOVLB  0
012E2:  RCALL  0F2E
012E4:  MOVFF  01,2A2
....................             ad_location_bfr[1] = READ_DATA_BYTE_SMF(1); 
012E8:  MOVLB  2
012EA:  CLRF   xC3
012EC:  CLRF   xC2
012EE:  CLRF   xC1
012F0:  MOVLW  01
012F2:  MOVWF  xC0
012F4:  MOVLB  0
012F6:  RCALL  0F2E
012F8:  MOVFF  01,2A3
....................             ad_location_bfr[2] = READ_DATA_BYTE_SMF(2); 
012FC:  MOVLB  2
012FE:  CLRF   xC3
01300:  CLRF   xC2
01302:  CLRF   xC1
01304:  MOVLW  02
01306:  MOVWF  xC0
01308:  MOVLB  0
0130A:  RCALL  0F2E
0130C:  MOVFF  01,2A4
....................             ad_location_bfr[3] = READ_DATA_BYTE_SMF(3); 
01310:  MOVLB  2
01312:  CLRF   xC3
01314:  CLRF   xC2
01316:  CLRF   xC1
01318:  MOVLW  03
0131A:  MOVWF  xC0
0131C:  MOVLB  0
0131E:  RCALL  0F2E
01320:  MOVFF  01,2A5
....................             ADD_INFO_ADDRESS = make32(ad_location_bfr[0],ad_location_bfr[1],ad_location_bfr[2],ad_location_bfr[3]); 
01324:  MOVFF  2A2,32
01328:  MOVFF  2A3,31
0132C:  MOVFF  2A4,30
01330:  MOVFF  2A5,2F
....................          } 
....................       }else{ 
01334:  BRA    1394
....................          ad_location_bfr[0] = READ_DATA_BYTE_SCF(0); 
01336:  MOVLB  2
01338:  CLRF   xC3
0133A:  CLRF   xC2
0133C:  CLRF   xC1
0133E:  CLRF   xC0
01340:  MOVLB  0
01342:  RCALL  0E76
01344:  MOVFF  01,2A2
....................          ad_location_bfr[1] = READ_DATA_BYTE_SCF(1); 
01348:  MOVLB  2
0134A:  CLRF   xC3
0134C:  CLRF   xC2
0134E:  CLRF   xC1
01350:  MOVLW  01
01352:  MOVWF  xC0
01354:  MOVLB  0
01356:  RCALL  0E76
01358:  MOVFF  01,2A3
....................          ad_location_bfr[2] = READ_DATA_BYTE_SCF(2); 
0135C:  MOVLB  2
0135E:  CLRF   xC3
01360:  CLRF   xC2
01362:  CLRF   xC1
01364:  MOVLW  02
01366:  MOVWF  xC0
01368:  MOVLB  0
0136A:  RCALL  0E76
0136C:  MOVFF  01,2A4
....................          ad_location_bfr[3] = READ_DATA_BYTE_SCF(3); 
01370:  MOVLB  2
01372:  CLRF   xC3
01374:  CLRF   xC2
01376:  CLRF   xC1
01378:  MOVLW  03
0137A:  MOVWF  xC0
0137C:  MOVLB  0
0137E:  RCALL  0E76
01380:  MOVFF  01,2A5
....................          ADD_INFO_ADDRESS = make32(ad_location_bfr[0],ad_location_bfr[1],ad_location_bfr[2],ad_location_bfr[3]); 
01384:  MOVFF  2A2,32
01388:  MOVFF  2A3,31
0138C:  MOVFF  2A4,30
01390:  MOVFF  2A5,2F
....................       } 
....................    }else{ 
01394:  BRA    13F4
....................       ad_location_bfr[0] = READ_DATA_BYTE_OF(0); 
01396:  MOVLB  2
01398:  CLRF   xDC
0139A:  CLRF   xDB
0139C:  CLRF   xDA
0139E:  CLRF   xD9
013A0:  MOVLB  0
013A2:  RCALL  0DBE
013A4:  MOVFF  01,2A2
....................       ad_location_bfr[1] = READ_DATA_BYTE_OF(1); 
013A8:  MOVLB  2
013AA:  CLRF   xDC
013AC:  CLRF   xDB
013AE:  CLRF   xDA
013B0:  MOVLW  01
013B2:  MOVWF  xD9
013B4:  MOVLB  0
013B6:  RCALL  0DBE
013B8:  MOVFF  01,2A3
....................       ad_location_bfr[2] = READ_DATA_BYTE_OF(2); 
013BC:  MOVLB  2
013BE:  CLRF   xDC
013C0:  CLRF   xDB
013C2:  CLRF   xDA
013C4:  MOVLW  02
013C6:  MOVWF  xD9
013C8:  MOVLB  0
013CA:  RCALL  0DBE
013CC:  MOVFF  01,2A4
....................       ad_location_bfr[3] = READ_DATA_BYTE_OF(3); 
013D0:  MOVLB  2
013D2:  CLRF   xDC
013D4:  CLRF   xDB
013D6:  CLRF   xDA
013D8:  MOVLW  03
013DA:  MOVWF  xD9
013DC:  MOVLB  0
013DE:  RCALL  0DBE
013E0:  MOVFF  01,2A5
....................       ADD_INFO_ADDRESS = make32(ad_location_bfr[0],ad_location_bfr[1],ad_location_bfr[2],ad_location_bfr[3]); 
013E4:  MOVFF  2A2,32
013E8:  MOVFF  2A3,31
013EC:  MOVFF  2A4,30
013F0:  MOVFF  2A5,2F
....................    } 
....................     
....................    for(i = 0; i < 4; i++)//store the subsector(location) information 
013F4:  MOVLB  2
013F6:  CLRF   xA1
013F8:  MOVF   xA1,W
013FA:  SUBLW  03
013FC:  BNC   1468
....................    { 
....................       WRITE_DATA_BYTE_OF(i,ad_location_bfr[i]); 
013FE:  CLRF   03
01400:  MOVF   xA1,W
01402:  ADDLW  A2
01404:  MOVWF  FE9
01406:  MOVLW  02
01408:  ADDWFC 03,W
0140A:  MOVWF  FEA
0140C:  MOVFF  FEF,2D7
01410:  CLRF   xD6
01412:  CLRF   xD5
01414:  CLRF   xD4
01416:  MOVFF  2A1,2D3
0141A:  MOVLB  0
0141C:  RCALL  1080
....................       WRITE_DATA_BYTE_SCF(i,ad_location_bfr[i]); 
0141E:  CLRF   03
01420:  MOVLB  2
01422:  MOVF   xA1,W
01424:  ADDLW  A2
01426:  MOVWF  FE9
01428:  MOVLW  02
0142A:  ADDWFC 03,W
0142C:  MOVWF  FEA
0142E:  MOVFF  FEF,2D7
01432:  CLRF   xD6
01434:  CLRF   xD5
01436:  CLRF   xD4
01438:  MOVFF  2A1,2D3
0143C:  MOVLB  0
0143E:  RCALL  110C
....................       WRITE_DATA_BYTE_SMF(i,ad_location_bfr[i]); 
01440:  CLRF   03
01442:  MOVLB  2
01444:  MOVF   xA1,W
01446:  ADDLW  A2
01448:  MOVWF  FE9
0144A:  MOVLW  02
0144C:  ADDWFC 03,W
0144E:  MOVWF  FEA
01450:  MOVFF  FEF,2D7
01454:  CLRF   xD6
01456:  CLRF   xD5
01458:  CLRF   xD4
0145A:  MOVFF  2A1,2D3
0145E:  MOVLB  0
01460:  RCALL  1198
01462:  MOVLB  2
01464:  INCF   xA1,F
01466:  BRA    13F8
....................    } 
....................    output_high(PIN_C4); 
01468:  BCF    F94.4
0146A:  BSF    F8B.4
....................    fprintf(PC,"\r\nadd:%lx\r\n",ADD_INFO_ADDRESS); 
0146C:  MOVLW  7E
0146E:  MOVWF  FF6
01470:  MOVLW  04
01472:  MOVWF  FF7
01474:  MOVLW  00
01476:  MOVWF  FF8
01478:  MOVLW  06
0147A:  MOVWF  xD2
0147C:  MOVLB  0
0147E:  RCALL  120C
01480:  MOVFF  32,2D3
01484:  MOVLW  57
01486:  MOVLB  2
01488:  MOVWF  xD4
0148A:  MOVLB  0
0148C:  RCALL  123E
0148E:  MOVFF  31,2D3
01492:  MOVLW  57
01494:  MOVLB  2
01496:  MOVWF  xD4
01498:  MOVLB  0
0149A:  RCALL  123E
0149C:  MOVFF  30,2D3
014A0:  MOVLW  57
014A2:  MOVLB  2
014A4:  MOVWF  xD4
014A6:  MOVLB  0
014A8:  RCALL  123E
014AA:  MOVFF  2F,2D3
014AE:  MOVLW  57
014B0:  MOVLB  2
014B2:  MOVWF  xD4
014B4:  MOVLB  0
014B6:  RCALL  123E
014B8:  MOVLW  0D
014BA:  BTFSS  F9E.4
014BC:  BRA    14BA
014BE:  MOVWF  FAD
014C0:  MOVLW  0A
014C2:  BTFSS  F9E.4
014C4:  BRA    14C2
014C6:  MOVWF  FAD
....................    return; 
014C8:  GOTO   2F26 (RETURN)
.................... } 
....................  
.................... void CHANGE_ADDRESS_WRITING_LOCATION() 
*
0251E:  MOVLW  25
02520:  ADDWF  2F,W
02522:  MOVLB  2
02524:  MOVWF  xD2
02526:  MOVLW  00
02528:  ADDWFC 30,W
0252A:  MOVWF  xD3
0252C:  MOVLW  00
0252E:  ADDWFC 31,W
02530:  MOVWF  xD4
02532:  MOVLW  00
02534:  ADDWFC 32,W
02536:  MOVWF  xD5
02538:  MOVWF  xDC
0253A:  MOVFF  2D4,2DB
0253E:  MOVFF  2D3,2DA
02542:  MOVFF  2D2,2D9
02546:  MOVLB  0
02548:  CALL   0DBE
0254C:  MOVFF  01,2D2
02550:  MOVLW  26
02552:  ADDWF  2F,W
02554:  MOVLB  2
02556:  MOVWF  xD3
02558:  MOVLW  00
0255A:  ADDWFC 30,W
0255C:  MOVWF  xD4
0255E:  MOVLW  00
02560:  ADDWFC 31,W
02562:  MOVWF  xD5
02564:  MOVLW  00
02566:  ADDWFC 32,W
02568:  MOVWF  xD6
0256A:  MOVWF  xDC
0256C:  MOVFF  2D5,2DB
02570:  MOVFF  2D4,2DA
02574:  MOVFF  2D3,2D9
02578:  MOVLB  0
0257A:  CALL   0DBE
0257E:  MOVFF  01,2D3
02582:  MOVLW  27
02584:  ADDWF  2F,W
02586:  MOVLB  2
02588:  MOVWF  xD4
0258A:  MOVLW  00
0258C:  ADDWFC 30,W
0258E:  MOVWF  xD5
02590:  MOVLW  00
02592:  ADDWFC 31,W
02594:  MOVWF  xD6
02596:  MOVLW  00
02598:  ADDWFC 32,W
0259A:  MOVWF  xD7
0259C:  MOVWF  xDC
0259E:  MOVFF  2D6,2DB
025A2:  MOVFF  2D5,2DA
025A6:  MOVFF  2D4,2D9
025AA:  MOVLB  0
025AC:  CALL   0DBE
025B0:  MOVFF  01,2D4
025B4:  MOVLW  28
025B6:  ADDWF  2F,W
025B8:  MOVLB  2
025BA:  MOVWF  xD5
025BC:  MOVLW  00
025BE:  ADDWFC 30,W
025C0:  MOVWF  xD6
025C2:  MOVLW  00
025C4:  ADDWFC 31,W
025C6:  MOVWF  xD7
025C8:  MOVLW  00
025CA:  ADDWFC 32,W
025CC:  MOVWF  xD8
025CE:  MOVWF  xDC
025D0:  MOVFF  2D7,2DB
025D4:  MOVFF  2D6,2DA
025D8:  MOVFF  2D5,2D9
025DC:  MOVLB  0
025DE:  CALL   0DBE
025E2:  MOVFF  2D2,2CC
025E6:  MOVFF  2D3,2CB
025EA:  MOVFF  2D4,2CA
025EE:  MOVFF  01,2C9
.................... { 
....................    int32 AD_COUNTER = make32(READ_DATA_BYTE_OF(ADD_INFO_ADDRESS+37),READ_DATA_BYTE_OF(ADD_INFO_ADDRESS+38),READ_DATA_BYTE_OF(ADD_INFO_ADDRESS+39),READ_DATA_BYTE_OF(ADD_INFO_ADDRESS+40));//check counter value 
....................    fprintf(PC,"AD COUNTER:%lx\r\n",AD_COUNTER); 
025F2:  MOVLW  8A
025F4:  MOVWF  FF6
025F6:  MOVLW  04
025F8:  MOVWF  FF7
025FA:  MOVLW  00
025FC:  MOVWF  FF8
025FE:  MOVLW  0B
02600:  MOVLB  2
02602:  MOVWF  xD2
02604:  MOVLB  0
02606:  CALL   120C
0260A:  MOVFF  2CC,2D3
0260E:  MOVLW  57
02610:  MOVLB  2
02612:  MOVWF  xD4
02614:  MOVLB  0
02616:  CALL   123E
0261A:  MOVFF  2CB,2D3
0261E:  MOVLW  57
02620:  MOVLB  2
02622:  MOVWF  xD4
02624:  MOVLB  0
02626:  CALL   123E
0262A:  MOVFF  2CA,2D3
0262E:  MOVLW  57
02630:  MOVLB  2
02632:  MOVWF  xD4
02634:  MOVLB  0
02636:  CALL   123E
0263A:  MOVFF  2C9,2D3
0263E:  MOVLW  57
02640:  MOVLB  2
02642:  MOVWF  xD4
02644:  MOVLB  0
02646:  CALL   123E
0264A:  MOVLW  0D
0264C:  BTFSS  F9E.4
0264E:  BRA    264C
02650:  MOVWF  FAD
02652:  MOVLW  0A
02654:  BTFSS  F9E.4
02656:  BRA    2654
02658:  MOVWF  FAD
....................    if((AD_COUNTER > 95000) && (AD_COUNTER != 0xffffffff)) 
0265A:  MOVLB  2
0265C:  MOVF   xCC,F
0265E:  BNZ   2680
02660:  MOVF   xCB,W
02662:  SUBLW  00
02664:  BTFSC  FD8.0
02666:  BRA    27E2
02668:  XORLW  FF
0266A:  BNZ   2680
0266C:  MOVF   xCA,W
0266E:  SUBLW  72
02670:  BTFSC  FD8.0
02672:  BRA    27E2
02674:  XORLW  FF
02676:  BNZ   2680
02678:  MOVF   xC9,W
0267A:  SUBLW  18
0267C:  BTFSC  FD8.0
0267E:  BRA    27E2
02680:  INCFSZ xC9,W
02682:  BRA    2692
02684:  INCFSZ xCA,W
02686:  BRA    2692
02688:  INCFSZ xCB,W
0268A:  BRA    2692
0268C:  INCFSZ xCC,W
0268E:  BRA    2692
02690:  BRA    27E2
....................    { 
....................       output_low(PIN_A5);//CAM_MUX MAINSIDE 
02692:  BCF    F92.5
02694:  BCF    F89.5
....................       output_low(PIN_C4);//COM_MUX MAINSIDE 
02696:  BCF    F94.4
02698:  BCF    F8B.4
....................       SUBSECTOR_4KB_ERASE_OF(0); 
0269A:  CLRF   xD5
0269C:  CLRF   xD4
0269E:  CLRF   xD3
026A0:  CLRF   xD2
026A2:  MOVLB  0
026A4:  RCALL  2338
....................       SUBSECTOR_4KB_ERASE_SCF(0); 
026A6:  MOVLB  2
026A8:  CLRF   xD5
026AA:  CLRF   xD4
026AC:  CLRF   xD3
026AE:  CLRF   xD2
026B0:  MOVLB  0
026B2:  RCALL  23C8
....................       SUBSECTOR_4KB_ERASE_SMF(0); 
026B4:  MOVLB  2
026B6:  CLRF   xD5
026B8:  CLRF   xD4
026BA:  CLRF   xD3
026BC:  CLRF   xD2
026BE:  MOVLB  0
026C0:  RCALL  2458
....................       ADDRESS_WRITING_COUNTER = 0;//reset counter 
026C2:  CLRF   36
026C4:  CLRF   35
026C6:  CLRF   34
026C8:  CLRF   33
....................       ADD_INFO_ADDRESS = ADD_INFO_ADDRESS + 0x00001000;//use next subsector 
026CA:  MOVLW  10
026CC:  ADDWF  30,F
026CE:  MOVLW  00
026D0:  ADDWFC 31,F
026D2:  ADDWFC 32,F
....................       output_high(PIN_C4);//COM_MUX COMSIDE 
026D4:  BCF    F94.4
026D6:  BSF    F8B.4
....................        
....................       unsigned int8 address_place[4] = {}; 
026D8:  MOVLB  2
026DA:  CLRF   xCD
026DC:  CLRF   xCE
026DE:  CLRF   xCF
026E0:  CLRF   xD0
....................       address_place[0] = ADD_INFO_ADDRESS >> 24; 
026E2:  MOVFF  32,2CD
....................       address_place[1] = ADD_INFO_ADDRESS >> 16; 
026E6:  MOVFF  31,2CE
....................       address_place[2] = ADD_INFO_ADDRESS >> 8; 
026EA:  MOVFF  30,2CF
....................       address_place[3] = ADD_INFO_ADDRESS; 
026EE:  MOVFF  2F,2D0
....................        
....................       output_low(PIN_A5);//CAM_MUX MAINSIDE 
026F2:  BCF    F92.5
026F4:  BCF    F89.5
....................       output_low(PIN_C4);//COM_MUX MAINSIDE 
026F6:  BCF    F94.4
026F8:  BCF    F8B.4
....................       for(int i = 0; i < 4; i++)//store the subsector(location) information 
026FA:  CLRF   xD1
026FC:  MOVF   xD1,W
026FE:  SUBLW  03
02700:  BNC   278A
....................       { 
....................          WRITE_DATA_BYTE_OF(i,address_place[i]); 
02702:  CLRF   03
02704:  MOVF   xD1,W
02706:  ADDLW  CD
02708:  MOVWF  FE9
0270A:  MOVLW  02
0270C:  ADDWFC 03,W
0270E:  MOVWF  FEA
02710:  MOVFF  FEF,2D7
02714:  CLRF   xD6
02716:  CLRF   xD5
02718:  CLRF   xD4
0271A:  MOVFF  2D1,2D3
0271E:  MOVLB  0
02720:  CALL   1080
....................          delay_us(10); 
02724:  MOVLW  0D
02726:  MOVWF  00
02728:  DECFSZ 00,F
0272A:  BRA    2728
....................          WRITE_DATA_BYTE_SCF(i,address_place[i]); 
0272C:  CLRF   03
0272E:  MOVLB  2
02730:  MOVF   xD1,W
02732:  ADDLW  CD
02734:  MOVWF  FE9
02736:  MOVLW  02
02738:  ADDWFC 03,W
0273A:  MOVWF  FEA
0273C:  MOVFF  FEF,2D7
02740:  CLRF   xD6
02742:  CLRF   xD5
02744:  CLRF   xD4
02746:  MOVFF  2D1,2D3
0274A:  MOVLB  0
0274C:  CALL   110C
....................          delay_us(10); 
02750:  MOVLW  0D
02752:  MOVWF  00
02754:  DECFSZ 00,F
02756:  BRA    2754
....................          WRITE_DATA_BYTE_SMF(i,address_place[i]); 
02758:  CLRF   03
0275A:  MOVLB  2
0275C:  MOVF   xD1,W
0275E:  ADDLW  CD
02760:  MOVWF  FE9
02762:  MOVLW  02
02764:  ADDWFC 03,W
02766:  MOVWF  FEA
02768:  MOVFF  FEF,2D7
0276C:  CLRF   xD6
0276E:  CLRF   xD5
02770:  CLRF   xD4
02772:  MOVFF  2D1,2D3
02776:  MOVLB  0
02778:  CALL   1198
....................          delay_us(10); 
0277C:  MOVLW  0D
0277E:  MOVWF  00
02780:  DECFSZ 00,F
02782:  BRA    2780
02784:  MOVLB  2
02786:  INCF   xD1,F
02788:  BRA    26FC
....................       } 
....................       output_high(PIN_C4);//COM_MUX COMSIDE 
0278A:  BCF    F94.4
0278C:  BSF    F8B.4
....................        
....................       fprintf(PC,"CHANGE MEMORY ADDRESS:"); 
0278E:  MOVLW  9C
02790:  MOVWF  FF6
02792:  MOVLW  04
02794:  MOVWF  FF7
02796:  MOVLW  00
02798:  MOVWF  FF8
0279A:  MOVLB  0
0279C:  RCALL  24F4
....................       for(i = 0; i < 4; i++)//store the subsector(location) information 
0279E:  MOVLB  2
027A0:  CLRF   xD1
027A2:  MOVF   xD1,W
027A4:  SUBLW  03
027A6:  BNC   27D2
....................       { 
....................          fprintf(PC,"%x",READ_DATA_BYTE_OF(i)); 
027A8:  CLRF   xDC
027AA:  CLRF   xDB
027AC:  CLRF   xDA
027AE:  MOVFF  2D1,2D9
027B2:  MOVLB  0
027B4:  CALL   0DBE
027B8:  MOVFF  01,2D2
027BC:  MOVFF  01,2D3
027C0:  MOVLW  57
027C2:  MOVLB  2
027C4:  MOVWF  xD4
027C6:  MOVLB  0
027C8:  CALL   123E
027CC:  MOVLB  2
027CE:  INCF   xD1,F
027D0:  BRA    27A2
....................       } 
....................       fprintf(PC,"\r\n"); 
027D2:  MOVLW  0D
027D4:  BTFSS  F9E.4
027D6:  BRA    27D4
027D8:  MOVWF  FAD
027DA:  MOVLW  0A
027DC:  BTFSS  F9E.4
027DE:  BRA    27DC
027E0:  MOVWF  FAD
....................    } 
....................     
....................    return; 
027E2:  MOVLB  0
027E4:  RETURN 0
.................... } 
....................  
.................... void TAKE_FLAG_INFO_FROM_OF() 
.................... { 
....................    for(int8 num = 0; num < FLAG_INFO_SIZE; num++) 
*
014CC:  MOVLB  2
014CE:  CLRF   xA3
014D0:  MOVF   xA3,W
014D2:  SUBLW  0F
014D4:  BNC   1526
....................    { 
....................       flag_info_bffr[num] = READ_DATA_BYTE_OF(FLAG_DATA_ADDRESS + num); 
014D6:  CLRF   03
014D8:  MOVF   xA3,W
014DA:  ADDLW  15
014DC:  MOVWF  01
014DE:  MOVLW  01
014E0:  ADDWFC 03,F
014E2:  MOVFF  01,2A4
014E6:  MOVFF  03,2A5
014EA:  MOVF   xA3,W
014EC:  ADDWF  37,W
014EE:  MOVWF  xA6
014F0:  MOVLW  00
014F2:  ADDWFC 38,W
014F4:  MOVWF  xA7
014F6:  MOVLW  00
014F8:  ADDWFC 39,W
014FA:  MOVWF  xA8
014FC:  MOVLW  00
014FE:  ADDWFC 3A,W
01500:  MOVWF  xA9
01502:  MOVWF  xDC
01504:  MOVFF  2A8,2DB
01508:  MOVFF  2A7,2DA
0150C:  MOVFF  2A6,2D9
01510:  MOVLB  0
01512:  RCALL  0DBE
01514:  MOVFF  2A5,FEA
01518:  MOVFF  2A4,FE9
0151C:  MOVFF  01,FEF
01520:  MOVLB  2
01522:  INCF   xA3,F
01524:  BRA    14D0
....................       //delay_ms(1); 
....................    } 
....................    return; 
01526:  MOVLB  0
01528:  GOTO   1CB8 (RETURN)
.................... } 
....................  
.................... void STORE_ADRESS_DATA_TO_FLASH() 
.................... { 
....................    fprintf(PC,"Start Storeing\r\n"); 
*
02ABA:  MOVLW  B4
02ABC:  MOVWF  FF6
02ABE:  MOVLW  04
02AC0:  MOVWF  FF7
02AC2:  MOVLW  00
02AC4:  MOVWF  FF8
02AC6:  RCALL  24F4
....................    ADDRESS_WRITING_COUNTER++; 
02AC8:  MOVLW  01
02ACA:  ADDWF  33,F
02ACC:  BTFSC  FD8.0
02ACE:  INCF   34,F
02AD0:  BTFSC  FD8.2
02AD2:  INCF   35,F
02AD4:  BTFSC  FD8.2
02AD6:  INCF   36,F
....................    CHANGE_ADDRESS_WRITING_LOCATION();//if write over 30000 times, change the address info location 
02AD8:  RCALL  251E
....................    sec_add_bfr[0] = FLAG_DATA_ADDRESS >> 24; 
02ADA:  MOVFF  3A,EC
....................    sec_add_bfr[1] = FLAG_DATA_ADDRESS >> 16; 
02ADE:  MOVFF  39,ED
....................    sec_add_bfr[2] = FLAG_DATA_ADDRESS >> 8; 
02AE2:  MOVFF  38,EE
....................    sec_add_bfr[3] = FLAG_DATA_ADDRESS; 
02AE6:  MOVFF  37,EF
....................        
....................    sec_add_bfr[4] = RSV_DATA_ADDRESS >> 24; 
02AEA:  MOVFF  3E,F0
....................    sec_add_bfr[5] = RSV_DATA_ADDRESS >> 16; 
02AEE:  MOVFF  3D,F1
....................    sec_add_bfr[6] = RSV_DATA_ADDRESS >> 8; 
02AF2:  MOVFF  3C,F2
....................    sec_add_bfr[7] = RSV_DATA_ADDRESS; 
02AF6:  MOVFF  3B,F3
....................     
....................    sec_add_bfr[8] = SAT_LOG >> 24; 
02AFA:  MOVFF  42,F4
....................    sec_add_bfr[9] = SAT_LOG >> 16; 
02AFE:  MOVFF  41,F5
....................    sec_add_bfr[10] = SAT_LOG >> 8; 
02B02:  MOVFF  40,F6
....................    sec_add_bfr[11] = SAT_LOG; 
02B06:  MOVFF  3F,F7
....................     
....................    sec_add_bfr[12] = CAM_ADDRESS >> 24; 
02B0A:  MOVFF  46,F8
....................    sec_add_bfr[13] = CAM_ADDRESS >> 16; 
02B0E:  MOVFF  45,F9
....................    sec_add_bfr[14] = CAM_ADDRESS >> 8; 
02B12:  MOVFF  44,FA
....................    sec_add_bfr[15] = CAM_ADDRESS; 
02B16:  MOVFF  43,FB
....................     
....................    sec_add_bfr[16] = FAB_HK_ADDRESS >> 24; 
02B1A:  MOVFF  4A,FC
....................    sec_add_bfr[17] = FAB_HK_ADDRESS >> 16; 
02B1E:  MOVFF  49,FD
....................    sec_add_bfr[18] = FAB_HK_ADDRESS >> 8; 
02B22:  MOVFF  48,FE
....................    sec_add_bfr[19] = FAB_HK_ADDRESS; 
02B26:  MOVFF  47,FF
....................     
....................    sec_add_bfr[20] = FAB_CW_ADDRESS >> 24; 
02B2A:  MOVFF  4E,100
....................    sec_add_bfr[21] = FAB_CW_ADDRESS >> 16; 
02B2E:  MOVFF  4D,101
....................    sec_add_bfr[22] = FAB_CW_ADDRESS >> 8; 
02B32:  MOVFF  4C,102
....................    sec_add_bfr[23] = FAB_CW_ADDRESS; 
02B36:  MOVFF  4B,103
....................     
....................    sec_add_bfr[24] = ADCS_SENSOR_ADDRESS >> 24; 
02B3A:  MOVFF  52,104
....................    sec_add_bfr[25] = ADCS_SENSOR_ADDRESS >> 16; 
02B3E:  MOVFF  51,105
....................    sec_add_bfr[26] = ADCS_SENSOR_ADDRESS >> 8; 
02B42:  MOVFF  50,106
....................    sec_add_bfr[27] = ADCS_SENSOR_ADDRESS; 
02B46:  MOVFF  4F,107
....................     
....................    sec_add_bfr[28] = DC_STATUS_ADDRESS >> 24; 
02B4A:  MOVFF  56,108
....................    sec_add_bfr[29] = DC_STATUS_ADDRESS >> 16; 
02B4E:  MOVFF  55,109
....................    sec_add_bfr[30] = DC_STATUS_ADDRESS >> 8; 
02B52:  MOVFF  54,10A
....................    sec_add_bfr[31] = DC_STATUS_ADDRESS; 
02B56:  MOVFF  53,10B
....................     
....................    sec_add_bfr[32] = HIGH_SAMP_HK_ADDRESS >> 24; 
02B5A:  MOVFF  5A,10C
....................    sec_add_bfr[33] = HIGH_SAMP_HK_ADDRESS >> 16; 
02B5E:  MOVFF  59,10D
....................    sec_add_bfr[34] = HIGH_SAMP_HK_ADDRESS >> 8; 
02B62:  MOVFF  58,10E
....................    sec_add_bfr[35] = HIGH_SAMP_HK_ADDRESS; 
02B66:  MOVFF  57,10F
....................     
....................    sec_add_bfr[36] = BC_ATTEMPT_FLAG; 
02B6A:  MOVFF  63,110
....................     
....................    sec_add_bfr[37] = ADDRESS_WRITING_COUNTER >> 24; 
02B6E:  MOVFF  36,111
....................    sec_add_bfr[38] = ADDRESS_WRITING_COUNTER >> 16; 
02B72:  MOVFF  35,112
....................    sec_add_bfr[39] = ADDRESS_WRITING_COUNTER >> 8; 
02B76:  MOVFF  34,113
....................    sec_add_bfr[40] = ADDRESS_WRITING_COUNTER; 
02B7A:  MOVFF  33,114
....................     
....................    output_low(PIN_A5);//CAM_MUX MAINSIDE 
02B7E:  BCF    F92.5
02B80:  BCF    F89.5
....................    output_low(PIN_C4);//COM_MUX MAINSIDE 
02B82:  BCF    F94.4
02B84:  BCF    F8B.4
....................    int8 num = 0; 
02B86:  MOVLB  2
02B88:  CLRF   xC8
....................    SUBSECTOR_4KB_ERASE_OF(ADD_INFO_ADDRESS); 
02B8A:  MOVFF  32,2D5
02B8E:  MOVFF  31,2D4
02B92:  MOVFF  30,2D3
02B96:  MOVFF  2F,2D2
02B9A:  MOVLB  0
02B9C:  CALL   2338
....................    delay_ms(200); 
02BA0:  MOVLW  C8
02BA2:  MOVLB  2
02BA4:  MOVWF  xDB
02BA6:  MOVLB  0
02BA8:  CALL   230E
....................    for(num = 0; num < FLASH_ADD_SIZE; num++) 
02BAC:  MOVLB  2
02BAE:  CLRF   xC8
02BB0:  MOVF   xC8,W
02BB2:  SUBLW  28
02BB4:  BNC   2C04
....................    { 
....................       WRITE_DATA_BYTE_OF(ADD_INFO_ADDRESS + num,sec_add_bfr[num]); 
02BB6:  MOVF   xC8,W
02BB8:  ADDWF  2F,W
02BBA:  MOVWF  xC9
02BBC:  MOVLW  00
02BBE:  ADDWFC 30,W
02BC0:  MOVWF  xCA
02BC2:  MOVLW  00
02BC4:  ADDWFC 31,W
02BC6:  MOVWF  xCB
02BC8:  MOVLW  00
02BCA:  ADDWFC 32,W
02BCC:  MOVWF  xCC
02BCE:  CLRF   03
02BD0:  MOVF   xC8,W
02BD2:  ADDLW  EC
02BD4:  MOVWF  FE9
02BD6:  MOVLW  00
02BD8:  ADDWFC 03,W
02BDA:  MOVWF  FEA
02BDC:  MOVFF  FEF,2D7
02BE0:  MOVFF  2CC,2D6
02BE4:  MOVFF  2CB,2D5
02BE8:  MOVFF  2CA,2D4
02BEC:  MOVFF  2C9,2D3
02BF0:  MOVLB  0
02BF2:  CALL   1080
....................       delay_us(10); 
02BF6:  MOVLW  0D
02BF8:  MOVWF  00
02BFA:  DECFSZ 00,F
02BFC:  BRA    2BFA
02BFE:  MOVLB  2
02C00:  INCF   xC8,F
02C02:  BRA    2BB0
....................    } 
....................    SUBSECTOR_4KB_ERASE_SCF(ADD_INFO_ADDRESS); 
02C04:  MOVFF  32,2D5
02C08:  MOVFF  31,2D4
02C0C:  MOVFF  30,2D3
02C10:  MOVFF  2F,2D2
02C14:  MOVLB  0
02C16:  CALL   23C8
....................    delay_ms(200); 
02C1A:  MOVLW  C8
02C1C:  MOVLB  2
02C1E:  MOVWF  xDB
02C20:  MOVLB  0
02C22:  CALL   230E
....................    for(num = 0; num < FLASH_ADD_SIZE; num++) 
02C26:  MOVLB  2
02C28:  CLRF   xC8
02C2A:  MOVF   xC8,W
02C2C:  SUBLW  28
02C2E:  BNC   2C7E
....................    { 
....................       WRITE_DATA_BYTE_SCF(ADD_INFO_ADDRESS + num,sec_add_bfr[num]); 
02C30:  MOVF   xC8,W
02C32:  ADDWF  2F,W
02C34:  MOVWF  xC9
02C36:  MOVLW  00
02C38:  ADDWFC 30,W
02C3A:  MOVWF  xCA
02C3C:  MOVLW  00
02C3E:  ADDWFC 31,W
02C40:  MOVWF  xCB
02C42:  MOVLW  00
02C44:  ADDWFC 32,W
02C46:  MOVWF  xCC
02C48:  CLRF   03
02C4A:  MOVF   xC8,W
02C4C:  ADDLW  EC
02C4E:  MOVWF  FE9
02C50:  MOVLW  00
02C52:  ADDWFC 03,W
02C54:  MOVWF  FEA
02C56:  MOVFF  FEF,2D7
02C5A:  MOVFF  2CC,2D6
02C5E:  MOVFF  2CB,2D5
02C62:  MOVFF  2CA,2D4
02C66:  MOVFF  2C9,2D3
02C6A:  MOVLB  0
02C6C:  CALL   110C
....................       delay_us(10); 
02C70:  MOVLW  0D
02C72:  MOVWF  00
02C74:  DECFSZ 00,F
02C76:  BRA    2C74
02C78:  MOVLB  2
02C7A:  INCF   xC8,F
02C7C:  BRA    2C2A
....................    } 
....................    SUBSECTOR_4KB_ERASE_SMF(ADD_INFO_ADDRESS); 
02C7E:  MOVFF  32,2D5
02C82:  MOVFF  31,2D4
02C86:  MOVFF  30,2D3
02C8A:  MOVFF  2F,2D2
02C8E:  MOVLB  0
02C90:  CALL   2458
....................    delay_ms(200); 
02C94:  MOVLW  C8
02C96:  MOVLB  2
02C98:  MOVWF  xDB
02C9A:  MOVLB  0
02C9C:  CALL   230E
....................    for(num = 0; num < FLASH_ADD_SIZE; num++) 
02CA0:  MOVLB  2
02CA2:  CLRF   xC8
02CA4:  MOVF   xC8,W
02CA6:  SUBLW  28
02CA8:  BNC   2CF8
....................    { 
....................       WRITE_DATA_BYTE_SMF(ADD_INFO_ADDRESS + num,sec_add_bfr[num]); 
02CAA:  MOVF   xC8,W
02CAC:  ADDWF  2F,W
02CAE:  MOVWF  xC9
02CB0:  MOVLW  00
02CB2:  ADDWFC 30,W
02CB4:  MOVWF  xCA
02CB6:  MOVLW  00
02CB8:  ADDWFC 31,W
02CBA:  MOVWF  xCB
02CBC:  MOVLW  00
02CBE:  ADDWFC 32,W
02CC0:  MOVWF  xCC
02CC2:  CLRF   03
02CC4:  MOVF   xC8,W
02CC6:  ADDLW  EC
02CC8:  MOVWF  FE9
02CCA:  MOVLW  00
02CCC:  ADDWFC 03,W
02CCE:  MOVWF  FEA
02CD0:  MOVFF  FEF,2D7
02CD4:  MOVFF  2CC,2D6
02CD8:  MOVFF  2CB,2D5
02CDC:  MOVFF  2CA,2D4
02CE0:  MOVFF  2C9,2D3
02CE4:  MOVLB  0
02CE6:  CALL   1198
....................       delay_us(10); 
02CEA:  MOVLW  0D
02CEC:  MOVWF  00
02CEE:  DECFSZ 00,F
02CF0:  BRA    2CEE
02CF2:  MOVLB  2
02CF4:  INCF   xC8,F
02CF6:  BRA    2CA4
....................    } 
....................    output_high(PIN_C4);//COM_MUX COMSIDE 
02CF8:  BCF    F94.4
02CFA:  BSF    F8B.4
....................    
....................    fprintf(PC,"Storeing ADD DONE:%lx\r\n",ADD_INFO_ADDRESS); 
02CFC:  MOVLW  C6
02CFE:  MOVWF  FF6
02D00:  MOVLW  04
02D02:  MOVWF  FF7
02D04:  MOVLW  00
02D06:  MOVWF  FF8
02D08:  MOVLW  12
02D0A:  MOVWF  xD2
02D0C:  MOVLB  0
02D0E:  CALL   120C
02D12:  MOVFF  32,2D3
02D16:  MOVLW  57
02D18:  MOVLB  2
02D1A:  MOVWF  xD4
02D1C:  MOVLB  0
02D1E:  CALL   123E
02D22:  MOVFF  31,2D3
02D26:  MOVLW  57
02D28:  MOVLB  2
02D2A:  MOVWF  xD4
02D2C:  MOVLB  0
02D2E:  CALL   123E
02D32:  MOVFF  30,2D3
02D36:  MOVLW  57
02D38:  MOVLB  2
02D3A:  MOVWF  xD4
02D3C:  MOVLB  0
02D3E:  CALL   123E
02D42:  MOVFF  2F,2D3
02D46:  MOVLW  57
02D48:  MOVLB  2
02D4A:  MOVWF  xD4
02D4C:  MOVLB  0
02D4E:  CALL   123E
02D52:  MOVLW  0D
02D54:  BTFSS  F9E.4
02D56:  BRA    2D54
02D58:  MOVWF  FAD
02D5A:  MOVLW  0A
02D5C:  BTFSS  F9E.4
02D5E:  BRA    2D5C
02D60:  MOVWF  FAD
....................    return; 
02D62:  RETURN 0
.................... } 
....................  
.................... void TAKE_ADDRESS_DATA_FROM_OF() 
.................... {   
....................     
....................    for(int8 num = 0; num < FLASH_ADD_SIZE; num++) 
*
01D2A:  MOVLB  2
01D2C:  CLRF   xA3
01D2E:  MOVF   xA3,W
01D30:  SUBLW  28
01D32:  BNC   1D86
....................    { 
....................       sec_add_bfr[num] = READ_DATA_BYTE_OF(ADD_INFO_ADDRESS + num); 
01D34:  CLRF   03
01D36:  MOVF   xA3,W
01D38:  ADDLW  EC
01D3A:  MOVWF  01
01D3C:  MOVLW  00
01D3E:  ADDWFC 03,F
01D40:  MOVFF  01,2A4
01D44:  MOVFF  03,2A5
01D48:  MOVF   xA3,W
01D4A:  ADDWF  2F,W
01D4C:  MOVWF  xA6
01D4E:  MOVLW  00
01D50:  ADDWFC 30,W
01D52:  MOVWF  xA7
01D54:  MOVLW  00
01D56:  ADDWFC 31,W
01D58:  MOVWF  xA8
01D5A:  MOVLW  00
01D5C:  ADDWFC 32,W
01D5E:  MOVWF  xA9
01D60:  MOVWF  xDC
01D62:  MOVFF  2A8,2DB
01D66:  MOVFF  2A7,2DA
01D6A:  MOVFF  2A6,2D9
01D6E:  MOVLB  0
01D70:  CALL   0DBE
01D74:  MOVFF  2A5,FEA
01D78:  MOVFF  2A4,FE9
01D7C:  MOVFF  01,FEF
01D80:  MOVLB  2
01D82:  INCF   xA3,F
01D84:  BRA    1D2E
....................    } 
....................    return; 
01D86:  MOVLB  0
01D88:  GOTO   1F06 (RETURN)
.................... } 
....................  
.................... void TAKE_ADDRESS_DATA_FROM_SCF() 
.................... {   
....................    output_low(PIN_C4);   
*
01E2E:  BCF    F94.4
01E30:  BCF    F8B.4
....................    for(int8 num = 0; num < FLASH_ADD_SIZE; num++) 
01E32:  MOVLB  2
01E34:  CLRF   xA3
01E36:  MOVF   xA3,W
01E38:  SUBLW  28
01E3A:  BNC   1E8E
....................    { 
....................       sec_add_bfr[num] = READ_DATA_BYTE_SCF(ADD_INFO_ADDRESS + num); 
01E3C:  CLRF   03
01E3E:  MOVF   xA3,W
01E40:  ADDLW  EC
01E42:  MOVWF  01
01E44:  MOVLW  00
01E46:  ADDWFC 03,F
01E48:  MOVFF  01,2A4
01E4C:  MOVFF  03,2A5
01E50:  MOVF   xA3,W
01E52:  ADDWF  2F,W
01E54:  MOVWF  xA6
01E56:  MOVLW  00
01E58:  ADDWFC 30,W
01E5A:  MOVWF  xA7
01E5C:  MOVLW  00
01E5E:  ADDWFC 31,W
01E60:  MOVWF  xA8
01E62:  MOVLW  00
01E64:  ADDWFC 32,W
01E66:  MOVWF  xA9
01E68:  MOVWF  xC3
01E6A:  MOVFF  2A8,2C2
01E6E:  MOVFF  2A7,2C1
01E72:  MOVFF  2A6,2C0
01E76:  MOVLB  0
01E78:  CALL   0E76
01E7C:  MOVFF  2A5,FEA
01E80:  MOVFF  2A4,FE9
01E84:  MOVFF  01,FEF
01E88:  MOVLB  2
01E8A:  INCF   xA3,F
01E8C:  BRA    1E36
....................    } 
....................    output_high(PIN_C4); 
01E8E:  BCF    F94.4
01E90:  BSF    F8B.4
....................    return; 
01E92:  MOVLB  0
01E94:  GOTO   1F7A (RETURN)
.................... } 
....................  
.................... void TAKE_ADDRESS_DATA_FROM_SMF() 
.................... {   
....................    output_low(PIN_A5);   
01E98:  BCF    F92.5
01E9A:  BCF    F89.5
....................    for(int8 num = 0; num < FLASH_ADD_SIZE; num++) 
01E9C:  MOVLB  2
01E9E:  CLRF   xA3
01EA0:  MOVF   xA3,W
01EA2:  SUBLW  28
01EA4:  BNC   1EF8
....................    { 
....................       sec_add_bfr[num] = READ_DATA_BYTE_SMF(ADD_INFO_ADDRESS + num); 
01EA6:  CLRF   03
01EA8:  MOVF   xA3,W
01EAA:  ADDLW  EC
01EAC:  MOVWF  01
01EAE:  MOVLW  00
01EB0:  ADDWFC 03,F
01EB2:  MOVFF  01,2A4
01EB6:  MOVFF  03,2A5
01EBA:  MOVF   xA3,W
01EBC:  ADDWF  2F,W
01EBE:  MOVWF  xA6
01EC0:  MOVLW  00
01EC2:  ADDWFC 30,W
01EC4:  MOVWF  xA7
01EC6:  MOVLW  00
01EC8:  ADDWFC 31,W
01ECA:  MOVWF  xA8
01ECC:  MOVLW  00
01ECE:  ADDWFC 32,W
01ED0:  MOVWF  xA9
01ED2:  MOVWF  xC3
01ED4:  MOVFF  2A8,2C2
01ED8:  MOVFF  2A7,2C1
01EDC:  MOVFF  2A6,2C0
01EE0:  MOVLB  0
01EE2:  CALL   0F2E
01EE6:  MOVFF  2A5,FEA
01EEA:  MOVFF  2A4,FE9
01EEE:  MOVFF  01,FEF
01EF2:  MOVLB  2
01EF4:  INCF   xA3,F
01EF6:  BRA    1EA0
....................    } 
....................    return; 
01EF8:  MOVLB  0
01EFA:  GOTO   1FF4 (RETURN)
.................... } 
....................  
.................... void MAKE_FLAG_INFO() 
.................... { 
....................    BC_ATTEMPT_FLAG     = flag_info_bffr[0]; 
*
01602:  MOVFF  115,63
....................    PASSED_DAYS         = make16(flag_info_bffr[1],flag_info_bffr[2]); 
01606:  MOVFF  116,65
0160A:  MOVFF  117,64
....................    RESERVE_CHECK       = flag_info_bffr[3]; 
0160E:  MOVFF  118,66
....................    RESERVE_TARGET_FLAG = flag_info_bffr[4]; 
01612:  MOVFF  119,68
....................    RESERVE_MIN_FLAG    = flag_info_bffr[5]; 
01616:  MOVFF  11A,67
....................    MISSION_CONTENTS    = flag_info_bffr[6]; 
0161A:  MOVFF  11B,69
....................    MISSION_DETAIL      = flag_info_bffr[7]; 
0161E:  MOVFF  11C,6A
....................    Kill_FLAG_MAIN      = flag_info_bffr[8]; 
01622:  MOVFF  11D,6B
....................    Kill_FLAG_FAB       = flag_info_bffr[9]; 
01626:  MOVFF  11E,6C
....................    FIRST_HSSC_DONE     = flag_info_bffr[10]; 
0162A:  MOVFF  11F,6D
....................    AUTO_CAM_DONE       = flag_info_bffr[11]; 
0162E:  MOVFF  120,6E
....................    AUTO_LDM_DONE       = flag_info_bffr[12]; 
01632:  MOVFF  121,6F
....................    AUTO_ADCS_DONE      = flag_info_bffr[13]; 
01636:  MOVFF  122,70
....................    ANT_DEP_STATUS      = flag_info_bffr[14]; 
0163A:  MOVFF  123,71
....................    UPLINK_SUCCESS      = flag_info_bffr[15]; 
0163E:  MOVFF  124,72
....................    if(PASSED_DAYS == 0xffff) 
01642:  INCFSZ x64,W
01644:  BRA    1654
01646:  INCFSZ x65,W
01648:  BRA    1654
....................    { 
....................       COLLECT_RESET_DATA(); 
0164A:  RCALL  15BA
....................       PASSED_DAYS = make16(reset_bffr[4],reset_bffr[5]); 
0164C:  MOVFF  E4,65
01650:  MOVFF  E5,64
....................    } 
....................    return; 
01654:  GOTO   1D18 (RETURN)
.................... } 
....................  
.................... void MAKE_ADDRESS_DATA() 
.................... { 
....................  
....................    FLAG_DATA_ADDRESS = make32(sec_add_bfr[0],sec_add_bfr[1],sec_add_bfr[2],sec_add_bfr[3]);//FLAG_DATA_ADDRESS_1 | FLAG_DATA_ADDRESS_2 | FLAG_DATA_ADDRESS_3 | FLAG_DATA_ADDRESS_4; 
*
01D8C:  MOVFF  EC,3A
01D90:  MOVFF  ED,39
01D94:  MOVFF  EE,38
01D98:  MOVFF  EF,37
....................     
....................    RSV_DATA_ADDRESS = make32(sec_add_bfr[4],sec_add_bfr[5],sec_add_bfr[6],sec_add_bfr[7]);//RSV_DATA_ADDRESS_1| RSV_DATA_ADDRESS_2 | RSV_DATA_ADDRESS_3 | RSV_DATA_ADDRESS_4; 
01D9C:  MOVFF  F0,3E
01DA0:  MOVFF  F1,3D
01DA4:  MOVFF  F2,3C
01DA8:  MOVFF  F3,3B
....................     
....................    SAT_LOG = make32(sec_add_bfr[8],sec_add_bfr[9],sec_add_bfr[10],sec_add_bfr[11]);//SAT_LOG_1 | SAT_LOG_2 | SAT_LOG_3 | SAT_LOG_4; 
01DAC:  MOVFF  F4,42
01DB0:  MOVFF  F5,41
01DB4:  MOVFF  F6,40
01DB8:  MOVFF  F7,3F
....................     
....................    CAM_ADDRESS = make32(sec_add_bfr[12],sec_add_bfr[13],sec_add_bfr[14],sec_add_bfr[15]);//CAM_ADDRESS_1 | CAM_ADDRESS_2 | CAM_ADDRESS_3 | CAM_ADDRESS_4; 
01DBC:  MOVFF  F8,46
01DC0:  MOVFF  F9,45
01DC4:  MOVFF  FA,44
01DC8:  MOVFF  FB,43
....................     
....................    FAB_HK_ADDRESS = make32(sec_add_bfr[16],sec_add_bfr[17],sec_add_bfr[18],sec_add_bfr[19]);//FAB_HK_ADDRESS_1 | FAB_HK_ADDRESS_2 | FAB_HK_ADDRESS_3 | FAB_HK_ADDRESS_4; 
01DCC:  MOVFF  FC,4A
01DD0:  MOVFF  FD,49
01DD4:  MOVFF  FE,48
01DD8:  MOVFF  FF,47
....................  
....................    FAB_CW_ADDRESS = make32(sec_add_bfr[20],sec_add_bfr[21],sec_add_bfr[22],sec_add_bfr[23]);//FAB_CW_ADDRESS_1| FAB_CW_ADDRESS_2 | FAB_CW_ADDRESS_3 | FAB_CW_ADDRESS_4; 
01DDC:  MOVFF  100,4E
01DE0:  MOVFF  101,4D
01DE4:  MOVFF  102,4C
01DE8:  MOVFF  103,4B
....................     
....................    ADCS_SENSOR_ADDRESS = make32(sec_add_bfr[24],sec_add_bfr[25],sec_add_bfr[26],sec_add_bfr[27]);//ADCS_SENSOR_ADDRESS_1 | ADCS_SENSOR_ADDRESS_2 | ADCS_SENSOR_ADDRESS_3 | ADCS_SENSOR_ADDRESS_4; 
01DEC:  MOVFF  104,52
01DF0:  MOVFF  105,51
01DF4:  MOVFF  106,50
01DF8:  MOVFF  107,4F
....................     
....................    DC_STATUS_ADDRESS = make32(sec_add_bfr[28],sec_add_bfr[29],sec_add_bfr[30],sec_add_bfr[31]);//DC_STATUS_ADDRESS_1 | DC_STATUS_ADDRESS_2 | DC_STATUS_ADDRESS_3 | DC_STATUS_ADDRESS_4; 
01DFC:  MOVFF  108,56
01E00:  MOVFF  109,55
01E04:  MOVFF  10A,54
01E08:  MOVFF  10B,53
....................     
....................    HIGH_SAMP_HK_ADDRESS = make32(sec_add_bfr[32],sec_add_bfr[33],sec_add_bfr[34],sec_add_bfr[35]);//HIGH_SAMP_HK_ADDRESS = HIGH_SAMP_HK_ADDRESS_1 | HIGH_SAMP_HK_ADDRESS_2 | HIGH_SAMP_HK_ADDRESS_3 | HIGH_SAMP_HK_ADDRESS_4; 
01E0C:  MOVFF  10C,5A
01E10:  MOVFF  10D,59
01E14:  MOVFF  10E,58
01E18:  MOVFF  10F,57
....................     
....................    ADDRESS_WRITING_COUNTER = make32(sec_add_bfr[37],sec_add_bfr[38],sec_add_bfr[39],sec_add_bfr[40]);//ADDRESS_WRITING_COUNTER_1 | ADDRESS_WRITING_COUNTER_2 
01E1C:  MOVFF  111,36
01E20:  MOVFF  112,35
01E24:  MOVFF  113,34
01E28:  MOVFF  114,33
....................     
....................    return; 
01E2C:  RETURN 0
.................... } 
....................  
.................... void CHECK_FLAG_INFO() 
*
01CB0:  MOVLB  2
01CB2:  CLRF   xA1
.................... { 
....................    int8 checksum = 0; 
....................    TAKE_FLAG_INFO_FROM_OF(); 
01CB4:  MOVLB  0
01CB6:  BRA    14CC
....................    for(int8 num = 0; num < FLAG_INFO_SIZE; num++) 
01CB8:  MOVLB  2
01CBA:  CLRF   xA2
01CBC:  MOVF   xA2,W
01CBE:  SUBLW  0F
01CC0:  BNC   1CDA
....................    { 
....................       if(flag_info_bffr[num] == 0xff) 
01CC2:  CLRF   03
01CC4:  MOVF   xA2,W
01CC6:  ADDLW  15
01CC8:  MOVWF  FE9
01CCA:  MOVLW  01
01CCC:  ADDWFC 03,W
01CCE:  MOVWF  FEA
01CD0:  INCFSZ FEF,W
01CD2:  BRA    1CD6
....................       { 
....................          checksum++; 
01CD4:  INCF   xA1,F
....................       } 
01CD6:  INCF   xA2,F
01CD8:  BRA    1CBC
....................    } 
....................    //fprintf(PC,"%d",checksum); 
....................     
....................    if((flag_info_bffr[0]!=0xff)&&(flag_info_bffr[FLAG_INFO_SIZE-1]!=0xff))//if something stored 
01CDA:  MOVLB  1
01CDC:  INCFSZ x15,W
01CDE:  BRA    1CE2
01CE0:  BRA    1D1C
01CE2:  INCFSZ x24,W
01CE4:  BRA    1CE8
01CE6:  BRA    1D1C
....................    { 
....................       for(num = 0; num < FLAG_INFO_SIZE; num++) 
01CE8:  MOVLB  2
01CEA:  CLRF   xA2
01CEC:  MOVF   xA2,W
01CEE:  SUBLW  0F
01CF0:  BNC   1D14
....................       { 
....................          fprintf(PC,"%x",flag_info_bffr[num]); 
01CF2:  CLRF   03
01CF4:  MOVF   xA2,W
01CF6:  ADDLW  15
01CF8:  MOVWF  FE9
01CFA:  MOVLW  01
01CFC:  ADDWFC 03,W
01CFE:  MOVWF  FEA
01D00:  MOVFF  FEF,2D3
01D04:  MOVLW  57
01D06:  MOVWF  xD4
01D08:  MOVLB  0
01D0A:  CALL   123E
01D0E:  MOVLB  2
01D10:  INCF   xA2,F
01D12:  BRA    1CEC
....................       } 
....................       MAKE_FLAG_INFO(); 
01D14:  MOVLB  0
01D16:  BRA    1602
....................    }else{ 
01D18:  BRA    1D20
01D1A:  MOVLB  1
....................       MAKE_FLAG_from_EEPROM(); 
01D1C:  MOVLB  0
01D1E:  BRA    1658
....................    } 
....................    checksum = 0; 
01D20:  MOVLB  2
01D22:  CLRF   xA1
....................    return; 
01D24:  MOVLB  0
01D26:  GOTO   2F2E (RETURN)
.................... } 
....................  
.................... void CHECK_ADDRESS_DATA() 
*
01EFE:  MOVLB  2
01F00:  CLRF   xA1
.................... { 
....................    int8 checksum = 0; 
....................    TAKE_ADDRESS_DATA_FROM_OF(); 
01F02:  MOVLB  0
01F04:  BRA    1D2A
....................    for(int8 num = 37; num < 41; num++)//check the data of last 4 byte 
01F06:  MOVLW  25
01F08:  MOVLB  2
01F0A:  MOVWF  xA2
01F0C:  MOVF   xA2,W
01F0E:  SUBLW  28
01F10:  BNC   1F2A
....................    { 
....................       if(sec_add_bfr[num] == 0xff)//if nothing, count checksum 
01F12:  CLRF   03
01F14:  MOVF   xA2,W
01F16:  ADDLW  EC
01F18:  MOVWF  FE9
01F1A:  MOVLW  00
01F1C:  ADDWFC 03,W
01F1E:  MOVWF  FEA
01F20:  INCFSZ FEF,W
01F22:  BRA    1F26
....................       { 
....................          checksum++; 
01F24:  INCF   xA1,F
....................       } 
01F26:  INCF   xA2,F
01F28:  BRA    1F0C
....................    } 
....................     
....................    if(checksum != 4)//if something stored(if last 4 byte were not 0xff) 
01F2A:  MOVF   xA1,W
01F2C:  SUBLW  04
01F2E:  BZ    1F72
....................    { 
....................       for(num = 0; num < FLASH_ADD_SIZE; num++) 
01F30:  CLRF   xA2
01F32:  MOVF   xA2,W
01F34:  SUBLW  28
01F36:  BNC   1F5A
....................       { 
....................          fprintf(PC,"%x",sec_add_bfr[num]); 
01F38:  CLRF   03
01F3A:  MOVF   xA2,W
01F3C:  ADDLW  EC
01F3E:  MOVWF  FE9
01F40:  MOVLW  00
01F42:  ADDWFC 03,W
01F44:  MOVWF  FEA
01F46:  MOVFF  FEF,2D3
01F4A:  MOVLW  57
01F4C:  MOVWF  xD4
01F4E:  MOVLB  0
01F50:  CALL   123E
01F54:  MOVLB  2
01F56:  INCF   xA2,F
01F58:  BRA    1F32
....................       } 
....................       fprintf(PC,"\r\n"); 
01F5A:  MOVLW  0D
01F5C:  BTFSS  F9E.4
01F5E:  BRA    1F5C
01F60:  MOVWF  FAD
01F62:  MOVLW  0A
01F64:  BTFSS  F9E.4
01F66:  BRA    1F64
01F68:  MOVWF  FAD
....................       MAKE_ADDRESS_DATA(); 
01F6A:  MOVLB  0
01F6C:  RCALL  1D8C
....................    }else{//if there is nothing, check from SCF 
01F6E:  BRA    205E
01F70:  MOVLB  2
....................       output_low(PIN_C4); 
01F72:  BCF    F94.4
01F74:  BCF    F8B.4
....................       TAKE_ADDRESS_DATA_FROM_SCF(); 
01F76:  MOVLB  0
01F78:  BRA    1E2E
....................       output_high(PIN_C4); 
01F7A:  BCF    F94.4
01F7C:  BSF    F8B.4
....................       checksum = 0; 
01F7E:  MOVLB  2
01F80:  CLRF   xA1
....................       for(num = 37; num < 41; num++)//check the data of last 4 byte 
01F82:  MOVLW  25
01F84:  MOVWF  xA2
01F86:  MOVF   xA2,W
01F88:  SUBLW  28
01F8A:  BNC   1FA4
....................       { 
....................          if(sec_add_bfr[num] == 0xff)//if nothing, count checksum 
01F8C:  CLRF   03
01F8E:  MOVF   xA2,W
01F90:  ADDLW  EC
01F92:  MOVWF  FE9
01F94:  MOVLW  00
01F96:  ADDWFC 03,W
01F98:  MOVWF  FEA
01F9A:  INCFSZ FEF,W
01F9C:  BRA    1FA0
....................          { 
....................             checksum++; 
01F9E:  INCF   xA1,F
....................          } 
01FA0:  INCF   xA2,F
01FA2:  BRA    1F86
....................       } 
....................       if(checksum != 4) 
01FA4:  MOVF   xA1,W
01FA6:  SUBLW  04
01FA8:  BZ    1FEC
....................       { 
....................          for(num = 0; num < FLASH_ADD_SIZE; num++) 
01FAA:  CLRF   xA2
01FAC:  MOVF   xA2,W
01FAE:  SUBLW  28
01FB0:  BNC   1FD4
....................          { 
....................             fprintf(PC,"%x",sec_add_bfr[num]); 
01FB2:  CLRF   03
01FB4:  MOVF   xA2,W
01FB6:  ADDLW  EC
01FB8:  MOVWF  FE9
01FBA:  MOVLW  00
01FBC:  ADDWFC 03,W
01FBE:  MOVWF  FEA
01FC0:  MOVFF  FEF,2D3
01FC4:  MOVLW  57
01FC6:  MOVWF  xD4
01FC8:  MOVLB  0
01FCA:  CALL   123E
01FCE:  MOVLB  2
01FD0:  INCF   xA2,F
01FD2:  BRA    1FAC
....................          } 
....................          fprintf(PC,"\r\n"); 
01FD4:  MOVLW  0D
01FD6:  BTFSS  F9E.4
01FD8:  BRA    1FD6
01FDA:  MOVWF  FAD
01FDC:  MOVLW  0A
01FDE:  BTFSS  F9E.4
01FE0:  BRA    1FDE
01FE2:  MOVWF  FAD
....................          MAKE_ADDRESS_DATA(); 
01FE4:  MOVLB  0
01FE6:  RCALL  1D8C
....................       }else{//if there is nothing, check from SMF 
01FE8:  BRA    205E
01FEA:  MOVLB  2
....................          output_low(PIN_A5); 
01FEC:  BCF    F92.5
01FEE:  BCF    F89.5
....................          TAKE_ADDRESS_DATA_FROM_SMF(); 
01FF0:  MOVLB  0
01FF2:  BRA    1E98
....................          checksum = 0; 
01FF4:  MOVLB  2
01FF6:  CLRF   xA1
....................          for(num = 37; num < 41; num++)//check the data of last 4 byte 
01FF8:  MOVLW  25
01FFA:  MOVWF  xA2
01FFC:  MOVF   xA2,W
01FFE:  SUBLW  28
02000:  BNC   201A
....................          { 
....................             if(sec_add_bfr[num] == 0xff)//if nothing, count checksum 
02002:  CLRF   03
02004:  MOVF   xA2,W
02006:  ADDLW  EC
02008:  MOVWF  FE9
0200A:  MOVLW  00
0200C:  ADDWFC 03,W
0200E:  MOVWF  FEA
02010:  INCFSZ FEF,W
02012:  BRA    2016
....................             { 
....................                checksum++; 
02014:  INCF   xA1,F
....................             } 
02016:  INCF   xA2,F
02018:  BRA    1FFC
....................          } 
....................          if(checksum != 4) 
0201A:  MOVF   xA1,W
0201C:  SUBLW  04
0201E:  BZ    2060
....................          { 
....................             for(num = 0; num < FLASH_ADD_SIZE; num++) 
02020:  CLRF   xA2
02022:  MOVF   xA2,W
02024:  SUBLW  28
02026:  BNC   204A
....................             { 
....................                fprintf(PC,"%x",sec_add_bfr[num]); 
02028:  CLRF   03
0202A:  MOVF   xA2,W
0202C:  ADDLW  EC
0202E:  MOVWF  FE9
02030:  MOVLW  00
02032:  ADDWFC 03,W
02034:  MOVWF  FEA
02036:  MOVFF  FEF,2D3
0203A:  MOVLW  57
0203C:  MOVWF  xD4
0203E:  MOVLB  0
02040:  CALL   123E
02044:  MOVLB  2
02046:  INCF   xA2,F
02048:  BRA    2022
....................             } 
....................             fprintf(PC,"\r\n"); 
0204A:  MOVLW  0D
0204C:  BTFSS  F9E.4
0204E:  BRA    204C
02050:  MOVWF  FAD
02052:  MOVLW  0A
02054:  BTFSS  F9E.4
02056:  BRA    2054
02058:  MOVWF  FAD
....................             MAKE_ADDRESS_DATA(); 
0205A:  MOVLB  0
0205C:  RCALL  1D8C
0205E:  MOVLB  2
....................          } 
....................       } 
....................    }   
....................    checksum = 0;   
02060:  CLRF   xA1
....................    return; 
02062:  MOVLB  0
02064:  GOTO   2F32 (RETURN)
.................... } 
....................  
.................... ////////////////////////// 
.................... //FAB_HK_ADDRESS        // 
.................... //FAB_CW_ADDRESS        // 
.................... //ADCS_SENSOR_ADDRESS   // 
.................... //CAM_ADDRESS           // 
.................... //DC_STATUS_ADDRESS     // 
.................... ////////////////////////// 
.................... void MEMORY_ERASE() 
.................... { 
....................    fprintf(PC,"ERASE START\r\n"); 
*
05D94:  MOVLW  DE
05D96:  MOVWF  FF6
05D98:  MOVLW  04
05D9A:  MOVWF  FF7
05D9C:  MOVLW  00
05D9E:  MOVWF  FF8
05DA0:  CALL   24F4
....................     
....................    output_low(PIN_A5);//CAM_MUX MAINSIDE 
05DA4:  BCF    F92.5
05DA6:  BCF    F89.5
....................    output_low(PIN_C4);//COM_MUX MAINSIDE 
05DA8:  BCF    F94.4
05DAA:  BCF    F8B.4
....................     
....................    sector_erase_OF(0); 
05DAC:  MOVLB  2
05DAE:  CLRF   xCB
05DB0:  CLRF   xCA
05DB2:  CLRF   xC9
05DB4:  CLRF   xC8
05DB6:  MOVLB  0
05DB8:  CALL   28E6
....................    sector_erase_SCF(0); 
05DBC:  MOVLB  2
05DBE:  CLRF   xCB
05DC0:  CLRF   xCA
05DC2:  CLRF   xC9
05DC4:  CLRF   xC8
05DC6:  MOVLB  0
05DC8:  CALL   2982
....................    sector_erase_SMF(0); 
05DCC:  MOVLB  2
05DCE:  CLRF   xCB
05DD0:  CLRF   xCA
05DD2:  CLRF   xC9
05DD4:  CLRF   xC8
05DD6:  MOVLB  0
05DD8:  CALL   2A1E
....................     
....................    sector_erase_OF(FAB_CW_ADDRESS); 
05DDC:  MOVFF  4E,2CB
05DE0:  MOVFF  4D,2CA
05DE4:  MOVFF  4C,2C9
05DE8:  MOVFF  4B,2C8
05DEC:  CALL   28E6
....................    sector_erase_SCF(FAB_CW_ADDRESS); 
05DF0:  MOVFF  4E,2CB
05DF4:  MOVFF  4D,2CA
05DF8:  MOVFF  4C,2C9
05DFC:  MOVFF  4B,2C8
05E00:  CALL   2982
....................    sector_erase_SMF(FAB_CW_ADDRESS); 
05E04:  MOVFF  4E,2CB
05E08:  MOVFF  4D,2CA
05E0C:  MOVFF  4C,2C9
05E10:  MOVFF  4B,2C8
05E14:  CALL   2A1E
....................     
....................     
....................    for(int8 num = 0; num < 5; num++) 
05E18:  MOVLB  2
05E1A:  CLRF   xA8
05E1C:  MOVF   xA8,W
05E1E:  SUBLW  04
05E20:  BTFSS  FD8.0
05E22:  BRA    6284
....................    { 
....................       sector_erase_OF(FLAG_DATA_ADDRESS + SECT*num);//65536*num 
05E24:  CLRF   01
05E26:  CLRF   02
05E28:  MOVFF  01,03
05E2C:  MOVFF  2A8,02
05E30:  CLRF   00
05E32:  CLRF   01
05E34:  MOVF   00,W
05E36:  ADDWF  37,W
05E38:  MOVWF  xA9
05E3A:  MOVF   01,W
05E3C:  ADDWFC 38,W
05E3E:  MOVWF  xAA
05E40:  MOVF   xA8,W
05E42:  ADDWFC 39,W
05E44:  MOVWF  xAB
05E46:  MOVF   03,W
05E48:  ADDWFC 3A,W
05E4A:  MOVWF  xAC
05E4C:  MOVWF  xCB
05E4E:  MOVFF  2AB,2CA
05E52:  MOVFF  2AA,2C9
05E56:  MOVFF  2A9,2C8
05E5A:  MOVLB  0
05E5C:  CALL   28E6
....................       sector_erase_OF(CAM_ADDRESS + SECT*num);//65536*num 
05E60:  CLRF   01
05E62:  CLRF   02
05E64:  MOVFF  01,03
05E68:  MOVFF  2A8,02
05E6C:  CLRF   00
05E6E:  CLRF   01
05E70:  MOVF   00,W
05E72:  ADDWF  43,W
05E74:  MOVLB  2
05E76:  MOVWF  xA9
05E78:  MOVF   01,W
05E7A:  ADDWFC 44,W
05E7C:  MOVWF  xAA
05E7E:  MOVF   xA8,W
05E80:  ADDWFC 45,W
05E82:  MOVWF  xAB
05E84:  MOVF   03,W
05E86:  ADDWFC 46,W
05E88:  MOVWF  xAC
05E8A:  MOVWF  xCB
05E8C:  MOVFF  2AB,2CA
05E90:  MOVFF  2AA,2C9
05E94:  MOVFF  2A9,2C8
05E98:  MOVLB  0
05E9A:  CALL   28E6
....................       sector_erase_OF(FAB_HK_ADDRESS + SECT*num);//65536*num 
05E9E:  CLRF   01
05EA0:  CLRF   02
05EA2:  MOVFF  01,03
05EA6:  MOVFF  2A8,02
05EAA:  CLRF   00
05EAC:  CLRF   01
05EAE:  MOVF   00,W
05EB0:  ADDWF  47,W
05EB2:  MOVLB  2
05EB4:  MOVWF  xA9
05EB6:  MOVF   01,W
05EB8:  ADDWFC 48,W
05EBA:  MOVWF  xAA
05EBC:  MOVF   xA8,W
05EBE:  ADDWFC 49,W
05EC0:  MOVWF  xAB
05EC2:  MOVF   03,W
05EC4:  ADDWFC 4A,W
05EC6:  MOVWF  xAC
05EC8:  MOVWF  xCB
05ECA:  MOVFF  2AB,2CA
05ECE:  MOVFF  2AA,2C9
05ED2:  MOVFF  2A9,2C8
05ED6:  MOVLB  0
05ED8:  CALL   28E6
....................       sector_erase_OF(ADCS_SENSOR_ADDRESS + SECT*num);//65536*num 
05EDC:  CLRF   01
05EDE:  CLRF   02
05EE0:  MOVFF  01,03
05EE4:  MOVFF  2A8,02
05EE8:  CLRF   00
05EEA:  CLRF   01
05EEC:  MOVF   00,W
05EEE:  ADDWF  4F,W
05EF0:  MOVLB  2
05EF2:  MOVWF  xA9
05EF4:  MOVF   01,W
05EF6:  ADDWFC 50,W
05EF8:  MOVWF  xAA
05EFA:  MOVF   xA8,W
05EFC:  ADDWFC 51,W
05EFE:  MOVWF  xAB
05F00:  MOVF   03,W
05F02:  ADDWFC 52,W
05F04:  MOVWF  xAC
05F06:  MOVWF  xCB
05F08:  MOVFF  2AB,2CA
05F0C:  MOVFF  2AA,2C9
05F10:  MOVFF  2A9,2C8
05F14:  MOVLB  0
05F16:  CALL   28E6
....................       sector_erase_OF(DC_STATUS_ADDRESS + SECT*num);//65536*num 
05F1A:  CLRF   01
05F1C:  CLRF   02
05F1E:  MOVFF  01,03
05F22:  MOVFF  2A8,02
05F26:  CLRF   00
05F28:  CLRF   01
05F2A:  MOVF   00,W
05F2C:  ADDWF  53,W
05F2E:  MOVLB  2
05F30:  MOVWF  xA9
05F32:  MOVF   01,W
05F34:  ADDWFC 54,W
05F36:  MOVWF  xAA
05F38:  MOVF   xA8,W
05F3A:  ADDWFC 55,W
05F3C:  MOVWF  xAB
05F3E:  MOVF   03,W
05F40:  ADDWFC 56,W
05F42:  MOVWF  xAC
05F44:  MOVWF  xCB
05F46:  MOVFF  2AB,2CA
05F4A:  MOVFF  2AA,2C9
05F4E:  MOVFF  2A9,2C8
05F52:  MOVLB  0
05F54:  CALL   28E6
....................       sector_erase_OF(HIGH_SAMP_HK_ADDRESS + SECT*num);//65536*num 
05F58:  CLRF   01
05F5A:  CLRF   02
05F5C:  MOVFF  01,03
05F60:  MOVFF  2A8,02
05F64:  CLRF   00
05F66:  CLRF   01
05F68:  MOVF   00,W
05F6A:  ADDWF  57,W
05F6C:  MOVLB  2
05F6E:  MOVWF  xA9
05F70:  MOVF   01,W
05F72:  ADDWFC 58,W
05F74:  MOVWF  xAA
05F76:  MOVF   xA8,W
05F78:  ADDWFC 59,W
05F7A:  MOVWF  xAB
05F7C:  MOVF   03,W
05F7E:  ADDWFC 5A,W
05F80:  MOVWF  xAC
05F82:  MOVWF  xCB
05F84:  MOVFF  2AB,2CA
05F88:  MOVFF  2AA,2C9
05F8C:  MOVFF  2A9,2C8
05F90:  MOVLB  0
05F92:  CALL   28E6
....................        
....................       sector_erase_SCF(FLAG_DATA_ADDRESS + SECT*num);//65536*num 
05F96:  CLRF   01
05F98:  CLRF   02
05F9A:  MOVFF  01,03
05F9E:  MOVFF  2A8,02
05FA2:  CLRF   00
05FA4:  CLRF   01
05FA6:  MOVF   00,W
05FA8:  ADDWF  37,W
05FAA:  MOVLB  2
05FAC:  MOVWF  xA9
05FAE:  MOVF   01,W
05FB0:  ADDWFC 38,W
05FB2:  MOVWF  xAA
05FB4:  MOVF   xA8,W
05FB6:  ADDWFC 39,W
05FB8:  MOVWF  xAB
05FBA:  MOVF   03,W
05FBC:  ADDWFC 3A,W
05FBE:  MOVWF  xAC
05FC0:  MOVWF  xCB
05FC2:  MOVFF  2AB,2CA
05FC6:  MOVFF  2AA,2C9
05FCA:  MOVFF  2A9,2C8
05FCE:  MOVLB  0
05FD0:  CALL   2982
....................       sector_erase_SCF(CAM_ADDRESS + SECT*num);//65536*num 
05FD4:  CLRF   01
05FD6:  CLRF   02
05FD8:  MOVFF  01,03
05FDC:  MOVFF  2A8,02
05FE0:  CLRF   00
05FE2:  CLRF   01
05FE4:  MOVF   00,W
05FE6:  ADDWF  43,W
05FE8:  MOVLB  2
05FEA:  MOVWF  xA9
05FEC:  MOVF   01,W
05FEE:  ADDWFC 44,W
05FF0:  MOVWF  xAA
05FF2:  MOVF   xA8,W
05FF4:  ADDWFC 45,W
05FF6:  MOVWF  xAB
05FF8:  MOVF   03,W
05FFA:  ADDWFC 46,W
05FFC:  MOVWF  xAC
05FFE:  MOVWF  xCB
06000:  MOVFF  2AB,2CA
06004:  MOVFF  2AA,2C9
06008:  MOVFF  2A9,2C8
0600C:  MOVLB  0
0600E:  CALL   2982
....................       sector_erase_SCF(FAB_HK_ADDRESS + SECT*num);//65536*num 
06012:  CLRF   01
06014:  CLRF   02
06016:  MOVFF  01,03
0601A:  MOVFF  2A8,02
0601E:  CLRF   00
06020:  CLRF   01
06022:  MOVF   00,W
06024:  ADDWF  47,W
06026:  MOVLB  2
06028:  MOVWF  xA9
0602A:  MOVF   01,W
0602C:  ADDWFC 48,W
0602E:  MOVWF  xAA
06030:  MOVF   xA8,W
06032:  ADDWFC 49,W
06034:  MOVWF  xAB
06036:  MOVF   03,W
06038:  ADDWFC 4A,W
0603A:  MOVWF  xAC
0603C:  MOVWF  xCB
0603E:  MOVFF  2AB,2CA
06042:  MOVFF  2AA,2C9
06046:  MOVFF  2A9,2C8
0604A:  MOVLB  0
0604C:  CALL   2982
....................       sector_erase_SCF(ADCS_SENSOR_ADDRESS + SECT*num);//65536*num 
06050:  CLRF   01
06052:  CLRF   02
06054:  MOVFF  01,03
06058:  MOVFF  2A8,02
0605C:  CLRF   00
0605E:  CLRF   01
06060:  MOVF   00,W
06062:  ADDWF  4F,W
06064:  MOVLB  2
06066:  MOVWF  xA9
06068:  MOVF   01,W
0606A:  ADDWFC 50,W
0606C:  MOVWF  xAA
0606E:  MOVF   xA8,W
06070:  ADDWFC 51,W
06072:  MOVWF  xAB
06074:  MOVF   03,W
06076:  ADDWFC 52,W
06078:  MOVWF  xAC
0607A:  MOVWF  xCB
0607C:  MOVFF  2AB,2CA
06080:  MOVFF  2AA,2C9
06084:  MOVFF  2A9,2C8
06088:  MOVLB  0
0608A:  CALL   2982
....................       sector_erase_SCF(DC_STATUS_ADDRESS + SECT*num);//65536*num 
0608E:  CLRF   01
06090:  CLRF   02
06092:  MOVFF  01,03
06096:  MOVFF  2A8,02
0609A:  CLRF   00
0609C:  CLRF   01
0609E:  MOVF   00,W
060A0:  ADDWF  53,W
060A2:  MOVLB  2
060A4:  MOVWF  xA9
060A6:  MOVF   01,W
060A8:  ADDWFC 54,W
060AA:  MOVWF  xAA
060AC:  MOVF   xA8,W
060AE:  ADDWFC 55,W
060B0:  MOVWF  xAB
060B2:  MOVF   03,W
060B4:  ADDWFC 56,W
060B6:  MOVWF  xAC
060B8:  MOVWF  xCB
060BA:  MOVFF  2AB,2CA
060BE:  MOVFF  2AA,2C9
060C2:  MOVFF  2A9,2C8
060C6:  MOVLB  0
060C8:  CALL   2982
....................       sector_erase_SCF(HIGH_SAMP_HK_ADDRESS + SECT*num);//65536*num 
060CC:  CLRF   01
060CE:  CLRF   02
060D0:  MOVFF  01,03
060D4:  MOVFF  2A8,02
060D8:  CLRF   00
060DA:  CLRF   01
060DC:  MOVF   00,W
060DE:  ADDWF  57,W
060E0:  MOVLB  2
060E2:  MOVWF  xA9
060E4:  MOVF   01,W
060E6:  ADDWFC 58,W
060E8:  MOVWF  xAA
060EA:  MOVF   xA8,W
060EC:  ADDWFC 59,W
060EE:  MOVWF  xAB
060F0:  MOVF   03,W
060F2:  ADDWFC 5A,W
060F4:  MOVWF  xAC
060F6:  MOVWF  xCB
060F8:  MOVFF  2AB,2CA
060FC:  MOVFF  2AA,2C9
06100:  MOVFF  2A9,2C8
06104:  MOVLB  0
06106:  CALL   2982
....................        
....................       sector_erase_SMF(FLAG_DATA_ADDRESS + SECT*num);//65536*num 
0610A:  CLRF   01
0610C:  CLRF   02
0610E:  MOVFF  01,03
06112:  MOVFF  2A8,02
06116:  CLRF   00
06118:  CLRF   01
0611A:  MOVF   00,W
0611C:  ADDWF  37,W
0611E:  MOVLB  2
06120:  MOVWF  xA9
06122:  MOVF   01,W
06124:  ADDWFC 38,W
06126:  MOVWF  xAA
06128:  MOVF   xA8,W
0612A:  ADDWFC 39,W
0612C:  MOVWF  xAB
0612E:  MOVF   03,W
06130:  ADDWFC 3A,W
06132:  MOVWF  xAC
06134:  MOVWF  xCB
06136:  MOVFF  2AB,2CA
0613A:  MOVFF  2AA,2C9
0613E:  MOVFF  2A9,2C8
06142:  MOVLB  0
06144:  CALL   2A1E
....................       sector_erase_SMF(CAM_ADDRESS + SECT*num);//65536*num 
06148:  CLRF   01
0614A:  CLRF   02
0614C:  MOVFF  01,03
06150:  MOVFF  2A8,02
06154:  CLRF   00
06156:  CLRF   01
06158:  MOVF   00,W
0615A:  ADDWF  43,W
0615C:  MOVLB  2
0615E:  MOVWF  xA9
06160:  MOVF   01,W
06162:  ADDWFC 44,W
06164:  MOVWF  xAA
06166:  MOVF   xA8,W
06168:  ADDWFC 45,W
0616A:  MOVWF  xAB
0616C:  MOVF   03,W
0616E:  ADDWFC 46,W
06170:  MOVWF  xAC
06172:  MOVWF  xCB
06174:  MOVFF  2AB,2CA
06178:  MOVFF  2AA,2C9
0617C:  MOVFF  2A9,2C8
06180:  MOVLB  0
06182:  CALL   2A1E
....................       sector_erase_SMF(FAB_HK_ADDRESS + SECT*num);//65536*num 
06186:  CLRF   01
06188:  CLRF   02
0618A:  MOVFF  01,03
0618E:  MOVFF  2A8,02
06192:  CLRF   00
06194:  CLRF   01
06196:  MOVF   00,W
06198:  ADDWF  47,W
0619A:  MOVLB  2
0619C:  MOVWF  xA9
0619E:  MOVF   01,W
061A0:  ADDWFC 48,W
061A2:  MOVWF  xAA
061A4:  MOVF   xA8,W
061A6:  ADDWFC 49,W
061A8:  MOVWF  xAB
061AA:  MOVF   03,W
061AC:  ADDWFC 4A,W
061AE:  MOVWF  xAC
061B0:  MOVWF  xCB
061B2:  MOVFF  2AB,2CA
061B6:  MOVFF  2AA,2C9
061BA:  MOVFF  2A9,2C8
061BE:  MOVLB  0
061C0:  CALL   2A1E
....................       sector_erase_SMF(ADCS_SENSOR_ADDRESS + SECT*num);//65536*num 
061C4:  CLRF   01
061C6:  CLRF   02
061C8:  MOVFF  01,03
061CC:  MOVFF  2A8,02
061D0:  CLRF   00
061D2:  CLRF   01
061D4:  MOVF   00,W
061D6:  ADDWF  4F,W
061D8:  MOVLB  2
061DA:  MOVWF  xA9
061DC:  MOVF   01,W
061DE:  ADDWFC 50,W
061E0:  MOVWF  xAA
061E2:  MOVF   xA8,W
061E4:  ADDWFC 51,W
061E6:  MOVWF  xAB
061E8:  MOVF   03,W
061EA:  ADDWFC 52,W
061EC:  MOVWF  xAC
061EE:  MOVWF  xCB
061F0:  MOVFF  2AB,2CA
061F4:  MOVFF  2AA,2C9
061F8:  MOVFF  2A9,2C8
061FC:  MOVLB  0
061FE:  CALL   2A1E
....................       sector_erase_SMF(DC_STATUS_ADDRESS + SECT*num);//65536*num 
06202:  CLRF   01
06204:  CLRF   02
06206:  MOVFF  01,03
0620A:  MOVFF  2A8,02
0620E:  CLRF   00
06210:  CLRF   01
06212:  MOVF   00,W
06214:  ADDWF  53,W
06216:  MOVLB  2
06218:  MOVWF  xA9
0621A:  MOVF   01,W
0621C:  ADDWFC 54,W
0621E:  MOVWF  xAA
06220:  MOVF   xA8,W
06222:  ADDWFC 55,W
06224:  MOVWF  xAB
06226:  MOVF   03,W
06228:  ADDWFC 56,W
0622A:  MOVWF  xAC
0622C:  MOVWF  xCB
0622E:  MOVFF  2AB,2CA
06232:  MOVFF  2AA,2C9
06236:  MOVFF  2A9,2C8
0623A:  MOVLB  0
0623C:  CALL   2A1E
....................       sector_erase_SMF(HIGH_SAMP_HK_ADDRESS + SECT*num); //65536*num 
06240:  CLRF   01
06242:  CLRF   02
06244:  MOVFF  01,03
06248:  MOVFF  2A8,02
0624C:  CLRF   00
0624E:  CLRF   01
06250:  MOVF   00,W
06252:  ADDWF  57,W
06254:  MOVLB  2
06256:  MOVWF  xA9
06258:  MOVF   01,W
0625A:  ADDWFC 58,W
0625C:  MOVWF  xAA
0625E:  MOVF   xA8,W
06260:  ADDWFC 59,W
06262:  MOVWF  xAB
06264:  MOVF   03,W
06266:  ADDWFC 5A,W
06268:  MOVWF  xAC
0626A:  MOVWF  xCB
0626C:  MOVFF  2AB,2CA
06270:  MOVFF  2AA,2C9
06274:  MOVFF  2A9,2C8
06278:  MOVLB  0
0627A:  CALL   2A1E
0627E:  MOVLB  2
06280:  INCF   xA8,F
06282:  BRA    5E1C
....................    } 
....................    for(num = 5; num < 10; num++) 
06284:  MOVLW  05
06286:  MOVWF  xA8
06288:  MOVF   xA8,W
0628A:  SUBLW  09
0628C:  BTFSS  FD8.0
0628E:  BRA    64C2
....................    { 
....................       sector_erase_OF(CAM_ADDRESS + SECT*num);//65536*num 
06290:  CLRF   01
06292:  CLRF   02
06294:  MOVFF  01,03
06298:  MOVFF  2A8,02
0629C:  CLRF   00
0629E:  CLRF   01
062A0:  MOVF   00,W
062A2:  ADDWF  43,W
062A4:  MOVWF  xA9
062A6:  MOVF   01,W
062A8:  ADDWFC 44,W
062AA:  MOVWF  xAA
062AC:  MOVF   xA8,W
062AE:  ADDWFC 45,W
062B0:  MOVWF  xAB
062B2:  MOVF   03,W
062B4:  ADDWFC 46,W
062B6:  MOVWF  xAC
062B8:  MOVWF  xCB
062BA:  MOVFF  2AB,2CA
062BE:  MOVFF  2AA,2C9
062C2:  MOVFF  2A9,2C8
062C6:  MOVLB  0
062C8:  CALL   28E6
....................       sector_erase_OF(FAB_HK_ADDRESS + SECT*num);//65536*num 
062CC:  CLRF   01
062CE:  CLRF   02
062D0:  MOVFF  01,03
062D4:  MOVFF  2A8,02
062D8:  CLRF   00
062DA:  CLRF   01
062DC:  MOVF   00,W
062DE:  ADDWF  47,W
062E0:  MOVLB  2
062E2:  MOVWF  xA9
062E4:  MOVF   01,W
062E6:  ADDWFC 48,W
062E8:  MOVWF  xAA
062EA:  MOVF   xA8,W
062EC:  ADDWFC 49,W
062EE:  MOVWF  xAB
062F0:  MOVF   03,W
062F2:  ADDWFC 4A,W
062F4:  MOVWF  xAC
062F6:  MOVWF  xCB
062F8:  MOVFF  2AB,2CA
062FC:  MOVFF  2AA,2C9
06300:  MOVFF  2A9,2C8
06304:  MOVLB  0
06306:  CALL   28E6
....................       sector_erase_OF(HIGH_SAMP_HK_ADDRESS + SECT*num);//65536*num 
0630A:  CLRF   01
0630C:  CLRF   02
0630E:  MOVFF  01,03
06312:  MOVFF  2A8,02
06316:  CLRF   00
06318:  CLRF   01
0631A:  MOVF   00,W
0631C:  ADDWF  57,W
0631E:  MOVLB  2
06320:  MOVWF  xA9
06322:  MOVF   01,W
06324:  ADDWFC 58,W
06326:  MOVWF  xAA
06328:  MOVF   xA8,W
0632A:  ADDWFC 59,W
0632C:  MOVWF  xAB
0632E:  MOVF   03,W
06330:  ADDWFC 5A,W
06332:  MOVWF  xAC
06334:  MOVWF  xCB
06336:  MOVFF  2AB,2CA
0633A:  MOVFF  2AA,2C9
0633E:  MOVFF  2A9,2C8
06342:  MOVLB  0
06344:  CALL   28E6
....................        
....................       sector_erase_SCF(CAM_ADDRESS + SECT*num);//65536*num 
06348:  CLRF   01
0634A:  CLRF   02
0634C:  MOVFF  01,03
06350:  MOVFF  2A8,02
06354:  CLRF   00
06356:  CLRF   01
06358:  MOVF   00,W
0635A:  ADDWF  43,W
0635C:  MOVLB  2
0635E:  MOVWF  xA9
06360:  MOVF   01,W
06362:  ADDWFC 44,W
06364:  MOVWF  xAA
06366:  MOVF   xA8,W
06368:  ADDWFC 45,W
0636A:  MOVWF  xAB
0636C:  MOVF   03,W
0636E:  ADDWFC 46,W
06370:  MOVWF  xAC
06372:  MOVWF  xCB
06374:  MOVFF  2AB,2CA
06378:  MOVFF  2AA,2C9
0637C:  MOVFF  2A9,2C8
06380:  MOVLB  0
06382:  CALL   2982
....................       sector_erase_SCF(FAB_HK_ADDRESS + SECT*num);//65536*num 
06386:  CLRF   01
06388:  CLRF   02
0638A:  MOVFF  01,03
0638E:  MOVFF  2A8,02
06392:  CLRF   00
06394:  CLRF   01
06396:  MOVF   00,W
06398:  ADDWF  47,W
0639A:  MOVLB  2
0639C:  MOVWF  xA9
0639E:  MOVF   01,W
063A0:  ADDWFC 48,W
063A2:  MOVWF  xAA
063A4:  MOVF   xA8,W
063A6:  ADDWFC 49,W
063A8:  MOVWF  xAB
063AA:  MOVF   03,W
063AC:  ADDWFC 4A,W
063AE:  MOVWF  xAC
063B0:  MOVWF  xCB
063B2:  MOVFF  2AB,2CA
063B6:  MOVFF  2AA,2C9
063BA:  MOVFF  2A9,2C8
063BE:  MOVLB  0
063C0:  CALL   2982
....................       sector_erase_SCF(HIGH_SAMP_HK_ADDRESS + SECT*num);//65536*num 
063C4:  CLRF   01
063C6:  CLRF   02
063C8:  MOVFF  01,03
063CC:  MOVFF  2A8,02
063D0:  CLRF   00
063D2:  CLRF   01
063D4:  MOVF   00,W
063D6:  ADDWF  57,W
063D8:  MOVLB  2
063DA:  MOVWF  xA9
063DC:  MOVF   01,W
063DE:  ADDWFC 58,W
063E0:  MOVWF  xAA
063E2:  MOVF   xA8,W
063E4:  ADDWFC 59,W
063E6:  MOVWF  xAB
063E8:  MOVF   03,W
063EA:  ADDWFC 5A,W
063EC:  MOVWF  xAC
063EE:  MOVWF  xCB
063F0:  MOVFF  2AB,2CA
063F4:  MOVFF  2AA,2C9
063F8:  MOVFF  2A9,2C8
063FC:  MOVLB  0
063FE:  CALL   2982
....................        
....................       sector_erase_SMF(CAM_ADDRESS + SECT*num);//65536*num 
06402:  CLRF   01
06404:  CLRF   02
06406:  MOVFF  01,03
0640A:  MOVFF  2A8,02
0640E:  CLRF   00
06410:  CLRF   01
06412:  MOVF   00,W
06414:  ADDWF  43,W
06416:  MOVLB  2
06418:  MOVWF  xA9
0641A:  MOVF   01,W
0641C:  ADDWFC 44,W
0641E:  MOVWF  xAA
06420:  MOVF   xA8,W
06422:  ADDWFC 45,W
06424:  MOVWF  xAB
06426:  MOVF   03,W
06428:  ADDWFC 46,W
0642A:  MOVWF  xAC
0642C:  MOVWF  xCB
0642E:  MOVFF  2AB,2CA
06432:  MOVFF  2AA,2C9
06436:  MOVFF  2A9,2C8
0643A:  MOVLB  0
0643C:  CALL   2A1E
....................       sector_erase_SMF(FAB_HK_ADDRESS + SECT*num);//65536*num 
06440:  CLRF   01
06442:  CLRF   02
06444:  MOVFF  01,03
06448:  MOVFF  2A8,02
0644C:  CLRF   00
0644E:  CLRF   01
06450:  MOVF   00,W
06452:  ADDWF  47,W
06454:  MOVLB  2
06456:  MOVWF  xA9
06458:  MOVF   01,W
0645A:  ADDWFC 48,W
0645C:  MOVWF  xAA
0645E:  MOVF   xA8,W
06460:  ADDWFC 49,W
06462:  MOVWF  xAB
06464:  MOVF   03,W
06466:  ADDWFC 4A,W
06468:  MOVWF  xAC
0646A:  MOVWF  xCB
0646C:  MOVFF  2AB,2CA
06470:  MOVFF  2AA,2C9
06474:  MOVFF  2A9,2C8
06478:  MOVLB  0
0647A:  CALL   2A1E
....................       sector_erase_SMF(HIGH_SAMP_HK_ADDRESS + SECT*num);//65536*num 
0647E:  CLRF   01
06480:  CLRF   02
06482:  MOVFF  01,03
06486:  MOVFF  2A8,02
0648A:  CLRF   00
0648C:  CLRF   01
0648E:  MOVF   00,W
06490:  ADDWF  57,W
06492:  MOVLB  2
06494:  MOVWF  xA9
06496:  MOVF   01,W
06498:  ADDWFC 58,W
0649A:  MOVWF  xAA
0649C:  MOVF   xA8,W
0649E:  ADDWFC 59,W
064A0:  MOVWF  xAB
064A2:  MOVF   03,W
064A4:  ADDWFC 5A,W
064A6:  MOVWF  xAC
064A8:  MOVWF  xCB
064AA:  MOVFF  2AB,2CA
064AE:  MOVFF  2AA,2C9
064B2:  MOVFF  2A9,2C8
064B6:  MOVLB  0
064B8:  CALL   2A1E
064BC:  MOVLB  2
064BE:  INCF   xA8,F
064C0:  BRA    6288
....................    } 
....................    output_high(PIN_C4);//COM_MUX COMSIDE 
064C2:  BCF    F94.4
064C4:  BSF    F8B.4
....................    delay_ms(10000); 
064C6:  MOVLW  28
064C8:  MOVWF  xA9
064CA:  MOVLW  FA
064CC:  MOVWF  xDB
064CE:  MOVLB  0
064D0:  CALL   230E
064D4:  MOVLB  2
064D6:  DECFSZ xA9,F
064D8:  BRA    64CA
....................    fprintf(PC,"DONE"); 
064DA:  MOVLW  EC
064DC:  MOVWF  FF6
064DE:  MOVLW  04
064E0:  MOVWF  FF7
064E2:  MOVLW  00
064E4:  MOVWF  FF8
064E6:  MOVLB  0
064E8:  CALL   24F4
....................    delay_ms(60000); 
064EC:  MOVLW  F0
064EE:  MOVLB  2
064F0:  MOVWF  xA9
064F2:  MOVLW  FA
064F4:  MOVWF  xDB
064F6:  MOVLB  0
064F8:  CALL   230E
064FC:  MOVLB  2
064FE:  DECFSZ xA9,F
06500:  BRA    64F2
....................    return; 
06502:  MOVLB  0
06504:  RETURN 0
.................... } 
....................  
.................... //@@@@@@@@@@@@@@@@@@MISSION LOOP@@@@@@@@@@@@@@@@@@@@@@@@@@@@@@@@@@@@@@@@@@@@@@@ 
.................... void LOOP_FLAG_DATA_ADDRESS() 
.................... { 
....................     
....................    if(FLAG_DATA_ADDRESS > FLAG_DATA_ADDRESS_END) 
....................    { 
....................    } 
....................    return; 
.................... } 
....................  
.................... void LOOP_RSV_DATA_ADDRESS() 
.................... { 
....................    if(RSV_DATA_ADDRESS > RSV_DATA_ADDRESS_END) 
....................    { 
....................        
....................    } 
....................    return; 
.................... } 
....................  
.................... void LOOP_SAT_LOG() 
.................... { 
....................    if(SAT_LOG >= SAT_LOG_END) 
*
02D64:  MOVF   42,F
02D66:  BNZ   2D82
02D68:  MOVF   41,W
02D6A:  SUBLW  06
02D6C:  BC    2DCA
02D6E:  XORLW  FF
02D70:  BNZ   2D82
02D72:  MOVF   40,W
02D74:  SUBLW  FE
02D76:  BC    2DCA
02D78:  XORLW  FF
02D7A:  BNZ   2D82
02D7C:  MOVF   3F,W
02D7E:  SUBLW  E9
02D80:  BC    2DCA
....................    { 
....................       sector_erase_OF(SECT*7);//65536*7 
02D82:  MOVLB  2
02D84:  CLRF   xCB
02D86:  MOVLW  07
02D88:  MOVWF  xCA
02D8A:  CLRF   xC9
02D8C:  CLRF   xC8
02D8E:  MOVLB  0
02D90:  RCALL  28E6
....................        
....................       output_low(PIN_C4);//COM_MUX MAINSIDE 
02D92:  BCF    F94.4
02D94:  BCF    F8B.4
....................       sector_erase_SCF(SECT*7);//65536*7 
02D96:  MOVLB  2
02D98:  CLRF   xCB
02D9A:  MOVLW  07
02D9C:  MOVWF  xCA
02D9E:  CLRF   xC9
02DA0:  CLRF   xC8
02DA2:  MOVLB  0
02DA4:  RCALL  2982
....................       output_high(PIN_C4);//CAM_MUX MAINSIDE 
02DA6:  BCF    F94.4
02DA8:  BSF    F8B.4
....................        
....................       output_low(PIN_A5);//CAM_MUX MAINSIDE 
02DAA:  BCF    F92.5
02DAC:  BCF    F89.5
....................       sector_erase_SMF(SECT*7);//65536*7 
02DAE:  MOVLB  2
02DB0:  CLRF   xCB
02DB2:  MOVLW  07
02DB4:  MOVWF  xCA
02DB6:  CLRF   xC9
02DB8:  CLRF   xC8
02DBA:  MOVLB  0
02DBC:  RCALL  2A1E
....................       SAT_LOG = SECT*7;//keep first 1 sector forever //65536*7 
02DBE:  CLRF   42
02DC0:  MOVLW  07
02DC2:  MOVWF  41
02DC4:  CLRF   40
02DC6:  CLRF   3F
....................       STORE_ADRESS_DATA_TO_FLASH(); 
02DC8:  RCALL  2ABA
....................    } 
....................    //output_high(PIN_C4);//COM_MUX COMSIDE 
....................    return; 
02DCA:  GOTO   2DD0 (RETURN)
.................... } 
....................  
.................... void LOOP_CAM_ADDRESS() 
.................... { 
....................    if(CAM_ADDRESS >= CAM_ADDRESS_END) 
*
076C4:  MOVF   46,F
076C6:  BNZ   76CE
076C8:  MOVF   45,W
076CA:  SUBLW  5F
076CC:  BC    771E
....................    { 
....................       sector_erase_OF(SECT*9); 
076CE:  MOVLB  2
076D0:  CLRF   xCB
076D2:  MOVLW  09
076D4:  MOVWF  xCA
076D6:  CLRF   xC9
076D8:  CLRF   xC8
076DA:  MOVLB  0
076DC:  CALL   28E6
....................        
....................       output_low(PIN_C4);//COM_MUX MAINSIDE 
076E0:  BCF    F94.4
076E2:  BCF    F8B.4
....................       sector_erase_SCF(SECT*9); 
076E4:  MOVLB  2
076E6:  CLRF   xCB
076E8:  MOVLW  09
076EA:  MOVWF  xCA
076EC:  CLRF   xC9
076EE:  CLRF   xC8
076F0:  MOVLB  0
076F2:  CALL   2982
....................       output_high(PIN_C4);//CAM_MUX MAINSIDE 
076F6:  BCF    F94.4
076F8:  BSF    F8B.4
....................        
....................       output_low(PIN_A5);//CAM_MUX MAINSIDE 
076FA:  BCF    F92.5
076FC:  BCF    F89.5
....................       sector_erase_SMF(SECT*9); 
076FE:  MOVLB  2
07700:  CLRF   xCB
07702:  MOVLW  09
07704:  MOVWF  xCA
07706:  CLRF   xC9
07708:  CLRF   xC8
0770A:  MOVLB  0
0770C:  CALL   2A1E
....................        
....................       CAM_ADDRESS = SECT*9; 
07710:  CLRF   46
07712:  MOVLW  09
07714:  MOVWF  45
07716:  CLRF   44
07718:  CLRF   43
....................       STORE_ADRESS_DATA_TO_FLASH(); 
0771A:  CALL   2ABA
....................    } 
....................    return; 
0771E:  GOTO   795A (RETURN)
.................... } 
....................  
.................... void LOOP_FAB_HK_ADDRESS() 
*
02FB0:  MOVF   47,F
02FB2:  BNZ   2FC4
02FB4:  MOVF   48,F
02FB6:  BNZ   2FC4
02FB8:  MOVF   49,F
02FBA:  BNZ   2FC4
02FBC:  MOVF   4A,F
02FBE:  BNZ   2FC4
02FC0:  MOVLW  00
02FC2:  BRA    2FC6
02FC4:  MOVLW  01
02FC6:  MOVLB  2
02FC8:  CLRF   xB1
02FCA:  CLRF   xB0
02FCC:  CLRF   xAF
02FCE:  MOVWF  xAE
.................... { 
....................    int32 checksum = FAB_HK_ADDRESS && 0x0000ffff; 
....................    if(FAB_HK_ADDRESS >= FAB_HK_ADDRESS_END) 
02FD0:  MOVF   4A,W
02FD2:  SUBLW  03
02FD4:  BC    303E
02FD6:  XORLW  FF
02FD8:  BNZ   2FF4
02FDA:  MOVF   49,W
02FDC:  SUBLW  47
02FDE:  BC    303E
02FE0:  XORLW  FF
02FE2:  BNZ   2FF4
02FE4:  MOVF   48,W
02FE6:  SUBLW  FE
02FE8:  BC    303E
02FEA:  XORLW  FF
02FEC:  BNZ   2FF4
02FEE:  MOVF   47,W
02FF0:  SUBLW  07
02FF2:  BC    303E
....................    { 
....................       sector_erase_OF(SECT*98); 
02FF4:  CLRF   xCB
02FF6:  MOVLW  62
02FF8:  MOVWF  xCA
02FFA:  CLRF   xC9
02FFC:  CLRF   xC8
02FFE:  MOVLB  0
03000:  RCALL  28E6
....................        
....................       output_low(PIN_C4);//COM_MUX MAINSIDE 
03002:  BCF    F94.4
03004:  BCF    F8B.4
....................       sector_erase_SCF(SECT*98); 
03006:  MOVLB  2
03008:  CLRF   xCB
0300A:  MOVLW  62
0300C:  MOVWF  xCA
0300E:  CLRF   xC9
03010:  CLRF   xC8
03012:  MOVLB  0
03014:  RCALL  2982
....................       output_high(PIN_C4);//COM_MUX COMSIDE 
03016:  BCF    F94.4
03018:  BSF    F8B.4
....................        
....................       output_low(PIN_A5);//CAM_MUX MAINSIDE 
0301A:  BCF    F92.5
0301C:  BCF    F89.5
....................       sector_erase_SMF(SECT*98); 
0301E:  MOVLB  2
03020:  CLRF   xCB
03022:  MOVLW  62
03024:  MOVWF  xCA
03026:  CLRF   xC9
03028:  CLRF   xC8
0302A:  MOVLB  0
0302C:  RCALL  2A1E
....................        
....................       FAB_HK_ADDRESS = 65536*8; 
0302E:  CLRF   4A
03030:  MOVLW  08
03032:  MOVWF  49
03034:  CLRF   48
03036:  CLRF   47
....................       STORE_ADRESS_DATA_TO_FLASH(); 
03038:  RCALL  2ABA
....................    }else if(65536 - checksum < 119){ //if value will be close to the sector 
0303A:  BRA    3100
0303C:  MOVLB  2
0303E:  MOVLW  00
03040:  BSF    FD8.0
03042:  SUBFWB xAE,W
03044:  MOVWF  xB2
03046:  MOVLW  00
03048:  SUBFWB xAF,W
0304A:  MOVWF  xB3
0304C:  MOVLW  01
0304E:  SUBFWB xB0,W
03050:  MOVWF  xB4
03052:  MOVLW  00
03054:  SUBFWB xB1,W
03056:  MOVWF  xB5
03058:  MOVF   xB5,F
0305A:  BNZ   3102
0305C:  MOVF   xB4,F
0305E:  BNZ   3102
03060:  MOVF   xB3,F
03062:  BNZ   3102
03064:  MOVF   xB2,W
03066:  SUBLW  76
03068:  BNC   3102
....................       fprintf(PC,"erasing next sector\r\n"); 
0306A:  MOVLW  F2
0306C:  MOVWF  FF6
0306E:  MOVLW  04
03070:  MOVWF  FF7
03072:  MOVLW  00
03074:  MOVWF  FF8
03076:  MOVLB  0
03078:  CALL   24F4
....................        
....................       sector_erase_OF(FAB_HK_ADDRESS + SECT); 
0307C:  MOVFF  47,2B2
03080:  MOVLB  2
03082:  MOVFF  48,2B3
03086:  MOVLW  01
03088:  ADDWF  49,W
0308A:  MOVWF  xB4
0308C:  MOVLW  00
0308E:  ADDWFC 4A,W
03090:  MOVWF  xB5
03092:  MOVWF  xCB
03094:  MOVFF  2B4,2CA
03098:  MOVFF  48,2C9
0309C:  MOVFF  47,2C8
030A0:  MOVLB  0
030A2:  RCALL  28E6
....................        
....................       output_low(PIN_C4);//COM_MUX MAINSIDE 
030A4:  BCF    F94.4
030A6:  BCF    F8B.4
....................       sector_erase_SCF(FAB_HK_ADDRESS + SECT); 
030A8:  MOVFF  47,2B2
030AC:  MOVLB  2
030AE:  MOVFF  48,2B3
030B2:  MOVLW  01
030B4:  ADDWF  49,W
030B6:  MOVWF  xB4
030B8:  MOVLW  00
030BA:  ADDWFC 4A,W
030BC:  MOVWF  xB5
030BE:  MOVWF  xCB
030C0:  MOVFF  2B4,2CA
030C4:  MOVFF  48,2C9
030C8:  MOVFF  47,2C8
030CC:  MOVLB  0
030CE:  RCALL  2982
....................       output_high(PIN_C4);//COM_MUX COMSIDE 
030D0:  BCF    F94.4
030D2:  BSF    F8B.4
....................        
....................       output_low(PIN_A5);//CAM_MUX MAINSIDE 
030D4:  BCF    F92.5
030D6:  BCF    F89.5
....................       sector_erase_SMF(FAB_HK_ADDRESS + SECT); 
030D8:  MOVFF  47,2B2
030DC:  MOVLB  2
030DE:  MOVFF  48,2B3
030E2:  MOVLW  01
030E4:  ADDWF  49,W
030E6:  MOVWF  xB4
030E8:  MOVLW  00
030EA:  ADDWFC 4A,W
030EC:  MOVWF  xB5
030EE:  MOVWF  xCB
030F0:  MOVFF  2B4,2CA
030F4:  MOVFF  48,2C9
030F8:  MOVFF  47,2C8
030FC:  MOVLB  0
030FE:  RCALL  2A1E
03100:  MOVLB  2
....................    } 
....................    return; 
03102:  MOVLB  0
03104:  RETURN 0
.................... } 
....................  
.................... void LOOP_FAB_CW_ADDRESS() 
*
03228:  MOVF   4B,F
0322A:  BNZ   323C
0322C:  MOVF   4C,F
0322E:  BNZ   323C
03230:  MOVF   4D,F
03232:  BNZ   323C
03234:  MOVF   4E,F
03236:  BNZ   323C
03238:  MOVLW  00
0323A:  BRA    323E
0323C:  MOVLW  01
0323E:  MOVLB  2
03240:  CLRF   xB1
03242:  CLRF   xB0
03244:  CLRF   xAF
03246:  MOVWF  xAE
.................... { 
....................    int32 checksum = FAB_CW_ADDRESS && 0x0000ffff; 
....................    if(FAB_CW_ADDRESS >= FAB_CW_ADDRESS_END) 
03248:  MOVF   4E,W
0324A:  SUBLW  03
0324C:  BC    32C6
0324E:  XORLW  FF
03250:  BNZ   326C
03252:  MOVF   4D,W
03254:  SUBLW  70
03256:  BC    32C6
03258:  XORLW  FF
0325A:  BNZ   326C
0325C:  MOVF   4C,W
0325E:  SUBLW  FE
03260:  BC    32C6
03262:  XORLW  FF
03264:  BNZ   326C
03266:  MOVF   4B,W
03268:  SUBLW  F5
0326A:  BC    32C6
....................    {   
....................       sector_erase_OF(SECT*1098); 
0326C:  MOVLW  04
0326E:  MOVWF  xCB
03270:  MOVLW  4A
03272:  MOVWF  xCA
03274:  CLRF   xC9
03276:  CLRF   xC8
03278:  MOVLB  0
0327A:  CALL   28E6
....................        
....................       output_low(PIN_C4);//COM_MUX MAINSIDE 
0327E:  BCF    F94.4
03280:  BCF    F8B.4
....................       sector_erase_SCF(SECT*1098); 
03282:  MOVLW  04
03284:  MOVLB  2
03286:  MOVWF  xCB
03288:  MOVLW  4A
0328A:  MOVWF  xCA
0328C:  CLRF   xC9
0328E:  CLRF   xC8
03290:  MOVLB  0
03292:  CALL   2982
....................       output_high(PIN_C4);//COM_MUX COMSIDE 
03296:  BCF    F94.4
03298:  BSF    F8B.4
....................        
....................       output_low(PIN_A5);//CAM_MUX MAINSIDE 
0329A:  BCF    F92.5
0329C:  BCF    F89.5
....................       sector_erase_SMF(SECT*1098); 
0329E:  MOVLW  04
032A0:  MOVLB  2
032A2:  MOVWF  xCB
032A4:  MOVLW  4A
032A6:  MOVWF  xCA
032A8:  CLRF   xC9
032AA:  CLRF   xC8
032AC:  MOVLB  0
032AE:  CALL   2A1E
....................        
....................       FAB_CW_ADDRESS = SECT*1098; 
032B2:  MOVLW  04
032B4:  MOVWF  4E
032B6:  MOVLW  4A
032B8:  MOVWF  4D
032BA:  CLRF   4C
032BC:  CLRF   4B
....................       STORE_ADRESS_DATA_TO_FLASH(); 
032BE:  CALL   2ABA
....................    }else if(SECT - checksum < 5){ //if value will be close to the sector 
032C2:  BRA    338E
032C4:  MOVLB  2
032C6:  MOVLW  00
032C8:  BSF    FD8.0
032CA:  SUBFWB xAE,W
032CC:  MOVWF  xB2
032CE:  MOVLW  00
032D0:  SUBFWB xAF,W
032D2:  MOVWF  xB3
032D4:  MOVLW  01
032D6:  SUBFWB xB0,W
032D8:  MOVWF  xB4
032DA:  MOVLW  00
032DC:  SUBFWB xB1,W
032DE:  MOVWF  xB5
032E0:  MOVF   xB5,F
032E2:  BNZ   3390
032E4:  MOVF   xB4,F
032E6:  BNZ   3390
032E8:  MOVF   xB3,F
032EA:  BNZ   3390
032EC:  MOVF   xB2,W
032EE:  SUBLW  04
032F0:  BNC   3390
....................       fprintf(PC,"erasing next sector\r\n"); 
032F2:  MOVLW  08
032F4:  MOVWF  FF6
032F6:  MOVLW  05
032F8:  MOVWF  FF7
032FA:  MOVLW  00
032FC:  MOVWF  FF8
032FE:  MOVLB  0
03300:  CALL   24F4
....................        
....................       sector_erase_OF(FAB_CW_ADDRESS + SECT);//erase next sector in advance 
03304:  MOVFF  4B,2B2
03308:  MOVLB  2
0330A:  MOVFF  4C,2B3
0330E:  MOVLW  01
03310:  ADDWF  4D,W
03312:  MOVWF  xB4
03314:  MOVLW  00
03316:  ADDWFC 4E,W
03318:  MOVWF  xB5
0331A:  MOVWF  xCB
0331C:  MOVFF  2B4,2CA
03320:  MOVFF  4C,2C9
03324:  MOVFF  4B,2C8
03328:  MOVLB  0
0332A:  CALL   28E6
....................        
....................       output_low(PIN_C4);//COM_MUX MAINSIDE 
0332E:  BCF    F94.4
03330:  BCF    F8B.4
....................       sector_erase_SCF(FAB_CW_ADDRESS + SECT);//erase next sector in advance 
03332:  MOVFF  4B,2B2
03336:  MOVLB  2
03338:  MOVFF  4C,2B3
0333C:  MOVLW  01
0333E:  ADDWF  4D,W
03340:  MOVWF  xB4
03342:  MOVLW  00
03344:  ADDWFC 4E,W
03346:  MOVWF  xB5
03348:  MOVWF  xCB
0334A:  MOVFF  2B4,2CA
0334E:  MOVFF  4C,2C9
03352:  MOVFF  4B,2C8
03356:  MOVLB  0
03358:  CALL   2982
....................       output_high(PIN_C4);//COM_MUX COMSIDE 
0335C:  BCF    F94.4
0335E:  BSF    F8B.4
....................        
....................       output_low(PIN_A5);//CAM_MUX MAINSIDE 
03360:  BCF    F92.5
03362:  BCF    F89.5
....................       sector_erase_SMF(FAB_CW_ADDRESS + SECT);//erase next sector in advance 
03364:  MOVFF  4B,2B2
03368:  MOVLB  2
0336A:  MOVFF  4C,2B3
0336E:  MOVLW  01
03370:  ADDWF  4D,W
03372:  MOVWF  xB4
03374:  MOVLW  00
03376:  ADDWFC 4E,W
03378:  MOVWF  xB5
0337A:  MOVWF  xCB
0337C:  MOVFF  2B4,2CA
03380:  MOVFF  4C,2C9
03384:  MOVFF  4B,2C8
03388:  MOVLB  0
0338A:  CALL   2A1E
0338E:  MOVLB  2
....................        
....................    } 
....................    return; 
03390:  MOVLB  0
03392:  RETURN 0
.................... } 
....................  
....................  
.................... void LOOP_ADCS_SENSOR_ADDRESS() 
.................... { 
....................    if(ADCS_SENSOR_ADDRESS >= ADCS_SENSOR_ADDRESS_END)//for 15min operation, data size will be more than 1sector 
*
08470:  MOVF   52,W
08472:  SUBLW  05
08474:  BC    84EE
08476:  XORLW  FF
08478:  BNZ   8494
0847A:  MOVF   51,W
0847C:  SUBLW  5E
0847E:  BC    84EE
08480:  XORLW  FF
08482:  BNZ   8494
08484:  MOVF   50,W
08486:  SUBLW  C5
08488:  BC    84EE
0848A:  XORLW  FF
0848C:  BNZ   8494
0848E:  MOVF   4F,W
08490:  SUBLW  3F
08492:  BC    84EE
....................    { 
....................       sector_erase_OF(SECT*1140); 
08494:  MOVLW  04
08496:  MOVLB  2
08498:  MOVWF  xCB
0849A:  MOVLW  74
0849C:  MOVWF  xCA
0849E:  CLRF   xC9
084A0:  CLRF   xC8
084A2:  MOVLB  0
084A4:  CALL   28E6
....................        
....................       output_low(PIN_C4);//COM_MUX MAINSIDE 
084A8:  BCF    F94.4
084AA:  BCF    F8B.4
....................       sector_erase_SCF(SECT*1140); 
084AC:  MOVLW  04
084AE:  MOVLB  2
084B0:  MOVWF  xCB
084B2:  MOVLW  74
084B4:  MOVWF  xCA
084B6:  CLRF   xC9
084B8:  CLRF   xC8
084BA:  MOVLB  0
084BC:  CALL   2982
....................       output_high(PIN_C4);//COM_MUX COMSIDE 
084C0:  BCF    F94.4
084C2:  BSF    F8B.4
....................        
....................       output_low(PIN_A5);//CAM_MUX MAINSIDE 
084C4:  BCF    F92.5
084C6:  BCF    F89.5
....................       sector_erase_SMF(SECT*1140); 
084C8:  MOVLW  04
084CA:  MOVLB  2
084CC:  MOVWF  xCB
084CE:  MOVLW  74
084D0:  MOVWF  xCA
084D2:  CLRF   xC9
084D4:  CLRF   xC8
084D6:  MOVLB  0
084D8:  CALL   2A1E
....................        
....................       ADCS_SENSOR_ADDRESS = SECT*1140;//keep first 2 sector forever 
084DC:  MOVLW  04
084DE:  MOVWF  52
084E0:  MOVLW  74
084E2:  MOVWF  51
084E4:  CLRF   50
084E6:  CLRF   4F
....................       STORE_ADRESS_DATA_TO_FLASH(); 
084E8:  CALL   2ABA
....................    }else{ //if value will be close to the sector 
084EC:  BRA    85F0
....................       fprintf(PC,"erasing next sector\r\n"); 
084EE:  MOVLW  1E
084F0:  MOVWF  FF6
084F2:  MOVLW  05
084F4:  MOVWF  FF7
084F6:  MOVLW  00
084F8:  MOVWF  FF8
084FA:  CALL   24F4
....................        
....................       int i; 
....................       for(i = 1; i < 10; i++) 
084FE:  MOVLW  01
08500:  MOVLB  2
08502:  MOVWF  xB3
08504:  MOVF   xB3,W
08506:  SUBLW  09
08508:  BNC   854C
....................       { 
....................          sector_erase_OF(ADCS_SENSOR_ADDRESS + SECT*i);//erase next sector in advance 
0850A:  CLRF   01
0850C:  CLRF   02
0850E:  MOVFF  01,03
08512:  MOVFF  2B3,02
08516:  CLRF   00
08518:  CLRF   01
0851A:  MOVF   00,W
0851C:  ADDWF  4F,W
0851E:  MOVWF  xB4
08520:  MOVF   01,W
08522:  ADDWFC 50,W
08524:  MOVWF  xB5
08526:  MOVF   xB3,W
08528:  ADDWFC 51,W
0852A:  MOVWF  xB6
0852C:  MOVF   03,W
0852E:  ADDWFC 52,W
08530:  MOVWF  xB7
08532:  MOVWF  xCB
08534:  MOVFF  2B6,2CA
08538:  MOVFF  2B5,2C9
0853C:  MOVFF  2B4,2C8
08540:  MOVLB  0
08542:  CALL   28E6
08546:  MOVLB  2
08548:  INCF   xB3,F
0854A:  BRA    8504
....................       } 
....................        
....................       output_low(PIN_C4);//COM_MUX MAINSIDE 
0854C:  BCF    F94.4
0854E:  BCF    F8B.4
....................       for(i = 1; i < 10; i++) 
08550:  MOVLW  01
08552:  MOVWF  xB3
08554:  MOVF   xB3,W
08556:  SUBLW  09
08558:  BNC   859C
....................       { 
....................          sector_erase_SCF(ADCS_SENSOR_ADDRESS + SECT*i);//erase next sector in advance 
0855A:  CLRF   01
0855C:  CLRF   02
0855E:  MOVFF  01,03
08562:  MOVFF  2B3,02
08566:  CLRF   00
08568:  CLRF   01
0856A:  MOVF   00,W
0856C:  ADDWF  4F,W
0856E:  MOVWF  xB4
08570:  MOVF   01,W
08572:  ADDWFC 50,W
08574:  MOVWF  xB5
08576:  MOVF   xB3,W
08578:  ADDWFC 51,W
0857A:  MOVWF  xB6
0857C:  MOVF   03,W
0857E:  ADDWFC 52,W
08580:  MOVWF  xB7
08582:  MOVWF  xCB
08584:  MOVFF  2B6,2CA
08588:  MOVFF  2B5,2C9
0858C:  MOVFF  2B4,2C8
08590:  MOVLB  0
08592:  CALL   2982
08596:  MOVLB  2
08598:  INCF   xB3,F
0859A:  BRA    8554
....................       } 
....................       output_high(PIN_C4);//COM_MUX COMSIDE 
0859C:  BCF    F94.4
0859E:  BSF    F8B.4
....................        
....................       output_low(PIN_A5);//CAM_MUX MAINSIDE 
085A0:  BCF    F92.5
085A2:  BCF    F89.5
....................       for(i = 1; i < 10; i++) 
085A4:  MOVLW  01
085A6:  MOVWF  xB3
085A8:  MOVF   xB3,W
085AA:  SUBLW  09
085AC:  BNC   85F0
....................       { 
....................          sector_erase_SMF(ADCS_SENSOR_ADDRESS + SECT*i);//erase next sector in advance 
085AE:  CLRF   01
085B0:  CLRF   02
085B2:  MOVFF  01,03
085B6:  MOVFF  2B3,02
085BA:  CLRF   00
085BC:  CLRF   01
085BE:  MOVF   00,W
085C0:  ADDWF  4F,W
085C2:  MOVWF  xB4
085C4:  MOVF   01,W
085C6:  ADDWFC 50,W
085C8:  MOVWF  xB5
085CA:  MOVF   xB3,W
085CC:  ADDWFC 51,W
085CE:  MOVWF  xB6
085D0:  MOVF   03,W
085D2:  ADDWFC 52,W
085D4:  MOVWF  xB7
085D6:  MOVWF  xCB
085D8:  MOVFF  2B6,2CA
085DC:  MOVFF  2B5,2C9
085E0:  MOVFF  2B4,2C8
085E4:  MOVLB  0
085E6:  CALL   2A1E
085EA:  MOVLB  2
085EC:  INCF   xB3,F
085EE:  BRA    85A8
085F0:  MOVLB  0
....................       } 
....................    } 
....................    return; 
085F2:  GOTO   9492 (RETURN)
.................... } 
....................  
.................... void LOOP_DC_STATUS_ADDRESS() 
*
07DB6:  MOVF   53,F
07DB8:  BNZ   7DCA
07DBA:  MOVF   54,F
07DBC:  BNZ   7DCA
07DBE:  MOVF   55,F
07DC0:  BNZ   7DCA
07DC2:  MOVF   56,F
07DC4:  BNZ   7DCA
07DC6:  MOVLW  00
07DC8:  BRA    7DCC
07DCA:  MOVLW  01
07DCC:  MOVLB  2
07DCE:  CLRF   xAB
07DD0:  CLRF   xAA
07DD2:  CLRF   xA9
07DD4:  MOVWF  xA8
.................... { 
....................    int32 checksum = DC_STATUS_ADDRESS && 0x00000fff; 
....................    if(DC_STATUS_ADDRESS >= DC_STATUS_ADDRESS_END) 
07DD6:  MOVF   56,W
07DD8:  SUBLW  05
07DDA:  BC    7E5C
07DDC:  XORLW  FF
07DDE:  BNZ   7DFA
07DE0:  MOVF   55,W
07DE2:  SUBLW  65
07DE4:  BC    7E5C
07DE6:  XORLW  FF
07DE8:  BNZ   7DFA
07DEA:  MOVF   54,W
07DEC:  SUBLW  FD
07DEE:  BC    7E5C
07DF0:  XORLW  FF
07DF2:  BNZ   7DFA
07DF4:  MOVF   53,W
07DF6:  SUBLW  60
07DF8:  BC    7E5C
....................    { 
....................       SUBSECTOR_4KB_ERASE_OF(SECT*1639+4096); 
07DFA:  MOVLW  06
07DFC:  MOVWF  xD5
07DFE:  MOVLW  67
07E00:  MOVWF  xD4
07E02:  MOVLW  10
07E04:  MOVWF  xD3
07E06:  CLRF   xD2
07E08:  MOVLB  0
07E0A:  CALL   2338
....................        
....................       output_low(PIN_C4);//COM_MUX MAINSIDE 
07E0E:  BCF    F94.4
07E10:  BCF    F8B.4
....................       SUBSECTOR_4KB_ERASE_SCF(SECT*1639+4096); 
07E12:  MOVLW  06
07E14:  MOVLB  2
07E16:  MOVWF  xD5
07E18:  MOVLW  67
07E1A:  MOVWF  xD4
07E1C:  MOVLW  10
07E1E:  MOVWF  xD3
07E20:  CLRF   xD2
07E22:  MOVLB  0
07E24:  CALL   23C8
....................       output_high(PIN_C4);//COM_MUX COMSIDE 
07E28:  BCF    F94.4
07E2A:  BSF    F8B.4
....................        
....................       output_low(PIN_A5);//CAM_MUX MAINSIDE 
07E2C:  BCF    F92.5
07E2E:  BCF    F89.5
....................       SUBSECTOR_4KB_ERASE_SMF(SECT*1639+4096); 
07E30:  MOVLW  06
07E32:  MOVLB  2
07E34:  MOVWF  xD5
07E36:  MOVLW  67
07E38:  MOVWF  xD4
07E3A:  MOVLW  10
07E3C:  MOVWF  xD3
07E3E:  CLRF   xD2
07E40:  MOVLB  0
07E42:  CALL   2458
....................        
....................       DC_STATUS_ADDRESS = SECT*1639+4096;//keep first 1 SUBSECTOR forever 
07E46:  MOVLW  06
07E48:  MOVWF  56
07E4A:  MOVLW  67
07E4C:  MOVWF  55
07E4E:  MOVLW  10
07E50:  MOVWF  54
07E52:  CLRF   53
....................       STORE_ADRESS_DATA_TO_FLASH(); 
07E54:  CALL   2ABA
....................    }else if(4096 - checksum < 800){ //if value will be close to the sector 
07E58:  BRA    7F2E
07E5A:  MOVLB  2
07E5C:  MOVLW  00
07E5E:  BSF    FD8.0
07E60:  SUBFWB xA8,W
07E62:  MOVWF  xAC
07E64:  MOVLW  10
07E66:  SUBFWB xA9,W
07E68:  MOVWF  xAD
07E6A:  MOVLW  00
07E6C:  SUBFWB xAA,W
07E6E:  MOVWF  xAE
07E70:  MOVLW  00
07E72:  SUBFWB xAB,W
07E74:  MOVWF  xAF
07E76:  MOVF   xAF,F
07E78:  BNZ   7F30
07E7A:  MOVF   xAE,F
07E7C:  BNZ   7F30
07E7E:  MOVF   xAD,W
07E80:  SUBLW  03
07E82:  BNC   7F30
07E84:  BNZ   7E8C
07E86:  MOVF   xAC,W
07E88:  SUBLW  1F
07E8A:  BNC   7F30
....................       fprintf(PC,"erasing next sector\r\n"); 
07E8C:  MOVLW  34
07E8E:  MOVWF  FF6
07E90:  MOVLW  05
07E92:  MOVWF  FF7
07E94:  MOVLW  00
07E96:  MOVWF  FF8
07E98:  MOVLB  0
07E9A:  CALL   24F4
....................        
....................       SUBSECTOR_4KB_ERASE_OF(DC_STATUS_ADDRESS + 4096);//erase next SUBSECTOR in advance 
07E9E:  MOVFF  53,2AC
07EA2:  MOVLB  2
07EA4:  MOVLW  10
07EA6:  ADDWF  54,W
07EA8:  MOVWF  xAD
07EAA:  MOVLW  00
07EAC:  ADDWFC 55,W
07EAE:  MOVWF  xAE
07EB0:  MOVLW  00
07EB2:  ADDWFC 56,W
07EB4:  MOVWF  xAF
07EB6:  MOVWF  xD5
07EB8:  MOVFF  2AE,2D4
07EBC:  MOVFF  2AD,2D3
07EC0:  MOVFF  53,2D2
07EC4:  MOVLB  0
07EC6:  CALL   2338
....................        
....................       output_low(PIN_C4);//COM_MUX MAINSIDE 
07ECA:  BCF    F94.4
07ECC:  BCF    F8B.4
....................       SUBSECTOR_4KB_ERASE_SCF(DC_STATUS_ADDRESS + 4096);//erase next SUBSECTOR in advance 
07ECE:  MOVFF  53,2AC
07ED2:  MOVLB  2
07ED4:  MOVLW  10
07ED6:  ADDWF  54,W
07ED8:  MOVWF  xAD
07EDA:  MOVLW  00
07EDC:  ADDWFC 55,W
07EDE:  MOVWF  xAE
07EE0:  MOVLW  00
07EE2:  ADDWFC 56,W
07EE4:  MOVWF  xAF
07EE6:  MOVWF  xD5
07EE8:  MOVFF  2AE,2D4
07EEC:  MOVFF  2AD,2D3
07EF0:  MOVFF  53,2D2
07EF4:  MOVLB  0
07EF6:  CALL   23C8
....................       output_high(PIN_C4);//COM_MUX COMSIDE 
07EFA:  BCF    F94.4
07EFC:  BSF    F8B.4
....................        
....................       output_low(PIN_A5);//CAM_MUX MAINSIDE 
07EFE:  BCF    F92.5
07F00:  BCF    F89.5
....................       SUBSECTOR_4KB_ERASE_SMF(DC_STATUS_ADDRESS + 4096);//erase next SUBSECTOR in advance 
07F02:  MOVFF  53,2AC
07F06:  MOVLB  2
07F08:  MOVLW  10
07F0A:  ADDWF  54,W
07F0C:  MOVWF  xAD
07F0E:  MOVLW  00
07F10:  ADDWFC 55,W
07F12:  MOVWF  xAE
07F14:  MOVLW  00
07F16:  ADDWFC 56,W
07F18:  MOVWF  xAF
07F1A:  MOVWF  xD5
07F1C:  MOVFF  2AE,2D4
07F20:  MOVFF  2AD,2D3
07F24:  MOVFF  53,2D2
07F28:  MOVLB  0
07F2A:  CALL   2458
07F2E:  MOVLB  2
....................    } 
....................    return; 
07F30:  MOVLB  0
07F32:  GOTO   81C4 (RETURN)
.................... } 
....................  
.................... void LOOP_HIGH_SAMP_HK_ADDRESS() 
.................... { 
....................    if(HIGH_SAMP_HK_ADDRESS >= HIGH_SAMP_HK_ADDRESS_END)//for 15min operation, data size will be more than 2sector 
*
06506:  MOVF   5A,W
06508:  SUBLW  06
0650A:  BC    6580
0650C:  XORLW  FF
0650E:  BNZ   652A
06510:  MOVF   59,W
06512:  SUBLW  FB
06514:  BC    6580
06516:  XORLW  FF
06518:  BNZ   652A
0651A:  MOVF   58,W
0651C:  SUBLW  45
0651E:  BC    6580
06520:  XORLW  FF
06522:  BNZ   652A
06524:  MOVF   57,W
06526:  SUBLW  7F
06528:  BC    6580
....................    { 
....................       sector_erase_OF(SECT*1642); 
0652A:  MOVLW  06
0652C:  MOVLB  2
0652E:  MOVWF  xCB
06530:  MOVLW  6A
06532:  MOVWF  xCA
06534:  CLRF   xC9
06536:  CLRF   xC8
06538:  MOVLB  0
0653A:  CALL   28E6
....................        
....................       output_low(PIN_C4);//COM_MUX MAINSIDE 
0653E:  BCF    F94.4
06540:  BCF    F8B.4
....................       sector_erase_SCF(SECT*1642); 
06542:  MOVLW  06
06544:  MOVLB  2
06546:  MOVWF  xCB
06548:  MOVLW  6A
0654A:  MOVWF  xCA
0654C:  CLRF   xC9
0654E:  CLRF   xC8
06550:  MOVLB  0
06552:  CALL   2982
....................       output_high(PIN_C4);//COM_MUX COMSIDE 
06556:  BCF    F94.4
06558:  BSF    F8B.4
....................        
....................       output_low(PIN_A5);//CAM_MUX MAINSIDE 
0655A:  BCF    F92.5
0655C:  BCF    F89.5
....................       sector_erase_SMF(SECT*1642); 
0655E:  MOVLW  06
06560:  MOVLB  2
06562:  MOVWF  xCB
06564:  MOVLW  6A
06566:  MOVWF  xCA
06568:  CLRF   xC9
0656A:  CLRF   xC8
0656C:  MOVLB  0
0656E:  CALL   2A1E
....................        
....................       HIGH_SAMP_HK_ADDRESS = SECT*1642;//keep first 3 sector forever 
06572:  MOVLW  06
06574:  MOVWF  5A
06576:  MOVLW  6A
06578:  MOVWF  59
0657A:  CLRF   58
0657C:  CLRF   57
....................    }else{ //if value will be close to the sector 
0657E:  BRA    6716
....................       fprintf(PC,"erasing next sector\r\n"); 
06580:  MOVLW  4A
06582:  MOVWF  FF6
06584:  MOVLW  05
06586:  MOVWF  FF7
06588:  MOVLW  00
0658A:  MOVWF  FF8
0658C:  CALL   24F4
....................        
....................       sector_erase_OF(HIGH_SAMP_HK_ADDRESS + SECT);//erase next sector in advance 
06590:  MOVFF  57,2AE
06594:  MOVLB  2
06596:  MOVFF  58,2AF
0659A:  MOVLW  01
0659C:  ADDWF  59,W
0659E:  MOVWF  xB0
065A0:  MOVLW  00
065A2:  ADDWFC 5A,W
065A4:  MOVWF  xB1
065A6:  MOVWF  xCB
065A8:  MOVFF  2B0,2CA
065AC:  MOVFF  58,2C9
065B0:  MOVFF  57,2C8
065B4:  MOVLB  0
065B6:  CALL   28E6
....................       sector_erase_OF(HIGH_SAMP_HK_ADDRESS + SECT*2);//erase next sector in advance 
065BA:  MOVFF  57,2AE
065BE:  MOVLB  2
065C0:  MOVFF  58,2AF
065C4:  MOVLW  02
065C6:  ADDWF  59,W
065C8:  MOVWF  xB0
065CA:  MOVLW  00
065CC:  ADDWFC 5A,W
065CE:  MOVWF  xB1
065D0:  MOVWF  xCB
065D2:  MOVFF  2B0,2CA
065D6:  MOVFF  58,2C9
065DA:  MOVFF  57,2C8
065DE:  MOVLB  0
065E0:  CALL   28E6
....................       sector_erase_OF(HIGH_SAMP_HK_ADDRESS + SECT*3);//erase next sector in advance 
065E4:  MOVFF  57,2AE
065E8:  MOVLB  2
065EA:  MOVFF  58,2AF
065EE:  MOVLW  03
065F0:  ADDWF  59,W
065F2:  MOVWF  xB0
065F4:  MOVLW  00
065F6:  ADDWFC 5A,W
065F8:  MOVWF  xB1
065FA:  MOVWF  xCB
065FC:  MOVFF  2B0,2CA
06600:  MOVFF  58,2C9
06604:  MOVFF  57,2C8
06608:  MOVLB  0
0660A:  CALL   28E6
....................        
....................       output_low(PIN_C4);//COM_MUX MAINSIDE 
0660E:  BCF    F94.4
06610:  BCF    F8B.4
....................       sector_erase_SCF(HIGH_SAMP_HK_ADDRESS + SECT);//erase next sector in advance 
06612:  MOVFF  57,2AE
06616:  MOVLB  2
06618:  MOVFF  58,2AF
0661C:  MOVLW  01
0661E:  ADDWF  59,W
06620:  MOVWF  xB0
06622:  MOVLW  00
06624:  ADDWFC 5A,W
06626:  MOVWF  xB1
06628:  MOVWF  xCB
0662A:  MOVFF  2B0,2CA
0662E:  MOVFF  58,2C9
06632:  MOVFF  57,2C8
06636:  MOVLB  0
06638:  CALL   2982
....................       sector_erase_SCF(HIGH_SAMP_HK_ADDRESS + SECT*2);//erase next sector in advance 
0663C:  MOVFF  57,2AE
06640:  MOVLB  2
06642:  MOVFF  58,2AF
06646:  MOVLW  02
06648:  ADDWF  59,W
0664A:  MOVWF  xB0
0664C:  MOVLW  00
0664E:  ADDWFC 5A,W
06650:  MOVWF  xB1
06652:  MOVWF  xCB
06654:  MOVFF  2B0,2CA
06658:  MOVFF  58,2C9
0665C:  MOVFF  57,2C8
06660:  MOVLB  0
06662:  CALL   2982
....................       sector_erase_SCF(HIGH_SAMP_HK_ADDRESS + SECT*3);//erase next sector in advance 
06666:  MOVFF  57,2AE
0666A:  MOVLB  2
0666C:  MOVFF  58,2AF
06670:  MOVLW  03
06672:  ADDWF  59,W
06674:  MOVWF  xB0
06676:  MOVLW  00
06678:  ADDWFC 5A,W
0667A:  MOVWF  xB1
0667C:  MOVWF  xCB
0667E:  MOVFF  2B0,2CA
06682:  MOVFF  58,2C9
06686:  MOVFF  57,2C8
0668A:  MOVLB  0
0668C:  CALL   2982
....................       output_high(PIN_C4);//COM_MUX COMSIDE 
06690:  BCF    F94.4
06692:  BSF    F8B.4
....................        
....................       output_low(PIN_A5);//CAM_MUX MAINSIDE 
06694:  BCF    F92.5
06696:  BCF    F89.5
....................       sector_erase_SMF(HIGH_SAMP_HK_ADDRESS + SECT);//erase next sector in advance 
06698:  MOVFF  57,2AE
0669C:  MOVLB  2
0669E:  MOVFF  58,2AF
066A2:  MOVLW  01
066A4:  ADDWF  59,W
066A6:  MOVWF  xB0
066A8:  MOVLW  00
066AA:  ADDWFC 5A,W
066AC:  MOVWF  xB1
066AE:  MOVWF  xCB
066B0:  MOVFF  2B0,2CA
066B4:  MOVFF  58,2C9
066B8:  MOVFF  57,2C8
066BC:  MOVLB  0
066BE:  CALL   2A1E
....................       sector_erase_SMF(HIGH_SAMP_HK_ADDRESS + SECT*2);//erase next sector in advance 
066C2:  MOVFF  57,2AE
066C6:  MOVLB  2
066C8:  MOVFF  58,2AF
066CC:  MOVLW  02
066CE:  ADDWF  59,W
066D0:  MOVWF  xB0
066D2:  MOVLW  00
066D4:  ADDWFC 5A,W
066D6:  MOVWF  xB1
066D8:  MOVWF  xCB
066DA:  MOVFF  2B0,2CA
066DE:  MOVFF  58,2C9
066E2:  MOVFF  57,2C8
066E6:  MOVLB  0
066E8:  CALL   2A1E
....................       sector_erase_SMF(HIGH_SAMP_HK_ADDRESS + SECT*3);//erase next sector in advance 
066EC:  MOVFF  57,2AE
066F0:  MOVLB  2
066F2:  MOVFF  58,2AF
066F6:  MOVLW  03
066F8:  ADDWF  59,W
066FA:  MOVWF  xB0
066FC:  MOVLW  00
066FE:  ADDWFC 5A,W
06700:  MOVWF  xB1
06702:  MOVWF  xCB
06704:  MOVFF  2B0,2CA
06708:  MOVFF  58,2C9
0670C:  MOVFF  57,2C8
06710:  MOVLB  0
06712:  CALL   2A1E
....................    } 
....................    return; 
06716:  GOTO   7220 (RETURN)
.................... } 
....................  
....................  
....................  
....................  
.................... #include<reserve_function.c> 
....................  
....................  
.................... #define table_size 30 
.................... unsigned int8 reserve_table[table_size+1] = {}; 
.................... unsigned int8 table_num = 0; 
....................  
.................... void initialize_table() 
.................... { 
....................    for(int num = 0; num < table_size; num++) 
*
0281E:  MOVLB  2
02820:  CLRF   xAA
02822:  MOVF   xAA,W
02824:  SUBLW  1D
02826:  BNC   283C
....................    { 
....................       reserve_table[num] = 0xff; 
02828:  CLRF   03
0282A:  MOVF   xAA,W
0282C:  ADDLW  27
0282E:  MOVWF  FE9
02830:  MOVLW  01
02832:  ADDWFC 03,W
02834:  MOVWF  FEA
02836:  SETF   FEF
02838:  INCF   xAA,F
0283A:  BRA    2822
....................    } 
....................    reserve_table[30] = 0; 
0283C:  MOVLB  1
0283E:  CLRF   x45
....................    return; 
02840:  MOVLB  0
02842:  GOTO   28BA (RETURN)
.................... } 
....................  
.................... //////////////////////////////////////////////////////////////////////////////////////////////// 
.................... //                          ***Sort Function*** 
.................... //This is for sorting the saved reservation commands in ascending order. 
.................... // 
.................... //reserved_table[j-4] reserved_table[j-3] reserved_table[j-2] 
.................... //reserved_table[j-1]  reserved_table[j]  reserved_table[j+1] 
.................... // 
.................... //j-4 and j-1 data are the contents information(like mission) 
.................... //j-3 and j data are the time data(execute the command reserved_table[j] min later ) 
.................... //j-2 and j+1 data are the contents detail information 
.................... // 
.................... //by comapring j-3 and j data,if it is needed, swhich j-4 and j-1, j-3 and j, j-2 and j+1 
.................... //////////////////////////////////////////////////////////////////////////////////////////////// 
....................  
.................... int8 count_reservation() 
*
027E6:  MOVLB  2
027E8:  CLRF   xAA
.................... { 
....................    int8 counter = 0; 
....................    for(int num = 1; num < table_size - 1; num = num + 3) 
027EA:  MOVLW  01
027EC:  MOVWF  xAB
027EE:  MOVF   xAB,W
027F0:  SUBLW  1C
027F2:  BNC   2812
....................    { 
....................       if(reserve_table[num-1] != 0xff) 
027F4:  MOVLW  01
027F6:  SUBWF  xAB,W
027F8:  CLRF   03
027FA:  ADDLW  27
027FC:  MOVWF  FE9
027FE:  MOVLW  01
02800:  ADDWFC 03,W
02802:  MOVWF  FEA
02804:  INCFSZ FEF,W
02806:  BRA    280A
02808:  BRA    280C
....................       { 
....................          counter++; 
0280A:  INCF   xAA,F
....................       } 
0280C:  MOVLW  03
0280E:  ADDWF  xAB,F
02810:  BRA    27EE
....................    } 
....................    return counter * 3; 
02812:  MOVF   xAA,W
02814:  MULLW  03
02816:  MOVFF  FF3,01
0281A:  MOVLB  0
0281C:  RETURN 0
.................... } 
....................  
.................... void sort_table()//(command info, time info, mission mode)~10compare the time and sort 
.................... { 
....................    for(int i = 1; i < table_size - 2; i = i + 3){ 
*
0C396:  MOVLW  01
0C398:  MOVLB  2
0C39A:  MOVWF  xA2
0C39C:  MOVF   xA2,W
0C39E:  SUBLW  1B
0C3A0:  BTFSS  FD8.0
0C3A2:  BRA    C4F0
....................  
....................       // compare from lower site 
....................       for(int j = table_size - 2; j > i; j = j - 3){ 
0C3A4:  MOVLW  1C
0C3A6:  MOVWF  xA3
0C3A8:  MOVF   xA3,W
0C3AA:  SUBWF  xA2,W
0C3AC:  BTFSC  FD8.0
0C3AE:  BRA    C4EA
....................  
....................       // if upper value is larger, switch the values 
....................          if(reserve_table[j] < reserve_table[j-3]){//compare the time of [j]th and [j-3]th 
0C3B0:  CLRF   03
0C3B2:  MOVF   xA3,W
0C3B4:  ADDLW  27
0C3B6:  MOVWF  FE9
0C3B8:  MOVLW  01
0C3BA:  ADDWFC 03,W
0C3BC:  MOVWF  FEA
0C3BE:  MOVFF  FEF,2A7
0C3C2:  MOVLW  03
0C3C4:  SUBWF  xA3,W
0C3C6:  CLRF   03
0C3C8:  ADDLW  27
0C3CA:  MOVWF  FE9
0C3CC:  MOVLW  01
0C3CE:  ADDWFC 03,W
0C3D0:  MOVWF  FEA
0C3D2:  MOVF   FEF,W
0C3D4:  SUBWF  xA7,W
0C3D6:  BTFSC  FD8.0
0C3D8:  BRA    C4E4
....................             int t1 = reserve_table[j+1]; 
....................             int t2 = reserve_table[j]; 
....................             int t3 = reserve_table[j-1]; 
0C3DA:  MOVLW  01
0C3DC:  ADDWF  xA3,W
0C3DE:  CLRF   03
0C3E0:  ADDLW  27
0C3E2:  MOVWF  FE9
0C3E4:  MOVLW  01
0C3E6:  ADDWFC 03,W
0C3E8:  MOVWF  FEA
0C3EA:  MOVFF  FEF,2A4
0C3EE:  CLRF   03
0C3F0:  MOVF   xA3,W
0C3F2:  ADDLW  27
0C3F4:  MOVWF  FE9
0C3F6:  MOVLW  01
0C3F8:  ADDWFC 03,W
0C3FA:  MOVWF  FEA
0C3FC:  MOVFF  FEF,2A5
0C400:  MOVLW  01
0C402:  SUBWF  xA3,W
0C404:  CLRF   03
0C406:  ADDLW  27
0C408:  MOVWF  FE9
0C40A:  MOVLW  01
0C40C:  ADDWFC 03,W
0C40E:  MOVWF  FEA
0C410:  MOVFF  FEF,2A6
....................              
....................             reserve_table[j+1] = reserve_table[j-2]; 
0C414:  MOVLW  01
0C416:  ADDWF  xA3,W
0C418:  CLRF   03
0C41A:  ADDLW  27
0C41C:  MOVWF  01
0C41E:  MOVLW  01
0C420:  ADDWFC 03,F
0C422:  MOVFF  03,2A8
0C426:  MOVLW  02
0C428:  SUBWF  xA3,W
0C42A:  CLRF   03
0C42C:  ADDLW  27
0C42E:  MOVWF  FE9
0C430:  MOVLW  01
0C432:  ADDWFC 03,W
0C434:  MOVWF  FEA
0C436:  MOVFF  FEF,2A9
0C43A:  MOVFF  2A8,FEA
0C43E:  MOVFF  01,FE9
0C442:  MOVFF  2A9,FEF
....................             reserve_table[j] = reserve_table[j-3]; 
0C446:  CLRF   03
0C448:  MOVF   xA3,W
0C44A:  ADDLW  27
0C44C:  MOVWF  01
0C44E:  MOVLW  01
0C450:  ADDWFC 03,F
0C452:  MOVFF  03,2A8
0C456:  MOVLW  03
0C458:  SUBWF  xA3,W
0C45A:  CLRF   03
0C45C:  ADDLW  27
0C45E:  MOVWF  FE9
0C460:  MOVLW  01
0C462:  ADDWFC 03,W
0C464:  MOVWF  FEA
0C466:  MOVFF  FEF,2A9
0C46A:  MOVFF  2A8,FEA
0C46E:  MOVFF  01,FE9
0C472:  MOVFF  2A9,FEF
....................             reserve_table[j-1] = reserve_table[j-4]; 
0C476:  MOVLW  01
0C478:  SUBWF  xA3,W
0C47A:  CLRF   03
0C47C:  ADDLW  27
0C47E:  MOVWF  01
0C480:  MOVLW  01
0C482:  ADDWFC 03,F
0C484:  MOVFF  03,2A8
0C488:  MOVLW  04
0C48A:  SUBWF  xA3,W
0C48C:  CLRF   03
0C48E:  ADDLW  27
0C490:  MOVWF  FE9
0C492:  MOVLW  01
0C494:  ADDWFC 03,W
0C496:  MOVWF  FEA
0C498:  MOVFF  FEF,2A9
0C49C:  MOVFF  2A8,FEA
0C4A0:  MOVFF  01,FE9
0C4A4:  MOVFF  2A9,FEF
....................              
....................             reserve_table[j-2] = t1; 
0C4A8:  MOVLW  02
0C4AA:  SUBWF  xA3,W
0C4AC:  CLRF   03
0C4AE:  ADDLW  27
0C4B0:  MOVWF  FE9
0C4B2:  MOVLW  01
0C4B4:  ADDWFC 03,W
0C4B6:  MOVWF  FEA
0C4B8:  MOVFF  2A4,FEF
....................             reserve_table[j-3] = t2; 
0C4BC:  MOVLW  03
0C4BE:  SUBWF  xA3,W
0C4C0:  CLRF   03
0C4C2:  ADDLW  27
0C4C4:  MOVWF  FE9
0C4C6:  MOVLW  01
0C4C8:  ADDWFC 03,W
0C4CA:  MOVWF  FEA
0C4CC:  MOVFF  2A5,FEF
....................             reserve_table[j-4] = t3; 
0C4D0:  MOVLW  04
0C4D2:  SUBWF  xA3,W
0C4D4:  CLRF   03
0C4D6:  ADDLW  27
0C4D8:  MOVWF  FE9
0C4DA:  MOVLW  01
0C4DC:  ADDWFC 03,W
0C4DE:  MOVWF  FEA
0C4E0:  MOVFF  2A6,FEF
....................          } 
0C4E4:  MOVLW  03
0C4E6:  SUBWF  xA3,F
0C4E8:  BRA    C3A8
....................       } 
0C4EA:  MOVLW  03
0C4EC:  ADDWF  xA2,F
0C4EE:  BRA    C39C
....................    } 
....................    return; 
0C4F0:  MOVLB  0
0C4F2:  RETURN 0
.................... } 
....................  
.................... void Save_RSV() 
.................... { 
....................    output_low(PIN_A5);//CAM_MUX MAINSIDE 
*
06E06:  BCF    F92.5
06E08:  BCF    F89.5
....................    output_low(PIN_C4);//COM_MUX MAINSIDE 
06E0A:  BCF    F94.4
06E0C:  BCF    F8B.4
....................    SUBSECTOR_4KB_ERASE_OF(RSV_DATA_ADDRESS); 
06E0E:  MOVFF  3E,2D5
06E12:  MOVFF  3D,2D4
06E16:  MOVFF  3C,2D3
06E1A:  MOVFF  3B,2D2
06E1E:  CALL   2338
....................    delay_ms(100); 
06E22:  MOVLW  64
06E24:  MOVLB  2
06E26:  MOVWF  xDB
06E28:  MOVLB  0
06E2A:  CALL   230E
....................    SUBSECTOR_4KB_ERASE_SCF(RSV_DATA_ADDRESS); 
06E2E:  MOVFF  3E,2D5
06E32:  MOVFF  3D,2D4
06E36:  MOVFF  3C,2D3
06E3A:  MOVFF  3B,2D2
06E3E:  CALL   23C8
....................    delay_ms(100); 
06E42:  MOVLW  64
06E44:  MOVLB  2
06E46:  MOVWF  xDB
06E48:  MOVLB  0
06E4A:  CALL   230E
....................    SUBSECTOR_4KB_ERASE_SMF(RSV_DATA_ADDRESS); 
06E4E:  MOVFF  3E,2D5
06E52:  MOVFF  3D,2D4
06E56:  MOVFF  3C,2D3
06E5A:  MOVFF  3B,2D2
06E5E:  CALL   2458
....................    delay_ms(100); 
06E62:  MOVLW  64
06E64:  MOVLB  2
06E66:  MOVWF  xDB
06E68:  MOVLB  0
06E6A:  CALL   230E
....................     
....................    for(int num = 0; num < table_size + 1; num++) 
06E6E:  MOVLB  2
06E70:  CLRF   xB4
06E72:  MOVF   xB4,W
06E74:  SUBLW  1E
06E76:  BNC   6F42
....................    { 
....................       WRITE_DATA_BYTE_OF(RSV_DATA_ADDRESS+num,reserve_table[num]); 
06E78:  MOVF   xB4,W
06E7A:  ADDWF  3B,W
06E7C:  MOVWF  xB5
06E7E:  MOVLW  00
06E80:  ADDWFC 3C,W
06E82:  MOVWF  xB6
06E84:  MOVLW  00
06E86:  ADDWFC 3D,W
06E88:  MOVWF  xB7
06E8A:  MOVLW  00
06E8C:  ADDWFC 3E,W
06E8E:  MOVWF  xB8
06E90:  CLRF   03
06E92:  MOVF   xB4,W
06E94:  ADDLW  27
06E96:  MOVWF  FE9
06E98:  MOVLW  01
06E9A:  ADDWFC 03,W
06E9C:  MOVWF  FEA
06E9E:  MOVFF  FEF,2D7
06EA2:  MOVFF  2B8,2D6
06EA6:  MOVFF  2B7,2D5
06EAA:  MOVFF  2B6,2D4
06EAE:  MOVFF  2B5,2D3
06EB2:  MOVLB  0
06EB4:  CALL   1080
....................       WRITE_DATA_BYTE_SMF(RSV_DATA_ADDRESS+num,reserve_table[num]); 
06EB8:  MOVLB  2
06EBA:  MOVF   xB4,W
06EBC:  ADDWF  3B,W
06EBE:  MOVWF  xB5
06EC0:  MOVLW  00
06EC2:  ADDWFC 3C,W
06EC4:  MOVWF  xB6
06EC6:  MOVLW  00
06EC8:  ADDWFC 3D,W
06ECA:  MOVWF  xB7
06ECC:  MOVLW  00
06ECE:  ADDWFC 3E,W
06ED0:  MOVWF  xB8
06ED2:  CLRF   03
06ED4:  MOVF   xB4,W
06ED6:  ADDLW  27
06ED8:  MOVWF  FE9
06EDA:  MOVLW  01
06EDC:  ADDWFC 03,W
06EDE:  MOVWF  FEA
06EE0:  MOVFF  FEF,2D7
06EE4:  MOVFF  2B8,2D6
06EE8:  MOVFF  2B7,2D5
06EEC:  MOVFF  2B6,2D4
06EF0:  MOVFF  2B5,2D3
06EF4:  MOVLB  0
06EF6:  CALL   1198
....................       WRITE_DATA_BYTE_SCF(RSV_DATA_ADDRESS+num,reserve_table[num]); 
06EFA:  MOVLB  2
06EFC:  MOVF   xB4,W
06EFE:  ADDWF  3B,W
06F00:  MOVWF  xB5
06F02:  MOVLW  00
06F04:  ADDWFC 3C,W
06F06:  MOVWF  xB6
06F08:  MOVLW  00
06F0A:  ADDWFC 3D,W
06F0C:  MOVWF  xB7
06F0E:  MOVLW  00
06F10:  ADDWFC 3E,W
06F12:  MOVWF  xB8
06F14:  CLRF   03
06F16:  MOVF   xB4,W
06F18:  ADDLW  27
06F1A:  MOVWF  FE9
06F1C:  MOVLW  01
06F1E:  ADDWFC 03,W
06F20:  MOVWF  FEA
06F22:  MOVFF  FEF,2D7
06F26:  MOVFF  2B8,2D6
06F2A:  MOVFF  2B7,2D5
06F2E:  MOVFF  2B6,2D4
06F32:  MOVFF  2B5,2D3
06F36:  MOVLB  0
06F38:  CALL   110C
06F3C:  MOVLB  2
06F3E:  INCF   xB4,F
06F40:  BRA    6E72
....................    } 
....................     
....................    WRITE_DATA_BYTE_OF(RSV_DATA_ADDRESS+31,RESERVE_MIN_FLAG); 
06F42:  MOVLW  1F
06F44:  ADDWF  3B,W
06F46:  MOVWF  xB5
06F48:  MOVLW  00
06F4A:  ADDWFC 3C,W
06F4C:  MOVWF  xB6
06F4E:  MOVLW  00
06F50:  ADDWFC 3D,W
06F52:  MOVWF  xB7
06F54:  MOVLW  00
06F56:  ADDWFC 3E,W
06F58:  MOVWF  xB8
06F5A:  MOVWF  xD6
06F5C:  MOVFF  2B7,2D5
06F60:  MOVFF  2B6,2D4
06F64:  MOVFF  2B5,2D3
06F68:  MOVFF  67,2D7
06F6C:  MOVLB  0
06F6E:  CALL   1080
....................    WRITE_DATA_BYTE_SCF(RSV_DATA_ADDRESS+31,RESERVE_MIN_FLAG); 
06F72:  MOVLW  1F
06F74:  ADDWF  3B,W
06F76:  MOVLB  2
06F78:  MOVWF  xB5
06F7A:  MOVLW  00
06F7C:  ADDWFC 3C,W
06F7E:  MOVWF  xB6
06F80:  MOVLW  00
06F82:  ADDWFC 3D,W
06F84:  MOVWF  xB7
06F86:  MOVLW  00
06F88:  ADDWFC 3E,W
06F8A:  MOVWF  xB8
06F8C:  MOVWF  xD6
06F8E:  MOVFF  2B7,2D5
06F92:  MOVFF  2B6,2D4
06F96:  MOVFF  2B5,2D3
06F9A:  MOVFF  67,2D7
06F9E:  MOVLB  0
06FA0:  CALL   110C
....................    WRITE_DATA_BYTE_SMF(RSV_DATA_ADDRESS+31,RESERVE_MIN_FLAG); 
06FA4:  MOVLW  1F
06FA6:  ADDWF  3B,W
06FA8:  MOVLB  2
06FAA:  MOVWF  xB5
06FAC:  MOVLW  00
06FAE:  ADDWFC 3C,W
06FB0:  MOVWF  xB6
06FB2:  MOVLW  00
06FB4:  ADDWFC 3D,W
06FB6:  MOVWF  xB7
06FB8:  MOVLW  00
06FBA:  ADDWFC 3E,W
06FBC:  MOVWF  xB8
06FBE:  MOVWF  xD6
06FC0:  MOVFF  2B7,2D5
06FC4:  MOVFF  2B6,2D4
06FC8:  MOVFF  2B5,2D3
06FCC:  MOVFF  67,2D7
06FD0:  MOVLB  0
06FD2:  CALL   1198
....................    for(num = 0; num < table_size + 1; num++) 
06FD6:  MOVLB  2
06FD8:  CLRF   xB4
06FDA:  MOVF   xB4,W
06FDC:  SUBLW  1E
06FDE:  BNC   7026
....................    { 
....................       fprintf(PC,"%x",READ_DATA_BYTE_OF(RSV_DATA_ADDRESS + num)); 
06FE0:  MOVF   xB4,W
06FE2:  ADDWF  3B,W
06FE4:  MOVWF  xB5
06FE6:  MOVLW  00
06FE8:  ADDWFC 3C,W
06FEA:  MOVWF  xB6
06FEC:  MOVLW  00
06FEE:  ADDWFC 3D,W
06FF0:  MOVWF  xB7
06FF2:  MOVLW  00
06FF4:  ADDWFC 3E,W
06FF6:  MOVWF  xB8
06FF8:  MOVWF  xDC
06FFA:  MOVFF  2B7,2DB
06FFE:  MOVFF  2B6,2DA
07002:  MOVFF  2B5,2D9
07006:  MOVLB  0
07008:  CALL   0DBE
0700C:  MOVFF  01,2B5
07010:  MOVFF  01,2D3
07014:  MOVLW  57
07016:  MOVLB  2
07018:  MOVWF  xD4
0701A:  MOVLB  0
0701C:  CALL   123E
07020:  MOVLB  2
07022:  INCF   xB4,F
07024:  BRA    6FDA
....................    } 
....................    output_high(PIN_C4);//COM_MUX MAINSIDE 
07026:  BCF    F94.4
07028:  BSF    F8B.4
....................    fprintf(PC,"\r\n"); 
0702A:  MOVLW  0D
0702C:  BTFSS  F9E.4
0702E:  BRA    702C
07030:  MOVWF  FAD
07032:  MOVLW  0A
07034:  BTFSS  F9E.4
07036:  BRA    7034
07038:  MOVWF  FAD
....................    return; 
0703A:  MOVLB  0
0703C:  RETURN 0
.................... } 
....................  
.................... void table_refresh()//everything is back to default  
.................... { 
....................    for(int i = 0; i < table_size; i++) 
*
0C768:  MOVLB  2
0C76A:  CLRF   xA8
0C76C:  MOVF   xA8,W
0C76E:  SUBLW  1D
0C770:  BNC   C786
....................    { 
....................       reserve_table[i] = 0xff; 
0C772:  CLRF   03
0C774:  MOVF   xA8,W
0C776:  ADDLW  27
0C778:  MOVWF  FE9
0C77A:  MOVLW  01
0C77C:  ADDWFC 03,W
0C77E:  MOVWF  FEA
0C780:  SETF   FEF
0C782:  INCF   xA8,F
0C784:  BRA    C76C
....................    } 
....................    reserve_table[30] = 0; 
0C786:  MOVLB  1
0C788:  CLRF   x45
....................    RESERVE_MIN_FLAG = 0; 
0C78A:  MOVLB  0
0C78C:  CLRF   x67
....................    RESERVE_SEC_FLAG = 0; 
0C78E:  CLRF   x73
....................    RESERVE_CHECK = 0; 
0C790:  CLRF   x66
....................    MISSION_CONTENTS = 0;//closest mission command 
0C792:  CLRF   x69
....................    RESERVE_TARGET_FLAG = 0;//closest time data 
0C794:  CLRF   x68
....................    MISSION_DETAIL = 0;//closest mission command detail 
0C796:  CLRF   x6A
....................    Save_RSV(); 
0C798:  CALL   6E06
....................    return; 
0C79C:  GOTO   CB90 (RETURN)
.................... } 
....................  
.................... void Get_RSV() 
.................... { 
....................    //fprintf(PC,"%x"); 
....................    for(int num = 0; num < table_size+1; num++) 
*
02846:  MOVLB  2
02848:  CLRF   xA9
0284A:  MOVF   xA9,W
0284C:  SUBLW  1E
0284E:  BNC   28A2
....................    { 
....................       reserve_table[num]=READ_DATA_BYTE_OF(RSV_DATA_ADDRESS + num);//import reservation table info 
02850:  CLRF   03
02852:  MOVF   xA9,W
02854:  ADDLW  27
02856:  MOVWF  01
02858:  MOVLW  01
0285A:  ADDWFC 03,F
0285C:  MOVFF  01,2AA
02860:  MOVFF  03,2AB
02864:  MOVF   xA9,W
02866:  ADDWF  3B,W
02868:  MOVWF  xAC
0286A:  MOVLW  00
0286C:  ADDWFC 3C,W
0286E:  MOVWF  xAD
02870:  MOVLW  00
02872:  ADDWFC 3D,W
02874:  MOVWF  xAE
02876:  MOVLW  00
02878:  ADDWFC 3E,W
0287A:  MOVWF  xAF
0287C:  MOVWF  xDC
0287E:  MOVFF  2AE,2DB
02882:  MOVFF  2AD,2DA
02886:  MOVFF  2AC,2D9
0288A:  MOVLB  0
0288C:  CALL   0DBE
02890:  MOVFF  2AB,FEA
02894:  MOVFF  2AA,FE9
02898:  MOVFF  01,FEF
0289C:  MOVLB  2
0289E:  INCF   xA9,F
028A0:  BRA    284A
....................    } 
....................    reserve_table[30] = count_reservation();//count the number of the data 
028A2:  MOVLB  0
028A4:  RCALL  27E6
028A6:  MOVFF  01,145
.................... //   RESERVE_MIN_FLAG = READ_DATA_BYTE_OF(RSV_DATA_ADDRESS+31); 
....................    if(reserve_table[30] == 0xFF || reserve_table[30] == 0x00)//if no data 
028AA:  MOVLB  1
028AC:  INCFSZ x45,W
028AE:  BRA    28B2
028B0:  BRA    28B6
028B2:  MOVF   x45,F
028B4:  BNZ   28BC
....................    { 
....................       initialize_table();//table info --> 0xff, reserve_table[30] = 0x00 
028B6:  MOVLB  0
028B8:  BRA    281E
028BA:  MOVLB  1
....................    } 
....................    table_num = reserve_table[30]; 
028BC:  MOVFF  145,146
....................    if(table_num != 0x00)//yes-->get reserved command and target time 
028C0:  MOVF   x46,F
028C2:  BZ    28DA
....................    { 
....................       RESERVE_CHECK = 1; 
028C4:  MOVLW  01
028C6:  MOVLB  0
028C8:  MOVWF  x66
....................       MISSION_CONTENTS = reserve_table[0];//closest mission command 
028CA:  MOVFF  127,69
....................       RESERVE_TARGET_FLAG = reserve_table[1];//closest time data 
028CE:  MOVFF  128,68
....................       MISSION_DETAIL = reserve_table[2];//closest mission command detail 
028D2:  MOVFF  129,6A
....................    }else{ 
028D6:  BRA    28E4
028D8:  MOVLB  1
....................       RESERVE_CHECK = 0; 
028DA:  MOVLB  0
028DC:  CLRF   x66
....................       MISSION_CONTENTS = 0xff;//closest mission command 
028DE:  SETF   x69
....................       RESERVE_TARGET_FLAG = 0xff;//closest time data 
028E0:  SETF   x68
....................       MISSION_DETAIL = 0xff;//closest mission command detail 
028E2:  SETF   x6A
....................    } 
....................    return; 
028E4:  RETURN 0
.................... } 
....................  
.................... void Disp_RSV()//show the reserve status (reserve command and reserve table) 
.................... { 
....................    Get_RSV();//get the info from the main flash 
*
0B278:  CALL   2846
....................    for(int num = 0; num < table_size + 1; num++) 
0B27C:  MOVLB  2
0B27E:  CLRF   xA8
0B280:  MOVF   xA8,W
0B282:  SUBLW  1E
0B284:  BNC   B2A8
....................    { 
....................       fprintf(PC,"%x",reserve_table[num]); 
0B286:  CLRF   03
0B288:  MOVF   xA8,W
0B28A:  ADDLW  27
0B28C:  MOVWF  FE9
0B28E:  MOVLW  01
0B290:  ADDWFC 03,W
0B292:  MOVWF  FEA
0B294:  MOVFF  FEF,2D3
0B298:  MOVLW  57
0B29A:  MOVWF  xD4
0B29C:  MOVLB  0
0B29E:  CALL   123E
0B2A2:  MOVLB  2
0B2A4:  INCF   xA8,F
0B2A6:  BRA    B280
....................    } 
....................    fprintf(PC,"\r\n"); 
0B2A8:  MOVLW  0D
0B2AA:  BTFSS  F9E.4
0B2AC:  BRA    B2AA
0B2AE:  MOVWF  FAD
0B2B0:  MOVLW  0A
0B2B2:  BTFSS  F9E.4
0B2B4:  BRA    B2B2
0B2B6:  MOVWF  FAD
....................    fprintf(PC,"RESERVE_CHECK = %x\r\n",RESERVE_CHECK); 
0B2B8:  MOVLW  60
0B2BA:  MOVWF  FF6
0B2BC:  MOVLW  05
0B2BE:  MOVWF  FF7
0B2C0:  MOVLW  00
0B2C2:  MOVWF  FF8
0B2C4:  MOVLW  10
0B2C6:  MOVWF  xD2
0B2C8:  MOVLB  0
0B2CA:  CALL   120C
0B2CE:  MOVFF  66,2D3
0B2D2:  MOVLW  57
0B2D4:  MOVLB  2
0B2D6:  MOVWF  xD4
0B2D8:  MOVLB  0
0B2DA:  CALL   123E
0B2DE:  MOVLW  0D
0B2E0:  BTFSS  F9E.4
0B2E2:  BRA    B2E0
0B2E4:  MOVWF  FAD
0B2E6:  MOVLW  0A
0B2E8:  BTFSS  F9E.4
0B2EA:  BRA    B2E8
0B2EC:  MOVWF  FAD
....................    fprintf(PC,"NEXT MISSION_CONTENTS = %x\r\n",MISSION_CONTENTS); 
0B2EE:  MOVLW  76
0B2F0:  MOVWF  FF6
0B2F2:  MOVLW  05
0B2F4:  MOVWF  FF7
0B2F6:  MOVLW  00
0B2F8:  MOVWF  FF8
0B2FA:  MOVLW  18
0B2FC:  MOVLB  2
0B2FE:  MOVWF  xD2
0B300:  MOVLB  0
0B302:  CALL   120C
0B306:  MOVFF  69,2D3
0B30A:  MOVLW  57
0B30C:  MOVLB  2
0B30E:  MOVWF  xD4
0B310:  MOVLB  0
0B312:  CALL   123E
0B316:  MOVLW  0D
0B318:  BTFSS  F9E.4
0B31A:  BRA    B318
0B31C:  MOVWF  FAD
0B31E:  MOVLW  0A
0B320:  BTFSS  F9E.4
0B322:  BRA    B320
0B324:  MOVWF  FAD
....................    fprintf(PC,"RESERVE_TARGET_FLAG = %x\r\n",RESERVE_TARGET_FLAG); 
0B326:  MOVLW  94
0B328:  MOVWF  FF6
0B32A:  MOVLW  05
0B32C:  MOVWF  FF7
0B32E:  MOVLW  00
0B330:  MOVWF  FF8
0B332:  MOVLW  16
0B334:  MOVLB  2
0B336:  MOVWF  xD2
0B338:  MOVLB  0
0B33A:  CALL   120C
0B33E:  MOVFF  68,2D3
0B342:  MOVLW  57
0B344:  MOVLB  2
0B346:  MOVWF  xD4
0B348:  MOVLB  0
0B34A:  CALL   123E
0B34E:  MOVLW  0D
0B350:  BTFSS  F9E.4
0B352:  BRA    B350
0B354:  MOVWF  FAD
0B356:  MOVLW  0A
0B358:  BTFSS  F9E.4
0B35A:  BRA    B358
0B35C:  MOVWF  FAD
....................    fprintf(PC,"NEXT MISSION DETAIL = %x\r\n",MISSION_DETAIL); 
0B35E:  MOVLW  B0
0B360:  MOVWF  FF6
0B362:  MOVLW  05
0B364:  MOVWF  FF7
0B366:  MOVLW  00
0B368:  MOVWF  FF8
0B36A:  MOVLW  16
0B36C:  MOVLB  2
0B36E:  MOVWF  xD2
0B370:  MOVLB  0
0B372:  CALL   120C
0B376:  MOVFF  6A,2D3
0B37A:  MOVLW  57
0B37C:  MOVLB  2
0B37E:  MOVWF  xD4
0B380:  MOVLB  0
0B382:  CALL   123E
0B386:  MOVLW  0D
0B388:  BTFSS  F9E.4
0B38A:  BRA    B388
0B38C:  MOVWF  FAD
0B38E:  MOVLW  0A
0B390:  BTFSS  F9E.4
0B392:  BRA    B390
0B394:  MOVWF  FAD
....................    fprintf(PC,"RESERVE_MIN_FLAG = %x\r\n",RESERVE_MIN_FLAG); 
0B396:  MOVLW  CC
0B398:  MOVWF  FF6
0B39A:  MOVLW  05
0B39C:  MOVWF  FF7
0B39E:  MOVLW  00
0B3A0:  MOVWF  FF8
0B3A2:  MOVLW  13
0B3A4:  MOVLB  2
0B3A6:  MOVWF  xD2
0B3A8:  MOVLB  0
0B3AA:  CALL   120C
0B3AE:  MOVFF  67,2D3
0B3B2:  MOVLW  57
0B3B4:  MOVLB  2
0B3B6:  MOVWF  xD4
0B3B8:  MOVLB  0
0B3BA:  CALL   123E
0B3BE:  MOVLW  0D
0B3C0:  BTFSS  F9E.4
0B3C2:  BRA    B3C0
0B3C4:  MOVWF  FAD
0B3C6:  MOVLW  0A
0B3C8:  BTFSS  F9E.4
0B3CA:  BRA    B3C8
0B3CC:  MOVWF  FAD
....................    fprintf(PC,"table_num = %x\r\n",table_num); 
0B3CE:  MOVLW  E4
0B3D0:  MOVWF  FF6
0B3D2:  MOVLW  05
0B3D4:  MOVWF  FF7
0B3D6:  MOVLW  00
0B3D8:  MOVWF  FF8
0B3DA:  MOVLW  0C
0B3DC:  MOVLB  2
0B3DE:  MOVWF  xD2
0B3E0:  MOVLB  0
0B3E2:  CALL   120C
0B3E6:  MOVFF  146,2D3
0B3EA:  MOVLW  57
0B3EC:  MOVLB  2
0B3EE:  MOVWF  xD4
0B3F0:  MOVLB  0
0B3F2:  CALL   123E
0B3F6:  MOVLW  0D
0B3F8:  BTFSS  F9E.4
0B3FA:  BRA    B3F8
0B3FC:  MOVWF  FAD
0B3FE:  MOVLW  0A
0B400:  BTFSS  F9E.4
0B402:  BRA    B400
0B404:  MOVWF  FAD
....................     
....................    return; 
0B406:  RETURN 0
.................... } 
....................  
....................  
....................  
.................... void input_reservation_COM()//put the command from COM into the table and sort 
.................... { 
.................... //!   reserve_table[table_num] = CMD_FROM_PC[0];//input the data about mission content 
.................... //!   reserve_table[table_num + 1] = CMD_FROM_PC[1];//input the data about time data 
.................... //!   reserve_table[table_num + 2] = CMD_FROM_PC[2];//input the data about mission detail mode 
....................    fprintf(PC,"%x\r\n",reserve_table[30]); 
*
0C5AA:  MOVFF  145,2D3
0C5AE:  MOVLW  57
0C5B0:  MOVLB  2
0C5B2:  MOVWF  xD4
0C5B4:  MOVLB  0
0C5B6:  CALL   123E
0C5BA:  MOVLW  0D
0C5BC:  BTFSS  F9E.4
0C5BE:  BRA    C5BC
0C5C0:  MOVWF  FAD
0C5C2:  MOVLW  0A
0C5C4:  BTFSS  F9E.4
0C5C6:  BRA    C5C4
0C5C8:  MOVWF  FAD
....................    table_num = reserve_table[30]; 
0C5CA:  MOVFF  145,146
....................    if(reserve_table[30] == 30) 
0C5CE:  MOVLB  1
0C5D0:  MOVF   x45,W
0C5D2:  SUBLW  1E
0C5D4:  BNZ   C5EC
....................    { 
....................       fprintf(PC,"Reservation Full!\r\n\r\n"); 
0C5D6:  MOVLW  F6
0C5D8:  MOVWF  FF6
0C5DA:  MOVLW  05
0C5DC:  MOVWF  FF7
0C5DE:  MOVLW  00
0C5E0:  MOVWF  FF8
0C5E2:  MOVLB  0
0C5E4:  CALL   24F4
....................    }else{ 
0C5E8:  BRA    C706
0C5EA:  MOVLB  1
....................       if(RESERVE_CHECK != 0x00) 
0C5EC:  MOVLB  0
0C5EE:  MOVF   x66,F
0C5F0:  BZ    C6C2
....................       { 
....................          for(int num = 1; num < table_size - 1; num = num + 3) 
0C5F2:  MOVLW  01
0C5F4:  MOVLB  2
0C5F6:  MOVWF  xA1
0C5F8:  MOVF   xA1,W
0C5FA:  SUBLW  1C
0C5FC:  BNC   C678
....................          { 
....................             if(reserve_table[num-1] != 0xff)//check whether command data is placed 
0C5FE:  MOVLW  01
0C600:  SUBWF  xA1,W
0C602:  CLRF   03
0C604:  ADDLW  27
0C606:  MOVWF  FE9
0C608:  MOVLW  01
0C60A:  ADDWFC 03,W
0C60C:  MOVWF  FEA
0C60E:  INCFSZ FEF,W
0C610:  BRA    C614
0C612:  BRA    C672
....................             { 
....................                if(reserve_table[num] > RESERVE_MIN_FLAG) 
0C614:  CLRF   03
0C616:  MOVF   xA1,W
0C618:  ADDLW  27
0C61A:  MOVWF  FE9
0C61C:  MOVLW  01
0C61E:  ADDWFC 03,W
0C620:  MOVWF  FEA
0C622:  MOVF   FEF,W
0C624:  MOVLB  0
0C626:  SUBWF  x67,W
0C628:  BC    C660
....................                { 
....................                   reserve_table[num] = reserve_table[num] - RESERVE_MIN_FLAG;//update the time of all commands 
0C62A:  CLRF   03
0C62C:  MOVLB  2
0C62E:  MOVF   xA1,W
0C630:  ADDLW  27
0C632:  MOVWF  01
0C634:  MOVLW  01
0C636:  ADDWFC 03,F
0C638:  MOVFF  03,2A3
0C63C:  CLRF   03
0C63E:  MOVF   xA1,W
0C640:  ADDLW  27
0C642:  MOVWF  FE9
0C644:  MOVLW  01
0C646:  ADDWFC 03,W
0C648:  MOVWF  FEA
0C64A:  MOVLB  0
0C64C:  MOVF   x67,W
0C64E:  SUBWF  FEF,W
0C650:  MOVLB  2
0C652:  MOVFF  2A3,FEA
0C656:  MOVFF  01,FE9
0C65A:  MOVWF  FEF
....................                }else{ 
0C65C:  BRA    C672
0C65E:  MOVLB  0
....................                   reserve_table[num] = 0; 
0C660:  CLRF   03
0C662:  MOVLB  2
0C664:  MOVF   xA1,W
0C666:  ADDLW  27
0C668:  MOVWF  FE9
0C66A:  MOVLW  01
0C66C:  ADDWFC 03,W
0C66E:  MOVWF  FEA
0C670:  CLRF   FEF
....................                } 
....................             } 
0C672:  MOVLW  03
0C674:  ADDWF  xA1,F
0C676:  BRA    C5F8
....................          } 
....................          reserve_table[table_num] = in_bffr_main[4];//input the data about mission content 
0C678:  CLRF   03
0C67A:  MOVLB  1
0C67C:  MOVF   x46,W
0C67E:  ADDLW  27
0C680:  MOVWF  FE9
0C682:  MOVLW  01
0C684:  ADDWFC 03,W
0C686:  MOVWF  FEA
0C688:  MOVFF  7E,FEF
....................          reserve_table[table_num + 1] = in_bffr_main[5]; 
0C68C:  MOVLW  01
0C68E:  ADDWF  x46,W
0C690:  CLRF   03
0C692:  ADDLW  27
0C694:  MOVWF  FE9
0C696:  MOVLW  01
0C698:  ADDWFC 03,W
0C69A:  MOVWF  FEA
0C69C:  MOVFF  7F,FEF
....................          reserve_table[table_num + 2] = in_bffr_main[6];//input the data about mission detail mode 
0C6A0:  MOVLW  02
0C6A2:  ADDWF  x46,W
0C6A4:  CLRF   03
0C6A6:  ADDLW  27
0C6A8:  MOVWF  FE9
0C6AA:  MOVLW  01
0C6AC:  ADDWFC 03,W
0C6AE:  MOVWF  FEA
0C6B0:  MOVFF  80,FEF
....................          if(RESERVE_MIN_FLAG != 0)//RESERVE_MIN_FLAG = 0 --> no need to update the target flag 
0C6B4:  MOVLB  0
0C6B6:  MOVF   x67,F
0C6B8:  BZ    C6C0
....................          { 
....................             RESERVE_TARGET_FLAG = RESERVE_TARGET_FLAG - RESERVE_MIN_FLAG; 
0C6BA:  MOVF   x67,W
0C6BC:  SUBWF  x68,F
....................             RESERVE_MIN_FLAG = 0; 
0C6BE:  CLRF   x67
....................          } 
....................       }else{//if first reservation 
0C6C0:  BRA    C704
....................          RESERVE_MIN_FLAG = 0; 
0C6C2:  CLRF   x67
....................          RESERVE_SEC_FLAG = 0; 
0C6C4:  CLRF   x73
....................          reserve_table[table_num] = in_bffr_main[4];//input the data about mission content 
0C6C6:  CLRF   03
0C6C8:  MOVLB  1
0C6CA:  MOVF   x46,W
0C6CC:  ADDLW  27
0C6CE:  MOVWF  FE9
0C6D0:  MOVLW  01
0C6D2:  ADDWFC 03,W
0C6D4:  MOVWF  FEA
0C6D6:  MOVFF  7E,FEF
....................          reserve_table[table_num + 1] = in_bffr_main[5];//input time data 
0C6DA:  MOVLW  01
0C6DC:  ADDWF  x46,W
0C6DE:  CLRF   03
0C6E0:  ADDLW  27
0C6E2:  MOVWF  FE9
0C6E4:  MOVLW  01
0C6E6:  ADDWFC 03,W
0C6E8:  MOVWF  FEA
0C6EA:  MOVFF  7F,FEF
....................          reserve_table[table_num + 2] = in_bffr_main[6];//input the data about mission detail mode 
0C6EE:  MOVLW  02
0C6F0:  ADDWF  x46,W
0C6F2:  CLRF   03
0C6F4:  ADDLW  27
0C6F6:  MOVWF  FE9
0C6F8:  MOVLW  01
0C6FA:  ADDWFC 03,W
0C6FC:  MOVWF  FEA
0C6FE:  MOVFF  80,FEF
0C702:  MOVLB  0
....................       } 
....................       //table_num = table_num + 3; 
....................       //reserve_table[30] = table_num; 
....................       sort_table(); 
0C704:  RCALL  C396
.................... //!      for(int num = 0; num < table_size+1; num++) 
.................... //!      { 
.................... //!         fprintf(PC,"%x",reserve_table[num]);//show for the test 
.................... //!      } 
....................    } 
....................    reserve_table[30] = count_reservation();//update the table number data 
0C706:  CALL   27E6
0C70A:  MOVFF  01,145
....................    return; 
0C70E:  GOTO   C724 (RETURN)
.................... } 
....................  
....................  
....................  
.................... void input_reservation_PC()//put the command form PC into the table and sort 
.................... { 
.................... //!   reserve_table[table_num] = in_bffr_main[4]; 
.................... //!   reserve_table[table_num + 1] = in_bffr_main[5]; 
.................... //!   reserve_table[table_num + 2] = in_bffr_main[6]; 
....................    fprintf(PC,"%x\r\n",reserve_table[30]); 
*
0CB94:  MOVFF  145,2D3
0CB98:  MOVLW  57
0CB9A:  MOVLB  2
0CB9C:  MOVWF  xD4
0CB9E:  MOVLB  0
0CBA0:  CALL   123E
0CBA4:  MOVLW  0D
0CBA6:  BTFSS  F9E.4
0CBA8:  BRA    CBA6
0CBAA:  MOVWF  FAD
0CBAC:  MOVLW  0A
0CBAE:  BTFSS  F9E.4
0CBB0:  BRA    CBAE
0CBB2:  MOVWF  FAD
....................    table_num = reserve_table[30]; 
0CBB4:  MOVFF  145,146
....................    if(reserve_table[30] == 30) 
0CBB8:  MOVLB  1
0CBBA:  MOVF   x45,W
0CBBC:  SUBLW  1E
0CBBE:  BNZ   CBD6
....................    { 
....................       fprintf(PC,"Reservation Full!\r\n\r\n"); 
0CBC0:  MOVLW  0C
0CBC2:  MOVWF  FF6
0CBC4:  MOVLW  06
0CBC6:  MOVWF  FF7
0CBC8:  MOVLW  00
0CBCA:  MOVWF  FF8
0CBCC:  MOVLB  0
0CBCE:  CALL   24F4
....................    }else{ 
0CBD2:  BRA    CCF2
0CBD4:  MOVLB  1
....................       if(RESERVE_CHECK != 0x00)//if new reservation is faster than target time 
0CBD6:  MOVLB  0
0CBD8:  MOVF   x66,F
0CBDA:  BZ    CCAC
....................       { 
....................          for(int num = 1; num < table_size - 2; num = num + 3) 
0CBDC:  MOVLW  01
0CBDE:  MOVLB  2
0CBE0:  MOVWF  xA1
0CBE2:  MOVF   xA1,W
0CBE4:  SUBLW  1B
0CBE6:  BNC   CC62
....................          { 
....................             if(reserve_table[num-1] != 0xff)//check whether command data is placed 
0CBE8:  MOVLW  01
0CBEA:  SUBWF  xA1,W
0CBEC:  CLRF   03
0CBEE:  ADDLW  27
0CBF0:  MOVWF  FE9
0CBF2:  MOVLW  01
0CBF4:  ADDWFC 03,W
0CBF6:  MOVWF  FEA
0CBF8:  INCFSZ FEF,W
0CBFA:  BRA    CBFE
0CBFC:  BRA    CC5C
....................             { 
....................                if(reserve_table[num] > RESERVE_MIN_FLAG) 
0CBFE:  CLRF   03
0CC00:  MOVF   xA1,W
0CC02:  ADDLW  27
0CC04:  MOVWF  FE9
0CC06:  MOVLW  01
0CC08:  ADDWFC 03,W
0CC0A:  MOVWF  FEA
0CC0C:  MOVF   FEF,W
0CC0E:  MOVLB  0
0CC10:  SUBWF  x67,W
0CC12:  BC    CC4A
....................                { 
....................                   reserve_table[num] = reserve_table[num] - RESERVE_MIN_FLAG;//update the time of all commands 
0CC14:  CLRF   03
0CC16:  MOVLB  2
0CC18:  MOVF   xA1,W
0CC1A:  ADDLW  27
0CC1C:  MOVWF  01
0CC1E:  MOVLW  01
0CC20:  ADDWFC 03,F
0CC22:  MOVFF  03,2A3
0CC26:  CLRF   03
0CC28:  MOVF   xA1,W
0CC2A:  ADDLW  27
0CC2C:  MOVWF  FE9
0CC2E:  MOVLW  01
0CC30:  ADDWFC 03,W
0CC32:  MOVWF  FEA
0CC34:  MOVLB  0
0CC36:  MOVF   x67,W
0CC38:  SUBWF  FEF,W
0CC3A:  MOVLB  2
0CC3C:  MOVFF  2A3,FEA
0CC40:  MOVFF  01,FE9
0CC44:  MOVWF  FEF
....................                }else{ 
0CC46:  BRA    CC5C
0CC48:  MOVLB  0
....................                   reserve_table[num] = 0; 
0CC4A:  CLRF   03
0CC4C:  MOVLB  2
0CC4E:  MOVF   xA1,W
0CC50:  ADDLW  27
0CC52:  MOVWF  FE9
0CC54:  MOVLW  01
0CC56:  ADDWFC 03,W
0CC58:  MOVWF  FEA
0CC5A:  CLRF   FEF
....................                } 
....................             } 
0CC5C:  MOVLW  03
0CC5E:  ADDWF  xA1,F
0CC60:  BRA    CBE2
....................          } 
....................          reserve_table[table_num] = CMD_FROM_PC[0];//input the data about mission content 
0CC62:  CLRF   03
0CC64:  MOVLB  1
0CC66:  MOVF   x46,W
0CC68:  ADDLW  27
0CC6A:  MOVWF  FE9
0CC6C:  MOVLW  01
0CC6E:  ADDWFC 03,W
0CC70:  MOVWF  FEA
0CC72:  MOVFF  74,FEF
....................          reserve_table[table_num + 1] = CMD_FROM_PC[1]; 
0CC76:  MOVLW  01
0CC78:  ADDWF  x46,W
0CC7A:  CLRF   03
0CC7C:  ADDLW  27
0CC7E:  MOVWF  FE9
0CC80:  MOVLW  01
0CC82:  ADDWFC 03,W
0CC84:  MOVWF  FEA
0CC86:  MOVFF  75,FEF
....................          reserve_table[table_num + 2] = CMD_FROM_PC[2];//input the data about mission detail mode 
0CC8A:  MOVLW  02
0CC8C:  ADDWF  x46,W
0CC8E:  CLRF   03
0CC90:  ADDLW  27
0CC92:  MOVWF  FE9
0CC94:  MOVLW  01
0CC96:  ADDWFC 03,W
0CC98:  MOVWF  FEA
0CC9A:  MOVFF  76,FEF
....................          if(RESERVE_MIN_FLAG != 0)//RESERVE_MIN_FLAG = 0 --> no need to update the target flag 
0CC9E:  MOVLB  0
0CCA0:  MOVF   x67,F
0CCA2:  BZ    CCAA
....................          { 
....................             RESERVE_TARGET_FLAG = RESERVE_TARGET_FLAG - RESERVE_MIN_FLAG; 
0CCA4:  MOVF   x67,W
0CCA6:  SUBWF  x68,F
....................             RESERVE_MIN_FLAG = 0; 
0CCA8:  CLRF   x67
....................          } 
....................       }else{//if first reservation 
0CCAA:  BRA    CCEE
....................          RESERVE_MIN_FLAG = 0; 
0CCAC:  CLRF   x67
....................          RESERVE_SEC_FLAG = 0; 
0CCAE:  CLRF   x73
....................          reserve_table[table_num] = CMD_FROM_PC[0];//input the data about mission content 
0CCB0:  CLRF   03
0CCB2:  MOVLB  1
0CCB4:  MOVF   x46,W
0CCB6:  ADDLW  27
0CCB8:  MOVWF  FE9
0CCBA:  MOVLW  01
0CCBC:  ADDWFC 03,W
0CCBE:  MOVWF  FEA
0CCC0:  MOVFF  74,FEF
....................          reserve_table[table_num + 1] = CMD_FROM_PC[1]; 
0CCC4:  MOVLW  01
0CCC6:  ADDWF  x46,W
0CCC8:  CLRF   03
0CCCA:  ADDLW  27
0CCCC:  MOVWF  FE9
0CCCE:  MOVLW  01
0CCD0:  ADDWFC 03,W
0CCD2:  MOVWF  FEA
0CCD4:  MOVFF  75,FEF
....................          reserve_table[table_num + 2] = CMD_FROM_PC[2];//input the data about mission detail mode 
0CCD8:  MOVLW  02
0CCDA:  ADDWF  x46,W
0CCDC:  CLRF   03
0CCDE:  ADDLW  27
0CCE0:  MOVWF  FE9
0CCE2:  MOVLW  01
0CCE4:  ADDWFC 03,W
0CCE6:  MOVWF  FEA
0CCE8:  MOVFF  76,FEF
0CCEC:  MOVLB  0
....................       } 
....................       //table_num = table_num + 3; 
....................       //reserve_table[30] = table_num; 
....................       sort_table(); 
0CCEE:  CALL   C396
.................... //!      for(int num = 0; num < table_size+1; num++) 
.................... //!      { 
.................... //!         fprintf(PC,"%x",reserve_table[num]);//show for the test 
.................... //!      } 
....................    } 
....................    reserve_table[30] = count_reservation();//update the table number data 
0CCF2:  CALL   27E6
0CCF6:  MOVFF  01,145
....................    return; 
0CCFA:  GOTO   CD10 (RETURN)
.................... } 
....................  
....................  
....................  
.................... void Remove_1_Reservation()//after executing the mission, it should be finished 
.................... { 
....................    for(int i = 1; i < table_size - 2; i = i + 3) 
*
0C4F4:  MOVLW  01
0C4F6:  MOVLB  2
0C4F8:  MOVWF  xA1
0C4FA:  MOVF   xA1,W
0C4FC:  SUBLW  1B
0C4FE:  BNC   C54C
....................    { 
....................       if(reserve_table[i-1] != 0xff)//check whether command data is placed 
0C500:  MOVLW  01
0C502:  SUBWF  xA1,W
0C504:  CLRF   03
0C506:  ADDLW  27
0C508:  MOVWF  FE9
0C50A:  MOVLW  01
0C50C:  ADDWFC 03,W
0C50E:  MOVWF  FEA
0C510:  INCFSZ FEF,W
0C512:  BRA    C516
0C514:  BRA    C546
....................       { 
....................          reserve_table[i] = reserve_table[i] - RESERVE_TARGET_FLAG;//update the time of all commands 
0C516:  CLRF   03
0C518:  MOVF   xA1,W
0C51A:  ADDLW  27
0C51C:  MOVWF  01
0C51E:  MOVLW  01
0C520:  ADDWFC 03,F
0C522:  MOVFF  03,2A3
0C526:  CLRF   03
0C528:  MOVF   xA1,W
0C52A:  ADDLW  27
0C52C:  MOVWF  FE9
0C52E:  MOVLW  01
0C530:  ADDWFC 03,W
0C532:  MOVWF  FEA
0C534:  MOVLB  0
0C536:  MOVF   x68,W
0C538:  SUBWF  FEF,W
0C53A:  MOVLB  2
0C53C:  MOVFF  2A3,FEA
0C540:  MOVFF  01,FE9
0C544:  MOVWF  FEF
....................       } 
0C546:  MOVLW  03
0C548:  ADDWF  xA1,F
0C54A:  BRA    C4FA
....................    } 
....................    reserve_table[0] = 0xff;//delete the finished mission data 
0C54C:  MOVLB  1
0C54E:  SETF   x27
....................    reserve_table[1] = 0xff;//delete the finished mission data 
0C550:  SETF   x28
....................    reserve_table[2] = 0xff;//delete the finished mission data  
0C552:  SETF   x29
....................    sort_table(); 
0C554:  MOVLB  0
0C556:  RCALL  C396
....................    reserve_table[30] = count_reservation();//update the table number data 
0C558:  CALL   27E6
0C55C:  MOVFF  01,145
....................     
....................    fprintf(PC,"remove finished command:"); 
0C560:  MOVLW  22
0C562:  MOVWF  FF6
0C564:  MOVLW  06
0C566:  MOVWF  FF7
0C568:  MOVLW  00
0C56A:  MOVWF  FF8
0C56C:  CALL   24F4
....................    Save_RSV(); 
0C570:  CALL   6E06
....................    fprintf(PC,"\r\n"); 
0C574:  MOVLW  0D
0C576:  BTFSS  F9E.4
0C578:  BRA    C576
0C57A:  MOVWF  FAD
0C57C:  MOVLW  0A
0C57E:  BTFSS  F9E.4
0C580:  BRA    C57E
0C582:  MOVWF  FAD
....................    return; 
0C584:  GOTO   D150 (RETURN)
.................... } 
....................  
.................... void Reserve_command_COM()//reservation from COM 
.................... { 
....................    fprintf(PC,"reserve\r\n"); 
*
0C712:  MOVLW  3C
0C714:  MOVWF  FF6
0C716:  MOVLW  06
0C718:  MOVWF  FF7
0C71A:  MOVLW  00
0C71C:  MOVWF  FF8
0C71E:  CALL   24F4
....................    input_reservation_COM();//put reserve table buffer and sort 
0C722:  BRA    C5AA
....................    Save_RSV();//save reserve table to flash memory 
0C724:  CALL   6E06
....................    RESERVE_CHECK = 1; 
0C728:  MOVLW  01
0C72A:  MOVWF  x66
....................    if(reserve_table[30] == 0x00 || reserve_table[30] == 0xff) 
0C72C:  MOVLB  1
0C72E:  MOVF   x45,F
0C730:  BZ    C736
0C732:  INCFSZ x45,W
0C734:  BRA    C73C
....................    { 
....................       RESERVE_MIN_FLAG = 0; //reset time flag 
0C736:  MOVLB  0
0C738:  CLRF   x67
0C73A:  MOVLB  1
....................    } 
....................    MISSION_CONTENTS = reserve_table[0];//closest mission command 
0C73C:  MOVFF  127,69
....................    RESERVE_TARGET_FLAG = reserve_table[1];//closest time data 
0C740:  MOVFF  128,68
....................    MISSION_DETAIL = reserve_table[2];//closest mission command detail 
0C744:  MOVFF  129,6A
0C748:  MOVLB  0
0C74A:  GOTO   D1E2 (RETURN)
.................... } 
....................  
....................  
....................  
.................... void Reserve_command_PC()//reservation from PC 
.................... { 
....................    fprintf(PC,"reserve\r\n"); 
*
0CCFE:  MOVLW  46
0CD00:  MOVWF  FF6
0CD02:  MOVLW  06
0CD04:  MOVWF  FF7
0CD06:  MOVLW  00
0CD08:  MOVWF  FF8
0CD0A:  CALL   24F4
....................    input_reservation_PC();//put reserve table buffer and sort 
0CD0E:  BRA    CB94
....................    Save_RSV();//save reserve table to flash memory 
0CD10:  CALL   6E06
....................    RESERVE_CHECK = 1; 
0CD14:  MOVLW  01
0CD16:  MOVWF  x66
....................    if(reserve_table[30] == 0x00 || reserve_table[30] == 0xff)//for only first reservation 
0CD18:  MOVLB  1
0CD1A:  MOVF   x45,F
0CD1C:  BZ    CD22
0CD1E:  INCFSZ x45,W
0CD20:  BRA    CD28
....................    { 
....................       RESERVE_MIN_FLAG = 0; //reset time flag 
0CD22:  MOVLB  0
0CD24:  CLRF   x67
0CD26:  MOVLB  1
....................    } 
....................    MISSION_CONTENTS = reserve_table[0];//closest mission command 
0CD28:  MOVFF  127,69
....................    RESERVE_TARGET_FLAG = reserve_table[1];//closest time data 
0CD2C:  MOVFF  128,68
....................    MISSION_DETAIL = reserve_table[2];//closest mission command detail 
0CD30:  MOVFF  129,6A
0CD34:  MOVLB  0
0CD36:  GOTO   D272 (RETURN)
.................... } 
....................  
....................  
....................  
.................... void Reserve_next()//after finishing executing the reservation command, this function should be execute 
.................... { 
....................    fprintf(PC,"reserve next\r\n"); 
*
0C588:  MOVLW  50
0C58A:  MOVWF  FF6
0C58C:  MOVLW  06
0C58E:  MOVWF  FF7
0C590:  MOVLW  00
0C592:  MOVWF  FF8
0C594:  CALL   24F4
....................    //Save_RSV();//save reserve table to flash memory 
....................     
....................    //RESERVE_CHECK = 1; 
....................    RESERVE_MIN_FLAG = 0; //reset time flag 
0C598:  CLRF   x67
....................    MISSION_CONTENTS = reserve_table[0];//update closest mission command 
0C59A:  MOVFF  127,69
....................    RESERVE_TARGET_FLAG = reserve_table[1];//update closest time data (it is the time after 1 mission) 
0C59E:  MOVFF  128,68
....................    MISSION_DETAIL = reserve_table[2];//closest mission command detail 
0C5A2:  MOVFF  129,6A
0C5A6:  GOTO   D15C (RETURN)
.................... } 
....................  
....................  
....................  
.................... #include<SATELLITE_LOG.c> 
.................... void waiting(int32 counterval)//about 200000 : 1s 
.................... { 
....................    for(int32 num = 0; num < counterval; num++) 
*
0157C:  MOVLB  2
0157E:  CLRF   xD1
01580:  CLRF   xD0
01582:  CLRF   xCF
01584:  CLRF   xCE
01586:  MOVF   xD1,W
01588:  SUBWF  xCD,W
0158A:  BNC   15B6
0158C:  BNZ   15A4
0158E:  MOVF   xD0,W
01590:  SUBWF  xCC,W
01592:  BNC   15B6
01594:  BNZ   15A4
01596:  MOVF   xCF,W
01598:  SUBWF  xCB,W
0159A:  BNC   15B6
0159C:  BNZ   15A4
0159E:  MOVF   xCA,W
015A0:  SUBWF  xCE,W
015A2:  BC    15B6
....................    {} 
015A4:  MOVLW  01
015A6:  ADDWF  xCE,F
015A8:  BTFSC  FD8.0
015AA:  INCF   xCF,F
015AC:  BTFSC  FD8.2
015AE:  INCF   xD0,F
015B0:  BTFSC  FD8.2
015B2:  INCF   xD1,F
015B4:  BRA    1586
....................    return; 
015B6:  MOVLB  0
015B8:  RETURN 0
.................... } 
....................  
.................... //--------RESET function------------------------------------------------------- 
....................  
....................  
.................... void DELETE_RESET() 
.................... { 
....................    for(int8 num = 0; num < Reset_size; num++) 
*
0152C:  MOVLB  2
0152E:  CLRF   xCA
01530:  MOVF   xCA,W
01532:  SUBLW  0A
01534:  BNC   154A
....................    { 
....................       reset_bffr[num] = 0; 
01536:  CLRF   03
01538:  MOVF   xCA,W
0153A:  ADDLW  E0
0153C:  MOVWF  FE9
0153E:  MOVLW  00
01540:  ADDWFC 03,W
01542:  MOVWF  FEA
01544:  CLRF   FEF
01546:  INCF   xCA,F
01548:  BRA    1530
....................    } 
....................    return; 
0154A:  MOVLB  0
0154C:  RETURN 0
.................... } 
....................  
.................... void SEND_CMD_FOR_RESET_SATELLITE() 
.................... {   
....................    STORE_FLAG_INFO(); 
*
0703E:  CALL   50A4
....................    Save_RSV(); 
07042:  RCALL  6E06
....................    STORE_ADRESS_DATA_TO_FLASH(); 
07044:  CALL   2ABA
....................    while(true) 
....................    { 
....................       //fputc(0x27,PC); 
....................       fprintf(PC,"%x,",READ_DATA_BYTE_OF(FAB_HK_ADDRESS-122)); 
07048:  MOVLW  7A
0704A:  SUBWF  47,W
0704C:  MOVLB  2
0704E:  MOVWF  xB4
07050:  MOVLW  00
07052:  SUBWFB 48,W
07054:  MOVWF  xB5
07056:  MOVLW  00
07058:  SUBWFB 49,W
0705A:  MOVWF  xB6
0705C:  MOVLW  00
0705E:  SUBWFB 4A,W
07060:  MOVWF  xB7
07062:  MOVWF  xDC
07064:  MOVFF  2B6,2DB
07068:  MOVFF  2B5,2DA
0706C:  MOVFF  2B4,2D9
07070:  MOVLB  0
07072:  CALL   0DBE
07076:  MOVFF  01,2B4
0707A:  MOVFF  01,2D3
0707E:  MOVLW  57
07080:  MOVLB  2
07082:  MOVWF  xD4
07084:  MOVLB  0
07086:  CALL   123E
0708A:  MOVLW  2C
0708C:  BTFSS  F9E.4
0708E:  BRA    708C
07090:  MOVWF  FAD
....................       fprintf(PC,"%x,",READ_DATA_BYTE_OF(FAB_HK_ADDRESS-121)); 
07092:  MOVLW  79
07094:  SUBWF  47,W
07096:  MOVLB  2
07098:  MOVWF  xB4
0709A:  MOVLW  00
0709C:  SUBWFB 48,W
0709E:  MOVWF  xB5
070A0:  MOVLW  00
070A2:  SUBWFB 49,W
070A4:  MOVWF  xB6
070A6:  MOVLW  00
070A8:  SUBWFB 4A,W
070AA:  MOVWF  xB7
070AC:  MOVWF  xDC
070AE:  MOVFF  2B6,2DB
070B2:  MOVFF  2B5,2DA
070B6:  MOVFF  2B4,2D9
070BA:  MOVLB  0
070BC:  CALL   0DBE
070C0:  MOVFF  01,2B4
070C4:  MOVFF  01,2D3
070C8:  MOVLW  57
070CA:  MOVLB  2
070CC:  MOVWF  xD4
070CE:  MOVLB  0
070D0:  CALL   123E
070D4:  MOVLW  2C
070D6:  BTFSS  F9E.4
070D8:  BRA    70D6
070DA:  MOVWF  FAD
....................       fprintf(PC,"%x,",READ_DATA_BYTE_OF(FAB_HK_ADDRESS-120)); 
070DC:  MOVLW  78
070DE:  SUBWF  47,W
070E0:  MOVLB  2
070E2:  MOVWF  xB4
070E4:  MOVLW  00
070E6:  SUBWFB 48,W
070E8:  MOVWF  xB5
070EA:  MOVLW  00
070EC:  SUBWFB 49,W
070EE:  MOVWF  xB6
070F0:  MOVLW  00
070F2:  SUBWFB 4A,W
070F4:  MOVWF  xB7
070F6:  MOVWF  xDC
070F8:  MOVFF  2B6,2DB
070FC:  MOVFF  2B5,2DA
07100:  MOVFF  2B4,2D9
07104:  MOVLB  0
07106:  CALL   0DBE
0710A:  MOVFF  01,2B4
0710E:  MOVFF  01,2D3
07112:  MOVLW  57
07114:  MOVLB  2
07116:  MOVWF  xD4
07118:  MOVLB  0
0711A:  CALL   123E
0711E:  MOVLW  2C
07120:  BTFSS  F9E.4
07122:  BRA    7120
07124:  MOVWF  FAD
....................       fprintf(PC,"%x",READ_DATA_BYTE_OF(FAB_HK_ADDRESS-119)); 
07126:  MOVLW  77
07128:  SUBWF  47,W
0712A:  MOVLB  2
0712C:  MOVWF  xB4
0712E:  MOVLW  00
07130:  SUBWFB 48,W
07132:  MOVWF  xB5
07134:  MOVLW  00
07136:  SUBWFB 49,W
07138:  MOVWF  xB6
0713A:  MOVLW  00
0713C:  SUBWFB 4A,W
0713E:  MOVWF  xB7
07140:  MOVWF  xDC
07142:  MOVFF  2B6,2DB
07146:  MOVFF  2B5,2DA
0714A:  MOVFF  2B4,2D9
0714E:  MOVLB  0
07150:  CALL   0DBE
07154:  MOVFF  01,2B4
07158:  MOVFF  01,2D3
0715C:  MOVLW  57
0715E:  MOVLB  2
07160:  MOVWF  xD4
07162:  MOVLB  0
07164:  CALL   123E
....................       fprintf(PC,"%x\r\n",READ_DATA_BYTE_OF(FAB_HK_ADDRESS-118)); 
07168:  MOVLW  76
0716A:  SUBWF  47,W
0716C:  MOVLB  2
0716E:  MOVWF  xB4
07170:  MOVLW  00
07172:  SUBWFB 48,W
07174:  MOVWF  xB5
07176:  MOVLW  00
07178:  SUBWFB 49,W
0717A:  MOVWF  xB6
0717C:  MOVLW  00
0717E:  SUBWFB 4A,W
07180:  MOVWF  xB7
07182:  MOVWF  xDC
07184:  MOVFF  2B6,2DB
07188:  MOVFF  2B5,2DA
0718C:  MOVFF  2B4,2D9
07190:  MOVLB  0
07192:  CALL   0DBE
07196:  MOVFF  01,2B4
0719A:  MOVFF  01,2D3
0719E:  MOVLW  57
071A0:  MOVLB  2
071A2:  MOVWF  xD4
071A4:  MOVLB  0
071A6:  CALL   123E
071AA:  MOVLW  0D
071AC:  BTFSS  F9E.4
071AE:  BRA    71AC
071B0:  MOVWF  FAD
071B2:  MOVLW  0A
071B4:  BTFSS  F9E.4
071B6:  BRA    71B4
071B8:  MOVWF  FAD
....................       for(int i = 0; i<100; i++) 
071BA:  MOVLB  2
071BC:  CLRF   xB3
071BE:  MOVF   xB3,W
071C0:  SUBLW  63
071C2:  BNC   71DE
....................       { 
....................          fputc(0x27,reset); 
071C4:  MOVLW  27
071C6:  MOVLB  0
071C8:  CALL   154E
....................          delay_ms(10); 
071CC:  MOVLW  0A
071CE:  MOVLB  2
071D0:  MOVWF  xDB
071D2:  MOVLB  0
071D4:  CALL   230E
071D8:  MOVLB  2
071DA:  INCF   xB3,F
071DC:  BRA    71BE
....................       } 
....................       //delay_ms(100);//if it is needed 
.................... //!      fputc(READ_DATA_BYTE_OF(FAB_HK_ADDRESS-122),reset); 
.................... //!      fputc(READ_DATA_BYTE_OF(FAB_HK_ADDRESS-121),reset); 
.................... //!      fputc(READ_DATA_BYTE_OF(FAB_HK_ADDRESS-120),reset); 
.................... //!      fputc(READ_DATA_BYTE_OF(FAB_HK_ADDRESS-119),reset); 
.................... //!      fputc(READ_DATA_BYTE_OF(FAB_HK_ADDRESS-118),reset); 
....................       RESET_DATA = 0; 
071DE:  MOVLB  0
071E0:  CLRF   xDF
....................       fprintf(PC,"get ready for reset"); 
071E2:  MOVLW  60
071E4:  MOVWF  FF6
071E6:  MOVLW  06
071E8:  MOVWF  FF7
071EA:  MOVLW  00
071EC:  MOVWF  FF8
071EE:  CALL   24F4
....................       delay_ms(1000); 
071F2:  MOVLW  04
071F4:  MOVLB  2
071F6:  MOVWF  xB4
071F8:  MOVLW  FA
071FA:  MOVWF  xDB
071FC:  MOVLB  0
071FE:  CALL   230E
07202:  MOVLB  2
07204:  DECFSZ xB4,F
07206:  BRA    71F8
07208:  MOVLB  0
0720A:  BRA    7048
....................    } 
....................    return; 
0720C:  RETURN 0
.................... } 
....................  
.................... void RESET_SATELLITE()//if get reset command from reset, prepare for resetting 
.................... { 
....................    if(reset_flag == 1)//get ready for reset satellite 
0720E:  DECFSZ xEB,W
07210:  BRA    7214
....................    { 
....................       SEND_CMD_FOR_RESET_SATELLITE(); 
07212:  RCALL  703E
....................    } 
....................    DELETE_RESET(); 
07214:  CALL   152C
....................    RESET_DATA = 0; 
07218:  CLRF   xDF
....................    return; 
0721A:  RETURN 0
.................... } 
....................  
.................... void COLLECT_RESET_DATA() 
.................... { 
....................    DELETE_RESET(); 
*
015BA:  RCALL  152C
....................    RESET_DATA = 0; 
015BC:  CLRF   xDF
....................    for(int16 num = 0; num < 50; num++) 
015BE:  MOVLB  2
015C0:  CLRF   xC9
015C2:  CLRF   xC8
015C4:  MOVF   xC9,F
015C6:  BNZ   15F0
015C8:  MOVF   xC8,W
015CA:  SUBLW  31
015CC:  BNC   15F0
....................    { 
....................       fputc(0x28,reset); 
015CE:  MOVLW  28
015D0:  MOVLB  0
015D2:  RCALL  154E
....................       delay_us(800); 
015D4:  MOVLW  04
015D6:  MOVLB  2
015D8:  MOVWF  xCA
015DA:  MOVLW  C7
015DC:  MOVWF  xCB
015DE:  MOVLB  0
015E0:  BRA    155A
015E2:  MOVLB  2
015E4:  DECFSZ xCA,F
015E6:  BRA    15DA
015E8:  INCF   xC8,F
015EA:  BTFSC  FD8.2
015EC:  INCF   xC9,F
015EE:  BRA    15C4
....................    } 
....................    waiting(10000); 
015F0:  CLRF   xCD
015F2:  CLRF   xCC
015F4:  MOVLW  27
015F6:  MOVWF  xCB
015F8:  MOVLW  10
015FA:  MOVWF  xCA
015FC:  MOVLB  0
015FE:  RCALL  157C
....................    return; 
01600:  RETURN 0
.................... } 
....................  
....................  
.................... //@@@@@@@@@@@for satellite log@@@@@@@@@@@@@@@@@@@@@@@@@@@@@@@@@@@@@@@@@@@@@@@@@@ 
.................... #define logdata_size 11 
.................... int8 satellitelog[logdata_size] = {}; 
....................  
.................... void SAVE_SAT_LOG(int8 data1, int8 data2, int8 data3) 
.................... { 
....................    LOOP_SAT_LOG(); 
*
02DCE:  BRA    2D64
....................    RESET_DATA = 0; 
02DD0:  CLRF   xDF
....................    COLLECT_RESET_DATA(); 
02DD2:  CALL   15BA
....................    if(RESET_bffr[0] == 0x8e) 
02DD6:  MOVF   xE0,W
02DD8:  SUBLW  8E
02DDA:  BTFSS  FD8.2
02DDC:  BRA    2F08
....................    { 
....................       satellitelog[0] = 0xda;//header of the satellite log 
02DDE:  MOVLW  DA
02DE0:  MOVLB  1
02DE2:  MOVWF  x47
....................       satellitelog[1] = 0xda;//header of the satellite log 
02DE4:  MOVWF  x48
....................     
....................       satellitelog[2] = RESET_bffr[1]; 
02DE6:  MOVFF  E1,149
....................       satellitelog[3] = RESET_bffr[2]; 
02DEA:  MOVFF  E2,14A
....................       satellitelog[4] = RESET_bffr[3]; 
02DEE:  MOVFF  E3,14B
....................       satellitelog[5] = RESET_bffr[4]; 
02DF2:  MOVFF  E4,14C
....................       satellitelog[6] = RESET_bffr[5]; 
02DF6:  MOVFF  E5,14D
....................        
....................       satellitelog[7] = data1; 
02DFA:  MOVFF  2C4,14E
....................       satellitelog[8] = data2; 
02DFE:  MOVFF  2C5,14F
....................       satellitelog[9] = data3; 
02E02:  MOVFF  2C6,150
....................       satellitelog[10] = 0xef;//footer 
02E06:  MOVLW  EF
02E08:  MOVWF  x51
....................        
....................       output_low(PIN_A5);//CAM_MUX 
02E0A:  BCF    F92.5
02E0C:  BCF    F89.5
....................       output_low(PIN_C4);//COM_MUX 
02E0E:  BCF    F94.4
02E10:  BCF    F8B.4
....................       for(int i = 0; i < logdata_size; i++)//write to the  
02E12:  MOVLB  2
02E14:  CLRF   xC7
02E16:  MOVF   xC7,W
02E18:  SUBLW  0A
02E1A:  BNC   2EE6
....................       { 
....................          WRITE_DATA_BYTE_OF(SAT_LOG + i,satellitelog[i]); 
02E1C:  MOVF   xC7,W
02E1E:  ADDWF  3F,W
02E20:  MOVWF  xC8
02E22:  MOVLW  00
02E24:  ADDWFC 40,W
02E26:  MOVWF  xC9
02E28:  MOVLW  00
02E2A:  ADDWFC 41,W
02E2C:  MOVWF  xCA
02E2E:  MOVLW  00
02E30:  ADDWFC 42,W
02E32:  MOVWF  xCB
02E34:  CLRF   03
02E36:  MOVF   xC7,W
02E38:  ADDLW  47
02E3A:  MOVWF  FE9
02E3C:  MOVLW  01
02E3E:  ADDWFC 03,W
02E40:  MOVWF  FEA
02E42:  MOVFF  FEF,2D7
02E46:  MOVFF  2CB,2D6
02E4A:  MOVFF  2CA,2D5
02E4E:  MOVFF  2C9,2D4
02E52:  MOVFF  2C8,2D3
02E56:  MOVLB  0
02E58:  CALL   1080
....................          WRITE_DATA_BYTE_SCF(SAT_LOG + i,satellitelog[i]); 
02E5C:  MOVLB  2
02E5E:  MOVF   xC7,W
02E60:  ADDWF  3F,W
02E62:  MOVWF  xC8
02E64:  MOVLW  00
02E66:  ADDWFC 40,W
02E68:  MOVWF  xC9
02E6A:  MOVLW  00
02E6C:  ADDWFC 41,W
02E6E:  MOVWF  xCA
02E70:  MOVLW  00
02E72:  ADDWFC 42,W
02E74:  MOVWF  xCB
02E76:  CLRF   03
02E78:  MOVF   xC7,W
02E7A:  ADDLW  47
02E7C:  MOVWF  FE9
02E7E:  MOVLW  01
02E80:  ADDWFC 03,W
02E82:  MOVWF  FEA
02E84:  MOVFF  FEF,2D7
02E88:  MOVFF  2CB,2D6
02E8C:  MOVFF  2CA,2D5
02E90:  MOVFF  2C9,2D4
02E94:  MOVFF  2C8,2D3
02E98:  MOVLB  0
02E9A:  CALL   110C
....................          WRITE_DATA_BYTE_SMF(SAT_LOG + i,satellitelog[i]); 
02E9E:  MOVLB  2
02EA0:  MOVF   xC7,W
02EA2:  ADDWF  3F,W
02EA4:  MOVWF  xC8
02EA6:  MOVLW  00
02EA8:  ADDWFC 40,W
02EAA:  MOVWF  xC9
02EAC:  MOVLW  00
02EAE:  ADDWFC 41,W
02EB0:  MOVWF  xCA
02EB2:  MOVLW  00
02EB4:  ADDWFC 42,W
02EB6:  MOVWF  xCB
02EB8:  CLRF   03
02EBA:  MOVF   xC7,W
02EBC:  ADDLW  47
02EBE:  MOVWF  FE9
02EC0:  MOVLW  01
02EC2:  ADDWFC 03,W
02EC4:  MOVWF  FEA
02EC6:  MOVFF  FEF,2D7
02ECA:  MOVFF  2CB,2D6
02ECE:  MOVFF  2CA,2D5
02ED2:  MOVFF  2C9,2D4
02ED6:  MOVFF  2C8,2D3
02EDA:  MOVLB  0
02EDC:  CALL   1198
02EE0:  MOVLB  2
02EE2:  INCF   xC7,F
02EE4:  BRA    2E16
....................       } 
....................       output_high(PIN_C4);//COM_MUX 
02EE6:  BCF    F94.4
02EE8:  BSF    F8B.4
....................       SAT_LOG = SAT_LOG + logdata_size; 
02EEA:  MOVLW  0B
02EEC:  ADDWF  3F,F
02EEE:  MOVLW  00
02EF0:  ADDWFC 40,F
02EF2:  ADDWFC 41,F
02EF4:  ADDWFC 42,F
....................       fprintf(PC,"LOG saving done\r\n"); 
02EF6:  MOVLW  74
02EF8:  MOVWF  FF6
02EFA:  MOVLW  06
02EFC:  MOVWF  FF7
02EFE:  MOVLW  00
02F00:  MOVWF  FF8
02F02:  MOVLB  0
02F04:  CALL   24F4
....................    } 
....................     
....................    return; 
02F08:  RETURN 0
.................... } 
....................  
....................  
....................  
....................  
.................... #include<FLASH_OPERATION.c>//erase or transfer 
....................  
....................  
.................... void REFRESH_SECTOR_OF(int8 data1,int8 data2,int8 data3,int8 data4) 
.................... { 
....................    fprintf(PC,"ERASE OF:%x%x%x%x\r\n",data1,data2,data3,data4); 
*
0B408:  MOVLW  86
0B40A:  MOVWF  FF6
0B40C:  MOVLW  06
0B40E:  MOVWF  FF7
0B410:  MOVLW  00
0B412:  MOVWF  FF8
0B414:  MOVLW  09
0B416:  MOVLB  2
0B418:  MOVWF  xD2
0B41A:  MOVLB  0
0B41C:  CALL   120C
0B420:  MOVFF  2B8,2D3
0B424:  MOVLW  57
0B426:  MOVLB  2
0B428:  MOVWF  xD4
0B42A:  MOVLB  0
0B42C:  CALL   123E
0B430:  MOVFF  2B9,2D3
0B434:  MOVLW  57
0B436:  MOVLB  2
0B438:  MOVWF  xD4
0B43A:  MOVLB  0
0B43C:  CALL   123E
0B440:  MOVFF  2BA,2D3
0B444:  MOVLW  57
0B446:  MOVLB  2
0B448:  MOVWF  xD4
0B44A:  MOVLB  0
0B44C:  CALL   123E
0B450:  MOVFF  2BB,2D3
0B454:  MOVLW  57
0B456:  MOVLB  2
0B458:  MOVWF  xD4
0B45A:  MOVLB  0
0B45C:  CALL   123E
0B460:  MOVLW  0D
0B462:  BTFSS  F9E.4
0B464:  BRA    B462
0B466:  MOVWF  FAD
0B468:  MOVLW  0A
0B46A:  BTFSS  F9E.4
0B46C:  BRA    B46A
0B46E:  MOVWF  FAD
....................    int32 address = make32(data1,data2,data3,data4); 
0B470:  MOVFF  2B8,2BF
0B474:  MOVFF  2B9,2BE
0B478:  MOVFF  2BA,2BD
0B47C:  MOVFF  2BB,2BC
....................    sector_erase_OF(address); 
0B480:  MOVFF  2BF,2CB
0B484:  MOVFF  2BE,2CA
0B488:  MOVFF  2BD,2C9
0B48C:  MOVFF  2BC,2C8
0B490:  CALL   28E6
....................     
....................    int16 DATA = address/SECT;//maximum 2048 
....................    int8 D1 = DATA >> 8; 
....................    int8 D2 = DATA; 
0B494:  MOVFF  2BE,2C0
0B498:  MOVFF  2BF,2C1
0B49C:  MOVFF  2C1,2C2
0B4A0:  MOVFF  2C0,2C3
....................     
....................    SAVE_SAT_LOG(0xe0, D1, D2);//0xE0+16bit sector info 
0B4A4:  MOVLW  E0
0B4A6:  MOVLB  2
0B4A8:  MOVWF  xC4
0B4AA:  MOVFF  2C2,2C5
0B4AE:  MOVFF  2C3,2C6
0B4B2:  MOVLB  0
0B4B4:  CALL   2DCE
....................     
....................    return; 
0B4B8:  RETURN 0
.................... } 
.................... void REFRESH_SECTOR_SCF(int8 data1,int8 data2,int8 data3,int8 data4) 
.................... { 
....................    fprintf(PC,"ERASE SCF:%x%x%x%x\r\n",data1,data2,data3,data4); 
0B4BA:  MOVLW  9A
0B4BC:  MOVWF  FF6
0B4BE:  MOVLW  06
0B4C0:  MOVWF  FF7
0B4C2:  MOVLW  00
0B4C4:  MOVWF  FF8
0B4C6:  MOVLW  0A
0B4C8:  MOVLB  2
0B4CA:  MOVWF  xD2
0B4CC:  MOVLB  0
0B4CE:  CALL   120C
0B4D2:  MOVFF  2B8,2D3
0B4D6:  MOVLW  57
0B4D8:  MOVLB  2
0B4DA:  MOVWF  xD4
0B4DC:  MOVLB  0
0B4DE:  CALL   123E
0B4E2:  MOVFF  2B9,2D3
0B4E6:  MOVLW  57
0B4E8:  MOVLB  2
0B4EA:  MOVWF  xD4
0B4EC:  MOVLB  0
0B4EE:  CALL   123E
0B4F2:  MOVFF  2BA,2D3
0B4F6:  MOVLW  57
0B4F8:  MOVLB  2
0B4FA:  MOVWF  xD4
0B4FC:  MOVLB  0
0B4FE:  CALL   123E
0B502:  MOVFF  2BB,2D3
0B506:  MOVLW  57
0B508:  MOVLB  2
0B50A:  MOVWF  xD4
0B50C:  MOVLB  0
0B50E:  CALL   123E
0B512:  MOVLW  0D
0B514:  BTFSS  F9E.4
0B516:  BRA    B514
0B518:  MOVWF  FAD
0B51A:  MOVLW  0A
0B51C:  BTFSS  F9E.4
0B51E:  BRA    B51C
0B520:  MOVWF  FAD
....................    int32 address = make32(data1,data2,data3,data4); 
0B522:  MOVFF  2B8,2BF
0B526:  MOVFF  2B9,2BE
0B52A:  MOVFF  2BA,2BD
0B52E:  MOVFF  2BB,2BC
....................    output_low(PIN_C4); 
0B532:  BCF    F94.4
0B534:  BCF    F8B.4
....................    sector_erase_SCF(address); 
0B536:  MOVFF  2BF,2CB
0B53A:  MOVFF  2BE,2CA
0B53E:  MOVFF  2BD,2C9
0B542:  MOVFF  2BC,2C8
0B546:  CALL   2982
....................    output_high(PIN_C4); 
0B54A:  BCF    F94.4
0B54C:  BSF    F8B.4
....................     
....................    int16 DATA = address/SECT;//maximum 2048 
....................    int8 D1 = DATA >> 8; 
....................    int8 D2 = DATA; 
0B54E:  MOVFF  2BE,2C0
0B552:  MOVFF  2BF,2C1
0B556:  MOVFF  2C1,2C2
0B55A:  MOVFF  2C0,2C3
....................     
....................    SAVE_SAT_LOG(0xe1, D1, D2);//0xE0+16bit sector info 
0B55E:  MOVLW  E1
0B560:  MOVLB  2
0B562:  MOVWF  xC4
0B564:  MOVFF  2C2,2C5
0B568:  MOVFF  2C3,2C6
0B56C:  MOVLB  0
0B56E:  CALL   2DCE
....................    return; 
0B572:  RETURN 0
.................... } 
.................... void REFRESH_SECTOR_SMF(int8 data1,int8 data2,int8 data3,int8 data4) 
.................... { 
....................    fprintf(PC,"ERASE SMF:%x%x%x%x\r\n",data1,data2,data3,data4); 
0B574:  MOVLW  B0
0B576:  MOVWF  FF6
0B578:  MOVLW  06
0B57A:  MOVWF  FF7
0B57C:  MOVLW  00
0B57E:  MOVWF  FF8
0B580:  MOVLW  0A
0B582:  MOVLB  2
0B584:  MOVWF  xD2
0B586:  MOVLB  0
0B588:  CALL   120C
0B58C:  MOVFF  2B8,2D3
0B590:  MOVLW  57
0B592:  MOVLB  2
0B594:  MOVWF  xD4
0B596:  MOVLB  0
0B598:  CALL   123E
0B59C:  MOVFF  2B9,2D3
0B5A0:  MOVLW  57
0B5A2:  MOVLB  2
0B5A4:  MOVWF  xD4
0B5A6:  MOVLB  0
0B5A8:  CALL   123E
0B5AC:  MOVFF  2BA,2D3
0B5B0:  MOVLW  57
0B5B2:  MOVLB  2
0B5B4:  MOVWF  xD4
0B5B6:  MOVLB  0
0B5B8:  CALL   123E
0B5BC:  MOVFF  2BB,2D3
0B5C0:  MOVLW  57
0B5C2:  MOVLB  2
0B5C4:  MOVWF  xD4
0B5C6:  MOVLB  0
0B5C8:  CALL   123E
0B5CC:  MOVLW  0D
0B5CE:  BTFSS  F9E.4
0B5D0:  BRA    B5CE
0B5D2:  MOVWF  FAD
0B5D4:  MOVLW  0A
0B5D6:  BTFSS  F9E.4
0B5D8:  BRA    B5D6
0B5DA:  MOVWF  FAD
....................    int32 address = make32(data1,data2,data3,data4); 
0B5DC:  MOVFF  2B8,2BF
0B5E0:  MOVFF  2B9,2BE
0B5E4:  MOVFF  2BA,2BD
0B5E8:  MOVFF  2BB,2BC
....................    output_low(PIN_A5); 
0B5EC:  BCF    F92.5
0B5EE:  BCF    F89.5
....................    sector_erase_SMF(address); 
0B5F0:  MOVFF  2BF,2CB
0B5F4:  MOVFF  2BE,2CA
0B5F8:  MOVFF  2BD,2C9
0B5FC:  MOVFF  2BC,2C8
0B600:  CALL   2A1E
....................     
....................    int16 DATA = address/SECT;//maximum 2048 
....................    int8 D1 = DATA >> 8; 
....................    int8 D2 = DATA; 
0B604:  MOVFF  2BE,2C0
0B608:  MOVFF  2BF,2C1
0B60C:  MOVFF  2C1,2C2
0B610:  MOVFF  2C0,2C3
....................     
....................    SAVE_SAT_LOG(0xe2, D1, D2);//0xE0+16bit sector info 
0B614:  MOVLW  E2
0B616:  MOVLB  2
0B618:  MOVWF  xC4
0B61A:  MOVFF  2C2,2C5
0B61E:  MOVFF  2C3,2C6
0B622:  MOVLB  0
0B624:  CALL   2DCE
....................    return; 
0B628:  RETURN 0
.................... } 
....................  
....................  
....................  
....................  
....................  
.................... void TRANSFER_SECTOR_OF2SCF(int8 data1,int8 data2,int8 data3,int8 data4)//command 0x12 
.................... { 
....................    REFRESH_SECTOR_SCF(data1,data2,data3,data4); 
0B62A:  MOVFF  2A8,2B8
0B62E:  MOVFF  2A9,2B9
0B632:  MOVFF  2AA,2BA
0B636:  MOVFF  2AB,2BB
0B63A:  RCALL  B4BA
....................    delay_ms(500); 
0B63C:  MOVLW  02
0B63E:  MOVLB  2
0B640:  MOVWF  xB8
0B642:  MOVLW  FA
0B644:  MOVWF  xDB
0B646:  MOVLB  0
0B648:  CALL   230E
0B64C:  MOVLB  2
0B64E:  DECFSZ xB8,F
0B650:  BRA    B642
....................    fprintf(PC,"transfer:%x%x%x%x\r\n",data1,data2,data3,data4); 
0B652:  MOVLW  C6
0B654:  MOVWF  FF6
0B656:  MOVLW  06
0B658:  MOVWF  FF7
0B65A:  MOVLW  00
0B65C:  MOVWF  FF8
0B65E:  MOVLW  09
0B660:  MOVWF  xD2
0B662:  MOVLB  0
0B664:  CALL   120C
0B668:  MOVFF  2A8,2D3
0B66C:  MOVLW  57
0B66E:  MOVLB  2
0B670:  MOVWF  xD4
0B672:  MOVLB  0
0B674:  CALL   123E
0B678:  MOVFF  2A9,2D3
0B67C:  MOVLW  57
0B67E:  MOVLB  2
0B680:  MOVWF  xD4
0B682:  MOVLB  0
0B684:  CALL   123E
0B688:  MOVFF  2AA,2D3
0B68C:  MOVLW  57
0B68E:  MOVLB  2
0B690:  MOVWF  xD4
0B692:  MOVLB  0
0B694:  CALL   123E
0B698:  MOVFF  2AB,2D3
0B69C:  MOVLW  57
0B69E:  MOVLB  2
0B6A0:  MOVWF  xD4
0B6A2:  MOVLB  0
0B6A4:  CALL   123E
0B6A8:  MOVLW  0D
0B6AA:  BTFSS  F9E.4
0B6AC:  BRA    B6AA
0B6AE:  MOVWF  FAD
0B6B0:  MOVLW  0A
0B6B2:  BTFSS  F9E.4
0B6B4:  BRA    B6B2
0B6B6:  MOVWF  FAD
....................    int32 address = make32(data1,data2,data3,data4); 
0B6B8:  MOVFF  2A8,2AF
0B6BC:  MOVFF  2A9,2AE
0B6C0:  MOVFF  2AA,2AD
0B6C4:  MOVFF  2AB,2AC
....................    address = address - (address%SECT); 
0B6C8:  MOVLB  2
0B6CA:  MOVFF  2AC,00
0B6CE:  MOVFF  2AD,01
0B6D2:  CLRF   02
0B6D4:  CLRF   03
0B6D6:  MOVF   xAC,W
0B6D8:  SUBWF  xAC,F
0B6DA:  MOVF   xAD,W
0B6DC:  SUBWFB xAD,F
0B6DE:  MOVF   02,W
0B6E0:  SUBWFB xAE,F
0B6E2:  MOVF   03,W
0B6E4:  SUBWFB xAF,F
....................    output_low(PIN_C4); 
0B6E6:  BCF    F94.4
0B6E8:  BCF    F8B.4
....................    for(int32 i = 0; i < SECT; i++) 
0B6EA:  CLRF   xB3
0B6EC:  CLRF   xB2
0B6EE:  CLRF   xB1
0B6F0:  CLRF   xB0
0B6F2:  MOVF   xB3,F
0B6F4:  BNZ   B770
0B6F6:  MOVF   xB2,W
0B6F8:  SUBLW  00
0B6FA:  BNC   B770
....................    { 
....................       WRITE_DATA_BYTE_SCF(address + i, READ_DATA_BYTE_OF(address + i)); 
0B6FC:  MOVF   xB0,W
0B6FE:  ADDWF  xAC,W
0B700:  MOVWF  xB8
0B702:  MOVF   xB1,W
0B704:  ADDWFC xAD,W
0B706:  MOVWF  xB9
0B708:  MOVF   xB2,W
0B70A:  ADDWFC xAE,W
0B70C:  MOVWF  xBA
0B70E:  MOVF   xB3,W
0B710:  ADDWFC xAF,W
0B712:  MOVWF  xBB
0B714:  MOVF   xB0,W
0B716:  ADDWF  xAC,W
0B718:  MOVWF  xBC
0B71A:  MOVF   xB1,W
0B71C:  ADDWFC xAD,W
0B71E:  MOVWF  xBD
0B720:  MOVF   xB2,W
0B722:  ADDWFC xAE,W
0B724:  MOVWF  xBE
0B726:  MOVF   xB3,W
0B728:  ADDWFC xAF,W
0B72A:  MOVWF  xBF
0B72C:  MOVWF  xDC
0B72E:  MOVFF  2BE,2DB
0B732:  MOVFF  2BD,2DA
0B736:  MOVFF  2BC,2D9
0B73A:  MOVLB  0
0B73C:  CALL   0DBE
0B740:  MOVFF  01,2BC
0B744:  MOVFF  2BB,2D6
0B748:  MOVFF  2BA,2D5
0B74C:  MOVFF  2B9,2D4
0B750:  MOVFF  2B8,2D3
0B754:  MOVFF  01,2D7
0B758:  CALL   110C
0B75C:  MOVLW  01
0B75E:  MOVLB  2
0B760:  ADDWF  xB0,F
0B762:  BTFSC  FD8.0
0B764:  INCF   xB1,F
0B766:  BTFSC  FD8.2
0B768:  INCF   xB2,F
0B76A:  BTFSC  FD8.2
0B76C:  INCF   xB3,F
0B76E:  BRA    B6F2
....................    } 
....................    delay_ms(100); 
0B770:  MOVLW  64
0B772:  MOVWF  xDB
0B774:  MOVLB  0
0B776:  CALL   230E
....................    output_high(PIN_C4); 
0B77A:  BCF    F94.4
0B77C:  BSF    F8B.4
....................     
....................    int16 DATA = address/SECT;//maximum 2048 
....................    int8 D1 = DATA >> 8; 
....................    int8 D2 = DATA; 
0B77E:  MOVFF  2AE,2B4
0B782:  MOVFF  2AF,2B5
0B786:  MOVFF  2B5,2B6
0B78A:  MOVFF  2B4,2B7
....................     
....................    SAVE_SAT_LOG(0x12, D1, D2);//0xE0+16bit sector info 
0B78E:  MOVLW  12
0B790:  MOVLB  2
0B792:  MOVWF  xC4
0B794:  MOVFF  2B6,2C5
0B798:  MOVFF  2B7,2C6
0B79C:  MOVLB  0
0B79E:  CALL   2DCE
....................    return; 
0B7A2:  RETURN 0
.................... } 
....................  
.................... void TRANSFER_SECTOR_OF2SMF(int8 data1,int8 data2,int8 data3,int8 data4) 
.................... { 
....................    REFRESH_SECTOR_SMF(data1,data2,data3,data4); 
0B7A4:  MOVFF  2A8,2B8
0B7A8:  MOVFF  2A9,2B9
0B7AC:  MOVFF  2AA,2BA
0B7B0:  MOVFF  2AB,2BB
0B7B4:  RCALL  B574
....................    delay_ms(500); 
0B7B6:  MOVLW  02
0B7B8:  MOVLB  2
0B7BA:  MOVWF  xB8
0B7BC:  MOVLW  FA
0B7BE:  MOVWF  xDB
0B7C0:  MOVLB  0
0B7C2:  CALL   230E
0B7C6:  MOVLB  2
0B7C8:  DECFSZ xB8,F
0B7CA:  BRA    B7BC
....................    fprintf(PC,"transfer:%x%x%x%x\r\n",data1,data2,data3,data4); 
0B7CC:  MOVLW  DA
0B7CE:  MOVWF  FF6
0B7D0:  MOVLW  06
0B7D2:  MOVWF  FF7
0B7D4:  MOVLW  00
0B7D6:  MOVWF  FF8
0B7D8:  MOVLW  09
0B7DA:  MOVWF  xD2
0B7DC:  MOVLB  0
0B7DE:  CALL   120C
0B7E2:  MOVFF  2A8,2D3
0B7E6:  MOVLW  57
0B7E8:  MOVLB  2
0B7EA:  MOVWF  xD4
0B7EC:  MOVLB  0
0B7EE:  CALL   123E
0B7F2:  MOVFF  2A9,2D3
0B7F6:  MOVLW  57
0B7F8:  MOVLB  2
0B7FA:  MOVWF  xD4
0B7FC:  MOVLB  0
0B7FE:  CALL   123E
0B802:  MOVFF  2AA,2D3
0B806:  MOVLW  57
0B808:  MOVLB  2
0B80A:  MOVWF  xD4
0B80C:  MOVLB  0
0B80E:  CALL   123E
0B812:  MOVFF  2AB,2D3
0B816:  MOVLW  57
0B818:  MOVLB  2
0B81A:  MOVWF  xD4
0B81C:  MOVLB  0
0B81E:  CALL   123E
0B822:  MOVLW  0D
0B824:  BTFSS  F9E.4
0B826:  BRA    B824
0B828:  MOVWF  FAD
0B82A:  MOVLW  0A
0B82C:  BTFSS  F9E.4
0B82E:  BRA    B82C
0B830:  MOVWF  FAD
....................    int32 address = make32(data1,data2,data3,data4); 
0B832:  MOVFF  2A8,2AF
0B836:  MOVFF  2A9,2AE
0B83A:  MOVFF  2AA,2AD
0B83E:  MOVFF  2AB,2AC
....................    address = address - (address%SECT); 
0B842:  MOVLB  2
0B844:  MOVFF  2AC,00
0B848:  MOVFF  2AD,01
0B84C:  CLRF   02
0B84E:  CLRF   03
0B850:  MOVF   xAC,W
0B852:  SUBWF  xAC,F
0B854:  MOVF   xAD,W
0B856:  SUBWFB xAD,F
0B858:  MOVF   02,W
0B85A:  SUBWFB xAE,F
0B85C:  MOVF   03,W
0B85E:  SUBWFB xAF,F
....................    output_low(PIN_A5); 
0B860:  BCF    F92.5
0B862:  BCF    F89.5
....................    for(int32 i = 0; i < SECT; i++) 
0B864:  CLRF   xB3
0B866:  CLRF   xB2
0B868:  CLRF   xB1
0B86A:  CLRF   xB0
0B86C:  MOVF   xB3,F
0B86E:  BNZ   B8EA
0B870:  MOVF   xB2,W
0B872:  SUBLW  00
0B874:  BNC   B8EA
....................    { 
....................       WRITE_DATA_BYTE_SMF(address + i, READ_DATA_BYTE_OF(address + i)); 
0B876:  MOVF   xB0,W
0B878:  ADDWF  xAC,W
0B87A:  MOVWF  xB8
0B87C:  MOVF   xB1,W
0B87E:  ADDWFC xAD,W
0B880:  MOVWF  xB9
0B882:  MOVF   xB2,W
0B884:  ADDWFC xAE,W
0B886:  MOVWF  xBA
0B888:  MOVF   xB3,W
0B88A:  ADDWFC xAF,W
0B88C:  MOVWF  xBB
0B88E:  MOVF   xB0,W
0B890:  ADDWF  xAC,W
0B892:  MOVWF  xBC
0B894:  MOVF   xB1,W
0B896:  ADDWFC xAD,W
0B898:  MOVWF  xBD
0B89A:  MOVF   xB2,W
0B89C:  ADDWFC xAE,W
0B89E:  MOVWF  xBE
0B8A0:  MOVF   xB3,W
0B8A2:  ADDWFC xAF,W
0B8A4:  MOVWF  xBF
0B8A6:  MOVWF  xDC
0B8A8:  MOVFF  2BE,2DB
0B8AC:  MOVFF  2BD,2DA
0B8B0:  MOVFF  2BC,2D9
0B8B4:  MOVLB  0
0B8B6:  CALL   0DBE
0B8BA:  MOVFF  01,2BC
0B8BE:  MOVFF  2BB,2D6
0B8C2:  MOVFF  2BA,2D5
0B8C6:  MOVFF  2B9,2D4
0B8CA:  MOVFF  2B8,2D3
0B8CE:  MOVFF  01,2D7
0B8D2:  CALL   1198
0B8D6:  MOVLW  01
0B8D8:  MOVLB  2
0B8DA:  ADDWF  xB0,F
0B8DC:  BTFSC  FD8.0
0B8DE:  INCF   xB1,F
0B8E0:  BTFSC  FD8.2
0B8E2:  INCF   xB2,F
0B8E4:  BTFSC  FD8.2
0B8E6:  INCF   xB3,F
0B8E8:  BRA    B86C
....................    } 
....................    delay_ms(100); 
0B8EA:  MOVLW  64
0B8EC:  MOVWF  xDB
0B8EE:  MOVLB  0
0B8F0:  CALL   230E
....................     
....................    int16 DATA = address/SECT;//maximum 2048 
....................    int8 D1 = DATA >> 8; 
....................    int8 D2 = DATA; 
0B8F4:  MOVFF  2AE,2B4
0B8F8:  MOVFF  2AF,2B5
0B8FC:  MOVFF  2B5,2B6
0B900:  MOVFF  2B4,2B7
....................     
....................    SAVE_SAT_LOG(0x13, D1, D2);//0xE0+16bit sector info 
0B904:  MOVLW  13
0B906:  MOVLB  2
0B908:  MOVWF  xC4
0B90A:  MOVFF  2B6,2C5
0B90E:  MOVFF  2B7,2C6
0B912:  MOVLB  0
0B914:  CALL   2DCE
....................     
....................    return; 
0B918:  GOTO   C394 (RETURN)
.................... } 
....................  
....................  
.................... void TRANSFER_SECTOR_SCF2OF(int8 data1,int8 data2,int8 data3,int8 data4) 
.................... { 
....................    REFRESH_SECTOR_OF(data1,data2,data3,data4); 
0B91C:  MOVFF  2A8,2B8
0B920:  MOVFF  2A9,2B9
0B924:  MOVFF  2AA,2BA
0B928:  MOVFF  2AB,2BB
0B92C:  RCALL  B408
....................    delay_ms(500); 
0B92E:  MOVLW  02
0B930:  MOVLB  2
0B932:  MOVWF  xB8
0B934:  MOVLW  FA
0B936:  MOVWF  xDB
0B938:  MOVLB  0
0B93A:  CALL   230E
0B93E:  MOVLB  2
0B940:  DECFSZ xB8,F
0B942:  BRA    B934
....................    fprintf(PC,"transfer:%x%x%x%x\r\n",data1,data2,data3,data4); 
0B944:  MOVLW  EE
0B946:  MOVWF  FF6
0B948:  MOVLW  06
0B94A:  MOVWF  FF7
0B94C:  MOVLW  00
0B94E:  MOVWF  FF8
0B950:  MOVLW  09
0B952:  MOVWF  xD2
0B954:  MOVLB  0
0B956:  CALL   120C
0B95A:  MOVFF  2A8,2D3
0B95E:  MOVLW  57
0B960:  MOVLB  2
0B962:  MOVWF  xD4
0B964:  MOVLB  0
0B966:  CALL   123E
0B96A:  MOVFF  2A9,2D3
0B96E:  MOVLW  57
0B970:  MOVLB  2
0B972:  MOVWF  xD4
0B974:  MOVLB  0
0B976:  CALL   123E
0B97A:  MOVFF  2AA,2D3
0B97E:  MOVLW  57
0B980:  MOVLB  2
0B982:  MOVWF  xD4
0B984:  MOVLB  0
0B986:  CALL   123E
0B98A:  MOVFF  2AB,2D3
0B98E:  MOVLW  57
0B990:  MOVLB  2
0B992:  MOVWF  xD4
0B994:  MOVLB  0
0B996:  CALL   123E
0B99A:  MOVLW  0D
0B99C:  BTFSS  F9E.4
0B99E:  BRA    B99C
0B9A0:  MOVWF  FAD
0B9A2:  MOVLW  0A
0B9A4:  BTFSS  F9E.4
0B9A6:  BRA    B9A4
0B9A8:  MOVWF  FAD
....................    int32 address = make32(data1,data2,data3,data4); 
0B9AA:  MOVFF  2A8,2AF
0B9AE:  MOVFF  2A9,2AE
0B9B2:  MOVFF  2AA,2AD
0B9B6:  MOVFF  2AB,2AC
....................    address = address - (address%SECT); 
0B9BA:  MOVLB  2
0B9BC:  MOVFF  2AC,00
0B9C0:  MOVFF  2AD,01
0B9C4:  CLRF   02
0B9C6:  CLRF   03
0B9C8:  MOVF   xAC,W
0B9CA:  SUBWF  xAC,F
0B9CC:  MOVF   xAD,W
0B9CE:  SUBWFB xAD,F
0B9D0:  MOVF   02,W
0B9D2:  SUBWFB xAE,F
0B9D4:  MOVF   03,W
0B9D6:  SUBWFB xAF,F
....................    output_low(PIN_C4); 
0B9D8:  BCF    F94.4
0B9DA:  BCF    F8B.4
....................    for(int32 i = 0; i < SECT; i++) 
0B9DC:  CLRF   xB3
0B9DE:  CLRF   xB2
0B9E0:  CLRF   xB1
0B9E2:  CLRF   xB0
0B9E4:  MOVF   xB3,F
0B9E6:  BNZ   BA62
0B9E8:  MOVF   xB2,W
0B9EA:  SUBLW  00
0B9EC:  BNC   BA62
....................    { 
....................       WRITE_DATA_BYTE_OF(address + i, READ_DATA_BYTE_SCF(address + i)); 
0B9EE:  MOVF   xB0,W
0B9F0:  ADDWF  xAC,W
0B9F2:  MOVWF  xB8
0B9F4:  MOVF   xB1,W
0B9F6:  ADDWFC xAD,W
0B9F8:  MOVWF  xB9
0B9FA:  MOVF   xB2,W
0B9FC:  ADDWFC xAE,W
0B9FE:  MOVWF  xBA
0BA00:  MOVF   xB3,W
0BA02:  ADDWFC xAF,W
0BA04:  MOVWF  xBB
0BA06:  MOVF   xB0,W
0BA08:  ADDWF  xAC,W
0BA0A:  MOVWF  xBC
0BA0C:  MOVF   xB1,W
0BA0E:  ADDWFC xAD,W
0BA10:  MOVWF  xBD
0BA12:  MOVF   xB2,W
0BA14:  ADDWFC xAE,W
0BA16:  MOVWF  xBE
0BA18:  MOVF   xB3,W
0BA1A:  ADDWFC xAF,W
0BA1C:  MOVWF  xBF
0BA1E:  MOVWF  xC3
0BA20:  MOVFF  2BE,2C2
0BA24:  MOVFF  2BD,2C1
0BA28:  MOVFF  2BC,2C0
0BA2C:  MOVLB  0
0BA2E:  CALL   0E76
0BA32:  MOVFF  01,2BC
0BA36:  MOVFF  2BB,2D6
0BA3A:  MOVFF  2BA,2D5
0BA3E:  MOVFF  2B9,2D4
0BA42:  MOVFF  2B8,2D3
0BA46:  MOVFF  01,2D7
0BA4A:  CALL   1080
0BA4E:  MOVLW  01
0BA50:  MOVLB  2
0BA52:  ADDWF  xB0,F
0BA54:  BTFSC  FD8.0
0BA56:  INCF   xB1,F
0BA58:  BTFSC  FD8.2
0BA5A:  INCF   xB2,F
0BA5C:  BTFSC  FD8.2
0BA5E:  INCF   xB3,F
0BA60:  BRA    B9E4
....................    } 
....................    delay_ms(100); 
0BA62:  MOVLW  64
0BA64:  MOVWF  xDB
0BA66:  MOVLB  0
0BA68:  CALL   230E
....................    output_high(PIN_C4); 
0BA6C:  BCF    F94.4
0BA6E:  BSF    F8B.4
....................     
....................    int16 DATA = address/SECT;//maximum 2048 
....................    int8 D1 = DATA >> 8; 
....................    int8 D2 = DATA; 
0BA70:  MOVFF  2AE,2B4
0BA74:  MOVFF  2AF,2B5
0BA78:  MOVFF  2B5,2B6
0BA7C:  MOVFF  2B4,2B7
....................     
....................    SAVE_SAT_LOG(0x21, D1, D2);//0xE0+16bit sector info 
0BA80:  MOVLW  21
0BA82:  MOVLB  2
0BA84:  MOVWF  xC4
0BA86:  MOVFF  2B6,2C5
0BA8A:  MOVFF  2B7,2C6
0BA8E:  MOVLB  0
0BA90:  CALL   2DCE
....................     
....................    return; 
0BA94:  RETURN 0
.................... } 
....................  
.................... void TRANSFER_SECTOR_SCF2SMF(int8 data1,int8 data2,int8 data3,int8 data4) 
.................... { 
....................    REFRESH_SECTOR_SMF(data1,data2,data3,data4); 
0BA96:  MOVFF  2A8,2B8
0BA9A:  MOVFF  2A9,2B9
0BA9E:  MOVFF  2AA,2BA
0BAA2:  MOVFF  2AB,2BB
0BAA6:  RCALL  B574
....................    delay_ms(500); 
0BAA8:  MOVLW  02
0BAAA:  MOVLB  2
0BAAC:  MOVWF  xB8
0BAAE:  MOVLW  FA
0BAB0:  MOVWF  xDB
0BAB2:  MOVLB  0
0BAB4:  CALL   230E
0BAB8:  MOVLB  2
0BABA:  DECFSZ xB8,F
0BABC:  BRA    BAAE
....................    fprintf(PC,"transfer:%x%x%x%x\r\n",data1,data2,data3,data4); 
0BABE:  MOVLW  02
0BAC0:  MOVWF  FF6
0BAC2:  MOVLW  07
0BAC4:  MOVWF  FF7
0BAC6:  MOVLW  00
0BAC8:  MOVWF  FF8
0BACA:  MOVLW  09
0BACC:  MOVWF  xD2
0BACE:  MOVLB  0
0BAD0:  CALL   120C
0BAD4:  MOVFF  2A8,2D3
0BAD8:  MOVLW  57
0BADA:  MOVLB  2
0BADC:  MOVWF  xD4
0BADE:  MOVLB  0
0BAE0:  CALL   123E
0BAE4:  MOVFF  2A9,2D3
0BAE8:  MOVLW  57
0BAEA:  MOVLB  2
0BAEC:  MOVWF  xD4
0BAEE:  MOVLB  0
0BAF0:  CALL   123E
0BAF4:  MOVFF  2AA,2D3
0BAF8:  MOVLW  57
0BAFA:  MOVLB  2
0BAFC:  MOVWF  xD4
0BAFE:  MOVLB  0
0BB00:  CALL   123E
0BB04:  MOVFF  2AB,2D3
0BB08:  MOVLW  57
0BB0A:  MOVLB  2
0BB0C:  MOVWF  xD4
0BB0E:  MOVLB  0
0BB10:  CALL   123E
0BB14:  MOVLW  0D
0BB16:  BTFSS  F9E.4
0BB18:  BRA    BB16
0BB1A:  MOVWF  FAD
0BB1C:  MOVLW  0A
0BB1E:  BTFSS  F9E.4
0BB20:  BRA    BB1E
0BB22:  MOVWF  FAD
....................    int32 address = make32(data1,data2,data3,data4); 
0BB24:  MOVFF  2A8,2AF
0BB28:  MOVFF  2A9,2AE
0BB2C:  MOVFF  2AA,2AD
0BB30:  MOVFF  2AB,2AC
....................    address = address - (address%SECT); 
0BB34:  MOVLB  2
0BB36:  MOVFF  2AC,00
0BB3A:  MOVFF  2AD,01
0BB3E:  CLRF   02
0BB40:  CLRF   03
0BB42:  MOVF   xAC,W
0BB44:  SUBWF  xAC,F
0BB46:  MOVF   xAD,W
0BB48:  SUBWFB xAD,F
0BB4A:  MOVF   02,W
0BB4C:  SUBWFB xAE,F
0BB4E:  MOVF   03,W
0BB50:  SUBWFB xAF,F
....................    output_low(PIN_C4); 
0BB52:  BCF    F94.4
0BB54:  BCF    F8B.4
....................    output_low(PIN_A5); 
0BB56:  BCF    F92.5
0BB58:  BCF    F89.5
....................    for(int32 i = 0; i < SECT; i++) 
0BB5A:  CLRF   xB3
0BB5C:  CLRF   xB2
0BB5E:  CLRF   xB1
0BB60:  CLRF   xB0
0BB62:  MOVF   xB3,F
0BB64:  BNZ   BBE0
0BB66:  MOVF   xB2,W
0BB68:  SUBLW  00
0BB6A:  BNC   BBE0
....................    { 
....................       WRITE_DATA_BYTE_SMF(address + i, READ_DATA_BYTE_SCF(address + i)); 
0BB6C:  MOVF   xB0,W
0BB6E:  ADDWF  xAC,W
0BB70:  MOVWF  xB8
0BB72:  MOVF   xB1,W
0BB74:  ADDWFC xAD,W
0BB76:  MOVWF  xB9
0BB78:  MOVF   xB2,W
0BB7A:  ADDWFC xAE,W
0BB7C:  MOVWF  xBA
0BB7E:  MOVF   xB3,W
0BB80:  ADDWFC xAF,W
0BB82:  MOVWF  xBB
0BB84:  MOVF   xB0,W
0BB86:  ADDWF  xAC,W
0BB88:  MOVWF  xBC
0BB8A:  MOVF   xB1,W
0BB8C:  ADDWFC xAD,W
0BB8E:  MOVWF  xBD
0BB90:  MOVF   xB2,W
0BB92:  ADDWFC xAE,W
0BB94:  MOVWF  xBE
0BB96:  MOVF   xB3,W
0BB98:  ADDWFC xAF,W
0BB9A:  MOVWF  xBF
0BB9C:  MOVWF  xC3
0BB9E:  MOVFF  2BE,2C2
0BBA2:  MOVFF  2BD,2C1
0BBA6:  MOVFF  2BC,2C0
0BBAA:  MOVLB  0
0BBAC:  CALL   0E76
0BBB0:  MOVFF  01,2BC
0BBB4:  MOVFF  2BB,2D6
0BBB8:  MOVFF  2BA,2D5
0BBBC:  MOVFF  2B9,2D4
0BBC0:  MOVFF  2B8,2D3
0BBC4:  MOVFF  01,2D7
0BBC8:  CALL   1198
0BBCC:  MOVLW  01
0BBCE:  MOVLB  2
0BBD0:  ADDWF  xB0,F
0BBD2:  BTFSC  FD8.0
0BBD4:  INCF   xB1,F
0BBD6:  BTFSC  FD8.2
0BBD8:  INCF   xB2,F
0BBDA:  BTFSC  FD8.2
0BBDC:  INCF   xB3,F
0BBDE:  BRA    BB62
....................    } 
....................    delay_ms(100); 
0BBE0:  MOVLW  64
0BBE2:  MOVWF  xDB
0BBE4:  MOVLB  0
0BBE6:  CALL   230E
....................    output_high(PIN_C4); 
0BBEA:  BCF    F94.4
0BBEC:  BSF    F8B.4
....................     
....................    int16 DATA = address/SECT;//maximum 2048 
....................    int8 D1 = DATA >> 8; 
....................    int8 D2 = DATA; 
0BBEE:  MOVFF  2AE,2B4
0BBF2:  MOVFF  2AF,2B5
0BBF6:  MOVFF  2B5,2B6
0BBFA:  MOVFF  2B4,2B7
....................     
....................    SAVE_SAT_LOG(0x23, D1, D2);//0xE0+16bit sector info 
0BBFE:  MOVLW  23
0BC00:  MOVLB  2
0BC02:  MOVWF  xC4
0BC04:  MOVFF  2B6,2C5
0BC08:  MOVFF  2B7,2C6
0BC0C:  MOVLB  0
0BC0E:  CALL   2DCE
....................     
....................    return; 
0BC12:  GOTO   C394 (RETURN)
.................... } 
....................  
.................... void TRANSFER_SECTOR_SMF2OF(int8 data1,int8 data2,int8 data3,int8 data4) 
.................... { 
....................    REFRESH_SECTOR_OF(data1,data2,data3,data4); 
0BC16:  MOVFF  2A8,2B8
0BC1A:  MOVFF  2A9,2B9
0BC1E:  MOVFF  2AA,2BA
0BC22:  MOVFF  2AB,2BB
0BC26:  CALL   B408
....................    delay_ms(500); 
0BC2A:  MOVLW  02
0BC2C:  MOVLB  2
0BC2E:  MOVWF  xB8
0BC30:  MOVLW  FA
0BC32:  MOVWF  xDB
0BC34:  MOVLB  0
0BC36:  CALL   230E
0BC3A:  MOVLB  2
0BC3C:  DECFSZ xB8,F
0BC3E:  BRA    BC30
....................    fprintf(PC,"transfer:%x%x%x%x\r\n",data1,data2,data3,data4); 
0BC40:  MOVLW  16
0BC42:  MOVWF  FF6
0BC44:  MOVLW  07
0BC46:  MOVWF  FF7
0BC48:  MOVLW  00
0BC4A:  MOVWF  FF8
0BC4C:  MOVLW  09
0BC4E:  MOVWF  xD2
0BC50:  MOVLB  0
0BC52:  CALL   120C
0BC56:  MOVFF  2A8,2D3
0BC5A:  MOVLW  57
0BC5C:  MOVLB  2
0BC5E:  MOVWF  xD4
0BC60:  MOVLB  0
0BC62:  CALL   123E
0BC66:  MOVFF  2A9,2D3
0BC6A:  MOVLW  57
0BC6C:  MOVLB  2
0BC6E:  MOVWF  xD4
0BC70:  MOVLB  0
0BC72:  CALL   123E
0BC76:  MOVFF  2AA,2D3
0BC7A:  MOVLW  57
0BC7C:  MOVLB  2
0BC7E:  MOVWF  xD4
0BC80:  MOVLB  0
0BC82:  CALL   123E
0BC86:  MOVFF  2AB,2D3
0BC8A:  MOVLW  57
0BC8C:  MOVLB  2
0BC8E:  MOVWF  xD4
0BC90:  MOVLB  0
0BC92:  CALL   123E
0BC96:  MOVLW  0D
0BC98:  BTFSS  F9E.4
0BC9A:  BRA    BC98
0BC9C:  MOVWF  FAD
0BC9E:  MOVLW  0A
0BCA0:  BTFSS  F9E.4
0BCA2:  BRA    BCA0
0BCA4:  MOVWF  FAD
....................    int32 address = make32(data1,data2,data3,data4); 
0BCA6:  MOVFF  2A8,2AF
0BCAA:  MOVFF  2A9,2AE
0BCAE:  MOVFF  2AA,2AD
0BCB2:  MOVFF  2AB,2AC
....................    address = address - (address%SECT); 
0BCB6:  MOVLB  2
0BCB8:  MOVFF  2AC,00
0BCBC:  MOVFF  2AD,01
0BCC0:  CLRF   02
0BCC2:  CLRF   03
0BCC4:  MOVF   xAC,W
0BCC6:  SUBWF  xAC,F
0BCC8:  MOVF   xAD,W
0BCCA:  SUBWFB xAD,F
0BCCC:  MOVF   02,W
0BCCE:  SUBWFB xAE,F
0BCD0:  MOVF   03,W
0BCD2:  SUBWFB xAF,F
....................    output_low(PIN_A5); 
0BCD4:  BCF    F92.5
0BCD6:  BCF    F89.5
....................    for(int32 i = 0; i < SECT; i++) 
0BCD8:  CLRF   xB3
0BCDA:  CLRF   xB2
0BCDC:  CLRF   xB1
0BCDE:  CLRF   xB0
0BCE0:  MOVF   xB3,F
0BCE2:  BNZ   BD5E
0BCE4:  MOVF   xB2,W
0BCE6:  SUBLW  00
0BCE8:  BNC   BD5E
....................    { 
....................       WRITE_DATA_BYTE_OF(address + i, READ_DATA_BYTE_SMF(address + i)); 
0BCEA:  MOVF   xB0,W
0BCEC:  ADDWF  xAC,W
0BCEE:  MOVWF  xB8
0BCF0:  MOVF   xB1,W
0BCF2:  ADDWFC xAD,W
0BCF4:  MOVWF  xB9
0BCF6:  MOVF   xB2,W
0BCF8:  ADDWFC xAE,W
0BCFA:  MOVWF  xBA
0BCFC:  MOVF   xB3,W
0BCFE:  ADDWFC xAF,W
0BD00:  MOVWF  xBB
0BD02:  MOVF   xB0,W
0BD04:  ADDWF  xAC,W
0BD06:  MOVWF  xBC
0BD08:  MOVF   xB1,W
0BD0A:  ADDWFC xAD,W
0BD0C:  MOVWF  xBD
0BD0E:  MOVF   xB2,W
0BD10:  ADDWFC xAE,W
0BD12:  MOVWF  xBE
0BD14:  MOVF   xB3,W
0BD16:  ADDWFC xAF,W
0BD18:  MOVWF  xBF
0BD1A:  MOVWF  xC3
0BD1C:  MOVFF  2BE,2C2
0BD20:  MOVFF  2BD,2C1
0BD24:  MOVFF  2BC,2C0
0BD28:  MOVLB  0
0BD2A:  CALL   0F2E
0BD2E:  MOVFF  01,2BC
0BD32:  MOVFF  2BB,2D6
0BD36:  MOVFF  2BA,2D5
0BD3A:  MOVFF  2B9,2D4
0BD3E:  MOVFF  2B8,2D3
0BD42:  MOVFF  01,2D7
0BD46:  CALL   1080
0BD4A:  MOVLW  01
0BD4C:  MOVLB  2
0BD4E:  ADDWF  xB0,F
0BD50:  BTFSC  FD8.0
0BD52:  INCF   xB1,F
0BD54:  BTFSC  FD8.2
0BD56:  INCF   xB2,F
0BD58:  BTFSC  FD8.2
0BD5A:  INCF   xB3,F
0BD5C:  BRA    BCE0
....................    } 
....................    delay_ms(100); 
0BD5E:  MOVLW  64
0BD60:  MOVWF  xDB
0BD62:  MOVLB  0
0BD64:  CALL   230E
....................     
....................    int16 DATA = address/SECT;//maximum 2048 
....................    int8 D1 = DATA >> 8; 
....................    int8 D2 = DATA; 
0BD68:  MOVFF  2AE,2B4
0BD6C:  MOVFF  2AF,2B5
0BD70:  MOVFF  2B5,2B6
0BD74:  MOVFF  2B4,2B7
....................     
....................    SAVE_SAT_LOG(0x31, D1, D2);//0xE0+16bit sector info 
0BD78:  MOVLW  31
0BD7A:  MOVLB  2
0BD7C:  MOVWF  xC4
0BD7E:  MOVFF  2B6,2C5
0BD82:  MOVFF  2B7,2C6
0BD86:  MOVLB  0
0BD88:  CALL   2DCE
....................     
....................    return; 
0BD8C:  GOTO   C394 (RETURN)
.................... } 
....................  
.................... void TRANSFER_SECTOR_SMF2SCF(int8 data1,int8 data2,int8 data3,int8 data4)//0x32 
.................... { 
....................    REFRESH_SECTOR_SCF(data1,data2,data3,data4); 
0BD90:  MOVFF  2A8,2B8
0BD94:  MOVFF  2A9,2B9
0BD98:  MOVFF  2AA,2BA
0BD9C:  MOVFF  2AB,2BB
0BDA0:  CALL   B4BA
....................    delay_ms(500); 
0BDA4:  MOVLW  02
0BDA6:  MOVLB  2
0BDA8:  MOVWF  xB8
0BDAA:  MOVLW  FA
0BDAC:  MOVWF  xDB
0BDAE:  MOVLB  0
0BDB0:  CALL   230E
0BDB4:  MOVLB  2
0BDB6:  DECFSZ xB8,F
0BDB8:  BRA    BDAA
....................    fprintf(PC,"transfer:%x%x%x%x\r\n",data1,data2,data3,data4); 
0BDBA:  MOVLW  2A
0BDBC:  MOVWF  FF6
0BDBE:  MOVLW  07
0BDC0:  MOVWF  FF7
0BDC2:  MOVLW  00
0BDC4:  MOVWF  FF8
0BDC6:  MOVLW  09
0BDC8:  MOVWF  xD2
0BDCA:  MOVLB  0
0BDCC:  CALL   120C
0BDD0:  MOVFF  2A8,2D3
0BDD4:  MOVLW  57
0BDD6:  MOVLB  2
0BDD8:  MOVWF  xD4
0BDDA:  MOVLB  0
0BDDC:  CALL   123E
0BDE0:  MOVFF  2A9,2D3
0BDE4:  MOVLW  57
0BDE6:  MOVLB  2
0BDE8:  MOVWF  xD4
0BDEA:  MOVLB  0
0BDEC:  CALL   123E
0BDF0:  MOVFF  2AA,2D3
0BDF4:  MOVLW  57
0BDF6:  MOVLB  2
0BDF8:  MOVWF  xD4
0BDFA:  MOVLB  0
0BDFC:  CALL   123E
0BE00:  MOVFF  2AB,2D3
0BE04:  MOVLW  57
0BE06:  MOVLB  2
0BE08:  MOVWF  xD4
0BE0A:  MOVLB  0
0BE0C:  CALL   123E
0BE10:  MOVLW  0D
0BE12:  BTFSS  F9E.4
0BE14:  BRA    BE12
0BE16:  MOVWF  FAD
0BE18:  MOVLW  0A
0BE1A:  BTFSS  F9E.4
0BE1C:  BRA    BE1A
0BE1E:  MOVWF  FAD
....................    int32 address = make32(data1,data2,data3,data4); 
0BE20:  MOVFF  2A8,2AF
0BE24:  MOVFF  2A9,2AE
0BE28:  MOVFF  2AA,2AD
0BE2C:  MOVFF  2AB,2AC
....................    address = address - (address%SECT); 
0BE30:  MOVLB  2
0BE32:  MOVFF  2AC,00
0BE36:  MOVFF  2AD,01
0BE3A:  CLRF   02
0BE3C:  CLRF   03
0BE3E:  MOVF   xAC,W
0BE40:  SUBWF  xAC,F
0BE42:  MOVF   xAD,W
0BE44:  SUBWFB xAD,F
0BE46:  MOVF   02,W
0BE48:  SUBWFB xAE,F
0BE4A:  MOVF   03,W
0BE4C:  SUBWFB xAF,F
....................    output_low(PIN_C4); 
0BE4E:  BCF    F94.4
0BE50:  BCF    F8B.4
....................    output_low(PIN_A5); 
0BE52:  BCF    F92.5
0BE54:  BCF    F89.5
....................    for(int32 i = 0; i < SECT; i++) 
0BE56:  CLRF   xB3
0BE58:  CLRF   xB2
0BE5A:  CLRF   xB1
0BE5C:  CLRF   xB0
0BE5E:  MOVF   xB3,F
0BE60:  BNZ   BEDC
0BE62:  MOVF   xB2,W
0BE64:  SUBLW  00
0BE66:  BNC   BEDC
....................    { 
....................       WRITE_DATA_BYTE_SCF(address + i, READ_DATA_BYTE_SMF(address + i)); 
0BE68:  MOVF   xB0,W
0BE6A:  ADDWF  xAC,W
0BE6C:  MOVWF  xB8
0BE6E:  MOVF   xB1,W
0BE70:  ADDWFC xAD,W
0BE72:  MOVWF  xB9
0BE74:  MOVF   xB2,W
0BE76:  ADDWFC xAE,W
0BE78:  MOVWF  xBA
0BE7A:  MOVF   xB3,W
0BE7C:  ADDWFC xAF,W
0BE7E:  MOVWF  xBB
0BE80:  MOVF   xB0,W
0BE82:  ADDWF  xAC,W
0BE84:  MOVWF  xBC
0BE86:  MOVF   xB1,W
0BE88:  ADDWFC xAD,W
0BE8A:  MOVWF  xBD
0BE8C:  MOVF   xB2,W
0BE8E:  ADDWFC xAE,W
0BE90:  MOVWF  xBE
0BE92:  MOVF   xB3,W
0BE94:  ADDWFC xAF,W
0BE96:  MOVWF  xBF
0BE98:  MOVWF  xC3
0BE9A:  MOVFF  2BE,2C2
0BE9E:  MOVFF  2BD,2C1
0BEA2:  MOVFF  2BC,2C0
0BEA6:  MOVLB  0
0BEA8:  CALL   0F2E
0BEAC:  MOVFF  01,2BC
0BEB0:  MOVFF  2BB,2D6
0BEB4:  MOVFF  2BA,2D5
0BEB8:  MOVFF  2B9,2D4
0BEBC:  MOVFF  2B8,2D3
0BEC0:  MOVFF  01,2D7
0BEC4:  CALL   110C
0BEC8:  MOVLW  01
0BECA:  MOVLB  2
0BECC:  ADDWF  xB0,F
0BECE:  BTFSC  FD8.0
0BED0:  INCF   xB1,F
0BED2:  BTFSC  FD8.2
0BED4:  INCF   xB2,F
0BED6:  BTFSC  FD8.2
0BED8:  INCF   xB3,F
0BEDA:  BRA    BE5E
....................    } 
....................    delay_ms(100); 
0BEDC:  MOVLW  64
0BEDE:  MOVWF  xDB
0BEE0:  MOVLB  0
0BEE2:  CALL   230E
....................    output_high(PIN_C4); 
0BEE6:  BCF    F94.4
0BEE8:  BSF    F8B.4
....................     
....................    int16 DATA = address/SECT;//maximum 2048 
....................    int8 D1 = DATA >> 8; 
....................    int8 D2 = DATA; 
0BEEA:  MOVFF  2AE,2B4
0BEEE:  MOVFF  2AF,2B5
0BEF2:  MOVFF  2B5,2B6
0BEF6:  MOVFF  2B4,2B7
....................     
....................    SAVE_SAT_LOG(0x32, D1, D2);//0xE0+16bit sector info 
0BEFA:  MOVLW  32
0BEFC:  MOVLB  2
0BEFE:  MOVWF  xC4
0BF00:  MOVFF  2B6,2C5
0BF04:  MOVFF  2B7,2C6
0BF08:  MOVLB  0
0BF0A:  CALL   2DCE
....................    return; 
0BF0E:  RETURN 0
.................... } 
....................  
....................  
.................... #include<mainpic_function.c> 
.................... //caution 
.................... //port of kbhit in CAM Mission is PC-- 
.................... //TRANSFER_DATA_NBYTE_TOPC_SCF(65536,65536); is comment out-- 
.................... //adcs address test make32 function-- 
.................... // 
.................... //reset battery voltage 0x87, over 0x87 is nomal mode 
.................... //reset  
....................  
.................... static int16 currenttime = 0; 
....................  
.................... void GIVE_ACCESS_SCF_Nsec(int8 min) 
.................... { 
....................    fprintf(PC,"give access to COM\r\n"); 
*
0B1F4:  MOVLW  3E
0B1F6:  MOVWF  FF6
0B1F8:  MOVLW  07
0B1FA:  MOVWF  FF7
0B1FC:  MOVLW  00
0B1FE:  MOVWF  FF8
0B200:  CALL   24F4
....................    fputc(0x35,COM); 
0B204:  MOVLW  35
0B206:  CALL   312C
....................    output_high(PIN_C4); 
0B20A:  BCF    F94.4
0B20C:  BSF    F8B.4
....................    if(min > 5)//for accidentaly send the long time delay, maximum should be 5 min 
0B20E:  MOVLB  2
0B210:  MOVF   xA8,W
0B212:  SUBLW  05
0B214:  BC    B21A
....................    { 
....................       min = 5; 
0B216:  MOVLW  05
0B218:  MOVWF  xA8
....................    } 
....................    for(int16 i = 0; i < min * 60; i++) 
0B21A:  CLRF   xAA
0B21C:  CLRF   xA9
0B21E:  MOVF   xA8,W
0B220:  MULLW  3C
0B222:  MOVF   FF3,W
0B224:  MOVF   xAA,F
0B226:  BNZ   B264
0B228:  SUBWF  xA9,W
0B22A:  BC    B264
....................    { 
....................       delay_ms(1000); //wait 60 sec 
0B22C:  MOVLW  04
0B22E:  MOVWF  xAB
0B230:  MOVLW  FA
0B232:  MOVWF  xDB
0B234:  MOVLB  0
0B236:  CALL   230E
0B23A:  MOVLB  2
0B23C:  DECFSZ xAB,F
0B23E:  BRA    B230
....................       if(in_bffr_main[4] == 0xab || CMD_FROM_PC[0] == 0xab) 
0B240:  MOVLB  0
0B242:  MOVF   x7E,W
0B244:  SUBLW  AB
0B246:  BZ    B24E
0B248:  MOVF   x74,W
0B24A:  SUBLW  AB
0B24C:  BNZ   B25A
....................       { 
....................          CMD_FROM_PC[0] = 0; 
0B24E:  CLRF   x74
....................          CMD_FROM_PC[1] = 0; 
0B250:  CLRF   x75
....................          PC_DATA = 0; 
0B252:  CLRF   x8D
....................          break; 
0B254:  MOVLB  2
0B256:  BRA    B264
0B258:  MOVLB  0
....................       } 
0B25A:  MOVLB  2
0B25C:  INCF   xA9,F
0B25E:  BTFSC  FD8.2
0B260:  INCF   xAA,F
0B262:  BRA    B21E
....................    } 
....................    fprintf(PC,"Back to Nomal Operation\r\n"); 
0B264:  MOVLW  54
0B266:  MOVWF  FF6
0B268:  MOVLW  07
0B26A:  MOVWF  FF7
0B26C:  MOVLW  00
0B26E:  MOVWF  FF8
0B270:  MOVLB  0
0B272:  CALL   24F4
....................    return; 
0B276:  RETURN 0
.................... } 
....................  
.................... //--------MAIN PIC Buffer------------------------------------------------------ 
.................... void SerialDataReceive() //get buffer data one by one 
.................... { 
....................    int num = 0; 
....................    for(num = 0 ;num < 16; num++) 
....................    { 
....................     in_bffr_main[num] = fgetc(com); 
....................    }      
....................    return; 
.................... } 
....................  
.................... void DELETE_CMD_FROM_PC() 
.................... { 
....................    for(int num = 0; num < 6; num++) 
*
0AEEC:  MOVLB  2
0AEEE:  CLRF   xA1
0AEF0:  MOVF   xA1,W
0AEF2:  SUBLW  05
0AEF4:  BNC   AF0A
....................    { 
....................       CMD_FROM_PC[num] = 0; 
0AEF6:  CLRF   03
0AEF8:  MOVF   xA1,W
0AEFA:  ADDLW  74
0AEFC:  MOVWF  FE9
0AEFE:  MOVLW  00
0AF00:  ADDWFC 03,W
0AF02:  MOVWF  FEA
0AF04:  CLRF   FEF
0AF06:  INCF   xA1,F
0AF08:  BRA    AEF0
....................    } 
....................    return; 
0AF0A:  MOVLB  0
0AF0C:  RETURN 0
.................... } 
....................  
.................... void Delete_Buffer() //delete com command buffer 
*
031F4:  MOVLB  2
031F6:  CLRF   xBE
.................... { 
....................    int num = 0; 
....................    for(num = 0;num < 16; num++) 
031F8:  CLRF   xBE
031FA:  MOVF   xBE,W
031FC:  SUBLW  0F
031FE:  BNC   3214
....................    { 
....................     in_bffr_main[num] = 0x00; 
03200:  CLRF   03
03202:  MOVF   xBE,W
03204:  ADDLW  7A
03206:  MOVWF  FE9
03208:  MOVLW  00
0320A:  ADDWFC 03,W
0320C:  MOVWF  FEA
0320E:  CLRF   FEF
03210:  INCF   xBE,F
03212:  BRA    31FA
....................    } 
....................    COM_DATA = 0; 
03214:  MOVLB  0
03216:  CLRF   x8A
....................    return; 
03218:  RETURN 0
.................... } 
....................  
.................... void Transfer_Buffer(int PORT_NUM) //get buffer data one by one 
....................                                    //1:PC 2:COM 3:RESET 
.................... { 
....................    int num = 0; 
....................    switch(PORT_NUM) 
....................    { 
....................       case 1: 
....................          for(;num < 16; num++) 
....................          { 
....................          fputc(in_bffr_main[num],PC); 
....................          } 
....................          break; 
....................       case 2: 
....................          for(;num < 16; num++) 
....................          { 
....................          fputc(in_bffr_main[num],COM); 
....................          } 
....................          break; 
....................       case 3: 
....................          for(;num < 16; num++) 
....................          { 
....................          fputc(in_bffr_main[num],RESET); 
....................          } 
....................          break; 
....................    } 
....................    return; 
.................... } 
....................  
.................... void TRANSFER_Buffer_OF(unsigned INT32 TO_ADRESS) //for testing 
.................... { 
....................    for (int i=0 ; i < 16 ; i++) 
....................    { 
....................       WRITE_DATA_BYTE_OF(TO_ADRESS, in_bffr_main[i]); 
....................       TO_ADRESS++; 
....................    } 
....................     
....................    return; 
.................... } 
....................  
.................... //void 
....................  
.................... //--------BC Function---------------------------------------------------------- 
.................... //unsigned int8 BC_temp_data[2] = {}; 
.................... unsigned int16 BC_temp_data_h = 0; 
.................... unsigned int16 BC_temp_data_l = 0; 
.................... unsigned int16 BC_TEMP = 0; 
.................... float  temp = 0; 
.................... float initial_temp = 0; 
.................... float MAXTEMP = 0; 
.................... int16 UNLEG2 = 0; 
....................  
....................  
.................... void BC_SETUP() 
.................... { 
....................    ANCON2= 0x01; // AN9 as analog, all other pins are digital 
*
02068:  MOVLW  01
0206A:  MOVLB  E
0206C:  MOVWF  x46
....................    ADCON1L = 0x00; // SAMP bit = 0 ends sampling and starts converting 
0206E:  CLRF   FC0
....................    ADCHS0L = 0x09; // Connect AN9 as S/H+ input 
02070:  MOVLW  09
02072:  MOVWF  x86
....................    // AN9 is the input 
....................    ADCON2H = 0x00; 
02074:  CLRF   x8D
....................    ADRC = 1; 
02076:  BSF    x8B.7
....................    ADCSS0L = 0; 
02078:  CLRF   x82
....................    ADCON3L = 0x02; // Manual Sample, Tad = 3Tcy 
0207A:  MOVLW  02
0207C:  MOVWF  x8A
....................       //setup_adc(ADC_CLOCK_DIV_32); //VSS_VDD 
....................    ADCON2L = 0; 
0207E:  CLRF   x8C
....................    return; 
02080:  MOVLB  0
02082:  RETURN 0
.................... } 
....................  
.................... void BC_READ_TO_PC() 
.................... { 
....................    ADON = 1; 
....................    SAMP = 1; 
....................    delay_ms(100); 
....................     
....................    SAMP = 0; // start converting 
....................    while (!DONE){}; 
....................    delay_ms(100); 
....................    //BC_temp_data[0] = ADCBUF0H;//read_adc(); 
....................    //BC_temp_data[1] = ADCBUF0L; 
....................     
....................    BC_temp_data_h = ADCBUF0H; 
....................    BC_temp_data_l = ADCBUF0L; 
....................    //temp = ((data_h << 8 ) | data_l); 
....................    fprintf(PC,"data_l:%x \r\n", BC_temp_data_l); 
....................    fprintf(PC,"data_h:%x \r\n", BC_temp_data_h); 
....................    BC_TEMP = BC_temp_data_h | BC_temp_data_l; 
....................    //fprintf(PC,"temp:%f\r\n",temp); 
....................    temp = BC_TEMP/1024*3.31*100-50;    //VDD: 3.31V(MEASURED) 
....................    //fprintf(PC,"%1.1f \r\n", temp); 
....................    return; 
.................... } 
....................  
.................... void CHECK_BC_TEMP() 
.................... { 
....................    BC_SETUP(); 
*
058EA:  CALL   2068
....................    ADON = 1; 
058EE:  BSF    FC1.7
....................    SAMP = 1; 
058F0:  BSF    FC0.1
....................    delay_ms(10); 
058F2:  MOVLW  0A
058F4:  MOVLB  2
058F6:  MOVWF  xDB
058F8:  MOVLB  0
058FA:  CALL   230E
....................     
....................    SAMP = 0; // start converting 
058FE:  BCF    FC0.1
....................    while (!DONE){}; 
05900:  BTFSS  FC0.0
05902:  BRA    5900
....................    delay_ms(10); 
05904:  MOVLW  0A
05906:  MOVLB  2
05908:  MOVWF  xDB
0590A:  MOVLB  0
0590C:  CALL   230E
....................    BC_temp_data_h = ADCBUF0H;//read_adc(); 
05910:  MOVLB  1
05912:  CLRF   x55
05914:  MOVFF  FC3,154
....................    BC_temp_data_l = ADCBUF0L; 
05918:  CLRF   x57
0591A:  MOVFF  FC2,156
....................    //fprintf(PC,"%x%x\r\n",ADCBUF0H,BC_temp_data_l); 
....................    BC_temp = BC_temp_data_h << 8 | BC_temp_data_l; 
0591E:  MOVFF  154,2B3
05922:  MOVLB  2
05924:  CLRF   xB2
05926:  MOVF   xB2,W
05928:  MOVLB  1
0592A:  IORWF  x56,W
0592C:  MOVWF  x58
0592E:  MOVLB  2
05930:  MOVF   xB3,W
05932:  MOVLB  1
05934:  IORWF  x57,W
05936:  MOVWF  x59
....................    //fprintf(PC,"HEX : %x%x\r\n",BC_temp>>8,BC_temp); 
....................  
....................    temp = BC_temp;//float 
05938:  MOVFF  159,2B3
0593C:  MOVFF  158,2B2
05940:  MOVLB  0
05942:  BRA    56D8
05944:  MOVFF  03,15D
05948:  MOVFF  02,15C
0594C:  MOVFF  01,15B
05950:  MOVFF  00,15A
....................    temp = temp/1024*3.25*100-50; 
05954:  MOVFF  15D,2B5
05958:  MOVFF  15C,2B4
0595C:  MOVFF  15B,2B3
05960:  MOVFF  15A,2B2
05964:  MOVLB  2
05966:  CLRF   xB9
05968:  CLRF   xB8
0596A:  CLRF   xB7
0596C:  MOVLW  89
0596E:  MOVWF  xB6
05970:  MOVLB  0
05972:  BRA    5710
05974:  MOVFF  03,2B5
05978:  MOVFF  02,2B4
0597C:  MOVFF  01,2B3
05980:  MOVFF  00,2B2
05984:  MOVFF  03,2C7
05988:  MOVFF  02,2C6
0598C:  MOVFF  01,2C5
05990:  MOVFF  00,2C4
05994:  MOVLB  2
05996:  CLRF   xCB
05998:  CLRF   xCA
0599A:  MOVLW  50
0599C:  MOVWF  xC9
0599E:  MOVLW  80
059A0:  MOVWF  xC8
059A2:  MOVLB  0
059A4:  CALL   3AE0
059A8:  MOVFF  03,2B5
059AC:  MOVFF  02,2B4
059B0:  MOVFF  01,2B3
059B4:  MOVFF  00,2B2
059B8:  MOVFF  03,2C7
059BC:  MOVFF  02,2C6
059C0:  MOVFF  01,2C5
059C4:  MOVFF  00,2C4
059C8:  MOVLB  2
059CA:  CLRF   xCB
059CC:  CLRF   xCA
059CE:  MOVLW  48
059D0:  MOVWF  xC9
059D2:  MOVLW  85
059D4:  MOVWF  xC8
059D6:  MOVLB  0
059D8:  CALL   3AE0
059DC:  MOVFF  03,2B5
059E0:  MOVFF  02,2B4
059E4:  MOVFF  01,2B3
059E8:  MOVFF  00,2B2
059EC:  BSF    FD8.1
059EE:  MOVFF  03,2BE
059F2:  MOVFF  02,2BD
059F6:  MOVFF  01,2BC
059FA:  MOVFF  00,2BB
059FE:  MOVLB  2
05A00:  CLRF   xC2
05A02:  CLRF   xC1
05A04:  MOVLW  48
05A06:  MOVWF  xC0
05A08:  MOVLW  84
05A0A:  MOVWF  xBF
05A0C:  MOVLB  0
05A0E:  CALL   3BD6
05A12:  MOVFF  03,15D
05A16:  MOVFF  02,15C
05A1A:  MOVFF  01,15B
05A1E:  MOVFF  00,15A
....................    fprintf(PC,"Current Temp: %1.1f\r\n",temp); 
05A22:  MOVLW  8A
05A24:  MOVWF  FF6
05A26:  MOVLW  07
05A28:  MOVWF  FF7
05A2A:  MOVLW  00
05A2C:  MOVWF  FF8
05A2E:  MOVLW  0E
05A30:  MOVLB  2
05A32:  MOVWF  xD2
05A34:  MOVLB  0
05A36:  CALL   120C
05A3A:  MOVLW  89
05A3C:  MOVWF  FE9
05A3E:  MOVFF  15D,2BA
05A42:  MOVFF  15C,2B9
05A46:  MOVFF  15B,2B8
05A4A:  MOVFF  15A,2B7
05A4E:  MOVLW  01
05A50:  MOVLB  2
05A52:  MOVWF  xBB
05A54:  MOVLB  0
05A56:  CALL   3F26
05A5A:  MOVLW  0D
05A5C:  BTFSS  F9E.4
05A5E:  BRA    5A5C
05A60:  MOVWF  FAD
05A62:  MOVLW  0A
05A64:  BTFSS  F9E.4
05A66:  BRA    5A64
05A68:  MOVWF  FAD
....................     
....................    if(MAXTEMP < temp) 
05A6A:  MOVFF  165,2B9
05A6E:  MOVFF  164,2B8
05A72:  MOVFF  163,2B7
05A76:  MOVFF  162,2B6
05A7A:  MOVFF  15D,2BD
05A7E:  MOVFF  15C,2BC
05A82:  MOVFF  15B,2BB
05A86:  MOVFF  15A,2BA
05A8A:  RCALL  5870
05A8C:  BNC   5A9E
....................    { 
....................       MAXTEMP = temp; 
05A8E:  MOVFF  15D,165
05A92:  MOVFF  15C,164
05A96:  MOVFF  15B,163
05A9A:  MOVFF  15A,162
....................    } 
....................    fprintf(PC,"%f\r\n",temp); 
05A9E:  MOVLW  89
05AA0:  MOVWF  FE9
05AA2:  MOVFF  15D,2BA
05AA6:  MOVFF  15C,2B9
05AAA:  MOVFF  15B,2B8
05AAE:  MOVFF  15A,2B7
05AB2:  MOVLW  02
05AB4:  MOVLB  2
05AB6:  MOVWF  xBB
05AB8:  MOVLB  0
05ABA:  CALL   3F26
05ABE:  MOVLW  0D
05AC0:  BTFSS  F9E.4
05AC2:  BRA    5AC0
05AC4:  MOVWF  FAD
05AC6:  MOVLW  0A
05AC8:  BTFSS  F9E.4
05ACA:  BRA    5AC8
05ACC:  MOVWF  FAD
....................    return; 
05ACE:  RETURN 0
.................... } 
....................  
.................... void MEASURE_BC_TEMP() 
.................... { 
....................    BC_SETUP(); 
*
0344E:  CALL   2068
....................    ADON = 1; 
03452:  BSF    FC1.7
....................    SAMP = 1; 
03454:  BSF    FC0.1
....................    delay_ms(1); 
03456:  MOVLW  01
03458:  MOVLB  2
0345A:  MOVWF  xDB
0345C:  MOVLB  0
0345E:  CALL   230E
....................     
....................    SAMP = 0; // start converting 
03462:  BCF    FC0.1
....................    while (!DONE){}; 
03464:  BTFSS  FC0.0
03466:  BRA    3464
....................    delay_ms(1); 
03468:  MOVLW  01
0346A:  MOVLB  2
0346C:  MOVWF  xDB
0346E:  MOVLB  0
03470:  CALL   230E
....................    BC_temp_data_h = ADCBUF0H;//read_adc(); 
03474:  MOVLB  1
03476:  CLRF   x55
03478:  MOVFF  FC3,154
....................    BC_temp_data_l = ADCBUF0L; 
0347C:  CLRF   x57
0347E:  MOVFF  FC2,156
....................  
....................    return; 
03482:  MOVLB  0
03484:  RETURN 0
.................... } 
....................  
.................... void Turn_ON_BC() 
.................... { 
....................    output_high(PIN_D5); //switch signal on 
*
05AD0:  BCF    F95.5
05AD2:  BSF    F8C.5
....................    return; 
05AD4:  GOTO   5ADC (RETURN)
.................... } 
....................  
.................... void Turn_OFF_BC() 
.................... { 
....................    output_low(PIN_D5); //switch signal off 
*
02096:  BCF    F95.5
02098:  BCF    F8C.5
....................    return; 
0209A:  RETURN 0
.................... } 
....................  
.................... void BC_OPERATION() 
.................... { 
....................    CHECK_BC_TEMP(); 
*
05AD8:  RCALL  58EA
....................    Turn_ON_BC(); 
05ADA:  BRA    5AD0
....................    fprintf(PC,"Turned ON BC\r\n"); 
05ADC:  MOVLW  A0
05ADE:  MOVWF  FF6
05AE0:  MOVLW  07
05AE2:  MOVWF  FF7
05AE4:  MOVLW  00
05AE6:  MOVWF  FF8
05AE8:  CALL   24F4
....................    currenttime = 0; 
05AEC:  MOVLB  1
05AEE:  CLRF   x53
05AF0:  CLRF   x52
....................    int8 counter = 0; 
05AF2:  MOVLB  2
05AF4:  CLRF   xB0
....................    while(currenttime < 30) 
05AF6:  MOVLB  1
05AF8:  MOVF   x53,F
05AFA:  BNZ   5BA0
05AFC:  MOVF   x52,W
05AFE:  SUBLW  1D
05B00:  BNC   5BA0
....................    { 
....................       for(int i = 0; i < 10; i++) 
05B02:  MOVLB  2
05B04:  CLRF   xB1
05B06:  MOVF   xB1,W
05B08:  SUBLW  09
05B0A:  BNC   5B76
....................       { 
....................          COLLECT_RESET_DATA(); 
05B0C:  MOVLB  0
05B0E:  CALL   15BA
....................          if(reset_bffr[0] == 0x8e) 
05B12:  MOVF   xE0,W
05B14:  SUBLW  8E
05B16:  BNZ   5B70
....................          { 
....................             for(i = 0; i < 10; i++); 
05B18:  MOVLB  2
05B1A:  CLRF   xB1
05B1C:  MOVF   xB1,W
05B1E:  SUBLW  09
05B20:  BNC   5B26
05B22:  INCF   xB1,F
05B24:  BRA    5B1C
....................             { 
....................                fprintf(PC,"%x,",reset_bffr[i]); 
05B26:  CLRF   03
05B28:  MOVF   xB1,W
05B2A:  ADDLW  E0
05B2C:  MOVWF  FE9
05B2E:  MOVLW  00
05B30:  ADDWFC 03,W
05B32:  MOVWF  FEA
05B34:  MOVFF  FEF,2D3
05B38:  MOVLW  57
05B3A:  MOVWF  xD4
05B3C:  MOVLB  0
05B3E:  CALL   123E
05B42:  MOVLW  2C
05B44:  BTFSS  F9E.4
05B46:  BRA    5B44
05B48:  MOVWF  FAD
....................             } 
....................             fprintf(PC,"%x\r\n",reset_bffr[10]); 
05B4A:  MOVFF  EA,2D3
05B4E:  MOVLW  57
05B50:  MOVLB  2
05B52:  MOVWF  xD4
05B54:  MOVLB  0
05B56:  CALL   123E
05B5A:  MOVLW  0D
05B5C:  BTFSS  F9E.4
05B5E:  BRA    5B5C
05B60:  MOVWF  FAD
05B62:  MOVLW  0A
05B64:  BTFSS  F9E.4
05B66:  BRA    5B64
05B68:  MOVWF  FAD
....................             break; 
05B6A:  MOVLB  2
05B6C:  BRA    5B76
05B6E:  MOVLB  0
....................          } 
05B70:  MOVLB  2
05B72:  INCF   xB1,F
05B74:  BRA    5B06
....................       } 
....................       CHECK_BC_TEMP(); 
05B76:  MOVLB  0
05B78:  RCALL  58EA
....................       UNLEG2 = UNLEG2 + RESET_bffr[10]; //add the unleg2 current every second 
05B7A:  MOVF   xEA,W
05B7C:  MOVLB  1
05B7E:  ADDWF  x66,F
05B80:  MOVLW  00
05B82:  ADDWFC x67,F
....................       counter++; 
05B84:  MOVLB  2
05B86:  INCF   xB0,F
....................       delay_ms(900); 
05B88:  MOVLW  04
05B8A:  MOVWF  xB2
05B8C:  MOVLW  E1
05B8E:  MOVWF  xDB
05B90:  MOVLB  0
05B92:  CALL   230E
05B96:  MOVLB  2
05B98:  DECFSZ xB2,F
05B9A:  BRA    5B8C
05B9C:  BRA    5AF6
05B9E:  MOVLB  1
....................    } 
....................        
....................    Turn_OFF_BC(); 
05BA0:  MOVLB  0
05BA2:  CALL   2096
....................    delay_ms(500); 
05BA6:  MOVLW  02
05BA8:  MOVLB  2
05BAA:  MOVWF  xB2
05BAC:  MOVLW  FA
05BAE:  MOVWF  xDB
05BB0:  MOVLB  0
05BB2:  CALL   230E
05BB6:  MOVLB  2
05BB8:  DECFSZ xB2,F
05BBA:  BRA    5BAC
....................    CHECK_BC_TEMP(); 
05BBC:  MOVLB  0
05BBE:  RCALL  58EA
....................    if(MAXTEMP-initial_temp > 5) 
05BC0:  BSF    FD8.1
05BC2:  MOVFF  165,2BE
05BC6:  MOVFF  164,2BD
05BCA:  MOVFF  163,2BC
05BCE:  MOVFF  162,2BB
05BD2:  MOVFF  161,2C2
05BD6:  MOVFF  160,2C1
05BDA:  MOVFF  15F,2C0
05BDE:  MOVFF  15E,2BF
05BE2:  CALL   3BD6
05BE6:  MOVFF  03,2B5
05BEA:  MOVFF  02,2B4
05BEE:  MOVFF  01,2B3
05BF2:  MOVFF  00,2B2
05BF6:  MOVLB  2
05BF8:  CLRF   xB9
05BFA:  CLRF   xB8
05BFC:  MOVLW  20
05BFE:  MOVWF  xB7
05C00:  MOVLW  81
05C02:  MOVWF  xB6
05C04:  MOVFF  03,2BD
05C08:  MOVFF  02,2BC
05C0C:  MOVFF  01,2BB
05C10:  MOVFF  00,2BA
05C14:  MOVLB  0
05C16:  RCALL  5870
05C18:  BNC   5C1E
....................    { 
....................       ANT_DEP_STATUS = 1; 
05C1A:  MOVLW  01
05C1C:  MOVWF  x71
....................    } 
....................    fprintf(PC,"MAXIMUM TEMPERATURE is %1.1f\r\n\r\n",MAXTEMP); 
05C1E:  MOVLW  B0
05C20:  MOVWF  FF6
05C22:  MOVLW  07
05C24:  MOVWF  FF7
05C26:  MOVLW  00
05C28:  MOVWF  FF8
05C2A:  MOVLW  17
05C2C:  MOVLB  2
05C2E:  MOVWF  xD2
05C30:  MOVLB  0
05C32:  CALL   120C
05C36:  MOVLW  89
05C38:  MOVWF  FE9
05C3A:  MOVFF  165,2BA
05C3E:  MOVFF  164,2B9
05C42:  MOVFF  163,2B8
05C46:  MOVFF  162,2B7
05C4A:  MOVLW  01
05C4C:  MOVLB  2
05C4E:  MOVWF  xBB
05C50:  MOVLB  0
05C52:  CALL   3F26
05C56:  MOVLW  CC
05C58:  MOVWF  FF6
05C5A:  MOVLW  07
05C5C:  MOVWF  FF7
05C5E:  MOVLW  00
05C60:  MOVWF  FF8
05C62:  MOVLW  04
05C64:  MOVLB  2
05C66:  MOVWF  xD2
05C68:  MOVLB  0
05C6A:  CALL   120C
....................    MAXTEMP = 0; 
05C6E:  MOVLB  1
05C70:  CLRF   x65
05C72:  CLRF   x64
05C74:  CLRF   x63
05C76:  CLRF   x62
....................    return; 
05C78:  MOVLB  0
05C7A:  RETURN 0
.................... } 
....................  
.................... void CLEAR_BC_FLAG() 
.................... { 
....................    BC_ATTEMPT_FLAG = 0; 
*
0B0C2:  CLRF   x63
....................    fprintf(PC,"\r\nFlag delete done\r\n"); 
0B0C4:  MOVLW  D2
0B0C6:  MOVWF  FF6
0B0C8:  MOVLW  07
0B0CA:  MOVWF  FF7
0B0CC:  MOVLW  00
0B0CE:  MOVWF  FF8
0B0D0:  CALL   24F4
....................    return; 
0B0D4:  RETURN 0
.................... } 
....................  
.................... void MAKE_BC_FLAG_1() 
.................... { 
....................    BC_ATTEMPT_FLAG = 1; 
0B0D6:  MOVLW  01
0B0D8:  MOVWF  x63
....................    fprintf(PC,"\r\nFlag:1\r\n"); 
0B0DA:  MOVLW  E8
0B0DC:  MOVWF  FF6
0B0DE:  MOVLW  07
0B0E0:  MOVWF  FF7
0B0E2:  MOVLW  00
0B0E4:  MOVWF  FF8
0B0E6:  CALL   24F4
....................    return; 
0B0EA:  RETURN 0
.................... } 
....................  
.................... void MAKE_BC_FLAG_2() 
.................... { 
....................    BC_ATTEMPT_FLAG = 2; 
0B0EC:  MOVLW  02
0B0EE:  MOVWF  x63
....................    fprintf(PC,"\r\nFlag:2\r\n"); 
0B0F0:  MOVLW  F4
0B0F2:  MOVWF  FF6
0B0F4:  MOVLW  07
0B0F6:  MOVWF  FF7
0B0F8:  MOVLW  00
0B0FA:  MOVWF  FF8
0B0FC:  CALL   24F4
....................    return; 
0B100:  RETURN 0
.................... } 
....................  
.................... void MAKE_BC_FLAG_3() 
.................... { 
....................    BC_ATTEMPT_FLAG = 3; 
0B102:  MOVLW  03
0B104:  MOVWF  x63
....................    fprintf(PC,"\r\nFlag:3\r\n"); 
0B106:  MOVLW  00
0B108:  MOVWF  FF6
0B10A:  MOVLW  08
0B10C:  MOVWF  FF7
0B10E:  MOVLW  00
0B110:  MOVWF  FF8
0B112:  CALL   24F4
....................    return; 
0B116:  RETURN 0
.................... } 
....................  
.................... void MAKE_BC_FLAG_4() 
.................... { 
....................    BC_ATTEMPT_FLAG = 4; 
0B118:  MOVLW  04
0B11A:  MOVWF  x63
....................    fprintf(PC,"\r\nFlag:4\r\n"); 
0B11C:  MOVLW  0C
0B11E:  MOVWF  FF6
0B120:  MOVLW  08
0B122:  MOVWF  FF7
0B124:  MOVLW  00
0B126:  MOVWF  FF8
0B128:  CALL   24F4
....................    return; 
0B12C:  RETURN 0
.................... } 
....................  
.................... void Antenna_Deploy() 
.................... { 
....................    fprintf(PC,"%x\r\n",BC_ATTEMPT_FLAG); 
*
05C7C:  MOVFF  63,2D3
05C80:  MOVLW  57
05C82:  MOVLB  2
05C84:  MOVWF  xD4
05C86:  MOVLB  0
05C88:  CALL   123E
05C8C:  MOVLW  0D
05C8E:  BTFSS  F9E.4
05C90:  BRA    5C8E
05C92:  MOVWF  FAD
05C94:  MOVLW  0A
05C96:  BTFSS  F9E.4
05C98:  BRA    5C96
05C9A:  MOVWF  FAD
....................     
....................    if(BC_ATTEMPT_FLAG < 4 && BC_ATTEMPT_FLAG != 0) 
05C9C:  MOVF   x63,W
05C9E:  SUBLW  03
05CA0:  BNC   5D4A
05CA2:  MOVF   x63,F
05CA4:  BZ    5D4A
....................    { 
....................       //SAVE_SAT_LOG(0xBC,BC_ATTEMPT_FLAG,BC_ATTEMPT_FLAG); 
....................       fprintf(PC,"send command to RESET PIC\r\n"); 
05CA6:  MOVLW  18
05CA8:  MOVWF  FF6
05CAA:  MOVLW  08
05CAC:  MOVWF  FF7
05CAE:  MOVLW  00
05CB0:  MOVWF  FF8
05CB2:  CALL   24F4
....................       for(int num = 0; num < 50; num++) 
05CB6:  MOVLB  2
05CB8:  CLRF   xA1
05CBA:  MOVF   xA1,W
05CBC:  SUBLW  31
05CBE:  BNC   5CDA
....................       { 
....................          fputc(0xBC,reset); 
05CC0:  MOVLW  BC
05CC2:  MOVLB  0
05CC4:  CALL   154E
....................          delay_ms(10); 
05CC8:  MOVLW  0A
05CCA:  MOVLB  2
05CCC:  MOVWF  xDB
05CCE:  MOVLB  0
05CD0:  CALL   230E
05CD4:  MOVLB  2
05CD6:  INCF   xA1,F
05CD8:  BRA    5CBA
....................       } 
....................       delay_ms(1000); 
05CDA:  MOVLW  04
05CDC:  MOVWF  xA2
05CDE:  MOVLW  FA
05CE0:  MOVWF  xDB
05CE2:  MOVLB  0
05CE4:  CALL   230E
05CE8:  MOVLB  2
05CEA:  DECFSZ xA2,F
05CEC:  BRA    5CDE
....................       if(reset_bffr[0] == 0xCB) 
05CEE:  MOVLB  0
05CF0:  MOVF   xE0,W
05CF2:  SUBLW  CB
05CF4:  BNZ   5D4A
....................       { 
....................          RESET_DATA = 0; 
05CF6:  CLRF   xDF
....................          BC_OPERATION();//antenna deployment 
05CF8:  RCALL  5AD8
....................          BC_ATTEMPT_FLAG++; 
05CFA:  INCF   x63,F
....................          STORE_FLAG_INFO(); 
05CFC:  CALL   50A4
....................          WRITE_FLAG_to_EEPROM(); 
05D00:  CALL   52B4
....................          STORE_ADRESS_DATA_TO_FLASH(); 
05D04:  CALL   2ABA
....................          reset_bffr[0] = 0; 
05D08:  CLRF   xE0
....................          CMD_FROM_PC[1] = 0; 
05D0A:  CLRF   x75
....................          RESET_DATA = 0; 
05D0C:  CLRF   xDF
....................          delay_ms(1000); 
05D0E:  MOVLW  04
05D10:  MOVLB  2
05D12:  MOVWF  xA2
05D14:  MOVLW  FA
05D16:  MOVWF  xDB
05D18:  MOVLB  0
05D1A:  CALL   230E
05D1E:  MOVLB  2
05D20:  DECFSZ xA2,F
05D22:  BRA    5D14
....................          delay_ms(20000);//wait until RESET goes back to nomal loop 
05D24:  MOVLW  50
05D26:  MOVWF  xA2
05D28:  MOVLW  FA
05D2A:  MOVWF  xDB
05D2C:  MOVLB  0
05D2E:  CALL   230E
05D32:  MOVLB  2
05D34:  DECFSZ xA2,F
05D36:  BRA    5D28
....................          SAVE_SAT_LOG(0xBC,BC_ATTEMPT_FLAG,BC_ATTEMPT_FLAG); 
05D38:  MOVLW  BC
05D3A:  MOVWF  xC4
05D3C:  MOVFF  63,2C5
05D40:  MOVFF  63,2C6
05D44:  MOVLB  0
05D46:  CALL   2DCE
....................       } 
....................    } 
....................    return; 
05D4A:  GOTO   D04A (RETURN)
.................... } 
....................  
....................  
.................... //--------FAB HK collection---------------------------------------------------- 
.................... #define HK_size 124  //HK FORMAT ARRAY SIZE 
.................... #define CW_size 5  //CW FORMAT ARRAY SIZE 
.................... #define HIGH_SAMP_HK_size 124 //High Sampling HK FORMAT ARRAY SIZE 
.................... #define FAB_SENSOR_size 45 //HK FAB Part 
....................  
.................... static unsigned int8 CW_FORMAT[CW_size] = {}; 
.................... unsigned int8 in_HK[FAB_SENSOR_size] = {}; 
.................... unsigned int8 HKDATA[HK_size] ={}; 
.................... unsigned int8 ACK_for_COM[24] = {0xAA,0,0,0,0,0,0,0,0,0, 
....................                                  0,0,0,0,0,0,0,0,0,0, 
....................                                  0,0,0,0xBB}; 
.................... //int8 in_High_HK[HIGH_SAMP_HK_size] = {}; 
.................... BYTE FAB_DATA = 0; 
.................... //int t; 
.................... static int8 FAB_MEASUERING_FLAG= 0; 
.................... static int8 HIGH_SAMP_FAB_MEASUERING_FLAG = 0; 
.................... int32 FAB_FLAG = 0; 
.................... int8 CHECK_FAB_RESPONSE = 0; 
....................  
.................... #define buffer_from_FAB  (in_bffr_main[0]==0x33) 
....................  
.................... void REFLESH_CW_ACK_for_COM() 
.................... { 
....................    for(int i = 1; i < 7; i++) 
*
03106:  MOVLW  01
03108:  MOVLB  2
0310A:  MOVWF  xBF
0310C:  MOVF   xBF,W
0310E:  SUBLW  06
03110:  BNC   3126
....................    { 
....................       ACK_for_COM[i] = 0x00; 
03112:  CLRF   03
03114:  MOVF   xBF,W
03116:  ADDLW  16
03118:  MOVWF  FE9
0311A:  MOVLW  02
0311C:  ADDWFC 03,W
0311E:  MOVWF  FEA
03120:  CLRF   FEF
03122:  INCF   xBF,F
03124:  BRA    310C
....................    } 
....................    return; 
03126:  MOVLB  0
03128:  GOTO   313A (RETURN)
.................... } 
....................  
.................... void REFLESH_MSN_ACK_for_COM() 
.................... { 
....................    for(int i = 12; i < 23; i++) 
*
07314:  MOVLW  0C
07316:  MOVLB  2
07318:  MOVWF  xAF
0731A:  MOVF   xAF,W
0731C:  SUBLW  16
0731E:  BNC   7334
....................    { 
....................       ACK_for_COM[i] = 0x00; 
07320:  CLRF   03
07322:  MOVF   xAF,W
07324:  ADDLW  16
07326:  MOVWF  FE9
07328:  MOVLW  02
0732A:  ADDWFC 03,W
0732C:  MOVWF  FEA
0732E:  CLRF   FEF
07330:  INCF   xAF,F
07332:  BRA    731A
....................    } 
....................    return; 
07334:  MOVLB  0
07336:  GOTO   733C (RETURN)
.................... } 
....................  
.................... void CW_RESPOND() 
.................... { 
....................    REFLESH_CW_ACK_for_COM(); 
*
03138:  BRA    3106
....................    delay_ms(100); 
0313A:  MOVLW  64
0313C:  MOVLB  2
0313E:  MOVWF  xDB
03140:  MOVLB  0
03142:  CALL   230E
....................    ACK_for_COM[0] = 0xAA; 
03146:  MOVLW  AA
03148:  MOVLB  2
0314A:  MOVWF  x16
....................    ACK_for_COM[1] = 0x50; 
0314C:  MOVLW  50
0314E:  MOVWF  x17
....................    ACK_for_COM[2] = CW_FORMAT[0]; 
03150:  MOVFF  168,218
....................    ACK_for_COM[3] = CW_FORMAT[1]; 
03154:  MOVFF  169,219
....................    ACK_for_COM[4] = CW_FORMAT[2]; 
03158:  MOVFF  16A,21A
....................    ACK_for_COM[5] = CW_FORMAT[3]; 
0315C:  MOVFF  16B,21B
....................    ACK_for_COM[6] = CW_FORMAT[4]; 
03160:  MOVFF  16C,21C
....................    ACK_for_COM[23] = 0xBB; 
03164:  MOVLW  BB
03166:  MOVWF  x2D
....................    for(int a = 0; a < 24; a++)//send the latest CW data to COM PIC 
03168:  CLRF   xBE
0316A:  MOVF   xBE,W
0316C:  SUBLW  17
0316E:  BNC   318E
....................    { 
....................       fputc(ACK_for_COM[a],COM); 
03170:  CLRF   03
03172:  MOVF   xBE,W
03174:  ADDLW  16
03176:  MOVWF  FE9
03178:  MOVLW  02
0317A:  ADDWFC 03,W
0317C:  MOVWF  FEA
0317E:  MOVFF  FEF,2BF
03182:  MOVF   xBF,W
03184:  MOVLB  0
03186:  RCALL  312C
03188:  MOVLB  2
0318A:  INCF   xBE,F
0318C:  BRA    316A
....................    } 
....................    fprintf(PC,"\r\nANS:"); 
0318E:  MOVLW  34
03190:  MOVWF  FF6
03192:  MOVLW  08
03194:  MOVWF  FF7
03196:  MOVLW  00
03198:  MOVWF  FF8
0319A:  MOVLB  0
0319C:  CALL   24F4
....................    for(a = 0; a < 23; a++)//send the latest CW data to COM PIC 
031A0:  MOVLB  2
031A2:  CLRF   xBE
031A4:  MOVF   xBE,W
031A6:  SUBLW  16
031A8:  BNC   31D4
....................    { 
....................       fprintf(PC,"%x,",ACK_for_COM[a]); 
031AA:  CLRF   03
031AC:  MOVF   xBE,W
031AE:  ADDLW  16
031B0:  MOVWF  FE9
031B2:  MOVLW  02
031B4:  ADDWFC 03,W
031B6:  MOVWF  FEA
031B8:  MOVFF  FEF,2D3
031BC:  MOVLW  57
031BE:  MOVWF  xD4
031C0:  MOVLB  0
031C2:  CALL   123E
031C6:  MOVLW  2C
031C8:  BTFSS  F9E.4
031CA:  BRA    31C8
031CC:  MOVWF  FAD
031CE:  MOVLB  2
031D0:  INCF   xBE,F
031D2:  BRA    31A4
....................    } 
....................    fprintf(PC,"%x\r\n",ACK_for_COM[23]); 
031D4:  MOVFF  22D,2D3
031D8:  MOVLW  57
031DA:  MOVWF  xD4
031DC:  MOVLB  0
031DE:  CALL   123E
031E2:  MOVLW  0D
031E4:  BTFSS  F9E.4
031E6:  BRA    31E4
031E8:  MOVWF  FAD
031EA:  MOVLW  0A
031EC:  BTFSS  F9E.4
031EE:  BRA    31EC
031F0:  MOVWF  FAD
....................    return; 
031F2:  RETURN 0
.................... } 
....................  
.................... void CHECK_50_and_CW_RESPOND() 
.................... { 
....................    if(in_bffr_main[4] == 0x50) 
*
0321A:  MOVF   x7E,W
0321C:  SUBLW  50
0321E:  BNZ   3226
....................    { 
....................       CW_RESPOND(); 
03220:  RCALL  3138
....................       Delete_Buffer(); 
03222:  RCALL  31F4
....................       COM_DATA = 0; 
03224:  CLRF   x8A
....................    } 
....................    return; 
03226:  RETURN 0
.................... } 
....................  
.................... //--------ADCS MISSION--------------------------------------------------------- 
.................... ////////////////////////////////////////////////// 
.................... //ADCS MISSION ID: 0x45                         // 
.................... //ADCS MISSION DATA COLLECT: 55                 // 
.................... //ADCS SENSOR SAMPLING: 0x34                    //   
.................... //ADCS ACK: 0x55                                // 
.................... //ADCS Finish Storing: 0x67                     // 
.................... ////////////////////////////////////////////////// 
....................  
.................... void Turn_On_ADCS() 
.................... { 
....................    output_high(PIN_D6); 
*
03394:  BCF    F95.6
03396:  BSF    F8C.6
....................    return; 
03398:  RETURN 0
.................... } 
....................  
.................... void Turn_Off_ADCS() 
.................... { 
....................    output_low(PIN_D6); 
*
0208A:  BCF    F95.6
0208C:  BCF    F8C.6
....................    return; 
0208E:  RETURN 0
.................... } 
....................  
.................... void Send_Command_to_ADCS(int8 data) //testing for EM integration 
.................... { 
....................    fputc(data,ADCS); 
....................    return; 
.................... } 
....................  
.................... void DELETE_ADCS_SENSOR() 
.................... { 
....................    for(int a = 0; a < ADCS_SENSOR_SIZE; a++) 
*
085F6:  MOVLB  2
085F8:  CLRF   xB3
085FA:  MOVF   xB3,W
085FC:  SUBLW  4D
085FE:  BNC   8614
....................    { 
....................       ADCS_SENSOR_DATA[a] = 0; 
08600:  CLRF   03
08602:  MOVF   xB3,W
08604:  ADDLW  8F
08606:  MOVWF  FE9
08608:  MOVLW  00
0860A:  ADDWFC 03,W
0860C:  MOVWF  FEA
0860E:  CLRF   FEF
08610:  INCF   xB3,F
08612:  BRA    85FA
....................    } 
....................    return; 
08614:  MOVLB  0
08616:  GOTO   8624 (RETURN)
.................... } 
....................  
.................... void ADCS_SETTINGS()//initiallize 
.................... { 
....................    output_high(PIN_C4); 
0861A:  BCF    F94.4
0861C:  BSF    F8B.4
....................    Delete_Buffer(); 
0861E:  CALL   31F4
....................    DELETE_ADCS_SENSOR(); 
08622:  BRA    85F6
....................    return; 
08624:  GOTO   9496 (RETURN)
.................... } 
....................  
.................... void DISPLAY_ADCS_SENSOR_TO_PC()//for testing 
.................... { 
....................    for(int b = 0; b < ADCS_SENSOR_SIZE; b++)//for checking 
....................    { 
....................       fputc(ADCS_SENSOR_DATA[b],PC); 
....................    } 
....................    return; 
.................... } 
....................  
.................... void Get_ADCS_MISSION_Data() 
.................... { 
....................     
....................    Delete_ADCS_SENSOR(); //initialize 
....................    CHECK_50_and_CW_RESPOND(); 
....................    fputc(0x55,ADCS); 
....................    fputc(0x55,PC); 
....................    int i = 0; 
....................    for(int32 num = 0; num < 1000000 ;num++) 
....................    { 
....................       if(kbhit(ADCS) && fgetc(ADCS) == 0x67) 
....................       { 
....................          for(num = 0; num < 10000; num++) 
....................          { 
....................             if(Kbhit(ADCS)) 
....................             { 
....................                ADCS_SENSOR_DATA[i] = fgetc(ADCS); 
....................                i++; 
....................                if(i == 60) 
....................                { 
....................                   break; 
....................                } 
....................             } 
....................          } 
....................          ADCS_ACK = 0x67; 
....................          break; 
....................       } 
....................    } 
....................    if(num == 1000000) 
....................    { 
....................       fprintf(PC,"NO DATA\r\n"); 
....................    } 
....................    CHECK_50_and_CW_RESPOND(); 
....................    return; 
.................... } 
....................  
.................... int8 compare_before_after(int32 beginning, int32 end) 
.................... { 
....................    int8 data[12] = {}; 
....................    for(int i = 0; i < 6; i++) 
....................    { 
....................       data[i] = READ_DATA_BYTE_OF(beginning+222+10+i); 
....................    } 
....................    for(i = 0; i < 6; i++) 
....................    { 
....................       data[i+6] = READ_DATA_BYTE_OF(end-101+i); 
....................    } 
....................    signed int16 Bx = make16(data[0],data[1]); 
....................    signed int16 By = make16(data[2],data[3]); 
....................    signed int16 Bz = make16(data[4],data[5]); 
....................     
....................    signed int16 Ax = make16(data[6],data[7]); 
....................    signed int16 Ay = make16(data[8],data[9]); 
....................    signed int16 Az = make16(data[10],data[11]); 
....................     
....................    signed int16 Total_B = Bx + By + Bz; 
....................    signed int16 Total_A = Ax + Ay + Az; 
....................    Total_B = abs(Total_B); 
....................    Total_A = abs(Total_A); 
....................    fprintf(PC,"%lx,%lx,%lx\r\n",Bx,By,Bz); 
....................    fprintf(PC,"%lx,%lx,%lx\r\n",Ax,Ay,Az); 
....................    fprintf(PC,"%lud,%lud\r\n",Total_B,Total_A); 
....................    if(Total_B >= Total_A) 
....................    { 
....................       return 1;//declease --> continue 
....................    }else{ 
....................       return 0;//inclease --> stop 
....................    } 
.................... } 
....................  
.................... void GET_ADCS_SENSOR_DATA()//after that, method will changed (ADCS make format and just send to MAIN PIC) 
.................... { 
....................    CHECK_50_and_CW_RESPOND(); 
*
037E2:  RCALL  321A
....................    fputc(0x34,adcs);//send command (just collect sensor) 
037E4:  MOVLW  34
037E6:  MOVLB  2
037E8:  MOVWF  xB9
037EA:  MOVLB  0
037EC:  RCALL  3752
....................    //delay_ms(700); 
....................    ADCS_ACK = 0; 
037EE:  CLRF   xDD
....................    for(int32 num = 0; num < 1000000; num++) 
037F0:  MOVLB  2
037F2:  CLRF   xB3
037F4:  CLRF   xB2
037F6:  CLRF   xB1
037F8:  CLRF   xB0
037FA:  MOVF   xB3,F
037FC:  BNZ   3836
037FE:  MOVF   xB2,W
03800:  SUBLW  0F
03802:  BNC   3836
03804:  BNZ   3814
03806:  MOVF   xB1,W
03808:  SUBLW  42
0380A:  BNC   3836
0380C:  BNZ   3814
0380E:  MOVF   xB0,W
03810:  SUBLW  3F
03812:  BNC   3836
....................    { 
....................       if(kbhit(ADCS)) 
03814:  BTFSC  F85.6
03816:  BRA    3824
....................       { 
....................          ADCS_ACK = fgetc(ADCS); 
03818:  MOVLB  0
0381A:  RCALL  3798
0381C:  MOVFF  01,DD
....................          //fprintf(PC,"GGGGGGGGGGGGGGGGGGGGGGGGGGGGGGGGGGGGGGGGG\r\n"); 
....................          break; 
03820:  MOVLB  2
03822:  BRA    3836
....................       } 
03824:  MOVLW  01
03826:  ADDWF  xB0,F
03828:  BTFSC  FD8.0
0382A:  INCF   xB1,F
0382C:  BTFSC  FD8.2
0382E:  INCF   xB2,F
03830:  BTFSC  FD8.2
03832:  INCF   xB3,F
03834:  BRA    37FA
....................        
....................    } 
....................    int8 counter = 0; 
03836:  CLRF   xB4
....................    if(ADCS_ACK == 0x55)//acknowledge 
03838:  MOVLB  0
0383A:  MOVF   xDD,W
0383C:  SUBLW  55
0383E:  BNZ   38AE
....................    { 
....................       for(int32 num = 0; num < 1000000; num++) 
03840:  MOVLB  2
03842:  CLRF   xB8
03844:  CLRF   xB7
03846:  CLRF   xB6
03848:  CLRF   xB5
0384A:  MOVF   xB8,F
0384C:  BNZ   38AC
0384E:  MOVF   xB7,W
03850:  SUBLW  0F
03852:  BNC   38AC
03854:  BNZ   3864
03856:  MOVF   xB6,W
03858:  SUBLW  42
0385A:  BNC   38AC
0385C:  BNZ   3864
0385E:  MOVF   xB5,W
03860:  SUBLW  3F
03862:  BNC   38AC
....................       { 
....................          if(kbhit(ADCS)) 
03864:  BTFSC  F85.6
03866:  BRA    389A
....................          { 
....................             ADCS_SENSOR_DATA[counter] = fgetc(ADCS); 
03868:  CLRF   03
0386A:  MOVF   xB4,W
0386C:  ADDLW  8F
0386E:  MOVWF  FE9
03870:  MOVLW  00
03872:  ADDWFC 03,W
03874:  MOVWF  FEA
03876:  MOVFF  FEA,2BC
0387A:  MOVFF  FE9,2BB
0387E:  MOVLB  0
03880:  RCALL  3798
03882:  MOVFF  2BC,FEA
03886:  MOVFF  2BB,FE9
0388A:  MOVFF  01,FEF
....................             counter++; 
0388E:  MOVLB  2
03890:  INCF   xB4,F
....................             if(counter == 61) 
03892:  MOVF   xB4,W
03894:  SUBLW  3D
03896:  BNZ   389A
....................             { 
....................                break; 
03898:  BRA    38AC
....................             } 
....................          } 
0389A:  MOVLW  01
0389C:  ADDWF  xB5,F
0389E:  BTFSC  FD8.0
038A0:  INCF   xB6,F
038A2:  BTFSC  FD8.2
038A4:  INCF   xB7,F
038A6:  BTFSC  FD8.2
038A8:  INCF   xB8,F
038AA:  BRA    384A
038AC:  MOVLB  0
....................       } 
....................    } 
....................    CHECK_50_and_CW_RESPOND(); 
038AE:  RCALL  321A
....................    if(ADCS_SENSOR_DATA[0] == 0x57) 
038B0:  MOVF   x8F,W
038B2:  SUBLW  57
038B4:  BNZ   38C8
....................    { 
....................       fprintf(PC,"GET ADCS DATA\r\n");    
038B6:  MOVLW  52
038B8:  MOVWF  FF6
038BA:  MOVLW  08
038BC:  MOVWF  FF7
038BE:  MOVLW  00
038C0:  MOVWF  FF8
038C2:  CALL   24F4
....................    }else{ 
038C6:  BRA    38DC
....................       fprintf(PC,"Data was wrong\r\n"); 
038C8:  MOVLW  62
038CA:  MOVWF  FF6
038CC:  MOVLW  08
038CE:  MOVWF  FF7
038D0:  MOVLW  00
038D2:  MOVWF  FF8
038D4:  CALL   24F4
....................       ADCS_ACK_COMMING = 0; 
038D8:  CLRF   xDE
....................       ADCS_ACK = 0; 
038DA:  CLRF   xDD
....................    } 
....................    return; 
038DC:  RETURN 0
.................... } 
....................  
....................  
.................... void Delete_in_HK() 
.................... { 
....................    int num; 
....................    for(num = 0; num < HK_size; num++) 
*
02F8E:  MOVLB  2
02F90:  CLRF   xAF
02F92:  MOVF   xAF,W
02F94:  SUBLW  7B
02F96:  BNC   2FAC
....................    { 
....................       in_HK[num] = 0; 
02F98:  CLRF   03
02F9A:  MOVF   xAF,W
02F9C:  ADDLW  6D
02F9E:  MOVWF  FE9
02FA0:  MOVLW  01
02FA2:  ADDWFC 03,W
02FA4:  MOVWF  FEA
02FA6:  CLRF   FEF
02FA8:  INCF   xAF,F
02FAA:  BRA    2F92
....................    } 
....................    return; 
02FAC:  MOVLB  0
02FAE:  RETURN 0
.................... } 
.................... ////////////////////////////////////// 
.................... void Delete_HKDATA() 
.................... { 
....................    int num; 
....................    for(num = 0; num < HK_size; num++) 
*
03424:  MOVLB  2
03426:  CLRF   xBE
03428:  MOVF   xBE,W
0342A:  SUBLW  7B
0342C:  BNC   3442
....................    { 
....................       HKDATA[num] = 0; 
0342E:  CLRF   03
03430:  MOVF   xBE,W
03432:  ADDLW  9A
03434:  MOVWF  FE9
03436:  MOVLW  01
03438:  ADDWFC 03,W
0343A:  MOVWF  FEA
0343C:  CLRF   FEF
0343E:  INCF   xBE,F
03440:  BRA    3428
....................    } 
....................    return; 
03442:  MOVLB  0
03444:  RETURN 0
.................... } 
....................  
.................... void Delete_CWFORMAT() 
.................... { 
....................    for(int num = 0; num < CW_size; num++) 
*
03926:  MOVLB  2
03928:  CLRF   xAF
0392A:  MOVF   xAF,W
0392C:  SUBLW  04
0392E:  BNC   3944
....................    { 
....................       CW_FORMAT[num] = 0; 
03930:  CLRF   03
03932:  MOVF   xAF,W
03934:  ADDLW  68
03936:  MOVWF  FE9
03938:  MOVLW  01
0393A:  ADDWFC 03,W
0393C:  MOVWF  FEA
0393E:  CLRF   FEF
03940:  INCF   xAF,F
03942:  BRA    392A
....................    } 
....................    return; 
03944:  MOVLB  0
03946:  RETURN 0
.................... } 
....................  
.................... int8 CHECK_SUNSHINE(int8 current) 
.................... { 
....................    if(current > EX_PANEL_THRESHHOLD) 
*
03992:  MOVLB  2
03994:  MOVF   xAF,W
03996:  SUBLW  14
03998:  BC    39A2
....................    { 
....................       return 1; 
0399A:  MOVLW  01
0399C:  MOVWF  01
0399E:  BRA    39A6
....................    }else{ 
039A0:  BRA    39A6
....................       return 0; 
039A2:  MOVLW  00
039A4:  MOVWF  01
....................    } 
039A6:  MOVLB  0
039A8:  RETURN 0
.................... } 
....................  
.................... int8 CONVERT_16bit_GYRO_to_8bit_X(int8 HIGH_8bit, int8 LOW_8bit)//caribrated for X 
*
04100:  MOVFF  2AF,2B2
04104:  MOVFF  2B0,2B1
04108:  MOVFF  2B2,2B8
0410C:  MOVFF  2B1,2B7
04110:  RCALL  3A90
04112:  MOVFF  03,2C7
04116:  MOVFF  02,2C6
0411A:  MOVFF  01,2C5
0411E:  MOVFF  00,2C4
04122:  MOVLW  29
04124:  MOVLB  2
04126:  MOVWF  xCB
04128:  MOVLW  5C
0412A:  MOVWF  xCA
0412C:  MOVLW  0F
0412E:  MOVWF  xC9
04130:  MOVLW  78
04132:  MOVWF  xC8
04134:  MOVLB  0
04136:  RCALL  3AE0
04138:  MOVFF  03,2BA
0413C:  MOVFF  02,2B9
04140:  MOVFF  01,2B8
04144:  MOVFF  00,2B7
04148:  BSF    FD8.1
0414A:  MOVFF  03,2BE
0414E:  MOVFF  02,2BD
04152:  MOVFF  01,2BC
04156:  MOVFF  00,2BB
0415A:  MOVLW  DB
0415C:  MOVLB  2
0415E:  MOVWF  xC2
04160:  MOVLW  BF
04162:  MOVWF  xC1
04164:  MOVLW  72
04166:  MOVWF  xC0
04168:  MOVLW  7B
0416A:  MOVWF  xBF
0416C:  MOVLB  0
0416E:  RCALL  3BD6
04170:  MOVFF  03,2B6
04174:  MOVFF  02,2B5
04178:  MOVFF  01,2B4
0417C:  MOVFF  00,2B3
.................... { 
....................    signed int16 row_data = make16(HIGH_8bit, LOW_8bit); 
....................    float ang_v = row_data*0.00875-0.11853; 
....................    fprintf(PC,"ang:%.4f\r\n",ang_v); 
04180:  MOVLW  74
04182:  MOVWF  FF6
04184:  MOVLW  08
04186:  MOVWF  FF7
04188:  MOVLW  00
0418A:  MOVWF  FF8
0418C:  MOVLW  04
0418E:  MOVLB  2
04190:  MOVWF  xD2
04192:  MOVLB  0
04194:  CALL   120C
04198:  MOVLW  89
0419A:  MOVWF  FE9
0419C:  MOVFF  2B6,2BA
041A0:  MOVFF  2B5,2B9
041A4:  MOVFF  2B4,2B8
041A8:  MOVFF  2B3,2B7
041AC:  MOVLW  04
041AE:  MOVLB  2
041B0:  MOVWF  xBB
041B2:  MOVLB  0
041B4:  RCALL  3F26
041B6:  MOVLW  0D
041B8:  BTFSS  F9E.4
041BA:  BRA    41B8
041BC:  MOVWF  FAD
041BE:  MOVLW  0A
041C0:  BTFSS  F9E.4
041C2:  BRA    41C0
041C4:  MOVWF  FAD
....................    return (int8)ang_v;  
041C6:  MOVFF  2B6,2BA
041CA:  MOVFF  2B5,2B9
041CE:  MOVFF  2B4,2B8
041D2:  MOVFF  2B3,2B7
041D6:  RCALL  40C4
041D8:  MOVF   01,W
041DA:  GOTO   43AC (RETURN)
.................... } 
....................  
.................... int8 CONVERT_16bit_GYRO_to_8bit_Y(int8 HIGH_8bit, int8 LOW_8bit)//caribrated for Y 
041DE:  MOVFF  2AF,2B2
041E2:  MOVFF  2B0,2B1
041E6:  MOVFF  2B2,2B8
041EA:  MOVFF  2B1,2B7
041EE:  RCALL  3A90
041F0:  MOVFF  03,2C7
041F4:  MOVFF  02,2C6
041F8:  MOVFF  01,2C5
041FC:  MOVFF  00,2C4
04200:  MOVLW  29
04202:  MOVLB  2
04204:  MOVWF  xCB
04206:  MOVLW  5C
04208:  MOVWF  xCA
0420A:  MOVLW  0F
0420C:  MOVWF  xC9
0420E:  MOVLW  78
04210:  MOVWF  xC8
04212:  MOVLB  0
04214:  RCALL  3AE0
04216:  MOVFF  03,2BA
0421A:  MOVFF  02,2B9
0421E:  MOVFF  01,2B8
04222:  MOVFF  00,2B7
04226:  BSF    FD8.1
04228:  MOVFF  03,2BE
0422C:  MOVFF  02,2BD
04230:  MOVFF  01,2BC
04234:  MOVFF  00,2BB
04238:  MOVLW  98
0423A:  MOVLB  2
0423C:  MOVWF  xC2
0423E:  MOVLW  69
04240:  MOVWF  xC1
04242:  MOVLW  7B
04244:  MOVWF  xC0
04246:  MOVLW  7C
04248:  MOVWF  xBF
0424A:  MOVLB  0
0424C:  RCALL  3BD6
0424E:  MOVFF  03,2B6
04252:  MOVFF  02,2B5
04256:  MOVFF  01,2B4
0425A:  MOVFF  00,2B3
.................... { 
....................    signed int16 row_data = make16(HIGH_8bit, LOW_8bit); 
....................    float ang_v = row_data*0.00875-0.24552; 
....................    fprintf(PC,"ang:%.4f\r\n",ang_v); 
0425E:  MOVLW  80
04260:  MOVWF  FF6
04262:  MOVLW  08
04264:  MOVWF  FF7
04266:  MOVLW  00
04268:  MOVWF  FF8
0426A:  MOVLW  04
0426C:  MOVLB  2
0426E:  MOVWF  xD2
04270:  MOVLB  0
04272:  CALL   120C
04276:  MOVLW  89
04278:  MOVWF  FE9
0427A:  MOVFF  2B6,2BA
0427E:  MOVFF  2B5,2B9
04282:  MOVFF  2B4,2B8
04286:  MOVFF  2B3,2B7
0428A:  MOVLW  04
0428C:  MOVLB  2
0428E:  MOVWF  xBB
04290:  MOVLB  0
04292:  RCALL  3F26
04294:  MOVLW  0D
04296:  BTFSS  F9E.4
04298:  BRA    4296
0429A:  MOVWF  FAD
0429C:  MOVLW  0A
0429E:  BTFSS  F9E.4
042A0:  BRA    429E
042A2:  MOVWF  FAD
....................    return (int8)ang_v;  
042A4:  MOVFF  2B6,2BA
042A8:  MOVFF  2B5,2B9
042AC:  MOVFF  2B4,2B8
042B0:  MOVFF  2B3,2B7
042B4:  RCALL  40C4
042B6:  MOVF   01,W
042B8:  GOTO   43BA (RETURN)
.................... } 
....................  
.................... int8 CONVERT_16bit_GYRO_to_8bit_Z(int8 HIGH_8bit, int8 LOW_8bit)//caribrated for Z 
042BC:  MOVFF  2AF,2B2
042C0:  MOVFF  2B0,2B1
042C4:  MOVFF  2B2,2B8
042C8:  MOVFF  2B1,2B7
042CC:  CALL   3A90
042D0:  MOVFF  03,2C7
042D4:  MOVFF  02,2C6
042D8:  MOVFF  01,2C5
042DC:  MOVFF  00,2C4
042E0:  MOVLW  29
042E2:  MOVLB  2
042E4:  MOVWF  xCB
042E6:  MOVLW  5C
042E8:  MOVWF  xCA
042EA:  MOVLW  0F
042EC:  MOVWF  xC9
042EE:  MOVLW  78
042F0:  MOVWF  xC8
042F2:  MOVLB  0
042F4:  CALL   3AE0
042F8:  MOVFF  03,2BA
042FC:  MOVFF  02,2B9
04300:  MOVFF  01,2B8
04304:  MOVFF  00,2B7
04308:  BSF    FD8.1
0430A:  MOVFF  03,2BE
0430E:  MOVFF  02,2BD
04312:  MOVFF  01,2BC
04316:  MOVFF  00,2BB
0431A:  MOVLW  CF
0431C:  MOVLB  2
0431E:  MOVWF  xC2
04320:  MOVLW  49
04322:  MOVWF  xC1
04324:  MOVLW  4F
04326:  MOVWF  xC0
04328:  MOVLW  7D
0432A:  MOVWF  xBF
0432C:  MOVLB  0
0432E:  RCALL  3BD6
04330:  MOVFF  03,2B6
04334:  MOVFF  02,2B5
04338:  MOVFF  01,2B4
0433C:  MOVFF  00,2B3
.................... { 
....................    signed int16 row_data = make16(HIGH_8bit, LOW_8bit); 
....................    float ang_v = row_data*0.00875-0.40486; 
....................    fprintf(PC,"ang:%.4f\r\n",ang_v); 
04340:  MOVLW  8C
04342:  MOVWF  FF6
04344:  MOVLW  08
04346:  MOVWF  FF7
04348:  MOVLW  00
0434A:  MOVWF  FF8
0434C:  MOVLW  04
0434E:  MOVLB  2
04350:  MOVWF  xD2
04352:  MOVLB  0
04354:  CALL   120C
04358:  MOVLW  89
0435A:  MOVWF  FE9
0435C:  MOVFF  2B6,2BA
04360:  MOVFF  2B5,2B9
04364:  MOVFF  2B4,2B8
04368:  MOVFF  2B3,2B7
0436C:  MOVLW  04
0436E:  MOVLB  2
04370:  MOVWF  xBB
04372:  MOVLB  0
04374:  RCALL  3F26
04376:  MOVLW  0D
04378:  BTFSS  F9E.4
0437A:  BRA    4378
0437C:  MOVWF  FAD
0437E:  MOVLW  0A
04380:  BTFSS  F9E.4
04382:  BRA    4380
04384:  MOVWF  FAD
....................    return (int8)ang_v;  
04386:  MOVFF  2B6,2BA
0438A:  MOVFF  2B5,2B9
0438E:  MOVFF  2B4,2B8
04392:  MOVFF  2B3,2B7
04396:  RCALL  40C4
04398:  MOVF   01,W
0439A:  GOTO   43C8 (RETURN)
.................... } 
....................  
.................... int8 OPERATION_MODE_VALUE(int8 Bat_Vol) 
.................... {//0x94HKDATA[116]  
....................    if(Bat_Vol > 0x94){//more than 3.8 
*
03948:  MOVLB  2
0394A:  MOVF   xAF,W
0394C:  SUBLW  94
0394E:  BC    3960
....................       OPERATION_MODE = 0x11; 
03950:  MOVLW  11
03952:  MOVLB  0
03954:  MOVWF  x8C
....................       return 96; 
03956:  MOVLW  60
03958:  MOVWF  01
0395A:  BRA    398A
....................    }else if((Bat_Vol > 0x88) && (Bat_Vol <= 0x94)){//3.5 to 3.8 
0395C:  BRA    398A
0395E:  MOVLB  2
03960:  MOVF   xAF,W
03962:  SUBLW  88
03964:  BC    397C
03966:  MOVF   xAF,W
03968:  SUBLW  94
0396A:  BNC   397C
....................       OPERATION_MODE = 0x10; 
0396C:  MOVLW  10
0396E:  MOVLB  0
03970:  MOVWF  x8C
....................       return 64; 
03972:  MOVLW  40
03974:  MOVWF  01
03976:  BRA    398A
....................    }else if(Bat_Vol <= 0x88){//less than 3.5 
03978:  BRA    398A
0397A:  MOVLB  2
0397C:  MOVF   xAF,W
0397E:  SUBLW  88
03980:  BNC   398C
....................       OPERATION_MODE = 0x00; 
03982:  MOVLB  0
03984:  CLRF   x8C
....................       return 16; 
03986:  MOVLW  10
03988:  MOVWF  01
0398A:  MOVLB  2
....................    } 
0398C:  MOVLB  0
0398E:  GOTO   39DC (RETURN)
.................... } 
....................  
.................... void MAKE_CW1_FORMAT()//when you inprement, go to line 
.................... { 
....................    Delete_CWFORMAT(); 
*
039AA:  RCALL  3926
....................    //CHECK_50_and_CW_RESPOND(); 
....................    CW_FORMAT[0] = HKDATA[44];//battery volatge 
039AC:  MOVFF  1C6,168
....................    CW_FORMAT[1] = HKDATA[45]<<4|HKDATA[46]>>4;//battery current 
039B0:  MOVLB  1
039B2:  SWAPF  xC7,W
039B4:  MOVLB  2
039B6:  MOVWF  xAF
039B8:  MOVLW  F0
039BA:  ANDWF  xAF,F
039BC:  MOVLB  1
039BE:  SWAPF  xC8,W
039C0:  MOVWF  00
039C2:  MOVLW  0F
039C4:  ANDWF  00,F
039C6:  MOVF   00,W
039C8:  MOVLB  2
039CA:  IORWF  xAF,W
039CC:  MOVLB  1
039CE:  MOVWF  x69
....................    CW_FORMAT[2] = HKDATA[47];//battery temp 
039D0:  MOVFF  1C9,16A
....................     
.................... //   CW_FORMAT[3] = CW_FORMAT[3];//0:CW1 
.................... //   CW_FORMAT[3] = CW_FORMAT[3] + RESERVE_CHECK * 64; 
....................    CW_FORMAT[3] = CW_FORMAT[3] + OPERATION_MODE_VALUE(HKDATA[116]); //96(=64+32-->0x01100000):nomal, 64(0x01000000):low, 16(0x00100000):safe 
039D4:  MOVFF  20E,2AF
039D8:  MOVLB  0
039DA:  BRA    3948
039DC:  MOVF   01,W
039DE:  MOVLB  1
039E0:  ADDWF  x6B,F
....................    KILL_FLAG_FAB = (HKDATA[49] & 0x10)>>4; 
039E2:  MOVF   xCB,W
039E4:  ANDLW  10
039E6:  MOVWF  00
039E8:  SWAPF  00,W
039EA:  MOVLB  0
039EC:  MOVWF  x6C
039EE:  MOVLW  0F
039F0:  ANDWF  x6C,F
....................    KILL_FLAG_MAIN = HKDATA[49] & 0x01; 
039F2:  MOVLB  1
039F4:  MOVF   xCB,W
039F6:  ANDLW  01
039F8:  MOVLB  0
039FA:  MOVWF  x6B
....................    CW_FORMAT[3] = CW_FORMAT[3] + KILL_FLAG_MAIN * 16; 
039FC:  MOVF   x6B,W
039FE:  MULLW  10
03A00:  MOVF   FF3,W
03A02:  MOVLB  1
03A04:  ADDWF  x6B,F
....................    CW_FORMAT[3] = CW_FORMAT[3] + KILL_FLAG_FAB * 8; 
03A06:  MOVLB  0
03A08:  MOVF   x6C,W
03A0A:  MULLW  08
03A0C:  MOVF   FF3,W
03A0E:  MOVLB  1
03A10:  ADDWF  x6B,F
....................    CW_FORMAT[3] = CW_FORMAT[3] + ANT_DEP_STATUS * 4; 
03A12:  MOVLB  0
03A14:  MOVF   x71,W
03A16:  MULLW  04
03A18:  MOVF   FF3,W
03A1A:  MOVLB  1
03A1C:  ADDWF  x6B,F
....................    CW_FORMAT[3] = CW_FORMAT[3] + CHECK_SUNSHINE(HKDATA[34]) * 2;//+X Panel 
03A1E:  MOVFF  1BC,2AF
03A22:  MOVLB  0
03A24:  RCALL  3992
03A26:  BCF    FD8.0
03A28:  RLCF   01,W
03A2A:  MOVLB  1
03A2C:  ADDWF  x6B,F
....................    CW_FORMAT[3] = CW_FORMAT[3] + CHECK_SUNSHINE(HKDATA[35]) * 1;//-Y Panel 
03A2E:  MOVFF  1BD,2AF
03A32:  MOVLB  0
03A34:  RCALL  3992
03A36:  MOVF   01,W
03A38:  MOVLB  1
03A3A:  ADDWF  x6B,F
....................     
....................    CW_FORMAT[4] = CW_FORMAT[4] + CHECK_SUNSHINE(HKDATA[36]) * 128;//-Z Panel 
03A3C:  MOVFF  1BE,2AF
03A40:  MOVLB  0
03A42:  RCALL  3992
03A44:  MOVF   01,W
03A46:  MULLW  80
03A48:  MOVF   FF3,W
03A4A:  MOVLB  1
03A4C:  ADDWF  x6C,F
....................    CW_FORMAT[4] = CW_FORMAT[4] + CHECK_SUNSHINE(HKDATA[37]) * 64;//+Y Panel 
03A4E:  MOVFF  1BF,2AF
03A52:  MOVLB  0
03A54:  RCALL  3992
03A56:  MOVF   01,W
03A58:  MULLW  40
03A5A:  MOVF   FF3,W
03A5C:  MOVLB  1
03A5E:  ADDWF  x6C,F
....................    CW_FORMAT[4] = CW_FORMAT[4] + CHECK_SUNSHINE(HKDATA[38]) * 32;//+Z Panel 
03A60:  MOVFF  1C0,2AF
03A64:  MOVLB  0
03A66:  RCALL  3992
03A68:  MOVF   01,W
03A6A:  MULLW  20
03A6C:  MOVF   FF3,W
03A6E:  MOVLB  1
03A70:  ADDWF  x6C,F
....................    CW_FORMAT[4] = CW_FORMAT[4] + (HKDATA[4] & 0b00011111);//time data 
03A72:  MOVF   x9E,W
03A74:  ANDLW  1F
03A76:  ADDWF  x6C,F
....................     
....................    CW_IDENTIFIER = 0; 
03A78:  MOVLB  0
03A7A:  CLRF   x8B
....................    CHECK_50_and_CW_RESPOND(); 
03A7C:  CALL   321A
....................    ACK_for_COM[0] = 0xAA;//for safety (this byte should be always 0) 
03A80:  MOVLW  AA
03A82:  MOVLB  2
03A84:  MOVWF  x16
....................    ACK_for_COM[23] = 0xBB;//for safety (this byte should be always 0) 
03A86:  MOVLW  BB
03A88:  MOVWF  x2D
....................    return; 
03A8A:  MOVLB  0
03A8C:  GOTO   445C (RETURN)
.................... } 
.................... void MAKE_CW2_FORMAT()//when you inprement, go to line 
.................... { 
....................    Delete_CWFORMAT(); 
*
0439E:  CALL   3926
....................    //CHECK_50_and_CW_RESPOND(); 
....................    CW_FORMAT[0] = CONVERT_16bit_GYRO_to_8bit_X(HKDATA[59], HKDATA[60]); //GYRO X axis 
043A2:  MOVFF  1D5,2AF
043A6:  MOVFF  1D6,2B0
043AA:  BRA    4100
043AC:  MOVFF  01,168
....................    CW_FORMAT[1] = CONVERT_16bit_GYRO_to_8bit_Y(HKDATA[61], HKDATA[62]); //GYRO Y axis 
043B0:  MOVFF  1D7,2AF
043B4:  MOVFF  1D8,2B0
043B8:  BRA    41DE
043BA:  MOVFF  01,169
....................    CW_FORMAT[2] = CONVERT_16bit_GYRO_to_8bit_Z(HKDATA[63], HKDATA[64]); //GYRO Z axis 
043BE:  MOVFF  1D9,2AF
043C2:  MOVFF  1DA,2B0
043C6:  BRA    42BC
043C8:  MOVFF  01,16A
....................     
....................    CW_FORMAT[3] = CW_FORMAT[3] + 128; //1:CW2 
043CC:  MOVLW  80
043CE:  MOVLB  1
043D0:  ADDWF  x6B,F
....................    CW_FORMAT[3] = CW_FORMAT[3] + FIRST_HSSC_DONE * 64; //High Sampling Sensor Collection Flag 0:not done, 1:done 
043D2:  MOVLB  0
043D4:  MOVF   x6D,W
043D6:  MULLW  40
043D8:  MOVF   FF3,W
043DA:  MOVLB  1
043DC:  ADDWF  x6B,F
....................    CW_FORMAT[3] = CW_FORMAT[3] + AUTO_CAM_DONE * 32; //AUTO CAM MISSION DONE 0:not done, 1:done 
043DE:  MOVLB  0
043E0:  MOVF   x6E,W
043E2:  MULLW  20
043E4:  MOVF   FF3,W
043E6:  MOVLB  1
043E8:  ADDWF  x6B,F
....................    CW_FORMAT[3] = CW_FORMAT[3] + AUTO_LDM_DONE * 16; //AUTO LDM MISSION DONE 0:not done, 1:done 
043EA:  MOVLB  0
043EC:  MOVF   x6F,W
043EE:  MULLW  10
043F0:  MOVF   FF3,W
043F2:  MOVLB  1
043F4:  ADDWF  x6B,F
....................    CW_FORMAT[3] = CW_FORMAT[3] + AUTO_ADCS_DONE * 8; //AUTO ADCS MISSION DONE 0:not done, 1:done 
043F6:  MOVLB  0
043F8:  MOVF   x70,W
043FA:  MULLW  08
043FC:  MOVF   FF3,W
043FE:  MOVLB  1
04400:  ADDWF  x6B,F
....................    CW_FORMAT[3] = CW_FORMAT[3] + HKDATA[48] * 4; //Heater 0:OFF, 1:ON 
04402:  MOVF   xCA,W
04404:  MULLW  04
04406:  MOVF   FF3,W
04408:  ADDWF  x6B,F
....................    CW_FORMAT[3] = CW_FORMAT[3] + RESERVE_CHECK * 2;//RSV Flag 
0440A:  BCF    FD8.0
0440C:  MOVLB  0
0440E:  RLCF   x66,W
04410:  MOVLB  1
04412:  ADDWF  x6B,F
....................    CW_FORMAT[3] = CW_FORMAT[3] + UPLINK_SUCCESS;//UPLINK SUCCESS 
04414:  MOVLB  0
04416:  MOVF   x72,W
04418:  MOVLB  1
0441A:  ADDWF  x6B,F
....................     
....................    CW_FORMAT[4] = HKDATA[20]<<4|HKDATA[21]>>4;//CPLD_TEMP 
0441C:  SWAPF  xAE,W
0441E:  MOVLB  2
04420:  MOVWF  xAF
04422:  MOVLW  F0
04424:  ANDWF  xAF,F
04426:  MOVLB  1
04428:  SWAPF  xAF,W
0442A:  MOVWF  00
0442C:  MOVLW  0F
0442E:  ANDWF  00,F
04430:  MOVF   00,W
04432:  MOVLB  2
04434:  IORWF  xAF,W
04436:  MOVLB  1
04438:  MOVWF  x6C
....................     
....................    CW_IDENTIFIER = 1; 
0443A:  MOVLW  01
0443C:  MOVLB  0
0443E:  MOVWF  x8B
....................    CHECK_50_and_CW_RESPOND(); 
04440:  CALL   321A
....................    ACK_for_COM[0] = 0xAA;//for safety (this byte should be always 0) 
04444:  MOVLW  AA
04446:  MOVLB  2
04448:  MOVWF  x16
....................    ACK_for_COM[23] = 0xBB;//for safety (this byte should be always 0) 
0444A:  MOVLW  BB
0444C:  MOVWF  x2D
....................     
....................    return; 
0444E:  MOVLB  0
04450:  GOTO   4460 (RETURN)
.................... } 
....................  
.................... void MAKE_CW_FORMAT() 
.................... { 
....................    if(CW_IDENTIFIER) 
04454:  MOVF   x8B,F
04456:  BZ    445E
....................    { 
....................       MAKE_CW1_FORMAT(); 
04458:  GOTO   39AA
....................    }else{ 
0445C:  BRA    4460
....................       MAKE_CW2_FORMAT(); 
0445E:  BRA    439E
....................    } 
04460:  RETURN 0
.................... } 
....................  
.................... void Send_COMMAND_TO_FAB(int8 cmd) 
.................... { 
....................    fputc(cmd,FAB); 
*
033A6:  MOVLB  2
033A8:  MOVF   xC0,W
033AA:  MOVLB  0
033AC:  RCALL  339A
....................    return; 
033AE:  GOTO   33C0 (RETURN)
.................... } 
....................  
.................... void COMMAND_TO_FAB(int32 delaytime) 
.................... { 
....................    FAB_DATA = 0; 
033B2:  MOVLB  2
033B4:  CLRF   x2E
....................    enable_interrupts(INT_rda3);//FAB 
033B6:  BSF    F61.5
....................    Send_Command_to_FAB(0x61);  //send command to fab 
033B8:  MOVLW  61
033BA:  MOVWF  xC0
033BC:  MOVLB  0
033BE:  BRA    33A6
....................    fprintf(PC,"Sending Done\r\n"); 
033C0:  MOVLW  98
033C2:  MOVWF  FF6
033C4:  MOVLW  08
033C6:  MOVWF  FF7
033C8:  MOVLW  00
033CA:  MOVWF  FF8
033CC:  CALL   24F4
....................    int32 a = 0; 
033D0:  MOVLB  2
033D2:  CLRF   xBF
033D4:  CLRF   xBE
033D6:  CLRF   xBD
033D8:  CLRF   xBC
....................    while(FAB_DATA == 0){ 
033DA:  MOVF   x2E,F
033DC:  BNZ   340A
....................       a++; 
033DE:  MOVLW  01
033E0:  ADDWF  xBC,F
033E2:  BTFSC  FD8.0
033E4:  INCF   xBD,F
033E6:  BTFSC  FD8.2
033E8:  INCF   xBE,F
033EA:  BTFSC  FD8.2
033EC:  INCF   xBF,F
....................       if(a > 50000) 
033EE:  MOVF   xBF,F
033F0:  BNZ   3406
033F2:  MOVF   xBE,F
033F4:  BNZ   3406
033F6:  MOVF   xBD,W
033F8:  SUBLW  C2
033FA:  BC    3408
033FC:  XORLW  FF
033FE:  BNZ   3406
03400:  MOVF   xBC,W
03402:  SUBLW  50
03404:  BC    3408
....................       { 
....................          break; 
03406:  BRA    340A
....................       } 
03408:  BRA    33DA
....................    } 
....................    waiting(delaytime); 
0340A:  MOVFF  2BB,2CD
0340E:  MOVFF  2BA,2CC
03412:  MOVFF  2B9,2CB
03416:  MOVFF  2B8,2CA
0341A:  MOVLB  0
0341C:  CALL   157C
....................    disable_interrupts(INT_rda3); 
03420:  BCF    F61.5
....................    return; 
03422:  RETURN 0
.................... } 
....................  
.................... int8 ACK_FROM_FAB() 
.................... { 
....................    int8 ack; 
....................    ack = fgetc(CAM); 
....................    return ack; 
.................... } 
....................  
....................  
....................  
....................  
....................  
....................  
....................  
....................  
....................  
....................  
.................... void SAVE_HKDATA_TO_SCF(unsigned int32 Memory_Adress) 
.................... { 
....................    output_low(PIN_C4); 
*
044E8:  BCF    F94.4
044EA:  BCF    F8B.4
....................    for(int8 num = 0; num < HK_size; num++) 
044EC:  MOVLB  2
044EE:  CLRF   xB7
044F0:  MOVF   xB7,W
044F2:  SUBLW  7B
044F4:  BNC   453C
....................    { 
....................       WRITE_DATA_BYTE_SCF(Memory_Adress+num, HKDATA[num]); 
044F6:  MOVF   xB7,W
044F8:  ADDWF  xB3,W
044FA:  MOVWF  xB8
044FC:  MOVLW  00
044FE:  ADDWFC xB4,W
04500:  MOVWF  xB9
04502:  MOVLW  00
04504:  ADDWFC xB5,W
04506:  MOVWF  xBA
04508:  MOVLW  00
0450A:  ADDWFC xB6,W
0450C:  MOVWF  xBB
0450E:  CLRF   03
04510:  MOVF   xB7,W
04512:  ADDLW  9A
04514:  MOVWF  FE9
04516:  MOVLW  01
04518:  ADDWFC 03,W
0451A:  MOVWF  FEA
0451C:  MOVFF  FEF,2D7
04520:  MOVFF  2BB,2D6
04524:  MOVFF  2BA,2D5
04528:  MOVFF  2B9,2D4
0452C:  MOVFF  2B8,2D3
04530:  MOVLB  0
04532:  CALL   110C
04536:  MOVLB  2
04538:  INCF   xB7,F
0453A:  BRA    44F0
....................    } 
....................    output_high(PIN_C4); 
0453C:  BCF    F94.4
0453E:  BSF    F8B.4
....................    return; 
04540:  MOVLB  0
04542:  GOTO   4558 (RETURN)
.................... } 
....................  
.................... void Send_HKDATA_to_SCF(int32 adress) 
.................... { 
....................    Save_HKDATA_to_SCF(adress);  //save HK to COM PIC 
04546:  MOVFF  2B2,2B6
0454A:  MOVFF  2B1,2B5
0454E:  MOVFF  2B0,2B4
04552:  MOVFF  2AF,2B3
04556:  BRA    44E8
....................    CHECK_50_and_CW_RESPOND(); 
04558:  CALL   321A
....................    return; 
0455C:  RETURN 0
.................... } 
....................  
.................... void SAVE_HKDATA_TO_SMF(unsigned int32 Memory_Adress) 
.................... { 
....................    output_low(PIN_A5); 
0455E:  BCF    F92.5
04560:  BCF    F89.5
....................    for(int8 num = 0; num < HK_size; num++) 
04562:  MOVLB  2
04564:  CLRF   xB7
04566:  MOVF   xB7,W
04568:  SUBLW  7B
0456A:  BNC   45B2
....................    { 
....................       WRITE_DATA_BYTE_SMF(Memory_Adress+num, HKDATA[num]); 
0456C:  MOVF   xB7,W
0456E:  ADDWF  xB3,W
04570:  MOVWF  xB8
04572:  MOVLW  00
04574:  ADDWFC xB4,W
04576:  MOVWF  xB9
04578:  MOVLW  00
0457A:  ADDWFC xB5,W
0457C:  MOVWF  xBA
0457E:  MOVLW  00
04580:  ADDWFC xB6,W
04582:  MOVWF  xBB
04584:  CLRF   03
04586:  MOVF   xB7,W
04588:  ADDLW  9A
0458A:  MOVWF  FE9
0458C:  MOVLW  01
0458E:  ADDWFC 03,W
04590:  MOVWF  FEA
04592:  MOVFF  FEF,2D7
04596:  MOVFF  2BB,2D6
0459A:  MOVFF  2BA,2D5
0459E:  MOVFF  2B9,2D4
045A2:  MOVFF  2B8,2D3
045A6:  MOVLB  0
045A8:  CALL   1198
045AC:  MOVLB  2
045AE:  INCF   xB7,F
045B0:  BRA    4566
....................    } 
....................    return; 
045B2:  MOVLB  0
045B4:  GOTO   45CA (RETURN)
.................... } 
.................... void Send_HKDATA_to_SMF(int32 adress) 
.................... { 
....................    Save_HKDATA_to_SMF(adress);  //save HK to COM PIC 
045B8:  MOVFF  2B2,2B6
045BC:  MOVFF  2B1,2B5
045C0:  MOVFF  2B0,2B4
045C4:  MOVFF  2AF,2B3
045C8:  BRA    455E
....................    CHECK_50_and_CW_RESPOND(); 
045CA:  CALL   321A
....................    return; 
045CE:  RETURN 0
.................... } 
....................  
.................... void SAVE_HKDATA_TO_OF(unsigned int32 Memory_Adress) 
.................... { 
....................    int num; 
....................    for(num = 0; num < HK_size; num++) 
045D0:  MOVLB  2
045D2:  CLRF   xB7
045D4:  MOVF   xB7,W
045D6:  SUBLW  7B
045D8:  BNC   4620
....................    { 
....................       WRITE_DATA_BYTE_OF(Memory_Adress+num, HKDATA[num]); 
045DA:  MOVF   xB7,W
045DC:  ADDWF  xB3,W
045DE:  MOVWF  xB8
045E0:  MOVLW  00
045E2:  ADDWFC xB4,W
045E4:  MOVWF  xB9
045E6:  MOVLW  00
045E8:  ADDWFC xB5,W
045EA:  MOVWF  xBA
045EC:  MOVLW  00
045EE:  ADDWFC xB6,W
045F0:  MOVWF  xBB
045F2:  CLRF   03
045F4:  MOVF   xB7,W
045F6:  ADDLW  9A
045F8:  MOVWF  FE9
045FA:  MOVLW  01
045FC:  ADDWFC 03,W
045FE:  MOVWF  FEA
04600:  MOVFF  FEF,2D7
04604:  MOVFF  2BB,2D6
04608:  MOVFF  2BA,2D5
0460C:  MOVFF  2B9,2D4
04610:  MOVFF  2B8,2D3
04614:  MOVLB  0
04616:  CALL   1080
0461A:  MOVLB  2
0461C:  INCF   xB7,F
0461E:  BRA    45D4
....................    } 
....................    return; 
04620:  MOVLB  0
04622:  GOTO   4638 (RETURN)
.................... } 
.................... void Send_HKDATA_to_OF(int32 adress) 
.................... { 
....................    Save_HKDATA_to_OF(adress);  //save HK to COM PIC 
04626:  MOVFF  2B2,2B6
0462A:  MOVFF  2B1,2B5
0462E:  MOVFF  2B0,2B4
04632:  MOVFF  2AF,2B3
04636:  BRA    45D0
....................    CHECK_50_and_CW_RESPOND(); 
04638:  CALL   321A
....................    return; 
0463C:  RETURN 0
.................... } 
....................  
....................  
....................  
....................  
....................  
....................  
....................  
....................  
.................... void SAVE_CWFORMAT_TO_SCF(unsigned int32 Memory_Adress) 
.................... { 
....................    output_low(PIN_C4); 
0463E:  BCF    F94.4
04640:  BCF    F8B.4
....................    for(int8 num = 0; num < CW_size; num++) 
04642:  MOVLB  2
04644:  CLRF   xB7
04646:  MOVF   xB7,W
04648:  SUBLW  04
0464A:  BNC   4692
....................    { 
....................       WRITE_DATA_BYTE_SCF(Memory_Adress+num, CW_FORMAT[num]); 
0464C:  MOVF   xB7,W
0464E:  ADDWF  xB3,W
04650:  MOVWF  xB8
04652:  MOVLW  00
04654:  ADDWFC xB4,W
04656:  MOVWF  xB9
04658:  MOVLW  00
0465A:  ADDWFC xB5,W
0465C:  MOVWF  xBA
0465E:  MOVLW  00
04660:  ADDWFC xB6,W
04662:  MOVWF  xBB
04664:  CLRF   03
04666:  MOVF   xB7,W
04668:  ADDLW  68
0466A:  MOVWF  FE9
0466C:  MOVLW  01
0466E:  ADDWFC 03,W
04670:  MOVWF  FEA
04672:  MOVFF  FEF,2D7
04676:  MOVFF  2BB,2D6
0467A:  MOVFF  2BA,2D5
0467E:  MOVFF  2B9,2D4
04682:  MOVFF  2B8,2D3
04686:  MOVLB  0
04688:  CALL   110C
0468C:  MOVLB  2
0468E:  INCF   xB7,F
04690:  BRA    4646
....................    } 
....................    output_high(PIN_C4); 
04692:  BCF    F94.4
04694:  BSF    F8B.4
....................    return; 
04696:  MOVLB  0
04698:  RETURN 0
.................... } 
.................... void SEND_CWFORMAT_TO_SCF(int32 adress) 
.................... { 
....................    SAVE_CWFORMAT_TO_SCF(adress);  //save HK to COM PIC 
0469A:  MOVFF  2B2,2B6
0469E:  MOVFF  2B1,2B5
046A2:  MOVFF  2B0,2B4
046A6:  MOVFF  2AF,2B3
046AA:  RCALL  463E
....................    CHECK_50_and_CW_RESPOND(); 
046AC:  CALL   321A
....................    return; 
046B0:  RETURN 0
.................... } 
....................  
.................... void SAVE_CWFORMAT_TO_SMF(unsigned int32 Memory_Adress) 
.................... { 
....................    output_low(PIN_A5); 
046B2:  BCF    F92.5
046B4:  BCF    F89.5
....................    for(int8 num = 0; num < CW_size; num++) 
046B6:  MOVLB  2
046B8:  CLRF   xB7
046BA:  MOVF   xB7,W
046BC:  SUBLW  04
046BE:  BNC   4706
....................    { 
....................       WRITE_DATA_BYTE_SMF(Memory_Adress+num, CW_FORMAT[num]); 
046C0:  MOVF   xB7,W
046C2:  ADDWF  xB3,W
046C4:  MOVWF  xB8
046C6:  MOVLW  00
046C8:  ADDWFC xB4,W
046CA:  MOVWF  xB9
046CC:  MOVLW  00
046CE:  ADDWFC xB5,W
046D0:  MOVWF  xBA
046D2:  MOVLW  00
046D4:  ADDWFC xB6,W
046D6:  MOVWF  xBB
046D8:  CLRF   03
046DA:  MOVF   xB7,W
046DC:  ADDLW  68
046DE:  MOVWF  FE9
046E0:  MOVLW  01
046E2:  ADDWFC 03,W
046E4:  MOVWF  FEA
046E6:  MOVFF  FEF,2D7
046EA:  MOVFF  2BB,2D6
046EE:  MOVFF  2BA,2D5
046F2:  MOVFF  2B9,2D4
046F6:  MOVFF  2B8,2D3
046FA:  MOVLB  0
046FC:  CALL   1198
04700:  MOVLB  2
04702:  INCF   xB7,F
04704:  BRA    46BA
....................    } 
....................    return; 
04706:  MOVLB  0
04708:  GOTO   471E (RETURN)
.................... } 
.................... void SEND_CWFORMAT_TO_SMF(int32 adress) 
.................... { 
....................    SAVE_CWFORMAT_TO_SMF(adress);  //save HK to COM PIC 
0470C:  MOVFF  2B2,2B6
04710:  MOVFF  2B1,2B5
04714:  MOVFF  2B0,2B4
04718:  MOVFF  2AF,2B3
0471C:  BRA    46B2
....................    CHECK_50_and_CW_RESPOND(); 
0471E:  CALL   321A
....................    fprintf(PC,"\r\nSAVE CW\r\n"); 
04722:  MOVLW  A8
04724:  MOVWF  FF6
04726:  MOVLW  08
04728:  MOVWF  FF7
0472A:  MOVLW  00
0472C:  MOVWF  FF8
0472E:  CALL   24F4
....................    return; 
04732:  RETURN 0
.................... } 
....................  
.................... void SAVE_CWFORMAT_TO_OF(unsigned int32 Memory_Adress) 
.................... { 
....................    for(int8 num = 0; num < CW_size; num++) 
....................    { 
....................       WRITE_DATA_BYTE_OF(Memory_Adress+num, CW_FORMAT[num]); 
....................    } 
....................    return; 
.................... } 
.................... void SEND_CWFORMAT_TO_OF(int32 adress) 
.................... { 
....................    SAVE_CWFORMAT_TO_SCF(adress);  //save HK to COM PIC 
*
047AA:  MOVFF  2B2,2B6
047AE:  MOVFF  2B1,2B5
047B2:  MOVFF  2B0,2B4
047B6:  MOVFF  2AF,2B3
047BA:  RCALL  463E
....................    TRANSFER_DATA_NBYTE_TOPC_OF(adress,CW_size); //for checking whether the data saved correctly 
047BC:  MOVFF  2B2,2B6
047C0:  MOVFF  2B1,2B5
047C4:  MOVFF  2B0,2B4
047C8:  MOVFF  2AF,2B3
047CC:  MOVLB  2
047CE:  CLRF   xBA
047D0:  CLRF   xB9
047D2:  CLRF   xB8
047D4:  MOVLW  05
047D6:  MOVWF  xB7
047D8:  MOVLB  0
047DA:  BRA    4734
....................    CHECK_50_and_CW_RESPOND(); 
047DC:  CALL   321A
....................    return; 
047E0:  RETURN 0
.................... } 
....................  
....................  
....................  
....................  
....................  
....................  
....................  
....................  
.................... void CHECK_HKDATA(int8 in,int32 delaytime)/////////////////////////////////////////////////////////////////////////////////////////////////////////////////////////////////////////// 
.................... { 
....................    fprintf(PC,"GET SENSOR DATA\r\n"); 
*
03486:  MOVLW  B4
03488:  MOVWF  FF6
0348A:  MOVLW  08
0348C:  MOVWF  FF7
0348E:  MOVLW  00
03490:  MOVWF  FF8
03492:  CALL   24F4
....................    Delete_HKDATA(); 
03496:  RCALL  3424
....................    waiting(delaytime); 
03498:  MOVFF  2BC,2CD
0349C:  MOVFF  2BB,2CC
034A0:  MOVFF  2BA,2CB
034A4:  MOVFF  2B9,2CA
034A8:  CALL   157C
....................    CHECK_50_and_CW_RESPOND(); 
034AC:  RCALL  321A
....................    for(int num = 1; num < 11 - in; num++) //[FAB] +X,-Y,-Z,+Y,-Xtemp_high,low(array[10] to [17]) 
034AE:  MOVLW  01
034B0:  MOVLB  2
034B2:  MOVWF  xBD
034B4:  MOVLW  0B
034B6:  BSF    FD8.0
034B8:  SUBFWB xB8,W
034BA:  SUBWF  xBD,W
034BC:  BC    3518
....................    { 
....................       HKDATA[num + 5+4] = in_HK[num + 2 - in]; 
034BE:  MOVLW  05
034C0:  ADDWF  xBD,W
034C2:  ADDLW  04
034C4:  CLRF   03
034C6:  ADDLW  9A
034C8:  MOVWF  01
034CA:  MOVLW  01
034CC:  ADDWFC 03,F
034CE:  MOVFF  03,2BF
034D2:  MOVLW  02
034D4:  ADDWF  xBD,W
034D6:  BSF    FD8.0
034D8:  SUBFWB xB8,W
034DA:  CLRF   03
034DC:  ADDLW  6D
034DE:  MOVWF  FE9
034E0:  MOVLW  01
034E2:  ADDWFC 03,W
034E4:  MOVWF  FEA
034E6:  MOVFF  FEF,2C0
034EA:  MOVFF  2BF,FEA
034EE:  MOVFF  01,FE9
034F2:  MOVFF  2C0,FEF
....................       fputc(HKDATA[num + 5+4],PC); 
034F6:  MOVLW  05
034F8:  ADDWF  xBD,W
034FA:  ADDLW  04
034FC:  CLRF   03
034FE:  ADDLW  9A
03500:  MOVWF  FE9
03502:  MOVLW  01
03504:  ADDWFC 03,W
03506:  MOVWF  FEA
03508:  MOVFF  FEF,2BE
0350C:  MOVF   xBE,W
0350E:  MOVLB  0
03510:  RCALL  3446
03512:  MOVLB  2
03514:  INCF   xBD,F
03516:  BRA    34B4
....................    } 
....................     
....................    MEASURE_BC_TEMP(); 
03518:  MOVLB  0
0351A:  RCALL  344E
....................    CHECK_50_and_CW_RESPOND(); 
0351C:  RCALL  321A
....................    HKDATA[14+4] = BC_temp_data_h;//+X temp high[18] 
0351E:  MOVFF  154,1AC
....................    HKDATA[15+4] = BC_temp_data_l;//+X temp low[19] 
03522:  MOVFF  156,1AD
....................     
....................    for(num = 9; num < FAB_SENSOR_size - 2; num++) //[FAB] from CPLD temp to Kill status(array[20] to [49]) 
03526:  MOVLW  09
03528:  MOVLB  2
0352A:  MOVWF  xBD
0352C:  MOVF   xBD,W
0352E:  SUBLW  2A
03530:  BNC   358C
....................    { 
....................       HKDATA[num + 7+4] = in_HK[num + 2 - in]; 
03532:  MOVLW  07
03534:  ADDWF  xBD,W
03536:  ADDLW  04
03538:  CLRF   03
0353A:  ADDLW  9A
0353C:  MOVWF  01
0353E:  MOVLW  01
03540:  ADDWFC 03,F
03542:  MOVFF  03,2BF
03546:  MOVLW  02
03548:  ADDWF  xBD,W
0354A:  BSF    FD8.0
0354C:  SUBFWB xB8,W
0354E:  CLRF   03
03550:  ADDLW  6D
03552:  MOVWF  FE9
03554:  MOVLW  01
03556:  ADDWFC 03,W
03558:  MOVWF  FEA
0355A:  MOVFF  FEF,2C0
0355E:  MOVFF  2BF,FEA
03562:  MOVFF  01,FE9
03566:  MOVFF  2C0,FEF
....................       fputc(HKDATA[num + 7+4],PC); 
0356A:  MOVLW  07
0356C:  ADDWF  xBD,W
0356E:  ADDLW  04
03570:  CLRF   03
03572:  ADDLW  9A
03574:  MOVWF  FE9
03576:  MOVLW  01
03578:  ADDWFC 03,W
0357A:  MOVWF  FEA
0357C:  MOVFF  FEF,2BE
03580:  MOVF   xBE,W
03582:  MOVLB  0
03584:  RCALL  3446
03586:  MOVLB  2
03588:  INCF   xBD,F
0358A:  BRA    352C
....................    } 
....................    FAB_DATA = 0; 
0358C:  CLRF   x2E
....................    return; 
0358E:  MOVLB  0
03590:  RETURN 0
.................... } 
....................  
.................... void VERIFY_FABDATA(int32 delaytime1,int32 delaytime2) 
.................... { 
....................    for(int8 num = 0; num < 3; num++) 
03592:  MOVLB  2
03594:  CLRF   xB7
03596:  MOVF   xB7,W
03598:  SUBLW  02
0359A:  BNC   3640
....................    { 
....................       COMMAND_TO_FAB(delaytime1); 
0359C:  MOVFF  2B2,2BB
035A0:  MOVFF  2B1,2BA
035A4:  MOVFF  2B0,2B9
035A8:  MOVFF  2AF,2B8
035AC:  MOVLB  0
035AE:  RCALL  33B2
....................       CHECK_50_and_CW_RESPOND(); 
035B0:  RCALL  321A
....................       //FAB_DATA = 0; 
....................       if(in_HK[0] == 0x33)//gather sensor data by interrupt 
035B2:  MOVLB  1
035B4:  MOVF   x6D,W
035B6:  SUBLW  33
035B8:  BNZ   35E2
....................       { 
....................          CHECK_HKDATA(2,delaytime2); 
035BA:  MOVLW  02
035BC:  MOVLB  2
035BE:  MOVWF  xB8
035C0:  MOVFF  2B6,2BC
035C4:  MOVFF  2B5,2BB
035C8:  MOVFF  2B4,2BA
035CC:  MOVFF  2B3,2B9
035D0:  MOVLB  0
035D2:  RCALL  3486
....................          CHECK_50_and_CW_RESPOND(); 
035D4:  RCALL  321A
....................          CHECK_FAB_RESPONSE = 1; //1 is succeeded to get response from FAB 
035D6:  MOVLW  01
035D8:  MOVLB  2
035DA:  MOVWF  x35
....................          break; 
035DC:  BRA    3640
....................       }else if(in_HK[1] == 0x33){ 
035DE:  BRA    3638
035E0:  MOVLB  1
035E2:  MOVF   x6E,W
035E4:  SUBLW  33
035E6:  BNZ   3610
....................          //delay_ms(200); 
....................          CHECK_HKDATA(1,delaytime2); 
035E8:  MOVLW  01
035EA:  MOVLB  2
035EC:  MOVWF  xB8
035EE:  MOVFF  2B6,2BC
035F2:  MOVFF  2B5,2BB
035F6:  MOVFF  2B4,2BA
035FA:  MOVFF  2B3,2B9
035FE:  MOVLB  0
03600:  RCALL  3486
....................          CHECK_50_and_CW_RESPOND(); 
03602:  RCALL  321A
....................          CHECK_FAB_RESPONSE = 1; //1 is succeeded to get response from FAB 
03604:  MOVLW  01
03606:  MOVLB  2
03608:  MOVWF  x35
....................          break; 
0360A:  BRA    3640
....................       }else if(in_HK[2] == 0x33){ 
0360C:  BRA    3638
0360E:  MOVLB  1
03610:  MOVF   x6F,W
03612:  SUBLW  33
03614:  BNZ   363A
....................          //delay_ms(200); 
....................          CHECK_HKDATA(0,delaytime2); 
03616:  MOVLB  2
03618:  CLRF   xB8
0361A:  MOVFF  2B6,2BC
0361E:  MOVFF  2B5,2BB
03622:  MOVFF  2B4,2BA
03626:  MOVFF  2B3,2B9
0362A:  MOVLB  0
0362C:  RCALL  3486
....................          CHECK_50_and_CW_RESPOND(); 
0362E:  RCALL  321A
....................          CHECK_FAB_RESPONSE = 1; //1 is succeeded to get response from FAB 
03630:  MOVLW  01
03632:  MOVLB  2
03634:  MOVWF  x35
....................          break; 
03636:  BRA    3640
03638:  MOVLB  1
....................       } 
0363A:  MOVLB  2
0363C:  INCF   xB7,F
0363E:  BRA    3596
....................    } 
....................    return; 
03640:  MOVLB  0
03642:  RETURN 0
.................... } 
....................  
....................  
....................  
....................  
.................... void GET_RESET_DATA() 
.................... { 
....................    RESET_DATA = 0; 
03644:  CLRF   xDF
....................    for(int i = 0; i < 6; i++) 
03646:  MOVLB  2
03648:  CLRF   xAF
0364A:  MOVF   xAF,W
0364C:  SUBLW  05
0364E:  BNC   3668
....................    { 
....................       COLLECT_RESET_DATA(); 
03650:  MOVLB  0
03652:  CALL   15BA
....................       if(reset_bffr[0] == 0x8e) 
03656:  MOVF   xE0,W
03658:  SUBLW  8E
0365A:  BNZ   3662
....................       { 
....................          break; 
0365C:  MOVLB  2
0365E:  BRA    3668
03660:  MOVLB  0
....................       } 
03662:  MOVLB  2
03664:  INCF   xAF,F
03666:  BRA    364A
....................    } 
....................    CHECK_50_and_CW_RESPOND(); 
03668:  MOVLB  0
0366A:  RCALL  321A
....................    if(RESET_bffr[0] == 0x8e) 
0366C:  MOVF   xE0,W
0366E:  SUBLW  8E
03670:  BNZ   373C
....................    { 
....................       fprintf(PC,"GET RESET\r\n"); 
03672:  MOVLW  C6
03674:  MOVWF  FF6
03676:  MOVLW  08
03678:  MOVWF  FF7
0367A:  MOVLW  00
0367C:  MOVWF  FF8
0367E:  CALL   24F4
....................       for(int num = 0; num < 5; num++)//timedata 
03682:  MOVLB  2
03684:  CLRF   xB0
03686:  MOVF   xB0,W
03688:  SUBLW  04
0368A:  BNC   36DE
....................       { 
....................          HKDATA[num + 2] = reset_bffr[num + 1]; 
0368C:  MOVLW  02
0368E:  ADDWF  xB0,W
03690:  CLRF   03
03692:  ADDLW  9A
03694:  MOVWF  01
03696:  MOVLW  01
03698:  ADDWFC 03,F
0369A:  MOVFF  03,2B2
0369E:  MOVLW  01
036A0:  ADDWF  xB0,W
036A2:  CLRF   03
036A4:  ADDLW  E0
036A6:  MOVWF  FE9
036A8:  MOVLW  00
036AA:  ADDWFC 03,W
036AC:  MOVWF  FEA
036AE:  MOVFF  FEF,2B3
036B2:  MOVFF  2B2,FEA
036B6:  MOVFF  01,FE9
036BA:  MOVFF  2B3,FEF
....................          fputc(HKDATA[num + 2],PC); 
036BE:  MOVLW  02
036C0:  ADDWF  xB0,W
036C2:  CLRF   03
036C4:  ADDLW  9A
036C6:  MOVWF  FE9
036C8:  MOVLW  01
036CA:  ADDWFC 03,W
036CC:  MOVWF  FEA
036CE:  MOVFF  FEF,2B1
036D2:  MOVF   xB1,W
036D4:  MOVLB  0
036D6:  RCALL  3446
036D8:  MOVLB  2
036DA:  INCF   xB0,F
036DC:  BRA    3686
....................       } 
....................     
....................       for(num = 0; num < 5; num++)//reset sensor data 
036DE:  CLRF   xB0
036E0:  MOVF   xB0,W
036E2:  SUBLW  04
036E4:  BNC   3738
....................       { 
....................          HKDATA[num + 116] = reset_bffr[num + 6];//HKDATA[116] = reset[6] 
036E6:  MOVLW  74
036E8:  ADDWF  xB0,W
036EA:  CLRF   03
036EC:  ADDLW  9A
036EE:  MOVWF  01
036F0:  MOVLW  01
036F2:  ADDWFC 03,F
036F4:  MOVFF  03,2B2
036F8:  MOVLW  06
036FA:  ADDWF  xB0,W
036FC:  CLRF   03
036FE:  ADDLW  E0
03700:  MOVWF  FE9
03702:  MOVLW  00
03704:  ADDWFC 03,W
03706:  MOVWF  FEA
03708:  MOVFF  FEF,2B3
0370C:  MOVFF  2B2,FEA
03710:  MOVFF  01,FE9
03714:  MOVFF  2B3,FEF
....................          fputc(HKDATA[num + 116],PC); 
03718:  MOVLW  74
0371A:  ADDWF  xB0,W
0371C:  CLRF   03
0371E:  ADDLW  9A
03720:  MOVWF  FE9
03722:  MOVLW  01
03724:  ADDWFC 03,W
03726:  MOVWF  FEA
03728:  MOVFF  FEF,2B1
0372C:  MOVF   xB1,W
0372E:  MOVLB  0
03730:  RCALL  3446
03732:  MOVLB  2
03734:  INCF   xB0,F
03736:  BRA    36E0
....................       } 
....................    }else{ 
03738:  BRA    374E
0373A:  MOVLB  0
....................       fprintf(PC,"NO RESET\r\n"); 
0373C:  MOVLW  D2
0373E:  MOVWF  FF6
03740:  MOVLW  08
03742:  MOVWF  FF7
03744:  MOVLW  00
03746:  MOVWF  FF8
03748:  CALL   24F4
0374C:  MOVLB  2
....................    } 
....................    //Delete_Reset(); 
....................    return; 
0374E:  MOVLB  0
03750:  RETURN 0
.................... } 
....................  
.................... void MAKE_ADCS_HKDATA() 
.................... { 
....................    GET_ADCS_SENSOR_DATA(); 
*
038DE:  RCALL  37E2
....................    CHECK_50_and_CW_RESPOND(); 
038E0:  RCALL  321A
....................    for(int num = 53; num < 113; num++)//12byte(MAG6,GYRO6)+48byte(GPS) = 60 
038E2:  MOVLW  35
038E4:  MOVLB  2
038E6:  MOVWF  xAF
038E8:  MOVF   xAF,W
038EA:  SUBLW  70
038EC:  BNC   3922
....................    { 
....................       HKDATA[num] = ADCS_SENSOR_DATA[num - 52];//ADCS[1] to ADCS[60] 
038EE:  CLRF   03
038F0:  MOVF   xAF,W
038F2:  ADDLW  9A
038F4:  MOVWF  01
038F6:  MOVLW  01
038F8:  ADDWFC 03,F
038FA:  MOVFF  03,2B1
038FE:  MOVLW  34
03900:  SUBWF  xAF,W
03902:  CLRF   03
03904:  ADDLW  8F
03906:  MOVWF  FE9
03908:  MOVLW  00
0390A:  ADDWFC 03,W
0390C:  MOVWF  FEA
0390E:  MOVFF  FEF,2B2
03912:  MOVFF  2B1,FEA
03916:  MOVFF  01,FE9
0391A:  MOVFF  2B2,FEF
0391E:  INCF   xAF,F
03920:  BRA    38E8
....................    } 
.................... //!   for(num = 65; num < 107; num++)//60byte(GPS) 
.................... //!   { 
.................... //!      HKDATA[num] = ADCS_SENSOR_DATA[num - 34];//HKDATA[54] = ADCS_SENSOR_DATA[21]-->ADCS[21] to ADCS[62] 
.................... //!   } 
....................    return; 
03922:  MOVLB  0
03924:  RETURN 0
.................... } 
....................  
.................... void DISPLAY_CW() 
.................... { 
....................    fprintf(PC,"\r\nCW:\r\n"); 
*
04492:  MOVLW  DE
04494:  MOVWF  FF6
04496:  MOVLW  08
04498:  MOVWF  FF7
0449A:  MOVLW  00
0449C:  MOVWF  FF8
0449E:  CALL   24F4
....................    for(int8 i = 0; i < 5; i++) 
044A2:  MOVLB  2
044A4:  CLRF   xA3
044A6:  MOVF   xA3,W
044A8:  SUBLW  04
044AA:  BNC   44CE
....................    { 
....................       fprintf(PC,"%x",CW_FORMAT[i]); 
044AC:  CLRF   03
044AE:  MOVF   xA3,W
044B0:  ADDLW  68
044B2:  MOVWF  FE9
044B4:  MOVLW  01
044B6:  ADDWFC 03,W
044B8:  MOVWF  FEA
044BA:  MOVFF  FEF,2D3
044BE:  MOVLW  57
044C0:  MOVWF  xD4
044C2:  MOVLB  0
044C4:  CALL   123E
044C8:  MOVLB  2
044CA:  INCF   xA3,F
044CC:  BRA    44A6
....................    } 
....................    fprintf(PC,"\r\n"); 
044CE:  MOVLW  0D
044D0:  BTFSS  F9E.4
044D2:  BRA    44D0
044D4:  MOVWF  FAD
044D6:  MOVLW  0A
044D8:  BTFSS  F9E.4
044DA:  BRA    44D8
044DC:  MOVWF  FAD
....................    CHECK_50_and_CW_RESPOND(); 
044DE:  MOVLB  0
044E0:  CALL   321A
....................    return; 
044E4:  GOTO   4952 (RETURN)
.................... } 
....................  
.................... void SET_IDENTIFIER() 
.................... { 
....................    CHECK_50_and_CW_RESPOND(); 
*
04462:  CALL   321A
....................    HKDATA[0] = 0x33; 
04466:  MOVLW  33
04468:  MOVLB  1
0446A:  MOVWF  x9A
....................    HKDATA[1] = 0x33; 
0446C:  MOVWF  x9B
....................    HKDATA[7] = 0xAA; 
0446E:  MOVLW  AA
04470:  MOVWF  xA1
....................    HKDATA[8] = 0xAA; 
04472:  MOVWF  xA2
....................    HKDATA[9] = 0xAA; 
04474:  MOVWF  xA3
....................    HKDATA[50] = 0xBB; 
04476:  MOVLW  BB
04478:  MOVWF  xCC
....................    HKDATA[51] = 0xBB; 
0447A:  MOVWF  xCD
....................    HKDATA[52] = 0xBB; 
0447C:  MOVWF  xCE
....................    HKDATA[113] = 0xCC; 
0447E:  MOVLW  CC
04480:  MOVLB  2
04482:  MOVWF  x0B
....................    HKDATA[114] = 0xCC; 
04484:  MOVWF  x0C
....................    HKDATA[115] = 0xCC; 
04486:  MOVWF  x0D
....................    HKDATA[122] = 0x44; 
04488:  MOVLW  44
0448A:  MOVWF  x14
....................    HKDATA[123] = 0x44; 
0448C:  MOVWF  x15
....................    return; 
0448E:  MOVLB  0
04490:  RETURN 0
.................... } 
....................  
.................... void FAB_TEST_OPERATION() 
.................... { 
....................    Delete_in_HK(); 
*
047E2:  CALL   2F8E
....................    LOOP_FAB_HK_ADDRESS(); 
047E6:  CALL   2FB0
....................    CHECK_50_and_CW_RESPOND(); 
047EA:  CALL   321A
....................    LOOP_FAB_CW_ADDRESS(); 
047EE:  CALL   3228
....................     
....................    //LOOP_FAB_HK_ADDRESS(); 
....................    //CHECK_50_and_CW_RESPOND(); 
....................    //LOOP_FAB_CW_ADDRESS(); 
....................    CHECK_50_and_CW_RESPOND(); 
047F2:  CALL   321A
....................    Turn_ON_ADCS(); 
047F6:  CALL   3394
....................    fprintf(PC,"FAB communication start\r\n"); 
047FA:  MOVLW  E6
047FC:  MOVWF  FF6
047FE:  MOVLW  08
04800:  MOVWF  FF7
04802:  MOVLW  00
04804:  MOVWF  FF8
04806:  CALL   24F4
....................    waiting(200000); 
0480A:  MOVLB  2
0480C:  CLRF   xCD
0480E:  MOVLW  03
04810:  MOVWF  xCC
04812:  MOVLW  0D
04814:  MOVWF  xCB
04816:  MOVLW  40
04818:  MOVWF  xCA
0481A:  MOVLB  0
0481C:  CALL   157C
....................    FAB_MEASUERING_FLAG++;//count until 7(it means 10 min) 
04820:  MOVLB  2
04822:  INCF   x2F,F
....................    FAB_DATA = 0;   //for initialize 
04824:  CLRF   x2E
....................     
....................    fprintf(PC,"SENDING COMMAND TO FAB\r\n"); 
04826:  MOVLW  00
04828:  MOVWF  FF6
0482A:  MOVLW  09
0482C:  MOVWF  FF7
0482E:  MOVLW  00
04830:  MOVWF  FF8
04832:  MOVLB  0
04834:  CALL   24F4
....................    CHECK_50_and_CW_RESPOND(); 
04838:  CALL   321A
....................    VERIFY_FABDATA(130000,2000); 
0483C:  MOVLB  2
0483E:  CLRF   xB2
04840:  MOVLW  01
04842:  MOVWF  xB1
04844:  MOVLW  FB
04846:  MOVWF  xB0
04848:  MOVLW  D0
0484A:  MOVWF  xAF
0484C:  CLRF   xB6
0484E:  CLRF   xB5
04850:  MOVLW  07
04852:  MOVWF  xB4
04854:  MOVLW  D0
04856:  MOVWF  xB3
04858:  MOVLB  0
0485A:  CALL   3592
....................    CHECK_50_and_CW_RESPOND(); 
0485E:  CALL   321A
....................     
....................    GET_RESET_DATA(); 
04862:  CALL   3644
....................    MAKE_ADCS_HKDATA(); 
04866:  CALL   38DE
....................    Turn_OFF_ADCS(); 
0486A:  CALL   208A
....................    CHECK_50_and_CW_RESPOND(); 
0486E:  CALL   321A
....................    MAKE_CW_FORMAT(); 
04872:  RCALL  4454
....................    CHECK_50_and_CW_RESPOND(); 
04874:  CALL   321A
....................    SET_IDENTIFIER(); 
04878:  RCALL  4462
....................    if(CHECK_FAB_RESPONSE) 
0487A:  MOVLB  2
0487C:  MOVF   x35,F
0487E:  BTFSC  FD8.2
04880:  BRA    4A00
....................    { 
....................       fprintf(PC,"\r\nCollecting HK and Making CWFormat Done\r\n\r\n"); 
04882:  MOVLW  1A
04884:  MOVWF  FF6
04886:  MOVLW  09
04888:  MOVWF  FF7
0488A:  MOVLW  00
0488C:  MOVWF  FF8
0488E:  MOVLB  0
04890:  CALL   24F4
....................       fprintf(PC,"\r\n\r\nSensor:"); 
04894:  MOVLW  48
04896:  MOVWF  FF6
04898:  MOVLW  09
0489A:  MOVWF  FF7
0489C:  MOVLW  00
0489E:  MOVWF  FF8
048A0:  CALL   24F4
....................       for(int num = 0; num < 65; num++)//array[0] to [64](until gyro data) 
048A4:  MOVLB  2
048A6:  CLRF   xA1
048A8:  MOVF   xA1,W
048AA:  SUBLW  40
048AC:  BNC   48D8
....................       { 
....................          fprintf(PC,"%x,",HKDATA[num]); 
048AE:  CLRF   03
048B0:  MOVF   xA1,W
048B2:  ADDLW  9A
048B4:  MOVWF  FE9
048B6:  MOVLW  01
048B8:  ADDWFC 03,W
048BA:  MOVWF  FEA
048BC:  MOVFF  FEF,2D3
048C0:  MOVLW  57
048C2:  MOVWF  xD4
048C4:  MOVLB  0
048C6:  CALL   123E
048CA:  MOVLW  2C
048CC:  BTFSS  F9E.4
048CE:  BRA    48CC
048D0:  MOVWF  FAD
048D2:  MOVLB  2
048D4:  INCF   xA1,F
048D6:  BRA    48A8
....................       } 
....................       CHECK_50_and_CW_RESPOND(); 
048D8:  MOVLB  0
048DA:  CALL   321A
....................       for(num = 65; num < 113; num++)//GPS 60 byte should be shown as char type 
048DE:  MOVLW  41
048E0:  MOVLB  2
048E2:  MOVWF  xA1
048E4:  MOVF   xA1,W
048E6:  SUBLW  70
048E8:  BNC   490A
....................       { 
....................          fputc(HKDATA[num],PC); 
048EA:  CLRF   03
048EC:  MOVF   xA1,W
048EE:  ADDLW  9A
048F0:  MOVWF  FE9
048F2:  MOVLW  01
048F4:  ADDWFC 03,W
048F6:  MOVWF  FEA
048F8:  MOVFF  FEF,2A3
048FC:  MOVF   xA3,W
048FE:  MOVLB  0
04900:  CALL   3446
04904:  MOVLB  2
04906:  INCF   xA1,F
04908:  BRA    48E4
....................       } 
....................       CHECK_50_and_CW_RESPOND(); 
0490A:  MOVLB  0
0490C:  CALL   321A
....................       for(num = 113; num < HK_Size; num++)//array[125] to [135] 
04910:  MOVLW  71
04912:  MOVLB  2
04914:  MOVWF  xA1
04916:  MOVF   xA1,W
04918:  SUBLW  7B
0491A:  BNC   494A
....................       { 
....................          fprintf(PC,",%x",HKDATA[num]); 
0491C:  CLRF   03
0491E:  MOVF   xA1,W
04920:  ADDLW  9A
04922:  MOVWF  FE9
04924:  MOVLW  01
04926:  ADDWFC 03,W
04928:  MOVWF  FEA
0492A:  MOVFF  FEF,2A3
0492E:  MOVLW  2C
04930:  BTFSS  F9E.4
04932:  BRA    4930
04934:  MOVWF  FAD
04936:  MOVFF  2A3,2D3
0493A:  MOVLW  57
0493C:  MOVWF  xD4
0493E:  MOVLB  0
04940:  CALL   123E
04944:  MOVLB  2
04946:  INCF   xA1,F
04948:  BRA    4916
....................       } 
....................       CHECK_50_and_CW_RESPOND(); 
0494A:  MOVLB  0
0494C:  CALL   321A
....................        
....................       DISPLAY_CW(); 
04950:  BRA    4492
....................       CHECK_FAB_RESPONSE = 0; 
04952:  MOVLB  2
04954:  CLRF   x35
....................       output_low(PIN_C4); 
04956:  BCF    F94.4
04958:  BCF    F8B.4
....................       output_low(PIN_A5); 
0495A:  BCF    F92.5
0495C:  BCF    F89.5
....................       //sector_erase_SCF(65536*50); 
....................       //sector_erase_SCF(65536*51); 
....................       SEND_HKDATA_to_SCF(FAB_HK_ADDRESS); 
0495E:  MOVFF  4A,2B2
04962:  MOVFF  49,2B1
04966:  MOVFF  48,2B0
0496A:  MOVFF  47,2AF
0496E:  MOVLB  0
04970:  RCALL  4546
....................       SEND_HKDATA_to_SMF(FAB_HK_ADDRESS); 
04972:  MOVFF  4A,2B2
04976:  MOVFF  49,2B1
0497A:  MOVFF  48,2B0
0497E:  MOVFF  47,2AF
04982:  RCALL  45B8
....................       SEND_HKDATA_to_OF(FAB_HK_ADDRESS); 
04984:  MOVFF  4A,2B2
04988:  MOVFF  49,2B1
0498C:  MOVFF  48,2B0
04990:  MOVFF  47,2AF
04994:  RCALL  4626
....................       SEND_CWFORMAT_TO_SCF(FAB_CW_ADDRESS); 
04996:  MOVFF  4E,2B2
0499A:  MOVFF  4D,2B1
0499E:  MOVFF  4C,2B0
049A2:  MOVFF  4B,2AF
049A6:  RCALL  469A
....................       SEND_CWFORMAT_TO_SMF(FAB_CW_ADDRESS); 
049A8:  MOVFF  4E,2B2
049AC:  MOVFF  4D,2B1
049B0:  MOVFF  4C,2B0
049B4:  MOVFF  4B,2AF
049B8:  RCALL  470C
....................       SEND_CWFORMAT_TO_OF(FAB_CW_ADDRESS); 
049BA:  MOVFF  4E,2B2
049BE:  MOVFF  4D,2B1
049C2:  MOVFF  4C,2B0
049C6:  MOVFF  4B,2AF
049CA:  RCALL  47AA
....................       FAB_HK_ADDRESS = FAB_HK_ADDRESS + HK_size;//prepare for next storing address 
049CC:  MOVLW  7C
049CE:  ADDWF  47,F
049D0:  MOVLW  00
049D2:  ADDWFC 48,F
049D4:  ADDWFC 49,F
049D6:  ADDWFC 4A,F
....................       FAB_CW_ADDRESS = FAB_CW_ADDRESS + CW_size;//prepare for next storing address 
049D8:  MOVLW  05
049DA:  ADDWF  4B,F
049DC:  MOVLW  00
049DE:  ADDWFC 4C,F
049E0:  ADDWFC 4D,F
049E2:  ADDWFC 4E,F
....................       fprintf(PC,"\r\nSENSOR SAVING DONE\r\n"); 
049E4:  MOVLW  54
049E6:  MOVWF  FF6
049E8:  MOVLW  09
049EA:  MOVWF  FF7
049EC:  MOVLW  00
049EE:  MOVWF  FF8
049F0:  CALL   24F4
....................       output_high(PIN_C4); 
049F4:  BCF    F94.4
049F6:  BSF    F8B.4
....................       CHECK_50_and_CW_RESPOND(); 
049F8:  CALL   321A
....................    }else{ 
049FC:  BRA    4AD4
049FE:  MOVLB  2
....................       SEND_HKDATA_to_SCF(FAB_HK_ADDRESS); 
04A00:  MOVFF  4A,2B2
04A04:  MOVFF  49,2B1
04A08:  MOVFF  48,2B0
04A0C:  MOVFF  47,2AF
04A10:  MOVLB  0
04A12:  RCALL  4546
....................       SEND_HKDATA_to_SMF(FAB_HK_ADDRESS); 
04A14:  MOVFF  4A,2B2
04A18:  MOVFF  49,2B1
04A1C:  MOVFF  48,2B0
04A20:  MOVFF  47,2AF
04A24:  RCALL  45B8
....................       SEND_HKDATA_to_OF(FAB_HK_ADDRESS); 
04A26:  MOVFF  4A,2B2
04A2A:  MOVFF  49,2B1
04A2E:  MOVFF  48,2B0
04A32:  MOVFF  47,2AF
04A36:  RCALL  4626
....................       SEND_CWFORMAT_TO_SCF(FAB_CW_ADDRESS); 
04A38:  MOVFF  4E,2B2
04A3C:  MOVFF  4D,2B1
04A40:  MOVFF  4C,2B0
04A44:  MOVFF  4B,2AF
04A48:  RCALL  469A
....................       SEND_CWFORMAT_TO_SMF(FAB_CW_ADDRESS); 
04A4A:  MOVFF  4E,2B2
04A4E:  MOVFF  4D,2B1
04A52:  MOVFF  4C,2B0
04A56:  MOVFF  4B,2AF
04A5A:  RCALL  470C
....................       SEND_CWFORMAT_TO_OF(FAB_CW_ADDRESS); 
04A5C:  MOVFF  4E,2B2
04A60:  MOVFF  4D,2B1
04A64:  MOVFF  4C,2B0
04A68:  MOVFF  4B,2AF
04A6C:  RCALL  47AA
....................       FAB_HK_ADDRESS = FAB_HK_ADDRESS + HK_size;//prepare for next storing address 
04A6E:  MOVLW  7C
04A70:  ADDWF  47,F
04A72:  MOVLW  00
04A74:  ADDWFC 48,F
04A76:  ADDWFC 49,F
04A78:  ADDWFC 4A,F
....................       FAB_CW_ADDRESS = FAB_CW_ADDRESS + CW_size;//prepare for next storing address 
04A7A:  MOVLW  05
04A7C:  ADDWF  4B,F
04A7E:  MOVLW  00
04A80:  ADDWFC 4C,F
04A82:  ADDWFC 4D,F
04A84:  ADDWFC 4E,F
....................       fprintf(PC,"NO RESPONSE FROM FAB\r\n\r\n");   
04A86:  MOVLW  6C
04A88:  MOVWF  FF6
04A8A:  MOVLW  09
04A8C:  MOVWF  FF7
04A8E:  MOVLW  00
04A90:  MOVWF  FF8
04A92:  CALL   24F4
....................       CHECK_50_and_CW_RESPOND(); 
04A96:  CALL   321A
....................       for(int num = 0; num < HK_size; num++) 
04A9A:  MOVLB  2
04A9C:  CLRF   xA2
04A9E:  MOVF   xA2,W
04AA0:  SUBLW  7B
04AA2:  BNC   4ACE
....................       { 
....................          fprintf(PC,"%x,",HKDATA[num]); 
04AA4:  CLRF   03
04AA6:  MOVF   xA2,W
04AA8:  ADDLW  9A
04AAA:  MOVWF  FE9
04AAC:  MOVLW  01
04AAE:  ADDWFC 03,W
04AB0:  MOVWF  FEA
04AB2:  MOVFF  FEF,2D3
04AB6:  MOVLW  57
04AB8:  MOVWF  xD4
04ABA:  MOVLB  0
04ABC:  CALL   123E
04AC0:  MOVLW  2C
04AC2:  BTFSS  F9E.4
04AC4:  BRA    4AC2
04AC6:  MOVWF  FAD
04AC8:  MOVLB  2
04ACA:  INCF   xA2,F
04ACC:  BRA    4A9E
....................       } 
....................       CHECK_50_and_CW_RESPOND(); 
04ACE:  MOVLB  0
04AD0:  CALL   321A
....................        
....................    } 
....................     
....................    return; 
04AD4:  RETURN 0
.................... } 
....................  
.................... void SAVE_ADCS_INITIAL_and_FINAL(int32 ADDRESS) 
.................... { 
....................    output_low(PIN_C4); 
*
0919E:  BCF    F94.4
091A0:  BCF    F8B.4
....................    output_low(PIN_A5); 
091A2:  BCF    F92.5
091A4:  BCF    F89.5
....................    for(int i = 0; i < 90; i++)//put initial 90byte(9byte for time + 81byte for MSN) 
091A6:  MOVLB  2
091A8:  CLRF   xB7
091AA:  MOVF   xB7,W
091AC:  SUBLW  59
091AE:  BNC   9216
....................    { 
....................       WRITE_DATA_BYTE_OF(ADCS_SENSOR_ADDRESS+i,READ_DATA_BYTE_OF(ADDRESS+i)); 
091B0:  MOVF   xB7,W
091B2:  ADDWF  4F,W
091B4:  MOVWF  xB8
091B6:  MOVLW  00
091B8:  ADDWFC 50,W
091BA:  MOVWF  xB9
091BC:  MOVLW  00
091BE:  ADDWFC 51,W
091C0:  MOVWF  xBA
091C2:  MOVLW  00
091C4:  ADDWFC 52,W
091C6:  MOVWF  xBB
091C8:  MOVF   xB7,W
091CA:  ADDWF  xB3,W
091CC:  MOVWF  xBC
091CE:  MOVLW  00
091D0:  ADDWFC xB4,W
091D2:  MOVWF  xBD
091D4:  MOVLW  00
091D6:  ADDWFC xB5,W
091D8:  MOVWF  xBE
091DA:  MOVLW  00
091DC:  ADDWFC xB6,W
091DE:  MOVWF  xBF
091E0:  MOVWF  xDC
091E2:  MOVFF  2BE,2DB
091E6:  MOVFF  2BD,2DA
091EA:  MOVFF  2BC,2D9
091EE:  MOVLB  0
091F0:  CALL   0DBE
091F4:  MOVFF  01,2BC
091F8:  MOVFF  2BB,2D6
091FC:  MOVFF  2BA,2D5
09200:  MOVFF  2B9,2D4
09204:  MOVFF  2B8,2D3
09208:  MOVFF  01,2D7
0920C:  CALL   1080
09210:  MOVLB  2
09212:  INCF   xB7,F
09214:  BRA    91AA
....................    } 
....................    for(i = 0; i < 90; i++)//put initial 90byte(9byte for time + 81byte for MSN) 
09216:  CLRF   xB7
09218:  MOVF   xB7,W
0921A:  SUBLW  59
0921C:  BNC   9284
....................    { 
....................       WRITE_DATA_BYTE_SCF(ADCS_SENSOR_ADDRESS+i,READ_DATA_BYTE_OF(ADDRESS+i)); 
0921E:  MOVF   xB7,W
09220:  ADDWF  4F,W
09222:  MOVWF  xB8
09224:  MOVLW  00
09226:  ADDWFC 50,W
09228:  MOVWF  xB9
0922A:  MOVLW  00
0922C:  ADDWFC 51,W
0922E:  MOVWF  xBA
09230:  MOVLW  00
09232:  ADDWFC 52,W
09234:  MOVWF  xBB
09236:  MOVF   xB7,W
09238:  ADDWF  xB3,W
0923A:  MOVWF  xBC
0923C:  MOVLW  00
0923E:  ADDWFC xB4,W
09240:  MOVWF  xBD
09242:  MOVLW  00
09244:  ADDWFC xB5,W
09246:  MOVWF  xBE
09248:  MOVLW  00
0924A:  ADDWFC xB6,W
0924C:  MOVWF  xBF
0924E:  MOVWF  xDC
09250:  MOVFF  2BE,2DB
09254:  MOVFF  2BD,2DA
09258:  MOVFF  2BC,2D9
0925C:  MOVLB  0
0925E:  CALL   0DBE
09262:  MOVFF  01,2BC
09266:  MOVFF  2BB,2D6
0926A:  MOVFF  2BA,2D5
0926E:  MOVFF  2B9,2D4
09272:  MOVFF  2B8,2D3
09276:  MOVFF  01,2D7
0927A:  CALL   110C
0927E:  MOVLB  2
09280:  INCF   xB7,F
09282:  BRA    9218
....................    } 
....................    for(i = 0; i < 90; i++)//put initial 90byte(9byte for time + 81byte for MSN) 
09284:  CLRF   xB7
09286:  MOVF   xB7,W
09288:  SUBLW  59
0928A:  BNC   92F2
....................    { 
....................       WRITE_DATA_BYTE_SMF(ADCS_SENSOR_ADDRESS+i,READ_DATA_BYTE_OF(ADDRESS+i)); 
0928C:  MOVF   xB7,W
0928E:  ADDWF  4F,W
09290:  MOVWF  xB8
09292:  MOVLW  00
09294:  ADDWFC 50,W
09296:  MOVWF  xB9
09298:  MOVLW  00
0929A:  ADDWFC 51,W
0929C:  MOVWF  xBA
0929E:  MOVLW  00
092A0:  ADDWFC 52,W
092A2:  MOVWF  xBB
092A4:  MOVF   xB7,W
092A6:  ADDWF  xB3,W
092A8:  MOVWF  xBC
092AA:  MOVLW  00
092AC:  ADDWFC xB4,W
092AE:  MOVWF  xBD
092B0:  MOVLW  00
092B2:  ADDWFC xB5,W
092B4:  MOVWF  xBE
092B6:  MOVLW  00
092B8:  ADDWFC xB6,W
092BA:  MOVWF  xBF
092BC:  MOVWF  xDC
092BE:  MOVFF  2BE,2DB
092C2:  MOVFF  2BD,2DA
092C6:  MOVFF  2BC,2D9
092CA:  MOVLB  0
092CC:  CALL   0DBE
092D0:  MOVFF  01,2BC
092D4:  MOVFF  2BB,2D6
092D8:  MOVFF  2BA,2D5
092DC:  MOVFF  2B9,2D4
092E0:  MOVFF  2B8,2D3
092E4:  MOVFF  01,2D7
092E8:  CALL   1198
092EC:  MOVLB  2
092EE:  INCF   xB7,F
092F0:  BRA    9286
....................    } 
....................     
....................    ADCS_SENSOR_ADDRESS = ADCS_SENSOR_ADDRESS + 90; 
092F2:  MOVLW  5A
092F4:  ADDWF  4F,F
092F6:  MOVLW  00
092F8:  ADDWFC 50,F
092FA:  ADDWFC 51,F
092FC:  ADDWFC 52,F
....................     
....................    for(i = 0; i < 81; i++)//put final 81 byte 
092FE:  CLRF   xB7
09300:  MOVF   xB7,W
09302:  SUBLW  50
09304:  BNC   937A
....................    { 
....................       WRITE_DATA_BYTE_OF(ADCS_SENSOR_ADDRESS+i,READ_DATA_BYTE_OF(ADCS_SENSOR_ADDRESS-171+i)); 
09306:  MOVF   xB7,W
09308:  ADDWF  4F,W
0930A:  MOVWF  xB8
0930C:  MOVLW  00
0930E:  ADDWFC 50,W
09310:  MOVWF  xB9
09312:  MOVLW  00
09314:  ADDWFC 51,W
09316:  MOVWF  xBA
09318:  MOVLW  00
0931A:  ADDWFC 52,W
0931C:  MOVWF  xBB
0931E:  MOVLW  AB
09320:  SUBWF  4F,W
09322:  MOVWF  xBC
09324:  MOVLW  00
09326:  SUBWFB 50,W
09328:  MOVWF  xBD
0932A:  MOVLW  00
0932C:  SUBWFB 51,W
0932E:  MOVWF  xBE
09330:  MOVLW  00
09332:  SUBWFB 52,W
09334:  MOVWF  xBF
09336:  MOVF   xB7,W
09338:  ADDWF  xBC,F
0933A:  MOVLW  00
0933C:  ADDWFC xBD,F
0933E:  ADDWFC xBE,F
09340:  ADDWFC xBF,F
09342:  MOVFF  2BF,2DC
09346:  MOVFF  2BE,2DB
0934A:  MOVFF  2BD,2DA
0934E:  MOVFF  2BC,2D9
09352:  MOVLB  0
09354:  CALL   0DBE
09358:  MOVFF  01,2BC
0935C:  MOVFF  2BB,2D6
09360:  MOVFF  2BA,2D5
09364:  MOVFF  2B9,2D4
09368:  MOVFF  2B8,2D3
0936C:  MOVFF  01,2D7
09370:  CALL   1080
09374:  MOVLB  2
09376:  INCF   xB7,F
09378:  BRA    9300
....................    } 
....................    for(i = 0; i < 81; i++)//put final 81 byte 
0937A:  CLRF   xB7
0937C:  MOVF   xB7,W
0937E:  SUBLW  50
09380:  BNC   93F6
....................    { 
....................       WRITE_DATA_BYTE_SCF(ADCS_SENSOR_ADDRESS+i,READ_DATA_BYTE_OF(ADCS_SENSOR_ADDRESS-171+i)); 
09382:  MOVF   xB7,W
09384:  ADDWF  4F,W
09386:  MOVWF  xB8
09388:  MOVLW  00
0938A:  ADDWFC 50,W
0938C:  MOVWF  xB9
0938E:  MOVLW  00
09390:  ADDWFC 51,W
09392:  MOVWF  xBA
09394:  MOVLW  00
09396:  ADDWFC 52,W
09398:  MOVWF  xBB
0939A:  MOVLW  AB
0939C:  SUBWF  4F,W
0939E:  MOVWF  xBC
093A0:  MOVLW  00
093A2:  SUBWFB 50,W
093A4:  MOVWF  xBD
093A6:  MOVLW  00
093A8:  SUBWFB 51,W
093AA:  MOVWF  xBE
093AC:  MOVLW  00
093AE:  SUBWFB 52,W
093B0:  MOVWF  xBF
093B2:  MOVF   xB7,W
093B4:  ADDWF  xBC,F
093B6:  MOVLW  00
093B8:  ADDWFC xBD,F
093BA:  ADDWFC xBE,F
093BC:  ADDWFC xBF,F
093BE:  MOVFF  2BF,2DC
093C2:  MOVFF  2BE,2DB
093C6:  MOVFF  2BD,2DA
093CA:  MOVFF  2BC,2D9
093CE:  MOVLB  0
093D0:  CALL   0DBE
093D4:  MOVFF  01,2BC
093D8:  MOVFF  2BB,2D6
093DC:  MOVFF  2BA,2D5
093E0:  MOVFF  2B9,2D4
093E4:  MOVFF  2B8,2D3
093E8:  MOVFF  01,2D7
093EC:  CALL   110C
093F0:  MOVLB  2
093F2:  INCF   xB7,F
093F4:  BRA    937C
....................    } 
....................    for(i = 0; i < 81; i++)//put final 81 byte 
093F6:  CLRF   xB7
093F8:  MOVF   xB7,W
093FA:  SUBLW  50
093FC:  BNC   9472
....................    { 
....................       WRITE_DATA_BYTE_SMF(ADCS_SENSOR_ADDRESS+i,READ_DATA_BYTE_OF(ADCS_SENSOR_ADDRESS-171+i)); 
093FE:  MOVF   xB7,W
09400:  ADDWF  4F,W
09402:  MOVWF  xB8
09404:  MOVLW  00
09406:  ADDWFC 50,W
09408:  MOVWF  xB9
0940A:  MOVLW  00
0940C:  ADDWFC 51,W
0940E:  MOVWF  xBA
09410:  MOVLW  00
09412:  ADDWFC 52,W
09414:  MOVWF  xBB
09416:  MOVLW  AB
09418:  SUBWF  4F,W
0941A:  MOVWF  xBC
0941C:  MOVLW  00
0941E:  SUBWFB 50,W
09420:  MOVWF  xBD
09422:  MOVLW  00
09424:  SUBWFB 51,W
09426:  MOVWF  xBE
09428:  MOVLW  00
0942A:  SUBWFB 52,W
0942C:  MOVWF  xBF
0942E:  MOVF   xB7,W
09430:  ADDWF  xBC,F
09432:  MOVLW  00
09434:  ADDWFC xBD,F
09436:  ADDWFC xBE,F
09438:  ADDWFC xBF,F
0943A:  MOVFF  2BF,2DC
0943E:  MOVFF  2BE,2DB
09442:  MOVFF  2BD,2DA
09446:  MOVFF  2BC,2D9
0944A:  MOVLB  0
0944C:  CALL   0DBE
09450:  MOVFF  01,2BC
09454:  MOVFF  2BB,2D6
09458:  MOVFF  2BA,2D5
0945C:  MOVFF  2B9,2D4
09460:  MOVFF  2B8,2D3
09464:  MOVFF  01,2D7
09468:  CALL   1198
0946C:  MOVLB  2
0946E:  INCF   xB7,F
09470:  BRA    93F8
....................    } 
....................    ADCS_SENSOR_ADDRESS = ADCS_SENSOR_ADDRESS + 81; 
09472:  MOVLW  51
09474:  ADDWF  4F,F
09476:  MOVLW  00
09478:  ADDWFC 50,F
0947A:  ADDWFC 51,F
0947C:  ADDWFC 52,F
....................    output_high(PIN_C4); 
0947E:  BCF    F94.4
09480:  BSF    F8B.4
....................    return; 
09482:  MOVLB  0
09484:  GOTO   9658 (RETURN)
.................... } 
....................  
.................... void GET_INITIAL_TIME() 
.................... { 
....................    COLLECT_RESET_DATA(); 
*
08628:  CALL   15BA
....................     
....................    WRITE_DATA_BYTE_OF(ADCS_SENSOR_ADDRESS,0xdd);//header 
0862C:  MOVFF  52,2D6
08630:  MOVFF  51,2D5
08634:  MOVFF  50,2D4
08638:  MOVFF  4F,2D3
0863C:  MOVLW  DD
0863E:  MOVLB  2
08640:  MOVWF  xD7
08642:  MOVLB  0
08644:  CALL   1080
....................    WRITE_DATA_BYTE_OF(ADCS_SENSOR_ADDRESS + 1,0xdd);//header 
08648:  MOVLW  01
0864A:  ADDWF  4F,W
0864C:  MOVLB  2
0864E:  MOVWF  xB4
08650:  MOVLW  00
08652:  ADDWFC 50,W
08654:  MOVWF  xB5
08656:  MOVLW  00
08658:  ADDWFC 51,W
0865A:  MOVWF  xB6
0865C:  MOVLW  00
0865E:  ADDWFC 52,W
08660:  MOVWF  xB7
08662:  MOVWF  xD6
08664:  MOVFF  2B6,2D5
08668:  MOVFF  2B5,2D4
0866C:  MOVFF  2B4,2D3
08670:  MOVLW  DD
08672:  MOVWF  xD7
08674:  MOVLB  0
08676:  CALL   1080
....................    for(int i = 1; i < 6; i++){ 
0867A:  MOVLW  01
0867C:  MOVLB  2
0867E:  MOVWF  xB3
08680:  MOVF   xB3,W
08682:  SUBLW  05
08684:  BNC   86D8
....................       WRITE_DATA_BYTE_OF(ADCS_SENSOR_ADDRESS+1+i,reset_bffr[i]); 
08686:  MOVLW  01
08688:  ADDWF  4F,W
0868A:  MOVWF  xB4
0868C:  MOVLW  00
0868E:  ADDWFC 50,W
08690:  MOVWF  xB5
08692:  MOVLW  00
08694:  ADDWFC 51,W
08696:  MOVWF  xB6
08698:  MOVLW  00
0869A:  ADDWFC 52,W
0869C:  MOVWF  xB7
0869E:  MOVF   xB3,W
086A0:  ADDWF  xB4,F
086A2:  MOVLW  00
086A4:  ADDWFC xB5,F
086A6:  ADDWFC xB6,F
086A8:  ADDWFC xB7,F
086AA:  CLRF   03
086AC:  MOVF   xB3,W
086AE:  ADDLW  E0
086B0:  MOVWF  FE9
086B2:  MOVLW  00
086B4:  ADDWFC 03,W
086B6:  MOVWF  FEA
086B8:  MOVFF  FEF,2D7
086BC:  MOVFF  2B7,2D6
086C0:  MOVFF  2B6,2D5
086C4:  MOVFF  2B5,2D4
086C8:  MOVFF  2B4,2D3
086CC:  MOVLB  0
086CE:  CALL   1080
086D2:  MOVLB  2
086D4:  INCF   xB3,F
086D6:  BRA    8680
....................    } 
....................    WRITE_DATA_BYTE_OF(ADCS_SENSOR_ADDRESS + 7,0xdd);//footer 
086D8:  MOVLW  07
086DA:  ADDWF  4F,W
086DC:  MOVWF  xB4
086DE:  MOVLW  00
086E0:  ADDWFC 50,W
086E2:  MOVWF  xB5
086E4:  MOVLW  00
086E6:  ADDWFC 51,W
086E8:  MOVWF  xB6
086EA:  MOVLW  00
086EC:  ADDWFC 52,W
086EE:  MOVWF  xB7
086F0:  MOVWF  xD6
086F2:  MOVFF  2B6,2D5
086F6:  MOVFF  2B5,2D4
086FA:  MOVFF  2B4,2D3
086FE:  MOVLW  DD
08700:  MOVWF  xD7
08702:  MOVLB  0
08704:  CALL   1080
....................    WRITE_DATA_BYTE_OF(ADCS_SENSOR_ADDRESS + 8,0xdd);//footer 
08708:  MOVLW  08
0870A:  ADDWF  4F,W
0870C:  MOVLB  2
0870E:  MOVWF  xB4
08710:  MOVLW  00
08712:  ADDWFC 50,W
08714:  MOVWF  xB5
08716:  MOVLW  00
08718:  ADDWFC 51,W
0871A:  MOVWF  xB6
0871C:  MOVLW  00
0871E:  ADDWFC 52,W
08720:  MOVWF  xB7
08722:  MOVWF  xD6
08724:  MOVFF  2B6,2D5
08728:  MOVFF  2B5,2D4
0872C:  MOVFF  2B4,2D3
08730:  MOVLW  DD
08732:  MOVWF  xD7
08734:  MOVLB  0
08736:  CALL   1080
....................     
....................    output_low(PIN_C4);//COM_MUX MAINSIDE 
0873A:  BCF    F94.4
0873C:  BCF    F8B.4
....................    WRITE_DATA_BYTE_SCF(ADCS_SENSOR_ADDRESS,0xdd);//header 
0873E:  MOVFF  52,2D6
08742:  MOVFF  51,2D5
08746:  MOVFF  50,2D4
0874A:  MOVFF  4F,2D3
0874E:  MOVLW  DD
08750:  MOVLB  2
08752:  MOVWF  xD7
08754:  MOVLB  0
08756:  CALL   110C
....................    WRITE_DATA_BYTE_SCF(ADCS_SENSOR_ADDRESS + 1,0xdd);//header 
0875A:  MOVLW  01
0875C:  ADDWF  4F,W
0875E:  MOVLB  2
08760:  MOVWF  xB4
08762:  MOVLW  00
08764:  ADDWFC 50,W
08766:  MOVWF  xB5
08768:  MOVLW  00
0876A:  ADDWFC 51,W
0876C:  MOVWF  xB6
0876E:  MOVLW  00
08770:  ADDWFC 52,W
08772:  MOVWF  xB7
08774:  MOVWF  xD6
08776:  MOVFF  2B6,2D5
0877A:  MOVFF  2B5,2D4
0877E:  MOVFF  2B4,2D3
08782:  MOVLW  DD
08784:  MOVWF  xD7
08786:  MOVLB  0
08788:  CALL   110C
....................    for(i = 1; i < 6; i++){ 
0878C:  MOVLW  01
0878E:  MOVLB  2
08790:  MOVWF  xB3
08792:  MOVF   xB3,W
08794:  SUBLW  05
08796:  BNC   87EA
....................       WRITE_DATA_BYTE_SCF(ADCS_SENSOR_ADDRESS+1+i,reset_bffr[i]); 
08798:  MOVLW  01
0879A:  ADDWF  4F,W
0879C:  MOVWF  xB4
0879E:  MOVLW  00
087A0:  ADDWFC 50,W
087A2:  MOVWF  xB5
087A4:  MOVLW  00
087A6:  ADDWFC 51,W
087A8:  MOVWF  xB6
087AA:  MOVLW  00
087AC:  ADDWFC 52,W
087AE:  MOVWF  xB7
087B0:  MOVF   xB3,W
087B2:  ADDWF  xB4,F
087B4:  MOVLW  00
087B6:  ADDWFC xB5,F
087B8:  ADDWFC xB6,F
087BA:  ADDWFC xB7,F
087BC:  CLRF   03
087BE:  MOVF   xB3,W
087C0:  ADDLW  E0
087C2:  MOVWF  FE9
087C4:  MOVLW  00
087C6:  ADDWFC 03,W
087C8:  MOVWF  FEA
087CA:  MOVFF  FEF,2D7
087CE:  MOVFF  2B7,2D6
087D2:  MOVFF  2B6,2D5
087D6:  MOVFF  2B5,2D4
087DA:  MOVFF  2B4,2D3
087DE:  MOVLB  0
087E0:  CALL   110C
087E4:  MOVLB  2
087E6:  INCF   xB3,F
087E8:  BRA    8792
....................    } 
....................    WRITE_DATA_BYTE_SCF(ADCS_SENSOR_ADDRESS + 7,0xdd);//footer 
087EA:  MOVLW  07
087EC:  ADDWF  4F,W
087EE:  MOVWF  xB4
087F0:  MOVLW  00
087F2:  ADDWFC 50,W
087F4:  MOVWF  xB5
087F6:  MOVLW  00
087F8:  ADDWFC 51,W
087FA:  MOVWF  xB6
087FC:  MOVLW  00
087FE:  ADDWFC 52,W
08800:  MOVWF  xB7
08802:  MOVWF  xD6
08804:  MOVFF  2B6,2D5
08808:  MOVFF  2B5,2D4
0880C:  MOVFF  2B4,2D3
08810:  MOVLW  DD
08812:  MOVWF  xD7
08814:  MOVLB  0
08816:  CALL   110C
....................    WRITE_DATA_BYTE_SCF(ADCS_SENSOR_ADDRESS + 8,0xdd);//footer 
0881A:  MOVLW  08
0881C:  ADDWF  4F,W
0881E:  MOVLB  2
08820:  MOVWF  xB4
08822:  MOVLW  00
08824:  ADDWFC 50,W
08826:  MOVWF  xB5
08828:  MOVLW  00
0882A:  ADDWFC 51,W
0882C:  MOVWF  xB6
0882E:  MOVLW  00
08830:  ADDWFC 52,W
08832:  MOVWF  xB7
08834:  MOVWF  xD6
08836:  MOVFF  2B6,2D5
0883A:  MOVFF  2B5,2D4
0883E:  MOVFF  2B4,2D3
08842:  MOVLW  DD
08844:  MOVWF  xD7
08846:  MOVLB  0
08848:  CALL   110C
....................    output_high(PIN_C4); 
0884C:  BCF    F94.4
0884E:  BSF    F8B.4
....................     
....................    output_low(PIN_A5);//CAM_MUX MAINSIDE 
08850:  BCF    F92.5
08852:  BCF    F89.5
....................    WRITE_DATA_BYTE_SMF(ADCS_SENSOR_ADDRESS,0xdd);//heade 
08854:  MOVFF  52,2D6
08858:  MOVFF  51,2D5
0885C:  MOVFF  50,2D4
08860:  MOVFF  4F,2D3
08864:  MOVLW  DD
08866:  MOVLB  2
08868:  MOVWF  xD7
0886A:  MOVLB  0
0886C:  CALL   1198
....................    WRITE_DATA_BYTE_SMF(ADCS_SENSOR_ADDRESS + 1,0xdd);//header 
08870:  MOVLW  01
08872:  ADDWF  4F,W
08874:  MOVLB  2
08876:  MOVWF  xB4
08878:  MOVLW  00
0887A:  ADDWFC 50,W
0887C:  MOVWF  xB5
0887E:  MOVLW  00
08880:  ADDWFC 51,W
08882:  MOVWF  xB6
08884:  MOVLW  00
08886:  ADDWFC 52,W
08888:  MOVWF  xB7
0888A:  MOVWF  xD6
0888C:  MOVFF  2B6,2D5
08890:  MOVFF  2B5,2D4
08894:  MOVFF  2B4,2D3
08898:  MOVLW  DD
0889A:  MOVWF  xD7
0889C:  MOVLB  0
0889E:  CALL   1198
....................    for(i = 1; i < 6; i++){ 
088A2:  MOVLW  01
088A4:  MOVLB  2
088A6:  MOVWF  xB3
088A8:  MOVF   xB3,W
088AA:  SUBLW  05
088AC:  BNC   8900
....................       WRITE_DATA_BYTE_SMF(ADCS_SENSOR_ADDRESS+1+i,reset_bffr[i]); 
088AE:  MOVLW  01
088B0:  ADDWF  4F,W
088B2:  MOVWF  xB4
088B4:  MOVLW  00
088B6:  ADDWFC 50,W
088B8:  MOVWF  xB5
088BA:  MOVLW  00
088BC:  ADDWFC 51,W
088BE:  MOVWF  xB6
088C0:  MOVLW  00
088C2:  ADDWFC 52,W
088C4:  MOVWF  xB7
088C6:  MOVF   xB3,W
088C8:  ADDWF  xB4,F
088CA:  MOVLW  00
088CC:  ADDWFC xB5,F
088CE:  ADDWFC xB6,F
088D0:  ADDWFC xB7,F
088D2:  CLRF   03
088D4:  MOVF   xB3,W
088D6:  ADDLW  E0
088D8:  MOVWF  FE9
088DA:  MOVLW  00
088DC:  ADDWFC 03,W
088DE:  MOVWF  FEA
088E0:  MOVFF  FEF,2D7
088E4:  MOVFF  2B7,2D6
088E8:  MOVFF  2B6,2D5
088EC:  MOVFF  2B5,2D4
088F0:  MOVFF  2B4,2D3
088F4:  MOVLB  0
088F6:  CALL   1198
088FA:  MOVLB  2
088FC:  INCF   xB3,F
088FE:  BRA    88A8
....................    } 
....................    WRITE_DATA_BYTE_SMF(ADCS_SENSOR_ADDRESS + 7,0xdd);//footer 
08900:  MOVLW  07
08902:  ADDWF  4F,W
08904:  MOVWF  xB4
08906:  MOVLW  00
08908:  ADDWFC 50,W
0890A:  MOVWF  xB5
0890C:  MOVLW  00
0890E:  ADDWFC 51,W
08910:  MOVWF  xB6
08912:  MOVLW  00
08914:  ADDWFC 52,W
08916:  MOVWF  xB7
08918:  MOVWF  xD6
0891A:  MOVFF  2B6,2D5
0891E:  MOVFF  2B5,2D4
08922:  MOVFF  2B4,2D3
08926:  MOVLW  DD
08928:  MOVWF  xD7
0892A:  MOVLB  0
0892C:  CALL   1198
....................    WRITE_DATA_BYTE_SMF(ADCS_SENSOR_ADDRESS + 8,0xdd);//footer 
08930:  MOVLW  08
08932:  ADDWF  4F,W
08934:  MOVLB  2
08936:  MOVWF  xB4
08938:  MOVLW  00
0893A:  ADDWFC 50,W
0893C:  MOVWF  xB5
0893E:  MOVLW  00
08940:  ADDWFC 51,W
08942:  MOVWF  xB6
08944:  MOVLW  00
08946:  ADDWFC 52,W
08948:  MOVWF  xB7
0894A:  MOVWF  xD6
0894C:  MOVFF  2B6,2D5
08950:  MOVFF  2B5,2D4
08954:  MOVFF  2B4,2D3
08958:  MOVLW  DD
0895A:  MOVWF  xD7
0895C:  MOVLB  0
0895E:  CALL   1198
....................     
....................    ADCS_SENSOR_ADDRESS = ADCS_SENSOR_ADDRESS + 9;//total 9byte for time info 
08962:  MOVLW  09
08964:  ADDWF  4F,F
08966:  MOVLW  00
08968:  ADDWFC 50,F
0896A:  ADDWFC 51,F
0896C:  ADDWFC 52,F
....................    //5 byte time info and 2 byte header and 2 byte footer 
....................    return; 
0896E:  GOTO   94AA (RETURN)
.................... } 
....................  
.................... //@@@@@@@@@@@@@@@@@@@@@@@@@@@@@@@@@@@@@@@@@@@@@@@@@@@@@@@@@@@@@@@@@@@@@@@@@@@@@@@@@@@@@@@@@@@@@@@@@@@@@@@@@@ 
.................... void GET_ADCS_MSN_DATA() 
*
08A60:  MOVLW  01
08A62:  MOVLB  2
08A64:  MOVWF  xB3
.................... { 
....................    int a = 1; 
....................    if(kbhit(ADCS)&&fgetc(ADCS) == 0x57) 
08A66:  BTFSC  F85.6
08A68:  BRA    919A
08A6A:  MOVLB  0
08A6C:  CALL   3798
08A70:  MOVF   01,W
08A72:  SUBLW  57
08A74:  BTFSC  FD8.2
08A76:  BRA    8A7C
08A78:  MOVLB  2
08A7A:  BRA    919A
....................    { 
....................       for(int32 n= 0; n < 300000; n++) 
08A7C:  MOVLB  2
08A7E:  CLRF   xB7
08A80:  CLRF   xB6
08A82:  CLRF   xB5
08A84:  CLRF   xB4
08A86:  MOVF   xB7,F
08A88:  BNZ   8AEA
08A8A:  MOVF   xB6,W
08A8C:  SUBLW  04
08A8E:  BNC   8AEA
08A90:  BNZ   8AA0
08A92:  MOVF   xB5,W
08A94:  SUBLW  93
08A96:  BNC   8AEA
08A98:  BNZ   8AA0
08A9A:  MOVF   xB4,W
08A9C:  SUBLW  DF
08A9E:  BNC   8AEA
....................       { 
....................          if(kbhit(ADCS)) 
08AA0:  BTFSC  F85.6
08AA2:  BRA    8AD0
....................          { 
....................             ADCS_SENSOR_DATA[a] = fgetc(ADCS);//[1] to [72] 
08AA4:  CLRF   03
08AA6:  MOVF   xB3,W
08AA8:  ADDLW  8F
08AAA:  MOVWF  FE9
08AAC:  MOVLW  00
08AAE:  ADDWFC 03,W
08AB0:  MOVWF  FEA
08AB2:  MOVFF  FEA,2BE
08AB6:  MOVFF  FE9,2BD
08ABA:  MOVLB  0
08ABC:  CALL   3798
08AC0:  MOVFF  2BE,FEA
08AC4:  MOVFF  2BD,FE9
08AC8:  MOVFF  01,FEF
....................             a++;//after input everything, a = 73 
08ACC:  MOVLB  2
08ACE:  INCF   xB3,F
....................          } 
....................          if(a == 73) 
08AD0:  MOVF   xB3,W
08AD2:  SUBLW  49
08AD4:  BNZ   8AD8
....................          { 
....................             break; 
08AD6:  BRA    8AEA
....................          } 
08AD8:  MOVLW  01
08ADA:  ADDWF  xB4,F
08ADC:  BTFSC  FD8.0
08ADE:  INCF   xB5,F
08AE0:  BTFSC  FD8.2
08AE2:  INCF   xB6,F
08AE4:  BTFSC  FD8.2
08AE6:  INCF   xB7,F
08AE8:  BRA    8A86
....................       } 
....................       for(int i = 76; i > 70 ; i--)//6 byte [76] to [70] --> Duty XYZ 
08AEA:  MOVLW  4C
08AEC:  MOVWF  xB8
08AEE:  MOVF   xB8,W
08AF0:  SUBLW  46
08AF2:  BC    8B28
....................       { 
....................          ADCS_SENSOR_DATA[i] = ADCS_SENSOR_DATA[i-4];//ADCS_SENSOR_DATA[76] is ADCS_SENSOR_DATA[72] 
08AF4:  CLRF   03
08AF6:  MOVF   xB8,W
08AF8:  ADDLW  8F
08AFA:  MOVWF  01
08AFC:  MOVLW  00
08AFE:  ADDWFC 03,F
08B00:  MOVFF  03,2BC
08B04:  MOVLW  04
08B06:  SUBWF  xB8,W
08B08:  CLRF   03
08B0A:  ADDLW  8F
08B0C:  MOVWF  FE9
08B0E:  MOVLW  00
08B10:  ADDWFC 03,W
08B12:  MOVWF  FEA
08B14:  MOVFF  FEF,2BD
08B18:  MOVFF  2BC,FEA
08B1C:  MOVFF  01,FE9
08B20:  MOVFF  2BD,FEF
08B24:  DECF   xB8,F
08B26:  BRA    8AEE
....................       } 
....................       for(i = 68; i > 20 ; i--)//48 byte [68] to [21] --> GPS 
08B28:  MOVLW  44
08B2A:  MOVWF  xB8
08B2C:  MOVF   xB8,W
08B2E:  SUBLW  14
08B30:  BC    8B66
....................       { 
....................          ADCS_SENSOR_DATA[i] = ADCS_SENSOR_DATA[i-2];//ADCS_SENSOR_DATA[68] is ADCS_SENSOR_DATA[66] 
08B32:  CLRF   03
08B34:  MOVF   xB8,W
08B36:  ADDLW  8F
08B38:  MOVWF  01
08B3A:  MOVLW  00
08B3C:  ADDWFC 03,F
08B3E:  MOVFF  03,2BC
08B42:  MOVLW  02
08B44:  SUBWF  xB8,W
08B46:  CLRF   03
08B48:  ADDLW  8F
08B4A:  MOVWF  FE9
08B4C:  MOVLW  00
08B4E:  ADDWFC 03,W
08B50:  MOVWF  FEA
08B52:  MOVFF  FEF,2BD
08B56:  MOVFF  2BC,FEA
08B5A:  MOVFF  01,FE9
08B5E:  MOVFF  2BD,FEF
08B62:  DECF   xB8,F
08B64:  BRA    8B2C
....................       } 
....................           
....................       ADCS_SENSOR_DATA[0] = 0x57; 
08B66:  MOVLW  57
08B68:  MOVLB  0
08B6A:  MOVWF  x8F
....................       ADCS_SENSOR_DATA[19] = 0xee; 
08B6C:  MOVLW  EE
08B6E:  MOVWF  xA2
....................       ADCS_SENSOR_DATA[20] = 0xee; 
08B70:  MOVWF  xA3
....................       ADCS_SENSOR_DATA[69] = 0x58; 
08B72:  MOVLW  58
08B74:  MOVWF  xD4
....................       ADCS_SENSOR_DATA[70] = 0x58; 
08B76:  MOVWF  xD5
....................       ADCS_SENSOR_DATA[77] = 0x59; 
08B78:  MOVLW  59
08B7A:  MOVWF  xDC
....................              
....................       int8 a = (int8)(currenttime >> 8); 
....................       int8 b = (int8)(currenttime); 
08B7C:  MOVLB  1
08B7E:  MOVF   x53,W
08B80:  MOVLB  2
08B82:  MOVWF  xB9
08B84:  MOVFF  152,2BA
....................       output_low(PIN_C4); 
08B88:  BCF    F94.4
08B8A:  BCF    F8B.4
....................       output_low(PIN_A5); 
08B8C:  BCF    F92.5
08B8E:  BCF    F89.5
....................       WRITE_DATA_BYTE_OF(ADCS_SENSOR_ADDRESS,0x56);//header 
08B90:  MOVFF  52,2D6
08B94:  MOVFF  51,2D5
08B98:  MOVFF  50,2D4
08B9C:  MOVFF  4F,2D3
08BA0:  MOVLW  56
08BA2:  MOVWF  xD7
08BA4:  MOVLB  0
08BA6:  CALL   1080
....................       WRITE_DATA_BYTE_SCF(ADCS_SENSOR_ADDRESS,0x56);//header 
08BAA:  MOVFF  52,2D6
08BAE:  MOVFF  51,2D5
08BB2:  MOVFF  50,2D4
08BB6:  MOVFF  4F,2D3
08BBA:  MOVLW  56
08BBC:  MOVLB  2
08BBE:  MOVWF  xD7
08BC0:  MOVLB  0
08BC2:  CALL   110C
....................       WRITE_DATA_BYTE_SMF(ADCS_SENSOR_ADDRESS,0x56);//header 
08BC6:  MOVFF  52,2D6
08BCA:  MOVFF  51,2D5
08BCE:  MOVFF  50,2D4
08BD2:  MOVFF  4F,2D3
08BD6:  MOVLW  56
08BD8:  MOVLB  2
08BDA:  MOVWF  xD7
08BDC:  MOVLB  0
08BDE:  CALL   1198
....................              
....................       WRITE_DATA_BYTE_OF(ADCS_SENSOR_ADDRESS+1,a); 
08BE2:  MOVLW  01
08BE4:  ADDWF  4F,W
08BE6:  MOVLB  2
08BE8:  MOVWF  xBB
08BEA:  MOVLW  00
08BEC:  ADDWFC 50,W
08BEE:  MOVWF  xBC
08BF0:  MOVLW  00
08BF2:  ADDWFC 51,W
08BF4:  MOVWF  xBD
08BF6:  MOVLW  00
08BF8:  ADDWFC 52,W
08BFA:  MOVWF  xBE
08BFC:  MOVWF  xD6
08BFE:  MOVFF  2BD,2D5
08C02:  MOVFF  2BC,2D4
08C06:  MOVFF  2BB,2D3
08C0A:  MOVFF  2B9,2D7
08C0E:  MOVLB  0
08C10:  CALL   1080
....................       WRITE_DATA_BYTE_OF(ADCS_SENSOR_ADDRESS+2,b); 
08C14:  MOVLW  02
08C16:  ADDWF  4F,W
08C18:  MOVLB  2
08C1A:  MOVWF  xBB
08C1C:  MOVLW  00
08C1E:  ADDWFC 50,W
08C20:  MOVWF  xBC
08C22:  MOVLW  00
08C24:  ADDWFC 51,W
08C26:  MOVWF  xBD
08C28:  MOVLW  00
08C2A:  ADDWFC 52,W
08C2C:  MOVWF  xBE
08C2E:  MOVWF  xD6
08C30:  MOVFF  2BD,2D5
08C34:  MOVFF  2BC,2D4
08C38:  MOVFF  2BB,2D3
08C3C:  MOVFF  2BA,2D7
08C40:  MOVLB  0
08C42:  CALL   1080
....................       WRITE_DATA_BYTE_SCF(ADCS_SENSOR_ADDRESS+1,a); 
08C46:  MOVLW  01
08C48:  ADDWF  4F,W
08C4A:  MOVLB  2
08C4C:  MOVWF  xBB
08C4E:  MOVLW  00
08C50:  ADDWFC 50,W
08C52:  MOVWF  xBC
08C54:  MOVLW  00
08C56:  ADDWFC 51,W
08C58:  MOVWF  xBD
08C5A:  MOVLW  00
08C5C:  ADDWFC 52,W
08C5E:  MOVWF  xBE
08C60:  MOVWF  xD6
08C62:  MOVFF  2BD,2D5
08C66:  MOVFF  2BC,2D4
08C6A:  MOVFF  2BB,2D3
08C6E:  MOVFF  2B9,2D7
08C72:  MOVLB  0
08C74:  CALL   110C
....................       WRITE_DATA_BYTE_SCF(ADCS_SENSOR_ADDRESS+2,b); 
08C78:  MOVLW  02
08C7A:  ADDWF  4F,W
08C7C:  MOVLB  2
08C7E:  MOVWF  xBB
08C80:  MOVLW  00
08C82:  ADDWFC 50,W
08C84:  MOVWF  xBC
08C86:  MOVLW  00
08C88:  ADDWFC 51,W
08C8A:  MOVWF  xBD
08C8C:  MOVLW  00
08C8E:  ADDWFC 52,W
08C90:  MOVWF  xBE
08C92:  MOVWF  xD6
08C94:  MOVFF  2BD,2D5
08C98:  MOVFF  2BC,2D4
08C9C:  MOVFF  2BB,2D3
08CA0:  MOVFF  2BA,2D7
08CA4:  MOVLB  0
08CA6:  CALL   110C
....................       WRITE_DATA_BYTE_SMF(ADCS_SENSOR_ADDRESS+1,a); 
08CAA:  MOVLW  01
08CAC:  ADDWF  4F,W
08CAE:  MOVLB  2
08CB0:  MOVWF  xBB
08CB2:  MOVLW  00
08CB4:  ADDWFC 50,W
08CB6:  MOVWF  xBC
08CB8:  MOVLW  00
08CBA:  ADDWFC 51,W
08CBC:  MOVWF  xBD
08CBE:  MOVLW  00
08CC0:  ADDWFC 52,W
08CC2:  MOVWF  xBE
08CC4:  MOVWF  xD6
08CC6:  MOVFF  2BD,2D5
08CCA:  MOVFF  2BC,2D4
08CCE:  MOVFF  2BB,2D3
08CD2:  MOVFF  2B9,2D7
08CD6:  MOVLB  0
08CD8:  CALL   1198
....................       WRITE_DATA_BYTE_SMF(ADCS_SENSOR_ADDRESS+2,b); 
08CDC:  MOVLW  02
08CDE:  ADDWF  4F,W
08CE0:  MOVLB  2
08CE2:  MOVWF  xBB
08CE4:  MOVLW  00
08CE6:  ADDWFC 50,W
08CE8:  MOVWF  xBC
08CEA:  MOVLW  00
08CEC:  ADDWFC 51,W
08CEE:  MOVWF  xBD
08CF0:  MOVLW  00
08CF2:  ADDWFC 52,W
08CF4:  MOVWF  xBE
08CF6:  MOVWF  xD6
08CF8:  MOVFF  2BD,2D5
08CFC:  MOVFF  2BC,2D4
08D00:  MOVFF  2BB,2D3
08D04:  MOVFF  2BA,2D7
08D08:  MOVLB  0
08D0A:  CALL   1198
....................       for(i = 0; i < ADCS_SENSOR_SIZE; i++)// save everything to frash memory 
08D0E:  MOVLB  2
08D10:  CLRF   xB8
08D12:  MOVF   xB8,W
08D14:  SUBLW  4D
08D16:  BNC   8E06
....................       { 
....................          WRITE_DATA_BYTE_OF(ADCS_SENSOR_ADDRESS + 3 + i,ADCS_SENSOR_DATA[i]); 
08D18:  MOVLW  03
08D1A:  ADDWF  4F,W
08D1C:  MOVWF  xBB
08D1E:  MOVLW  00
08D20:  ADDWFC 50,W
08D22:  MOVWF  xBC
08D24:  MOVLW  00
08D26:  ADDWFC 51,W
08D28:  MOVWF  xBD
08D2A:  MOVLW  00
08D2C:  ADDWFC 52,W
08D2E:  MOVWF  xBE
08D30:  MOVF   xB8,W
08D32:  ADDWF  xBB,F
08D34:  MOVLW  00
08D36:  ADDWFC xBC,F
08D38:  ADDWFC xBD,F
08D3A:  ADDWFC xBE,F
08D3C:  CLRF   03
08D3E:  MOVF   xB8,W
08D40:  ADDLW  8F
08D42:  MOVWF  FE9
08D44:  MOVLW  00
08D46:  ADDWFC 03,W
08D48:  MOVWF  FEA
08D4A:  MOVFF  FEF,2D7
08D4E:  MOVFF  2BE,2D6
08D52:  MOVFF  2BD,2D5
08D56:  MOVFF  2BC,2D4
08D5A:  MOVFF  2BB,2D3
08D5E:  MOVLB  0
08D60:  CALL   1080
....................          WRITE_DATA_BYTE_SCF(ADCS_SENSOR_ADDRESS + 3 + i,ADCS_SENSOR_DATA[i]); 
08D64:  MOVLW  03
08D66:  ADDWF  4F,W
08D68:  MOVLB  2
08D6A:  MOVWF  xBB
08D6C:  MOVLW  00
08D6E:  ADDWFC 50,W
08D70:  MOVWF  xBC
08D72:  MOVLW  00
08D74:  ADDWFC 51,W
08D76:  MOVWF  xBD
08D78:  MOVLW  00
08D7A:  ADDWFC 52,W
08D7C:  MOVWF  xBE
08D7E:  MOVF   xB8,W
08D80:  ADDWF  xBB,F
08D82:  MOVLW  00
08D84:  ADDWFC xBC,F
08D86:  ADDWFC xBD,F
08D88:  ADDWFC xBE,F
08D8A:  CLRF   03
08D8C:  MOVF   xB8,W
08D8E:  ADDLW  8F
08D90:  MOVWF  FE9
08D92:  MOVLW  00
08D94:  ADDWFC 03,W
08D96:  MOVWF  FEA
08D98:  MOVFF  FEF,2D7
08D9C:  MOVFF  2BE,2D6
08DA0:  MOVFF  2BD,2D5
08DA4:  MOVFF  2BC,2D4
08DA8:  MOVFF  2BB,2D3
08DAC:  MOVLB  0
08DAE:  CALL   110C
....................          WRITE_DATA_BYTE_SMF(ADCS_SENSOR_ADDRESS + 3 + i,ADCS_SENSOR_DATA[i]); 
08DB2:  MOVLW  03
08DB4:  ADDWF  4F,W
08DB6:  MOVLB  2
08DB8:  MOVWF  xBB
08DBA:  MOVLW  00
08DBC:  ADDWFC 50,W
08DBE:  MOVWF  xBC
08DC0:  MOVLW  00
08DC2:  ADDWFC 51,W
08DC4:  MOVWF  xBD
08DC6:  MOVLW  00
08DC8:  ADDWFC 52,W
08DCA:  MOVWF  xBE
08DCC:  MOVF   xB8,W
08DCE:  ADDWF  xBB,F
08DD0:  MOVLW  00
08DD2:  ADDWFC xBC,F
08DD4:  ADDWFC xBD,F
08DD6:  ADDWFC xBE,F
08DD8:  CLRF   03
08DDA:  MOVF   xB8,W
08DDC:  ADDLW  8F
08DDE:  MOVWF  FE9
08DE0:  MOVLW  00
08DE2:  ADDWFC 03,W
08DE4:  MOVWF  FEA
08DE6:  MOVFF  FEF,2D7
08DEA:  MOVFF  2BE,2D6
08DEE:  MOVFF  2BD,2D5
08DF2:  MOVFF  2BC,2D4
08DF6:  MOVFF  2BB,2D3
08DFA:  MOVLB  0
08DFC:  CALL   1198
08E00:  MOVLB  2
08E02:  INCF   xB8,F
08E04:  BRA    8D12
....................       } 
....................       output_high(PIN_C4); 
08E06:  BCF    F94.4
08E08:  BSF    F8B.4
....................       fprintf(PC,"\r\n%ld,",currenttime); 
08E0A:  MOVLW  0D
08E0C:  BTFSS  F9E.4
08E0E:  BRA    8E0C
08E10:  MOVWF  FAD
08E12:  MOVLW  0A
08E14:  BTFSS  F9E.4
08E16:  BRA    8E14
08E18:  MOVWF  FAD
08E1A:  MOVLW  10
08E1C:  MOVWF  FE9
08E1E:  MOVFF  153,2BC
08E22:  MOVFF  152,2BB
08E26:  MOVLB  0
08E28:  BRA    8972
08E2A:  MOVLW  2C
08E2C:  BTFSS  F9E.4
08E2E:  BRA    8E2C
08E30:  MOVWF  FAD
....................       fprintf(PC,"%x",READ_DATA_BYTE_OF(ADCS_SENSOR_ADDRESS+3)/*ADCS_SENSOR_DATA[i]*/);//ack 
08E32:  MOVLW  03
08E34:  ADDWF  4F,W
08E36:  MOVLB  2
08E38:  MOVWF  xBB
08E3A:  MOVLW  00
08E3C:  ADDWFC 50,W
08E3E:  MOVWF  xBC
08E40:  MOVLW  00
08E42:  ADDWFC 51,W
08E44:  MOVWF  xBD
08E46:  MOVLW  00
08E48:  ADDWFC 52,W
08E4A:  MOVWF  xBE
08E4C:  MOVWF  xDC
08E4E:  MOVFF  2BD,2DB
08E52:  MOVFF  2BC,2DA
08E56:  MOVFF  2BB,2D9
08E5A:  MOVLB  0
08E5C:  CALL   0DBE
08E60:  MOVFF  01,2BB
08E64:  MOVFF  01,2D3
08E68:  MOVLW  57
08E6A:  MOVLB  2
08E6C:  MOVWF  xD4
08E6E:  MOVLB  0
08E70:  CALL   123E
....................       fprintf(PC,","); 
08E74:  MOVLW  2C
08E76:  BTFSS  F9E.4
08E78:  BRA    8E76
08E7A:  MOVWF  FAD
....................              
....................       for(i = 4; i < 22; i++)// show the data-->Magnetometer XYZ, Gyro XYZ, Cur sensor XYZ 
08E7C:  MOVLW  04
08E7E:  MOVLB  2
08E80:  MOVWF  xB8
08E82:  MOVF   xB8,W
08E84:  SUBLW  15
08E86:  BNC   8F2A
....................       { 
....................          fprintf(PC,"%x",READ_DATA_BYTE_OF(ADCS_SENSOR_ADDRESS+i)/*ADCS_SENSOR_DATA[i]*/); 
08E88:  MOVF   xB8,W
08E8A:  ADDWF  4F,W
08E8C:  MOVWF  xBB
08E8E:  MOVLW  00
08E90:  ADDWFC 50,W
08E92:  MOVWF  xBC
08E94:  MOVLW  00
08E96:  ADDWFC 51,W
08E98:  MOVWF  xBD
08E9A:  MOVLW  00
08E9C:  ADDWFC 52,W
08E9E:  MOVWF  xBE
08EA0:  MOVWF  xDC
08EA2:  MOVFF  2BD,2DB
08EA6:  MOVFF  2BC,2DA
08EAA:  MOVFF  2BB,2D9
08EAE:  MOVLB  0
08EB0:  CALL   0DBE
08EB4:  MOVFF  01,2BB
08EB8:  MOVFF  01,2D3
08EBC:  MOVLW  57
08EBE:  MOVLB  2
08EC0:  MOVWF  xD4
08EC2:  MOVLB  0
08EC4:  CALL   123E
....................          i++; 
08EC8:  MOVLB  2
08ECA:  INCF   xB8,F
....................          fprintf(PC,"%x,",READ_DATA_BYTE_OF(ADCS_SENSOR_ADDRESS+i)/*ADCS_SENSOR_DATA[i]*/); 
08ECC:  MOVF   xB8,W
08ECE:  ADDWF  4F,W
08ED0:  MOVWF  xBB
08ED2:  MOVLW  00
08ED4:  ADDWFC 50,W
08ED6:  MOVWF  xBC
08ED8:  MOVLW  00
08EDA:  ADDWFC 51,W
08EDC:  MOVWF  xBD
08EDE:  MOVLW  00
08EE0:  ADDWFC 52,W
08EE2:  MOVWF  xBE
08EE4:  MOVWF  xDC
08EE6:  MOVFF  2BD,2DB
08EEA:  MOVFF  2BC,2DA
08EEE:  MOVFF  2BB,2D9
08EF2:  MOVLB  0
08EF4:  CALL   0DBE
08EF8:  MOVFF  01,2BB
08EFC:  MOVFF  01,2D3
08F00:  MOVLW  57
08F02:  MOVLB  2
08F04:  MOVWF  xD4
08F06:  MOVLB  0
08F08:  CALL   123E
08F0C:  MOVLW  2C
08F0E:  BTFSS  F9E.4
08F10:  BRA    8F0E
08F12:  MOVWF  FAD
....................          ADCS_SENSOR_DATA[i] = 0; 
08F14:  CLRF   03
08F16:  MOVLB  2
08F18:  MOVF   xB8,W
08F1A:  ADDLW  8F
08F1C:  MOVWF  FE9
08F1E:  MOVLW  00
08F20:  ADDWFC 03,W
08F22:  MOVWF  FEA
08F24:  CLRF   FEF
08F26:  INCF   xB8,F
08F28:  BRA    8E82
....................       } 
....................              
....................       fprintf(PC,"%x",READ_DATA_BYTE_OF(ADCS_SENSOR_ADDRESS+22)/*ADCS_SENSOR_DATA[i]*/);//0xEE 
08F2A:  MOVLW  16
08F2C:  ADDWF  4F,W
08F2E:  MOVWF  xBB
08F30:  MOVLW  00
08F32:  ADDWFC 50,W
08F34:  MOVWF  xBC
08F36:  MOVLW  00
08F38:  ADDWFC 51,W
08F3A:  MOVWF  xBD
08F3C:  MOVLW  00
08F3E:  ADDWFC 52,W
08F40:  MOVWF  xBE
08F42:  MOVWF  xDC
08F44:  MOVFF  2BD,2DB
08F48:  MOVFF  2BC,2DA
08F4C:  MOVFF  2BB,2D9
08F50:  MOVLB  0
08F52:  CALL   0DBE
08F56:  MOVFF  01,2BB
08F5A:  MOVFF  01,2D3
08F5E:  MOVLW  57
08F60:  MOVLB  2
08F62:  MOVWF  xD4
08F64:  MOVLB  0
08F66:  CALL   123E
....................       fprintf(PC,"%x",READ_DATA_BYTE_OF(ADCS_SENSOR_ADDRESS+23)/*ADCS_SENSOR_DATA[i]*/);//0xEE 
08F6A:  MOVLW  17
08F6C:  ADDWF  4F,W
08F6E:  MOVLB  2
08F70:  MOVWF  xBB
08F72:  MOVLW  00
08F74:  ADDWFC 50,W
08F76:  MOVWF  xBC
08F78:  MOVLW  00
08F7A:  ADDWFC 51,W
08F7C:  MOVWF  xBD
08F7E:  MOVLW  00
08F80:  ADDWFC 52,W
08F82:  MOVWF  xBE
08F84:  MOVWF  xDC
08F86:  MOVFF  2BD,2DB
08F8A:  MOVFF  2BC,2DA
08F8E:  MOVFF  2BB,2D9
08F92:  MOVLB  0
08F94:  CALL   0DBE
08F98:  MOVFF  01,2BB
08F9C:  MOVFF  01,2D3
08FA0:  MOVLW  57
08FA2:  MOVLB  2
08FA4:  MOVWF  xD4
08FA6:  MOVLB  0
08FA8:  CALL   123E
....................       fprintf(PC,","); 
08FAC:  MOVLW  2C
08FAE:  BTFSS  F9E.4
08FB0:  BRA    8FAE
08FB2:  MOVWF  FAD
....................              
....................       for(i = 24; i < 72; i++)// show the data(GPS)-->48byte 
08FB4:  MOVLW  18
08FB6:  MOVLB  2
08FB8:  MOVWF  xB8
08FBA:  MOVF   xB8,W
08FBC:  SUBLW  47
08FBE:  BNC   9012
....................       { 
....................          //fprintf(PC,"%c",READ_DATA_BYTE_OF(ADCS_SENSOR_ADDRESS+i)/*ADCS_SENSOR_DATA[i]*/); 
....................          fputc(READ_DATA_BYTE_OF(ADCS_SENSOR_ADDRESS+i),PC); 
08FC0:  MOVF   xB8,W
08FC2:  ADDWF  4F,W
08FC4:  MOVWF  xBB
08FC6:  MOVLW  00
08FC8:  ADDWFC 50,W
08FCA:  MOVWF  xBC
08FCC:  MOVLW  00
08FCE:  ADDWFC 51,W
08FD0:  MOVWF  xBD
08FD2:  MOVLW  00
08FD4:  ADDWFC 52,W
08FD6:  MOVWF  xBE
08FD8:  MOVFF  2BE,2DC
08FDC:  MOVFF  2BD,2DB
08FE0:  MOVFF  2BC,2DA
08FE4:  MOVFF  2BB,2D9
08FE8:  MOVLB  0
08FEA:  CALL   0DBE
08FEE:  MOVFF  01,2BB
08FF2:  MOVLB  2
08FF4:  MOVF   xBB,W
08FF6:  MOVLB  0
08FF8:  CALL   3446
....................          ADCS_SENSOR_DATA[i] = 0; 
08FFC:  CLRF   03
08FFE:  MOVLB  2
09000:  MOVF   xB8,W
09002:  ADDLW  8F
09004:  MOVWF  FE9
09006:  MOVLW  00
09008:  ADDWFC 03,W
0900A:  MOVWF  FEA
0900C:  CLRF   FEF
0900E:  INCF   xB8,F
09010:  BRA    8FBA
....................       } 
....................              
....................       fprintf(PC,","); 
09012:  MOVLW  2C
09014:  BTFSS  F9E.4
09016:  BRA    9014
09018:  MOVWF  FAD
....................       fprintf(PC,"%x",READ_DATA_BYTE_OF(ADCS_SENSOR_ADDRESS+84)/*ADCS_SENSOR_DATA[i]*/);//0x58 
0901A:  MOVLW  54
0901C:  ADDWF  4F,W
0901E:  MOVWF  xBB
09020:  MOVLW  00
09022:  ADDWFC 50,W
09024:  MOVWF  xBC
09026:  MOVLW  00
09028:  ADDWFC 51,W
0902A:  MOVWF  xBD
0902C:  MOVLW  00
0902E:  ADDWFC 52,W
09030:  MOVWF  xBE
09032:  MOVWF  xDC
09034:  MOVFF  2BD,2DB
09038:  MOVFF  2BC,2DA
0903C:  MOVFF  2BB,2D9
09040:  MOVLB  0
09042:  CALL   0DBE
09046:  MOVFF  01,2BB
0904A:  MOVFF  01,2D3
0904E:  MOVLW  57
09050:  MOVLB  2
09052:  MOVWF  xD4
09054:  MOVLB  0
09056:  CALL   123E
....................       fprintf(PC,"%x",READ_DATA_BYTE_OF(ADCS_SENSOR_ADDRESS+85)/*ADCS_SENSOR_DATA[i]*/);//0x58 
0905A:  MOVLW  55
0905C:  ADDWF  4F,W
0905E:  MOVLB  2
09060:  MOVWF  xBB
09062:  MOVLW  00
09064:  ADDWFC 50,W
09066:  MOVWF  xBC
09068:  MOVLW  00
0906A:  ADDWFC 51,W
0906C:  MOVWF  xBD
0906E:  MOVLW  00
09070:  ADDWFC 52,W
09072:  MOVWF  xBE
09074:  MOVWF  xDC
09076:  MOVFF  2BD,2DB
0907A:  MOVFF  2BC,2DA
0907E:  MOVFF  2BB,2D9
09082:  MOVLB  0
09084:  CALL   0DBE
09088:  MOVFF  01,2BB
0908C:  MOVFF  01,2D3
09090:  MOVLW  57
09092:  MOVLB  2
09094:  MOVWF  xD4
09096:  MOVLB  0
09098:  CALL   123E
....................       fprintf(PC,","); 
0909C:  MOVLW  2C
0909E:  BTFSS  F9E.4
090A0:  BRA    909E
090A2:  MOVWF  FAD
....................              
....................       for(i = 74; i < ADCS_SENSOR_SIZE+2; i++)// show the duty data-->6byte 
090A4:  MOVLW  4A
090A6:  MOVLB  2
090A8:  MOVWF  xB8
090AA:  MOVF   xB8,W
090AC:  SUBLW  4F
090AE:  BNC   916A
....................       { 
....................          fprintf(PC,"%x,",(READ_DATA_BYTE_OF(ADCS_SENSOR_ADDRESS+i))/*ADCS_SENSOR_DATA[i]*/); 
090B0:  MOVF   xB8,W
090B2:  ADDWF  4F,W
090B4:  MOVWF  xBB
090B6:  MOVLW  00
090B8:  ADDWFC 50,W
090BA:  MOVWF  xBC
090BC:  MOVLW  00
090BE:  ADDWFC 51,W
090C0:  MOVWF  xBD
090C2:  MOVLW  00
090C4:  ADDWFC 52,W
090C6:  MOVWF  xBE
090C8:  MOVWF  xDC
090CA:  MOVFF  2BD,2DB
090CE:  MOVFF  2BC,2DA
090D2:  MOVFF  2BB,2D9
090D6:  MOVLB  0
090D8:  CALL   0DBE
090DC:  MOVFF  01,2BB
090E0:  MOVFF  01,2D3
090E4:  MOVLW  57
090E6:  MOVLB  2
090E8:  MOVWF  xD4
090EA:  MOVLB  0
090EC:  CALL   123E
090F0:  MOVLW  2C
090F2:  BTFSS  F9E.4
090F4:  BRA    90F2
090F6:  MOVWF  FAD
....................          ADCS_SENSOR_DATA[i] = 0; 
090F8:  CLRF   03
090FA:  MOVLB  2
090FC:  MOVF   xB8,W
090FE:  ADDLW  8F
09100:  MOVWF  FE9
09102:  MOVLW  00
09104:  ADDWFC 03,W
09106:  MOVWF  FEA
09108:  CLRF   FEF
....................          i++; 
0910A:  INCF   xB8,F
....................          fprintf(PC,"%x,",(READ_DATA_BYTE_OF(ADCS_SENSOR_ADDRESS+i))/*ADCS_SENSOR_DATA[i]*/); 
0910C:  MOVF   xB8,W
0910E:  ADDWF  4F,W
09110:  MOVWF  xBB
09112:  MOVLW  00
09114:  ADDWFC 50,W
09116:  MOVWF  xBC
09118:  MOVLW  00
0911A:  ADDWFC 51,W
0911C:  MOVWF  xBD
0911E:  MOVLW  00
09120:  ADDWFC 52,W
09122:  MOVWF  xBE
09124:  MOVWF  xDC
09126:  MOVFF  2BD,2DB
0912A:  MOVFF  2BC,2DA
0912E:  MOVFF  2BB,2D9
09132:  MOVLB  0
09134:  CALL   0DBE
09138:  MOVFF  01,2BB
0913C:  MOVFF  01,2D3
09140:  MOVLW  57
09142:  MOVLB  2
09144:  MOVWF  xD4
09146:  MOVLB  0
09148:  CALL   123E
0914C:  MOVLW  2C
0914E:  BTFSS  F9E.4
09150:  BRA    914E
09152:  MOVWF  FAD
....................          ADCS_SENSOR_DATA[i] = 0; 
09154:  CLRF   03
09156:  MOVLB  2
09158:  MOVF   xB8,W
0915A:  ADDLW  8F
0915C:  MOVWF  FE9
0915E:  MOVLW  00
09160:  ADDWFC 03,W
09162:  MOVWF  FEA
09164:  CLRF   FEF
09166:  INCF   xB8,F
09168:  BRA    90AA
....................       } 
....................       ADCS_SENSOR_ADDRESS = ADCS_SENSOR_ADDRESS + ADCS_SENSOR_SIZE + 3; 
0916A:  MOVLW  4E
0916C:  ADDWF  4F,W
0916E:  MOVWF  xBB
09170:  MOVLW  00
09172:  ADDWFC 50,W
09174:  MOVWF  xBC
09176:  MOVLW  00
09178:  ADDWFC 51,W
0917A:  MOVWF  xBD
0917C:  MOVLW  00
0917E:  ADDWFC 52,W
09180:  MOVWF  xBE
09182:  MOVLW  03
09184:  ADDWF  xBB,W
09186:  MOVWF  4F
09188:  MOVLW  00
0918A:  ADDWFC xBC,W
0918C:  MOVWF  50
0918E:  MOVLW  00
09190:  ADDWFC xBD,W
09192:  MOVWF  51
09194:  MOVLW  00
09196:  ADDWFC xBE,W
09198:  MOVWF  52
....................    } 
....................    return; 
0919A:  MOVLB  0
0919C:  RETURN 0
.................... } 
.................... //@@@@@@@@@@@@@@@@@@@@@@@@@@@@@@@@@@@@@@@@@@@@@@@@@@@@@@@@@@@@@@@@@@@@@@@@@@@@@@@@@@@@@@@@@@@@@@@@@@@@@@@@@@ 
....................  
.................... int32 beginning_of_operation = 0; 
.................... //OPERATION_MODE 
.................... #define NOMAL_ADCS_MSN 0x22 
.................... #define AUTO_ADCS_MSN 0x27 
.................... void ADCS_TEST_OPERATION(unsigned int16 duration, int8 OPERATION_MODE) //Integration Testing With ADCS 
*
09488:  MOVLB  2
0948A:  CLRF   xAD
.................... { 
....................    int8 count = 0; 
....................    LOOP_ADCS_SENSOR_ADDRESS(); 
0948C:  MOVLB  0
0948E:  GOTO   8470
....................    ADCS_SETTINGS(); 
09492:  GOTO   861A
....................    beginning_of_operation = ADCS_SENSOR_ADDRESS; 
09496:  MOVFF  52,239
0949A:  MOVFF  51,238
0949E:  MOVFF  50,237
094A2:  MOVFF  4F,236
....................     
....................    GET_INITIAL_TIME(); 
094A6:  GOTO   8628
....................    fprintf(PC,"Turn On ADCS\r\n"); 
094AA:  MOVLW  86
094AC:  MOVWF  FF6
094AE:  MOVLW  09
094B0:  MOVWF  FF7
094B2:  MOVLW  00
094B4:  MOVWF  FF8
094B6:  CALL   24F4
....................    Turn_On_ADCS(); //Trun on ADCS 
094BA:  CALL   3394
....................    delay_ms(8000); 
094BE:  MOVLW  20
094C0:  MOVLB  2
094C2:  MOVWF  xB3
094C4:  MOVLW  FA
094C6:  MOVWF  xDB
094C8:  MOVLB  0
094CA:  CALL   230E
094CE:  MOVLB  2
094D0:  DECFSZ xB3,F
094D2:  BRA    94C4
....................    fprintf(PC,"Send Command to ADCS\r\n"); 
094D4:  MOVLW  96
094D6:  MOVWF  FF6
094D8:  MOVLW  09
094DA:  MOVWF  FF7
094DC:  MOVLW  00
094DE:  MOVWF  FF8
094E0:  MOVLB  0
094E2:  CALL   24F4
....................  
....................    fputc(OPERATION_MODE,adcs);//for execute stabilizse mission 
094E6:  MOVFF  2AC,2B9
094EA:  CALL   3752
....................  
....................    CMD_FROM_PC[0] = 0;//prepare to get MAIN command 
094EE:  CLRF   x74
....................    PC_DATA = 0;//prepare to get MAIN command 
094F0:  CLRF   x8D
....................    currenttime = 0;//prepare to measure the operation time 
094F2:  MOVLB  1
094F4:  CLRF   x53
094F6:  CLRF   x52
....................    while(true) 
....................    { 
....................       for(int safe = 0; safe < 100; safe++) 
094F8:  MOVLB  2
094FA:  CLRF   xAE
094FC:  MOVF   xAE,W
094FE:  SUBLW  63
09500:  BNC   950E
....................       { 
....................          GET_ADCS_MSN_DATA(); 
09502:  MOVLB  0
09504:  CALL   8A60
09508:  MOVLB  2
0950A:  INCF   xAE,F
0950C:  BRA    94FC
....................       } 
....................       if(currenttime > duration)//600-->600 seconds (10min) 
0950E:  MOVF   xAB,W
09510:  MOVLB  1
09512:  SUBWF  x53,W
09514:  BNC   953E
09516:  BNZ   9528
09518:  MOVF   x52,W
0951A:  MOVLB  2
0951C:  SUBWF  xAA,W
0951E:  BTFSS  FD8.0
09520:  BRA    9526
09522:  MOVLB  1
09524:  BRA    953E
09526:  MOVLB  1
....................       { 
....................          fprintf(PC,"done\r\n"); 
09528:  MOVLW  AE
0952A:  MOVWF  FF6
0952C:  MOVLW  09
0952E:  MOVWF  FF7
09530:  MOVLW  00
09532:  MOVWF  FF8
09534:  MOVLB  0
09536:  CALL   24F4
....................          break; 
0953A:  BRA    95DA
0953C:  MOVLB  1
....................       } 
....................       for(safe = 0; safe < 100; safe++) 
0953E:  MOVLB  2
09540:  CLRF   xAE
09542:  MOVF   xAE,W
09544:  SUBLW  63
09546:  BNC   9554
....................       { 
....................          GET_ADCS_MSN_DATA(); 
09548:  MOVLB  0
0954A:  CALL   8A60
0954E:  MOVLB  2
09550:  INCF   xAE,F
09552:  BRA    9542
....................       } 
....................       if((currenttime%90)==0) 
09554:  MOVFF  153,2B4
09558:  MOVFF  152,2B3
0955C:  CLRF   xB6
0955E:  MOVLW  5A
09560:  MOVWF  xB5
09562:  MOVLB  0
09564:  CALL   5D4E
09568:  MOVFF  00,2B3
0956C:  MOVLB  2
0956E:  MOVFF  03,2B4
09572:  MOVF   xB3,F
09574:  BNZ   9582
09576:  MOVF   xB4,F
09578:  BNZ   9582
....................       { 
....................          COLLECT_RESET_DATA(); 
0957A:  MOVLB  0
0957C:  CALL   15BA
09580:  MOVLB  2
....................       } 
....................        
....................       for(safe = 0; safe < 100; safe++) 
09582:  CLRF   xAE
09584:  MOVF   xAE,W
09586:  SUBLW  63
09588:  BNC   9596
....................       { 
....................          GET_ADCS_MSN_DATA(); 
0958A:  MOVLB  0
0958C:  CALL   8A60
09590:  MOVLB  2
09592:  INCF   xAE,F
09594:  BRA    9584
....................       } 
....................        
....................       if(CMD_FROM_PC[0] == 0xab) 
09596:  MOVLB  0
09598:  MOVF   x74,W
0959A:  SUBLW  AB
0959C:  BNZ   95B8
....................       { 
....................          CMD_FROM_PC[0] = 0; 
0959E:  CLRF   x74
....................          PC_DATA = 0; 
095A0:  CLRF   x8D
....................          Turn_off_ADCS(); 
095A2:  CALL   208A
....................          fprintf(PC,"Stop ADCS Mission\r\n"); 
095A6:  MOVLW  B6
095A8:  MOVWF  FF6
095AA:  MOVLW  09
095AC:  MOVWF  FF7
095AE:  MOVLW  00
095B0:  MOVWF  FF8
095B2:  CALL   24F4
....................          break; 
095B6:  BRA    95DA
....................       } 
....................       for(safe = 0; safe < 100; safe++) 
095B8:  MOVLB  2
095BA:  CLRF   xAE
095BC:  MOVF   xAE,W
095BE:  SUBLW  63
095C0:  BNC   95CE
....................       { 
....................          GET_ADCS_MSN_DATA(); 
095C2:  MOVLB  0
095C4:  CALL   8A60
095C8:  MOVLB  2
095CA:  INCF   xAE,F
095CC:  BRA    95BC
....................       } 
....................       RESET_SATELLITE();//if reset pic send command for resetting the satellite, OBC will response soon 
095CE:  MOVLB  0
095D0:  CALL   720E
095D4:  MOVLB  1
095D6:  BRA    94F8
095D8:  MOVLB  0
....................    }    
....................    Turn_OFF_ADCS();  //turn off the mux(give access to MAIN) 
095DA:  CALL   208A
....................    fprintf(PC,"\r\n\r\nTrun_OFF_ADCS\r\n\r\n\r\n"); 
095DE:  MOVLW  CA
095E0:  MOVWF  FF6
095E2:  MOVLW  09
095E4:  MOVWF  FF7
095E6:  MOVLW  00
095E8:  MOVWF  FF8
095EA:  CALL   24F4
....................     
....................    fprintf(PC,"%lx",beginning_of_operation); 
095EE:  MOVFF  239,2D3
095F2:  MOVLW  57
095F4:  MOVLB  2
095F6:  MOVWF  xD4
095F8:  MOVLB  0
095FA:  CALL   123E
095FE:  MOVFF  238,2D3
09602:  MOVLW  57
09604:  MOVLB  2
09606:  MOVWF  xD4
09608:  MOVLB  0
0960A:  CALL   123E
0960E:  MOVFF  237,2D3
09612:  MOVLW  57
09614:  MOVLB  2
09616:  MOVWF  xD4
09618:  MOVLB  0
0961A:  CALL   123E
0961E:  MOVFF  236,2D3
09622:  MOVLW  57
09624:  MOVLB  2
09626:  MOVWF  xD4
09628:  MOVLB  0
0962A:  CALL   123E
....................    delay_ms(1000); 
0962E:  MOVLW  04
09630:  MOVLB  2
09632:  MOVWF  xB3
09634:  MOVLW  FA
09636:  MOVWF  xDB
09638:  MOVLB  0
0963A:  CALL   230E
0963E:  MOVLB  2
09640:  DECFSZ xB3,F
09642:  BRA    9634
....................    SAVE_ADCS_INITIAL_and_FINAL(beginning_of_operation); 
09644:  MOVFF  239,2B6
09648:  MOVFF  238,2B5
0964C:  MOVFF  237,2B4
09650:  MOVFF  236,2B3
09654:  MOVLB  0
09656:  BRA    919E
....................    output_low(PIN_C4); 
09658:  BCF    F94.4
0965A:  BCF    F8B.4
....................    for(int32 num = 0; num < 81+90; num++) 
0965C:  MOVLB  2
0965E:  CLRF   xB2
09660:  CLRF   xB1
09662:  CLRF   xB0
09664:  CLRF   xAF
09666:  MOVF   xB2,F
09668:  BNZ   96CC
0966A:  MOVF   xB1,F
0966C:  BNZ   96CC
0966E:  MOVF   xB0,F
09670:  BNZ   96CC
09672:  MOVF   xAF,W
09674:  SUBLW  AA
09676:  BNC   96CC
....................    { 
....................       fprintf(PC,"%x",READ_DATA_BYTE_SCF(beginning_of_operation + num)); 
09678:  MOVF   xAF,W
0967A:  ADDWF  x36,W
0967C:  MOVWF  xB3
0967E:  MOVF   xB0,W
09680:  ADDWFC x37,W
09682:  MOVWF  xB4
09684:  MOVF   xB1,W
09686:  ADDWFC x38,W
09688:  MOVWF  xB5
0968A:  MOVF   xB2,W
0968C:  ADDWFC x39,W
0968E:  MOVWF  xB6
09690:  MOVWF  xC3
09692:  MOVFF  2B5,2C2
09696:  MOVFF  2B4,2C1
0969A:  MOVFF  2B3,2C0
0969E:  MOVLB  0
096A0:  CALL   0E76
096A4:  MOVFF  01,2B3
096A8:  MOVFF  01,2D3
096AC:  MOVLW  57
096AE:  MOVLB  2
096B0:  MOVWF  xD4
096B2:  MOVLB  0
096B4:  CALL   123E
096B8:  MOVLW  01
096BA:  MOVLB  2
096BC:  ADDWF  xAF,F
096BE:  BTFSC  FD8.0
096C0:  INCF   xB0,F
096C2:  BTFSC  FD8.2
096C4:  INCF   xB1,F
096C6:  BTFSC  FD8.2
096C8:  INCF   xB2,F
096CA:  BRA    9666
....................    } 
....................    //TRANSFER_DATA_NBYTE_TOPC_SCF(ADCS_SENSOR_ADDRESS-ATTEMPT_TIME*100, ATTEMPT_TIME*100); 
....................    output_high(PIN_C4); 
096CC:  BCF    F94.4
096CE:  BSF    F8B.4
....................    RESET_SATELLITE();//if reset pic send command for resetting the satellite, OBC will response soon 
096D0:  MOVLB  0
096D2:  CALL   720E
....................    if(count > 89) 
096D6:  MOVLB  2
096D8:  MOVF   xAD,W
096DA:  SUBLW  59
096DC:  BC    96EA
....................    { 
....................       count = 0; 
096DE:  CLRF   xAD
....................       COLLECT_RESET_DATA(); 
096E0:  MOVLB  0
096E2:  CALL   15BA
....................    }else{ 
096E6:  BRA    96EE
096E8:  MOVLB  2
....................       count++; 
096EA:  INCF   xAD,F
096EC:  MOVLB  0
....................    }  
....................    return; 
096EE:  RETURN 0
.................... } 
....................  
....................  
....................  
.................... //--------HIGH SAMPLING HK collection------------------------------------------ 
....................  
.................... void CHECK_HIGH_SAMP_FABDATA(int8 in)//FAB sensor data collect 
.................... { 
....................    fprintf(PC,"GET SENSOR DATA\r\n"); 
*
0683A:  MOVLW  E2
0683C:  MOVWF  FF6
0683E:  MOVLW  09
06840:  MOVWF  FF7
06842:  MOVLW  00
06844:  MOVWF  FF8
06846:  CALL   24F4
....................    Delete_HKDATA(); 
0684A:  CALL   3424
....................    for(int num = 1; num < 11; num++) //Collect HK DATA 
0684E:  MOVLW  01
06850:  MOVLB  2
06852:  MOVWF  xB5
06854:  MOVF   xB5,W
06856:  SUBLW  0A
06858:  BNC   6896
....................    { 
....................       HKDATA[num + 5+4] = in_HK[num + 2 - in]; 
0685A:  MOVLW  05
0685C:  ADDWF  xB5,W
0685E:  ADDLW  04
06860:  CLRF   03
06862:  ADDLW  9A
06864:  MOVWF  01
06866:  MOVLW  01
06868:  ADDWFC 03,F
0686A:  MOVFF  03,2B7
0686E:  MOVLW  02
06870:  ADDWF  xB5,W
06872:  BSF    FD8.0
06874:  SUBFWB xB4,W
06876:  CLRF   03
06878:  ADDLW  6D
0687A:  MOVWF  FE9
0687C:  MOVLW  01
0687E:  ADDWFC 03,W
06880:  MOVWF  FEA
06882:  MOVFF  FEF,2B8
06886:  MOVFF  2B7,FEA
0688A:  MOVFF  01,FE9
0688E:  MOVFF  2B8,FEF
06892:  INCF   xB5,F
06894:  BRA    6854
....................       //fputc(HKDATA[num],PC); 
....................    } 
....................    MEASURE_BC_TEMP(); 
06896:  MOVLB  0
06898:  CALL   344E
....................    HKDATA[18] = BC_temp_data_h;//-X Panel Temp 
0689C:  MOVFF  154,1AC
....................    HKDATA[19] = BC_temp_data_l;//-X Panel Temp 
068A0:  MOVFF  156,1AD
....................    for(num = 9; num < FAB_SENSOR_size - 2; num++) //[FAB] from CPLD temp to Kill status(array[20] to [49]) 
068A4:  MOVLW  09
068A6:  MOVLB  2
068A8:  MOVWF  xB5
068AA:  MOVF   xB5,W
068AC:  SUBLW  2A
068AE:  BNC   690C
....................    { 
....................       HKDATA[num + 7+4] = in_HK[num + 2 - in]; 
068B0:  MOVLW  07
068B2:  ADDWF  xB5,W
068B4:  ADDLW  04
068B6:  CLRF   03
068B8:  ADDLW  9A
068BA:  MOVWF  01
068BC:  MOVLW  01
068BE:  ADDWFC 03,F
068C0:  MOVFF  03,2B7
068C4:  MOVLW  02
068C6:  ADDWF  xB5,W
068C8:  BSF    FD8.0
068CA:  SUBFWB xB4,W
068CC:  CLRF   03
068CE:  ADDLW  6D
068D0:  MOVWF  FE9
068D2:  MOVLW  01
068D4:  ADDWFC 03,W
068D6:  MOVWF  FEA
068D8:  MOVFF  FEF,2B8
068DC:  MOVFF  2B7,FEA
068E0:  MOVFF  01,FE9
068E4:  MOVFF  2B8,FEF
....................       fputc(HKDATA[num + 7+4],PC); 
068E8:  MOVLW  07
068EA:  ADDWF  xB5,W
068EC:  ADDLW  04
068EE:  CLRF   03
068F0:  ADDLW  9A
068F2:  MOVWF  FE9
068F4:  MOVLW  01
068F6:  ADDWFC 03,W
068F8:  MOVWF  FEA
068FA:  MOVFF  FEF,2B6
068FE:  MOVF   xB6,W
06900:  MOVLB  0
06902:  CALL   3446
06906:  MOVLB  2
06908:  INCF   xB5,F
0690A:  BRA    68AA
....................    } 
....................    FAB_DATA = 0; 
0690C:  CLRF   x2E
0690E:  MOVLB  0
06910:  RETURN 0
.................... } 
....................  
.................... void VERIFY_HIGH_SAMP_FABDATA(int32 delaytime) 
.................... { 
....................    for(int8 num = 0; num < 3; num++) 
06912:  MOVLB  2
06914:  CLRF   xB3
06916:  MOVF   xB3,W
06918:  SUBLW  02
0691A:  BNC   698C
....................    { 
....................       COMMAND_TO_FAB(delaytime); 
0691C:  MOVFF  2B2,2BB
06920:  MOVFF  2B1,2BA
06924:  MOVFF  2B0,2B9
06928:  MOVFF  2AF,2B8
0692C:  MOVLB  0
0692E:  CALL   33B2
....................       //FAB_DATA = 0; 
....................       //waiting(1000); 
....................       if(in_HK[0] == 0x33)//gather sensor data by interrupt 
06932:  MOVLB  1
06934:  MOVF   x6D,W
06936:  SUBLW  33
06938:  BNZ   6950
....................       { 
....................          CHECK_HIGH_SAMP_FABDATA(2); 
0693A:  MOVLW  02
0693C:  MOVLB  2
0693E:  MOVWF  xB4
06940:  MOVLB  0
06942:  RCALL  683A
....................          CHECK_FAB_RESPONSE = 1; //1 is succeeded to get response from FAB 
06944:  MOVLW  01
06946:  MOVLB  2
06948:  MOVWF  x35
....................          break; 
0694A:  BRA    698C
....................       }else if(in_HK[1] == 0x33){ 
0694C:  BRA    6982
0694E:  MOVLB  1
06950:  MOVF   x6E,W
06952:  SUBLW  33
06954:  BNZ   696C
....................          //delay_ms(200); 
....................          CHECK_HIGH_SAMP_FABDATA(1); 
06956:  MOVLW  01
06958:  MOVLB  2
0695A:  MOVWF  xB4
0695C:  MOVLB  0
0695E:  RCALL  683A
....................          CHECK_FAB_RESPONSE = 1; //1 is succeeded to get response from FAB 
06960:  MOVLW  01
06962:  MOVLB  2
06964:  MOVWF  x35
....................          break; 
06966:  BRA    698C
....................       }else if(in_HK[2] == 0x33){ 
06968:  BRA    6982
0696A:  MOVLB  1
0696C:  MOVF   x6F,W
0696E:  SUBLW  33
06970:  BNZ   6984
....................          //delay_ms(200); 
....................          CHECK_HIGH_SAMP_FABDATA(0); 
06972:  MOVLB  2
06974:  CLRF   xB4
06976:  MOVLB  0
06978:  RCALL  683A
....................          CHECK_FAB_RESPONSE = 1; //1 is succeeded to get response from FAB 
0697A:  MOVLW  01
0697C:  MOVLB  2
0697E:  MOVWF  x35
....................          break; 
06980:  BRA    698C
06982:  MOVLB  1
....................       } 
....................       FAB_DATA = 0; 
06984:  MOVLB  2
06986:  CLRF   x2E
06988:  INCF   xB3,F
0698A:  BRA    6916
....................    } 
....................    return; 
0698C:  MOVLB  0
0698E:  GOTO   6C26 (RETURN)
.................... } 
....................  
....................  
....................  
.................... void GET_HIGH_SAMP_RESET_DATA() 
.................... { 
....................    RESET_DATA = 0; 
06992:  CLRF   xDF
....................    COLLECT_RESET_DATA(); 
06994:  CALL   15BA
....................    if(RESET_bffr[0] == 0x8e) 
06998:  MOVF   xE0,W
0699A:  SUBLW  8E
0699C:  BNZ   6A6C
....................    { 
.................... fprintf(PC,"GET RESET\r\n"); 
0699E:  MOVLW  F4
069A0:  MOVWF  FF6
069A2:  MOVLW  09
069A4:  MOVWF  FF7
069A6:  MOVLW  00
069A8:  MOVWF  FF8
069AA:  CALL   24F4
....................       for(int num = 0; num < 5; num++)//timedata 
069AE:  MOVLB  2
069B0:  CLRF   xAF
069B2:  MOVF   xAF,W
069B4:  SUBLW  04
069B6:  BNC   6A0C
....................       { 
....................          HKDATA[num + 2] = reset_bffr[num + 1]; 
069B8:  MOVLW  02
069BA:  ADDWF  xAF,W
069BC:  CLRF   03
069BE:  ADDLW  9A
069C0:  MOVWF  01
069C2:  MOVLW  01
069C4:  ADDWFC 03,F
069C6:  MOVFF  03,2B1
069CA:  MOVLW  01
069CC:  ADDWF  xAF,W
069CE:  CLRF   03
069D0:  ADDLW  E0
069D2:  MOVWF  FE9
069D4:  MOVLW  00
069D6:  ADDWFC 03,W
069D8:  MOVWF  FEA
069DA:  MOVFF  FEF,2B2
069DE:  MOVFF  2B1,FEA
069E2:  MOVFF  01,FE9
069E6:  MOVFF  2B2,FEF
....................          fputc(HKDATA[num + 2],PC); 
069EA:  MOVLW  02
069EC:  ADDWF  xAF,W
069EE:  CLRF   03
069F0:  ADDLW  9A
069F2:  MOVWF  FE9
069F4:  MOVLW  01
069F6:  ADDWFC 03,W
069F8:  MOVWF  FEA
069FA:  MOVFF  FEF,2B0
069FE:  MOVF   xB0,W
06A00:  MOVLB  0
06A02:  CALL   3446
06A06:  MOVLB  2
06A08:  INCF   xAF,F
06A0A:  BRA    69B2
....................       } 
....................     
....................       for(num = 0; num < 5; num++)//reset sensor data 
06A0C:  CLRF   xAF
06A0E:  MOVF   xAF,W
06A10:  SUBLW  04
06A12:  BNC   6A68
....................       { 
....................          HKDATA[num + 116] = reset_bffr[num + 6];//HKDATA[116] = reset[6] 
06A14:  MOVLW  74
06A16:  ADDWF  xAF,W
06A18:  CLRF   03
06A1A:  ADDLW  9A
06A1C:  MOVWF  01
06A1E:  MOVLW  01
06A20:  ADDWFC 03,F
06A22:  MOVFF  03,2B1
06A26:  MOVLW  06
06A28:  ADDWF  xAF,W
06A2A:  CLRF   03
06A2C:  ADDLW  E0
06A2E:  MOVWF  FE9
06A30:  MOVLW  00
06A32:  ADDWFC 03,W
06A34:  MOVWF  FEA
06A36:  MOVFF  FEF,2B2
06A3A:  MOVFF  2B1,FEA
06A3E:  MOVFF  01,FE9
06A42:  MOVFF  2B2,FEF
....................          fputc(HKDATA[num + 116],PC); 
06A46:  MOVLW  74
06A48:  ADDWF  xAF,W
06A4A:  CLRF   03
06A4C:  ADDLW  9A
06A4E:  MOVWF  FE9
06A50:  MOVLW  01
06A52:  ADDWFC 03,W
06A54:  MOVWF  FEA
06A56:  MOVFF  FEF,2B0
06A5A:  MOVF   xB0,W
06A5C:  MOVLB  0
06A5E:  CALL   3446
06A62:  MOVLB  2
06A64:  INCF   xAF,F
06A66:  BRA    6A0E
....................       } 
....................    }else{ 
06A68:  BRA    6A7E
06A6A:  MOVLB  0
....................       fprintf(PC,"NO RESET\r\n"); 
06A6C:  MOVLW  00
06A6E:  MOVWF  FF6
06A70:  MOVLW  0A
06A72:  MOVWF  FF7
06A74:  MOVLW  00
06A76:  MOVWF  FF8
06A78:  CALL   24F4
06A7C:  MOVLB  2
....................    } 
06A7E:  MOVLB  0
06A80:  GOTO   6C28 (RETURN)
....................    //Delete_Reset(); 
.................... } 
....................  
.................... void MAKE_HIGH_SAMP_ADCS_FORMAT() 
.................... { 
....................    GET_ADCS_SENSOR_DATA(); 
06A84:  CALL   37E2
....................    for(int num = 53; num < 113; num++)//12byte+48byte = 60 byte 
06A88:  MOVLW  35
06A8A:  MOVLB  2
06A8C:  MOVWF  xAF
06A8E:  MOVF   xAF,W
06A90:  SUBLW  70
06A92:  BNC   6AC8
....................    { 
....................       HKDATA[num] = ADCS_SENSOR_DATA[num - 52];//ADCS[1] to ADCS[60] 
06A94:  CLRF   03
06A96:  MOVF   xAF,W
06A98:  ADDLW  9A
06A9A:  MOVWF  01
06A9C:  MOVLW  01
06A9E:  ADDWFC 03,F
06AA0:  MOVFF  03,2B1
06AA4:  MOVLW  34
06AA6:  SUBWF  xAF,W
06AA8:  CLRF   03
06AAA:  ADDLW  8F
06AAC:  MOVWF  FE9
06AAE:  MOVLW  00
06AB0:  ADDWFC 03,W
06AB2:  MOVWF  FEA
06AB4:  MOVFF  FEF,2B2
06AB8:  MOVFF  2B1,FEA
06ABC:  MOVFF  01,FE9
06AC0:  MOVFF  2B2,FEF
06AC4:  INCF   xAF,F
06AC6:  BRA    6A8E
....................    } 
.................... //!   for(num = 65; num < 107; num++) 
.................... //!   { 
.................... //!      HKDATA[num] = ADCS_SENSOR_DATA[num - 34];//HKDATA[54] = ADCS_SENSOR_DATA[21] 
.................... //!   } 
....................    return; 
06AC8:  MOVLB  0
06ACA:  GOTO   6C2A (RETURN)
.................... } 
....................  
.................... void MAKE_HIGH_SAMPLING_FORMAT() 
.................... { 
....................    CHECK_50_and_CW_RESPOND(); 
....................    if(in_HK[0] == 0x33)//gather sensor data by interrupt 
....................    { 
....................       CHECK_HIGH_SAMP_FABDATA(2); 
....................       CHECK_FAB_RESPONSE = 1; //1 is succeeded to get response from FAB 
....................    }else if(in_HK[1] == 0x33){ 
....................       CHECK_HIGH_SAMP_FABDATA(1); 
....................       CHECK_FAB_RESPONSE = 1; //1 is succeeded to get response from FAB 
....................    }else if(in_HK[2] == 0x33){; 
....................       CHECK_HIGH_SAMP_FABDATA(0); 
....................       CHECK_FAB_RESPONSE = 1; //1 is succeeded to get response from FAB 
....................    } 
....................  
....................    CHECK_50_and_CW_RESPOND(); 
....................    if(RESET_bffr[0] == 0x8e) 
....................    { 
....................       for(int num = 0; num < 5; num++)//timedata 
....................       { 
....................          HKDATA[num] = reset_bffr[num + 1]; 
....................          //fputc(HKDATA[num],PC); 
....................       } 
....................     
....................       for(num = 0; num < 5; num++)//reset sensor data 
....................       { 
....................          HKDATA[num + 91] = reset_bffr[num + 6]; 
....................          //fputc(HKDATA[num + 91],PC); 
....................       } 
....................    } 
....................     
....................    CHECK_50_and_CW_RESPOND(); 
....................    for(int num = 0; num < 12; num++)//put into sensor array 
....................    { 
....................       HKDATA[num + 38] = ADCS_SENSOR_DATA[num]; 
....................    } 
....................    for(num = 0; num < 41; num++)//put into sensor array 
....................    { 
....................       HKDATA[num + 50] = ADCS_SENSOR_DATA[num + 21]; 
....................    } 
....................    return; 
.................... } 
....................  
.................... void SAVE_HIGH_SAMP_DATA_TO_EACH_MEMORY() 
.................... { 
....................    output_low(PIN_C4); 
*
0671A:  BCF    F94.4
0671C:  BCF    F8B.4
....................    CHECK_50_and_CW_RESPOND(); 
0671E:  CALL   321A
....................    for(int i = 0; i < HIGH_SAMP_HK_size; i++) 
06722:  MOVLB  2
06724:  CLRF   xAF
06726:  MOVF   xAF,W
06728:  SUBLW  7B
0672A:  BNC   6772
....................    { 
....................       WRITE_DATA_BYTE_SCF(HIGH_SAMP_HK_ADDRESS + i,HKDATA[i]); 
0672C:  MOVF   xAF,W
0672E:  ADDWF  57,W
06730:  MOVWF  xB0
06732:  MOVLW  00
06734:  ADDWFC 58,W
06736:  MOVWF  xB1
06738:  MOVLW  00
0673A:  ADDWFC 59,W
0673C:  MOVWF  xB2
0673E:  MOVLW  00
06740:  ADDWFC 5A,W
06742:  MOVWF  xB3
06744:  CLRF   03
06746:  MOVF   xAF,W
06748:  ADDLW  9A
0674A:  MOVWF  FE9
0674C:  MOVLW  01
0674E:  ADDWFC 03,W
06750:  MOVWF  FEA
06752:  MOVFF  FEF,2D7
06756:  MOVFF  2B3,2D6
0675A:  MOVFF  2B2,2D5
0675E:  MOVFF  2B1,2D4
06762:  MOVFF  2B0,2D3
06766:  MOVLB  0
06768:  CALL   110C
0676C:  MOVLB  2
0676E:  INCF   xAF,F
06770:  BRA    6726
....................    } 
....................    output_high(PIN_C4);  
06772:  BCF    F94.4
06774:  BSF    F8B.4
....................     
....................    CHECK_50_and_CW_RESPOND(); 
06776:  MOVLB  0
06778:  CALL   321A
....................    for(i = 0; i < HIGH_SAMP_HK_size; i++) 
0677C:  MOVLB  2
0677E:  CLRF   xAF
06780:  MOVF   xAF,W
06782:  SUBLW  7B
06784:  BNC   67CC
....................    { 
....................       WRITE_DATA_BYTE_OF(HIGH_SAMP_HK_ADDRESS + i,HKDATA[i]); 
06786:  MOVF   xAF,W
06788:  ADDWF  57,W
0678A:  MOVWF  xB0
0678C:  MOVLW  00
0678E:  ADDWFC 58,W
06790:  MOVWF  xB1
06792:  MOVLW  00
06794:  ADDWFC 59,W
06796:  MOVWF  xB2
06798:  MOVLW  00
0679A:  ADDWFC 5A,W
0679C:  MOVWF  xB3
0679E:  CLRF   03
067A0:  MOVF   xAF,W
067A2:  ADDLW  9A
067A4:  MOVWF  FE9
067A6:  MOVLW  01
067A8:  ADDWFC 03,W
067AA:  MOVWF  FEA
067AC:  MOVFF  FEF,2D7
067B0:  MOVFF  2B3,2D6
067B4:  MOVFF  2B2,2D5
067B8:  MOVFF  2B1,2D4
067BC:  MOVFF  2B0,2D3
067C0:  MOVLB  0
067C2:  CALL   1080
067C6:  MOVLB  2
067C8:  INCF   xAF,F
067CA:  BRA    6780
....................    } 
....................     
....................    CHECK_50_and_CW_RESPOND(); 
067CC:  MOVLB  0
067CE:  CALL   321A
....................    output_low(PIN_A5); 
067D2:  BCF    F92.5
067D4:  BCF    F89.5
....................    for(i = 0; i < HIGH_SAMP_HK_size; i++) 
067D6:  MOVLB  2
067D8:  CLRF   xAF
067DA:  MOVF   xAF,W
067DC:  SUBLW  7B
067DE:  BNC   6826
....................    { 
....................       WRITE_DATA_BYTE_SMF(HIGH_SAMP_HK_ADDRESS + i,HKDATA[i]); 
067E0:  MOVF   xAF,W
067E2:  ADDWF  57,W
067E4:  MOVWF  xB0
067E6:  MOVLW  00
067E8:  ADDWFC 58,W
067EA:  MOVWF  xB1
067EC:  MOVLW  00
067EE:  ADDWFC 59,W
067F0:  MOVWF  xB2
067F2:  MOVLW  00
067F4:  ADDWFC 5A,W
067F6:  MOVWF  xB3
067F8:  CLRF   03
067FA:  MOVF   xAF,W
067FC:  ADDLW  9A
067FE:  MOVWF  FE9
06800:  MOVLW  01
06802:  ADDWFC 03,W
06804:  MOVWF  FEA
06806:  MOVFF  FEF,2D7
0680A:  MOVFF  2B3,2D6
0680E:  MOVFF  2B2,2D5
06812:  MOVFF  2B1,2D4
06816:  MOVFF  2B0,2D3
0681A:  MOVLB  0
0681C:  CALL   1198
06820:  MOVLB  2
06822:  INCF   xAF,F
06824:  BRA    67DA
....................    }   
....................     
....................    CHECK_50_and_CW_RESPOND(); 
06826:  MOVLB  0
06828:  CALL   321A
....................    HIGH_SAMP_HK_ADDRESS = HIGH_SAMP_HK_ADDRESS + HIGH_SAMP_HK_size;//prepare for next storing address 
0682C:  MOVLW  7C
0682E:  ADDWF  57,F
06830:  MOVLW  00
06832:  ADDWFC 58,F
06834:  ADDWFC 59,F
06836:  ADDWFC 5A,F
....................     
....................    return; 
06838:  RETURN 0
.................... } 
....................  
.................... void HIGH_SAMP_FAB_OPERATION() 
.................... { 
....................    Turn_ON_ADCS(); 
*
06ACE:  CALL   3394
....................    CHECK_50_and_CW_RESPOND(); 
06AD2:  CALL   321A
....................    HIGH_SAMP_FAB_MEASUERING_FLAG++;//count until 90(it means 10 min) 
06AD6:  MOVLB  2
06AD8:  INCF   x30,F
....................    //disable_interrupts(INT_rda2); 
....................    if(HIGH_SAMP_FAB_MEASUERING_FLAG > 17)//HIGH_SAMP_FAB_MEASUERING_FLAG=18 --> 18*5 = 90 (sec) 
06ADA:  MOVF   x30,W
06ADC:  SUBLW  11
06ADE:  BTFSC  FD8.0
06AE0:  BRA    6C0A
....................       { 
....................           
....................          CHECK_50_and_CW_RESPOND(); 
06AE2:  MOVLB  0
06AE4:  CALL   321A
....................           
....................          fprintf(PC,"\r\n\90sec\r\n"); 
06AE8:  MOVLW  0C
06AEA:  MOVWF  FF6
06AEC:  MOVLW  0A
06AEE:  MOVWF  FF7
06AF0:  MOVLW  00
06AF2:  MOVWF  FF8
06AF4:  CALL   24F4
....................          Delete_in_HK(); 
06AF8:  CALL   2F8E
....................          VERIFY_FABDATA(10000,10); 
06AFC:  MOVLB  2
06AFE:  CLRF   xB2
06B00:  CLRF   xB1
06B02:  MOVLW  27
06B04:  MOVWF  xB0
06B06:  MOVLW  10
06B08:  MOVWF  xAF
06B0A:  CLRF   xB6
06B0C:  CLRF   xB5
06B0E:  CLRF   xB4
06B10:  MOVLW  0A
06B12:  MOVWF  xB3
06B14:  MOVLB  0
06B16:  CALL   3592
....................          GET_RESET_DATA(); 
06B1A:  CALL   3644
....................          MAKE_ADCS_HKDATA(); 
06B1E:  CALL   38DE
....................          SET_IDENTIFIER(); 
06B22:  CALL   4462
....................          MAKE_CW_FORMAT(); 
06B26:  CALL   4454
....................          output_low(PIN_C4); 
06B2A:  BCF    F94.4
06B2C:  BCF    F8B.4
....................          output_low(PIN_A5); 
06B2E:  BCF    F92.5
06B30:  BCF    F89.5
....................           
....................          SEND_HKDATA_to_SCF(FAB_HK_ADDRESS); 
06B32:  MOVFF  4A,2B2
06B36:  MOVFF  49,2B1
06B3A:  MOVFF  48,2B0
06B3E:  MOVFF  47,2AF
06B42:  CALL   4546
....................          SEND_HKDATA_to_SMF(FAB_HK_ADDRESS); 
06B46:  MOVFF  4A,2B2
06B4A:  MOVFF  49,2B1
06B4E:  MOVFF  48,2B0
06B52:  MOVFF  47,2AF
06B56:  CALL   45B8
....................          SEND_HKDATA_to_OF(FAB_HK_ADDRESS); 
06B5A:  MOVFF  4A,2B2
06B5E:  MOVFF  49,2B1
06B62:  MOVFF  48,2B0
06B66:  MOVFF  47,2AF
06B6A:  CALL   4626
....................          SEND_CWFORMAT_TO_SCF(FAB_CW_ADDRESS); 
06B6E:  MOVFF  4E,2B2
06B72:  MOVFF  4D,2B1
06B76:  MOVFF  4C,2B0
06B7A:  MOVFF  4B,2AF
06B7E:  CALL   469A
....................          SEND_CWFORMAT_TO_SMF(FAB_CW_ADDRESS); 
06B82:  MOVFF  4E,2B2
06B86:  MOVFF  4D,2B1
06B8A:  MOVFF  4C,2B0
06B8E:  MOVFF  4B,2AF
06B92:  CALL   470C
....................          SEND_CWFORMAT_TO_OF(FAB_CW_ADDRESS); 
06B96:  MOVFF  4E,2B2
06B9A:  MOVFF  4D,2B1
06B9E:  MOVFF  4C,2B0
06BA2:  MOVFF  4B,2AF
06BA6:  CALL   47AA
....................           
....................          CHECK_50_and_CW_RESPOND(); 
06BAA:  CALL   321A
....................          FAB_HK_ADDRESS = FAB_HK_ADDRESS + HK_size;//prepare for next storing address 
06BAE:  MOVLW  7C
06BB0:  ADDWF  47,F
06BB2:  MOVLW  00
06BB4:  ADDWFC 48,F
06BB6:  ADDWFC 49,F
06BB8:  ADDWFC 4A,F
....................          FAB_CW_ADDRESS = FAB_CW_ADDRESS + CW_size;//prepare for next storing address 
06BBA:  MOVLW  05
06BBC:  ADDWF  4B,F
06BBE:  MOVLW  00
06BC0:  ADDWFC 4C,F
06BC2:  ADDWFC 4D,F
06BC4:  ADDWFC 4E,F
....................           
....................          SAVE_HIGH_SAMP_DATA_TO_EACH_MEMORY(); 
06BC6:  RCALL  671A
....................           
....................          CHECK_50_and_CW_RESPOND(); 
06BC8:  CALL   321A
....................           
....................          fprintf(PC,"\r\nSuccess%x\r\n",HIGH_SAMP_FAB_MEASUERING_FLAG); 
06BCC:  MOVLW  16
06BCE:  MOVWF  FF6
06BD0:  MOVLW  0A
06BD2:  MOVWF  FF7
06BD4:  MOVLW  00
06BD6:  MOVWF  FF8
06BD8:  MOVLW  09
06BDA:  MOVLB  2
06BDC:  MOVWF  xD2
06BDE:  MOVLB  0
06BE0:  CALL   120C
06BE4:  MOVFF  230,2D3
06BE8:  MOVLW  57
06BEA:  MOVLB  2
06BEC:  MOVWF  xD4
06BEE:  MOVLB  0
06BF0:  CALL   123E
06BF4:  MOVLW  0D
06BF6:  BTFSS  F9E.4
06BF8:  BRA    6BF6
06BFA:  MOVWF  FAD
06BFC:  MOVLW  0A
06BFE:  BTFSS  F9E.4
06C00:  BRA    6BFE
06C02:  MOVWF  FAD
....................          HIGH_SAMP_FAB_MEASUERING_FLAG = 0; 
06C04:  MOVLB  2
06C06:  CLRF   x30
....................           
....................       }else{ 
06C08:  BRA    6D2C
....................          Delete_in_HK(); 
06C0A:  MOVLB  0
06C0C:  CALL   2F8E
....................          GET_RESET_DATA(); 
06C10:  CALL   3644
....................          VERIFY_HIGH_SAMP_FABDATA(10000);    
06C14:  MOVLB  2
06C16:  CLRF   xB2
06C18:  CLRF   xB1
06C1A:  MOVLW  27
06C1C:  MOVWF  xB0
06C1E:  MOVLW  10
06C20:  MOVWF  xAF
06C22:  MOVLB  0
06C24:  BRA    6912
....................          GET_HIGH_SAMP_RESET_DATA(); 
06C26:  BRA    6992
....................          MAKE_HIGH_SAMP_ADCS_FORMAT(); 
06C28:  BRA    6A84
....................          SET_IDENTIFIER(); 
06C2A:  CALL   4462
....................          //MAKE_CW_FORMAT(); 
....................                
....................          fprintf(PC,"\r\n"); 
06C2E:  MOVLW  0D
06C30:  BTFSS  F9E.4
06C32:  BRA    6C30
06C34:  MOVWF  FAD
06C36:  MOVLW  0A
06C38:  BTFSS  F9E.4
06C3A:  BRA    6C38
06C3C:  MOVWF  FAD
....................          for(int num = 0; num < 65; num++)//array[0] to [64](until gyro data) 
06C3E:  MOVLB  2
06C40:  CLRF   xAE
06C42:  MOVF   xAE,W
06C44:  SUBLW  40
06C46:  BNC   6C72
....................          { 
....................             fprintf(PC,"%x,",HKDATA[num]); 
06C48:  CLRF   03
06C4A:  MOVF   xAE,W
06C4C:  ADDLW  9A
06C4E:  MOVWF  FE9
06C50:  MOVLW  01
06C52:  ADDWFC 03,W
06C54:  MOVWF  FEA
06C56:  MOVFF  FEF,2D3
06C5A:  MOVLW  57
06C5C:  MOVWF  xD4
06C5E:  MOVLB  0
06C60:  CALL   123E
06C64:  MOVLW  2C
06C66:  BTFSS  F9E.4
06C68:  BRA    6C66
06C6A:  MOVWF  FAD
06C6C:  MOVLB  2
06C6E:  INCF   xAE,F
06C70:  BRA    6C42
....................          } 
....................          CHECK_50_and_CW_RESPOND(); 
06C72:  MOVLB  0
06C74:  CALL   321A
....................          for(num = 65; num < 113; num++) 
06C78:  MOVLW  41
06C7A:  MOVLB  2
06C7C:  MOVWF  xAE
06C7E:  MOVF   xAE,W
06C80:  SUBLW  70
06C82:  BNC   6CA4
....................          { 
....................             fputc(HKDATA[num],PC); 
06C84:  CLRF   03
06C86:  MOVF   xAE,W
06C88:  ADDLW  9A
06C8A:  MOVWF  FE9
06C8C:  MOVLW  01
06C8E:  ADDWFC 03,W
06C90:  MOVWF  FEA
06C92:  MOVFF  FEF,2AF
06C96:  MOVF   xAF,W
06C98:  MOVLB  0
06C9A:  CALL   3446
06C9E:  MOVLB  2
06CA0:  INCF   xAE,F
06CA2:  BRA    6C7E
....................          } 
....................          CHECK_50_and_CW_RESPOND(); 
06CA4:  MOVLB  0
06CA6:  CALL   321A
....................          for(num = 113; num < HK_Size; num++) 
06CAA:  MOVLW  71
06CAC:  MOVLB  2
06CAE:  MOVWF  xAE
06CB0:  MOVF   xAE,W
06CB2:  SUBLW  7B
06CB4:  BNC   6CE4
....................          { 
....................             fprintf(PC,",%x",HKDATA[num]); 
06CB6:  CLRF   03
06CB8:  MOVF   xAE,W
06CBA:  ADDLW  9A
06CBC:  MOVWF  FE9
06CBE:  MOVLW  01
06CC0:  ADDWFC 03,W
06CC2:  MOVWF  FEA
06CC4:  MOVFF  FEF,2AF
06CC8:  MOVLW  2C
06CCA:  BTFSS  F9E.4
06CCC:  BRA    6CCA
06CCE:  MOVWF  FAD
06CD0:  MOVFF  2AF,2D3
06CD4:  MOVLW  57
06CD6:  MOVWF  xD4
06CD8:  MOVLB  0
06CDA:  CALL   123E
06CDE:  MOVLB  2
06CE0:  INCF   xAE,F
06CE2:  BRA    6CB0
....................          }  
....................          CHECK_50_and_CW_RESPOND(); 
06CE4:  MOVLB  0
06CE6:  CALL   321A
....................           
....................          fprintf(PC,"\r\nCOUNT:%x\r\n",HIGH_SAMP_FAB_MEASUERING_FLAG); 
06CEA:  MOVLW  24
06CEC:  MOVWF  FF6
06CEE:  MOVLW  0A
06CF0:  MOVWF  FF7
06CF2:  MOVLW  00
06CF4:  MOVWF  FF8
06CF6:  MOVLW  08
06CF8:  MOVLB  2
06CFA:  MOVWF  xD2
06CFC:  MOVLB  0
06CFE:  CALL   120C
06D02:  MOVFF  230,2D3
06D06:  MOVLW  57
06D08:  MOVLB  2
06D0A:  MOVWF  xD4
06D0C:  MOVLB  0
06D0E:  CALL   123E
06D12:  MOVLW  0D
06D14:  BTFSS  F9E.4
06D16:  BRA    6D14
06D18:  MOVWF  FAD
06D1A:  MOVLW  0A
06D1C:  BTFSS  F9E.4
06D1E:  BRA    6D1C
06D20:  MOVWF  FAD
....................          CHECK_FAB_RESPONSE = 0; 
06D22:  MOVLB  2
06D24:  CLRF   x35
....................          SAVE_HIGH_SAMP_DATA_TO_EACH_MEMORY(); 
06D26:  MOVLB  0
06D28:  RCALL  671A
06D2A:  MOVLB  2
....................       }     
....................       //Delete_in_HK(); 
....................  
....................    FAB_DATA = 0; 
06D2C:  CLRF   x2E
....................    output_high(PIN_C4); 
06D2E:  BCF    F94.4
06D30:  BSF    F8B.4
....................  
....................    return; 
06D32:  MOVLB  0
06D34:  GOTO   7278 (RETURN)
.................... } 
....................  
....................  
.................... //--------CAM MISSION---------------------------------------------------------- 
.................... //#define STORE_TO_SING AA 
.................... ////////////////////////////////////////////////// 
.................... //CAM MISSION ID: 0x54                          // 
.................... //CAM ACK: 0x61                                 // 
.................... //CAM Finish Storing: 0x62                      // 
.................... ////////////////////////////////////////////////// 
....................  
.................... int8 CAM_ACK = 0; 
....................  
....................  
.................... void Turn_On_CAM() 
.................... { 
....................    output_high(PIN_D7); 
*
07584:  BCF    F95.7
07586:  BSF    F8C.7
....................    return; 
07588:  GOTO   75C0 (RETURN)
.................... } 
....................  
.................... void Turn_Off_CAM() 
.................... { 
....................    output_low(PIN_D7); 
*
02084:  BCF    F95.7
02086:  BCF    F8C.7
....................    return; 
02088:  RETURN 0
.................... } 
....................  
.................... void Send_Command_to_CAM(int8 data) //testing for EM integration 
.................... { 
....................    fputc(data,CAM); 
*
07626:  MOVFF  2A9,2AA
0762A:  RCALL  75E0
....................    return; 
0762C:  GOTO   7948 (RETURN)
.................... } 
....................  
.................... void CAM_SETTINGS() 
.................... { 
....................    //disable_interrupts(INT_rda);   // Main to PC 
....................    fprintf(PC,"CAM Start\r\n"); 
*
0758C:  MOVLW  32
0758E:  MOVWF  FF6
07590:  MOVLW  0A
07592:  MOVWF  FF7
07594:  MOVLW  00
07596:  MOVWF  FF8
07598:  CALL   24F4
....................    COM_ONEBYTE_COMMAND = 0; 
0759C:  CLRF   x8E
....................    fprintf(PC,"Delete Buffer\r\n"); 
0759E:  MOVLW  3E
075A0:  MOVWF  FF6
075A2:  MOVLW  0A
075A4:  MOVWF  FF7
075A6:  MOVLW  00
075A8:  MOVWF  FF8
075AA:  CALL   24F4
....................  
....................    output_high(PIN_A5); //turn on MUX (give access to CAM) 
075AE:  BCF    F92.5
075B0:  BSF    F89.5
....................    delay_ms(100); 
075B2:  MOVLW  64
075B4:  MOVLB  2
075B6:  MOVWF  xDB
075B8:  MOVLB  0
075BA:  CALL   230E
....................    Turn_On_CAM(); //Trun on CAM 
075BE:  BRA    7584
....................    fprintf(PC,"Turned On MUX And CAM\r\n"); 
075C0:  MOVLW  4E
075C2:  MOVWF  FF6
075C4:  MOVLW  0A
075C6:  MOVWF  FF7
075C8:  MOVLW  00
075CA:  MOVWF  FF8
075CC:  CALL   24F4
....................    delay_ms(10); 
075D0:  MOVLW  0A
075D2:  MOVLB  2
075D4:  MOVWF  xDB
075D6:  MOVLB  0
075D8:  CALL   230E
....................    return; 
075DC:  GOTO   790A (RETURN)
.................... } 
....................  
.................... void CHECK_ACK_FROM_CAM_10k() //check 10000 times (keep listening about 10 sec) 
.................... { 
....................    for(int32 num = 0; num < 1000000; num++)  
*
0767A:  MOVLB  2
0767C:  CLRF   xAC
0767E:  CLRF   xAB
07680:  CLRF   xAA
07682:  CLRF   xA9
07684:  MOVF   xAC,F
07686:  BNZ   76C0
07688:  MOVF   xAB,W
0768A:  SUBLW  0F
0768C:  BNC   76C0
0768E:  BNZ   769E
07690:  MOVF   xAA,W
07692:  SUBLW  42
07694:  BNC   76C0
07696:  BNZ   769E
07698:  MOVF   xA9,W
0769A:  SUBLW  3F
0769C:  BNC   76C0
....................    { 
....................       if(kbhit(CAM)/*kbhit(PC)*/) 
0769E:  BTFSC  F86.3
076A0:  BRA    76AE
....................       { 
....................          CAM_ACK = fgetc(CAM/*PC*/); 
076A2:  MOVLB  0
076A4:  RCALL  7630
076A6:  MOVFF  01,23A
....................          break; 
076AA:  MOVLB  2
076AC:  BRA    76C0
....................       } 
076AE:  MOVLW  01
076B0:  ADDWF  xA9,F
076B2:  BTFSC  FD8.0
076B4:  INCF   xAA,F
076B6:  BTFSC  FD8.2
076B8:  INCF   xAB,F
076BA:  BTFSC  FD8.2
076BC:  INCF   xAC,F
076BE:  BRA    7684
....................       //delay_ms(1); 
....................    } 
....................    return; 
076C0:  MOVLB  0
076C2:  RETURN 0
.................... } 
....................  
.................... void CHECK_ACK_FROM_CAM_200k() //check 200000 times(keep listening about 200 sec) 
.................... { 
....................    for(int32 num = 0; num < 40000000; num++)  
*
07722:  MOVLB  2
07724:  CLRF   xAC
07726:  CLRF   xAB
07728:  CLRF   xAA
0772A:  CLRF   xA9
0772C:  MOVF   xAC,W
0772E:  SUBLW  02
07730:  BNC   7764
07732:  BNZ   7742
07734:  MOVF   xAB,W
07736:  SUBLW  62
07738:  BNC   7764
0773A:  BNZ   7742
0773C:  MOVF   xAA,W
0773E:  SUBLW  59
07740:  BNC   7764
....................    { 
....................       if(kbhit(CAM)/*kbhit(PC)*/) 
07742:  BTFSC  F86.3
07744:  BRA    7752
....................       { 
....................          CAM_ACK = fgetc(CAM/*PC*/); 
07746:  MOVLB  0
07748:  RCALL  7630
0774A:  MOVFF  01,23A
....................          break; 
0774E:  MOVLB  2
07750:  BRA    7764
....................       } 
07752:  MOVLW  01
07754:  ADDWF  xA9,F
07756:  BTFSC  FD8.0
07758:  INCF   xAA,F
0775A:  BTFSC  FD8.2
0775C:  INCF   xAB,F
0775E:  BTFSC  FD8.2
07760:  INCF   xAC,F
07762:  BRA    772C
....................       //delay_ms(1); 
....................    } 
....................    return; 
07764:  MOVLB  0
07766:  GOTO   79B8 (RETURN)
.................... } 
....................  
.................... int8 ACK_from_CAM() 
.................... { 
....................    int8 ack; 
....................    ack = fgetc(CAM | PC); 
....................    return ack; 
.................... } 
....................  
.................... void Transfer_Photo() //transfer photo from Shared Mission Flash to Shared COM Flash 
.................... { 
....................    output_low(PIN_A5); 
....................    output_low(PIN_C4); 
....................    TRANSFER_DATA_NBYTE_SMFtoSCF(0,CAM_ADDRESS,65536); //from: sector0, to: sector1, datasize: 64kbyte(this value is for testing) 
....................    CAM_ADDRESS = CAM_ADDRESS + 65536; 
....................    return; 
.................... } 
....................  
.................... void CAM_TEST_OPERATION(int8 mode) //Integration Testing With CAM 
.................... { 
....................    CAM_SETTINGS();  //initialize_CAM 
*
07908:  BRA    758C
....................    delay_ms(5000); 
0790A:  MOVLW  14
0790C:  MOVLB  2
0790E:  MOVWF  xA9
07910:  MOVLW  FA
07912:  MOVWF  xDB
07914:  MOVLB  0
07916:  CALL   230E
0791A:  MOVLB  2
0791C:  DECFSZ xA9,F
0791E:  BRA    7910
....................     
....................  
....................    fprintf(PC,"Send Command to CAM\r\n"); 
07920:  MOVLW  66
07922:  MOVWF  FF6
07924:  MOVLW  0A
07926:  MOVWF  FF7
07928:  MOVLW  00
0792A:  MOVWF  FF8
0792C:  MOVLB  0
0792E:  CALL   24F4
....................    delay_ms(10); 
07932:  MOVLW  0A
07934:  MOVLB  2
07936:  MOVWF  xDB
07938:  MOVLB  0
0793A:  CALL   230E
....................    Send_Command_to_CAM(0x54); 
0793E:  MOVLW  54
07940:  MOVLB  2
07942:  MOVWF  xA9
07944:  MOVLB  0
07946:  BRA    7626
....................  
....................    //fputc(0x54,PC); 
....................    CHECK_ACK_FROM_CAM_10k(); 
07948:  RCALL  767A
....................     
....................    if(CAM_ACK == 0x61) 
0794A:  MOVLB  2
0794C:  MOVF   x3A,W
0794E:  SUBLW  61
07950:  BTFSS  FD8.2
07952:  BRA    7BEA
....................    { 
....................       CAM_ACK = 0; 
07954:  CLRF   x3A
....................       LOOP_CAM_ADDRESS(); 
07956:  MOVLB  0
07958:  BRA    76C4
....................       fprintf(PC,"ACK Get\r\n\r\n"); 
0795A:  MOVLW  7C
0795C:  MOVWF  FF6
0795E:  MOVLW  0A
07960:  MOVWF  FF7
07962:  MOVLW  00
07964:  MOVWF  FF8
07966:  CALL   24F4
....................       delay_ms(1000); 
0796A:  MOVLW  04
0796C:  MOVLB  2
0796E:  MOVWF  xA9
07970:  MOVLW  FA
07972:  MOVWF  xDB
07974:  MOVLB  0
07976:  CALL   230E
0797A:  MOVLB  2
0797C:  DECFSZ xA9,F
0797E:  BRA    7970
....................       fprintf(PC,"Send the mode data\r\n"); 
07980:  MOVLW  88
07982:  MOVWF  FF6
07984:  MOVLW  0A
07986:  MOVWF  FF7
07988:  MOVLW  00
0798A:  MOVWF  FF8
0798C:  MOVLB  0
0798E:  CALL   24F4
....................       fputc(mode,CAM); 
07992:  MOVFF  2A8,2AA
07996:  RCALL  75E0
....................       CHECK_ACK_FROM_CAM_10k(); 
07998:  RCALL  767A
....................       if(CAM_ACK == mode) 
0799A:  MOVLB  2
0799C:  MOVF   xA8,W
0799E:  SUBWF  x3A,W
079A0:  BTFSS  FD8.2
079A2:  BRA    7BE8
....................       { 
....................             fprintf(PC,"Wait Next Command...\r\n\r\n"); 
079A4:  MOVLW  9E
079A6:  MOVWF  FF6
079A8:  MOVLW  0A
079AA:  MOVWF  FF7
079AC:  MOVLW  00
079AE:  MOVWF  FF8
079B0:  MOVLB  0
079B2:  CALL   24F4
....................           
....................          CHECK_ACK_FROM_CAM_200k(); 
079B6:  BRA    7722
....................           
....................          if(CAM_ACK == 0x62) 
079B8:  MOVLB  2
079BA:  MOVF   x3A,W
079BC:  SUBLW  62
079BE:  BTFSS  FD8.2
079C0:  BRA    7BD2
....................          { 
....................             CAM_ACK = 0; 
079C2:  CLRF   x3A
....................             fprintf(PC,"PHOTO SAVING DONE\r\n"); 
079C4:  MOVLW  B8
079C6:  MOVWF  FF6
079C8:  MOVLW  0A
079CA:  MOVWF  FF7
079CC:  MOVLW  00
079CE:  MOVWF  FF8
079D0:  MOVLB  0
079D2:  CALL   24F4
....................              
....................             output_low(PIN_A5);  //turn off the mux(give access to MAIN) 
079D6:  BCF    F92.5
079D8:  BCF    F89.5
....................             delay_ms(10); 
079DA:  MOVLW  0A
079DC:  MOVLB  2
079DE:  MOVWF  xDB
079E0:  MOVLB  0
079E2:  CALL   230E
....................             //TRANSFER_DATA_NBYTE_TOPC_SMF(0x00000000,256);  //for checking 
....................             output_low(PIN_C4); 
079E6:  BCF    F94.4
079E8:  BCF    F8B.4
....................             delay_ms(10); 
079EA:  MOVLW  0A
079EC:  MOVLB  2
079EE:  MOVWF  xDB
079F0:  MOVLB  0
079F2:  CALL   230E
....................             fprintf(PC,"Copy and Read Start\r\n"); 
079F6:  MOVLW  CC
079F8:  MOVWF  FF6
079FA:  MOVLW  0A
079FC:  MOVWF  FF7
079FE:  MOVLW  00
07A00:  MOVWF  FF8
07A02:  CALL   24F4
....................             delay_ms(1000); 
07A06:  MOVLW  04
07A08:  MOVLB  2
07A0A:  MOVWF  xA9
07A0C:  MOVLW  FA
07A0E:  MOVWF  xDB
07A10:  MOVLB  0
07A12:  CALL   230E
07A16:  MOVLB  2
07A18:  DECFSZ xA9,F
07A1A:  BRA    7A0C
....................              
....................             if(mode == 0xB0 || mode == 0xB1 || mode == 0xB2)//if cam size will be large 
07A1C:  MOVF   xA8,W
07A1E:  SUBLW  B0
07A20:  BZ    7A2E
07A22:  MOVF   xA8,W
07A24:  SUBLW  B1
07A26:  BZ    7A2E
07A28:  MOVF   xA8,W
07A2A:  SUBLW  B2
07A2C:  BNZ   7B06
....................             { 
....................                sector_erase_SCF(CAM_ADDRESS); 
07A2E:  MOVFF  46,2CB
07A32:  MOVFF  45,2CA
07A36:  MOVFF  44,2C9
07A3A:  MOVFF  43,2C8
07A3E:  MOVLB  0
07A40:  CALL   2982
....................                sector_erase_SCF(CAM_ADDRESS + 65536); 
07A44:  MOVFF  43,2A9
07A48:  MOVLB  2
07A4A:  MOVFF  44,2AA
07A4E:  MOVLW  01
07A50:  ADDWF  45,W
07A52:  MOVWF  xAB
07A54:  MOVLW  00
07A56:  ADDWFC 46,W
07A58:  MOVWF  xAC
07A5A:  MOVWF  xCB
07A5C:  MOVFF  2AB,2CA
07A60:  MOVFF  44,2C9
07A64:  MOVFF  43,2C8
07A68:  MOVLB  0
07A6A:  CALL   2982
....................                TRANSFER_DATA_NBYTE_SMFtoSCF(0x00080000,CAM_ADDRESS,80000); //From(SMF): sector0, To(SCF): sector1 
07A6E:  MOVLB  2
07A70:  CLRF   xAC
07A72:  MOVLW  08
07A74:  MOVWF  xAB
07A76:  CLRF   xAA
07A78:  CLRF   xA9
07A7A:  MOVFF  46,2B0
07A7E:  MOVFF  45,2AF
07A82:  MOVFF  44,2AE
07A86:  MOVFF  43,2AD
07A8A:  CLRF   xB4
07A8C:  MOVLW  01
07A8E:  MOVWF  xB3
07A90:  MOVLW  38
07A92:  MOVWF  xB2
07A94:  MOVLW  80
07A96:  MOVWF  xB1
07A98:  MOVLB  0
07A9A:  RCALL  776A
....................                TRANSFER_DATA_NBYTE_SMFtoOF(0x00080000,CAM_ADDRESS,80000); //From(SMF): sector0, To(SCF): sector1 
07A9C:  MOVLB  2
07A9E:  CLRF   xAC
07AA0:  MOVLW  08
07AA2:  MOVWF  xAB
07AA4:  CLRF   xAA
07AA6:  CLRF   xA9
07AA8:  MOVFF  46,2B0
07AAC:  MOVFF  45,2AF
07AB0:  MOVFF  44,2AE
07AB4:  MOVFF  43,2AD
07AB8:  CLRF   xB4
07ABA:  MOVLW  01
07ABC:  MOVWF  xB3
07ABE:  MOVLW  38
07AC0:  MOVWF  xB2
07AC2:  MOVLW  80
07AC4:  MOVWF  xB1
07AC6:  MOVLB  0
07AC8:  RCALL  77FC
....................                TRANSFER_DATA_NBYTE_TOPC_SCF(CAM_ADDRESS,90000); 
07ACA:  MOVFF  46,2AC
07ACE:  MOVFF  45,2AB
07AD2:  MOVFF  44,2AA
07AD6:  MOVFF  43,2A9
07ADA:  MOVLB  2
07ADC:  CLRF   xB0
07ADE:  MOVLW  01
07AE0:  MOVWF  xAF
07AE2:  MOVLW  5F
07AE4:  MOVWF  xAE
07AE6:  MOVLW  90
07AE8:  MOVWF  xAD
07AEA:  MOVLB  0
07AEC:  RCALL  788E
....................                CAM_ADDRESS = CAM_ADDRESS + 65536*2; 
07AEE:  MOVLW  02
07AF0:  ADDWF  45,F
07AF2:  MOVLW  00
07AF4:  ADDWFC 46,F
....................                delay_ms(10); 
07AF6:  MOVLW  0A
07AF8:  MOVLB  2
07AFA:  MOVWF  xDB
07AFC:  MOVLB  0
07AFE:  CALL   230E
....................             }else{ 
07B02:  BRA    7BCE
07B04:  MOVLB  2
....................                sector_erase_SCF(CAM_ADDRESS); 
07B06:  MOVFF  46,2CB
07B0A:  MOVFF  45,2CA
07B0E:  MOVFF  44,2C9
07B12:  MOVFF  43,2C8
07B16:  MOVLB  0
07B18:  CALL   2982
....................                sector_erase_SCF(CAM_ADDRESS + 65536); 
07B1C:  MOVFF  43,2A9
07B20:  MOVLB  2
07B22:  MOVFF  44,2AA
07B26:  MOVLW  01
07B28:  ADDWF  45,W
07B2A:  MOVWF  xAB
07B2C:  MOVLW  00
07B2E:  ADDWFC 46,W
07B30:  MOVWF  xAC
07B32:  MOVWF  xCB
07B34:  MOVFF  2AB,2CA
07B38:  MOVFF  44,2C9
07B3C:  MOVFF  43,2C8
07B40:  MOVLB  0
07B42:  CALL   2982
....................                TRANSFER_DATA_NBYTE_SMFtoSCF(0x00080000,CAM_ADDRESS,65536); //From(SMF): sector0, To(SCF): sector1 
07B46:  MOVLB  2
07B48:  CLRF   xAC
07B4A:  MOVLW  08
07B4C:  MOVWF  xAB
07B4E:  CLRF   xAA
07B50:  CLRF   xA9
07B52:  MOVFF  46,2B0
07B56:  MOVFF  45,2AF
07B5A:  MOVFF  44,2AE
07B5E:  MOVFF  43,2AD
07B62:  CLRF   xB4
07B64:  MOVLW  01
07B66:  MOVWF  xB3
07B68:  CLRF   xB2
07B6A:  CLRF   xB1
07B6C:  MOVLB  0
07B6E:  RCALL  776A
....................                TRANSFER_DATA_NBYTE_SMFtoOF(0x00080000,CAM_ADDRESS,65536); //From(SMF): sector0, To(SCF): sector1 
07B70:  MOVLB  2
07B72:  CLRF   xAC
07B74:  MOVLW  08
07B76:  MOVWF  xAB
07B78:  CLRF   xAA
07B7A:  CLRF   xA9
07B7C:  MOVFF  46,2B0
07B80:  MOVFF  45,2AF
07B84:  MOVFF  44,2AE
07B88:  MOVFF  43,2AD
07B8C:  CLRF   xB4
07B8E:  MOVLW  01
07B90:  MOVWF  xB3
07B92:  CLRF   xB2
07B94:  CLRF   xB1
07B96:  MOVLB  0
07B98:  RCALL  77FC
....................                TRANSFER_DATA_NBYTE_TOPC_SCF(CAM_ADDRESS,65536); 
07B9A:  MOVFF  46,2AC
07B9E:  MOVFF  45,2AB
07BA2:  MOVFF  44,2AA
07BA6:  MOVFF  43,2A9
07BAA:  MOVLB  2
07BAC:  CLRF   xB0
07BAE:  MOVLW  01
07BB0:  MOVWF  xAF
07BB2:  CLRF   xAE
07BB4:  CLRF   xAD
07BB6:  MOVLB  0
07BB8:  RCALL  788E
....................                CAM_ADDRESS = CAM_ADDRESS + 65536; 
07BBA:  MOVLW  01
07BBC:  ADDWF  45,F
07BBE:  MOVLW  00
07BC0:  ADDWFC 46,F
....................                delay_ms(10); 
07BC2:  MOVLW  0A
07BC4:  MOVLB  2
07BC6:  MOVWF  xDB
07BC8:  MOVLB  0
07BCA:  CALL   230E
....................             } 
....................              
....................          }else{ 
07BCE:  BRA    7BE6
07BD0:  MOVLB  2
....................             CAM_ACK = 0; 
07BD2:  CLRF   x3A
....................             fprintf(PC,"SAVING FAILURED\r\n"); 
07BD4:  MOVLW  E2
07BD6:  MOVWF  FF6
07BD8:  MOVLW  0A
07BDA:  MOVWF  FF7
07BDC:  MOVLW  00
07BDE:  MOVWF  FF8
07BE0:  MOVLB  0
07BE2:  CALL   24F4
07BE6:  MOVLB  2
....................           
....................          } 
....................        
....................       }    
....................  
....................    }else{ 
07BE8:  BRA    7C00
....................       CAM_ACK = 0; 
07BEA:  CLRF   x3A
....................       fprintf(PC,"ACK FAILURED\r\n"); 
07BEC:  MOVLW  F4
07BEE:  MOVWF  FF6
07BF0:  MOVLW  0A
07BF2:  MOVWF  FF7
07BF4:  MOVLW  00
07BF6:  MOVWF  FF8
07BF8:  MOVLB  0
07BFA:  CALL   24F4
07BFE:  MOVLB  2
....................    } 
....................     
....................     
....................     
....................  
....................     
.................... //***************************************************************************** 
.................... //!   int8 CAMSIZE[4] = {}; 
.................... //!   int32 CAM_ADD; 
.................... //!   while(true) 
.................... //!   { 
.................... //!      if(fgetc(CAM) == 0x23) 
.................... //!      { 
.................... //!         for(int a = 0; a < 4; a++) 
.................... //!         { 
.................... //!            CAMSIZE[a] = fgetc(CAM); 
.................... //!         } 
.................... //!      } 
.................... //!   } 
.................... //!   CAM_ADD = ((CAMSIZE[0]<<24 | CAMSIZE[1]<<16 | CAMSIZE[2]<<8 | CAMSIZE[3]) & 0xffffffff); 
.................... //!    
.................... //!   fprintf(PC,"data adress is %x\r\n", CAM_ADD);//for testing 
.................... //***************************************************************************** 
....................    
....................    Turn_Off_CAM(); 
07C00:  MOVLB  0
07C02:  CALL   2084
....................    fprintf(PC,"Turned OFF CAM\r\n"); 
07C06:  MOVLW  04
07C08:  MOVWF  FF6
07C0A:  MOVLW  0B
07C0C:  MOVWF  FF7
07C0E:  MOVLW  00
07C10:  MOVWF  FF8
07C12:  CALL   24F4
....................    output_high(PIN_C4); //Give Access to COM PIC 
07C16:  BCF    F94.4
07C18:  BSF    F8B.4
....................    //fputc(0x69,COM);  
....................    //enable_interrupts(INT_rda);   // Main to PC 
....................    return; 
07C1A:  RETURN 0
.................... } 
....................  
....................  
....................  
.................... //--------Data Collection MISSION---------------------------------------------- 
....................  
.................... int8 DC_ACK = 0; 
.................... int8 LDM_DATA[83] = {}; 
....................  
.................... void Turn_On_DC() 
.................... { 
....................    output_high(PIN_F5); 
*
07F36:  BCF    F97.5
07F38:  BSF    F8E.5
....................    return; 
07F3A:  GOTO   81D6 (RETURN)
.................... } 
....................  
.................... void Turn_Off_DC() 
.................... { 
....................    output_low(PIN_F5); 
*
02090:  BCF    F97.5
02092:  BCF    F8E.5
....................    return; 
02094:  RETURN 0
.................... } 
....................  
.................... void CHECK_ACK_FROM_DC_10k() 
.................... { 
....................    for(int32 num = 0; num < 5000000 ;num++) 
*
07F86:  MOVLB  2
07F88:  CLRF   xAB
07F8A:  CLRF   xAA
07F8C:  CLRF   xA9
07F8E:  CLRF   xA8
07F90:  MOVF   xAB,F
07F92:  BNZ   7FD6
07F94:  MOVF   xAA,W
07F96:  SUBLW  4C
07F98:  BNC   7FD6
07F9A:  BNZ   7FAA
07F9C:  MOVF   xA9,W
07F9E:  SUBLW  4B
07FA0:  BNC   7FD6
07FA2:  BNZ   7FAA
07FA4:  MOVF   xA8,W
07FA6:  SUBLW  3F
07FA8:  BNC   7FD6
....................    { 
....................       if(kbhit(DC)) 
07FAA:  BTFSC  F86.1
07FAC:  BRA    7FC0
....................       { 
....................          if(fgetc(DC) == 0x20) 
07FAE:  MOVLB  0
07FB0:  RCALL  7F3E
07FB2:  MOVF   01,W
07FB4:  SUBLW  20
07FB6:  BNZ   7FC2
....................          { 
....................             DC_ACK = 0x20; 
07FB8:  MOVLW  20
07FBA:  MOVLB  2
07FBC:  MOVWF  x3B
....................             break; 
07FBE:  BRA    7FD6
07FC0:  MOVLB  0
....................          } 
.................... //!         DC_ACK = fgetc(DC); 
.................... //!         fprintf(PC,"%x",DC_ACK); 
.................... //!         break; 
....................       } 
07FC2:  MOVLW  01
07FC4:  MOVLB  2
07FC6:  ADDWF  xA8,F
07FC8:  BTFSC  FD8.0
07FCA:  INCF   xA9,F
07FCC:  BTFSC  FD8.2
07FCE:  INCF   xAA,F
07FD0:  BTFSC  FD8.2
07FD2:  INCF   xAB,F
07FD4:  BRA    7F90
....................       //delay_ms(1); 
....................    }    
....................    return; 
07FD6:  MOVLB  0
07FD8:  GOTO   81E4 (RETURN)
.................... } 
....................  
.................... void DELETE_LDM_DATA() 
.................... { 
....................    for(int8 i = 0; i < 83; i++) 
*
07D92:  MOVLB  2
07D94:  CLRF   xA8
07D96:  MOVF   xA8,W
07D98:  SUBLW  52
07D9A:  BNC   7DB0
....................    { 
....................       LDM_DATA[i] = 0; 
07D9C:  CLRF   03
07D9E:  MOVF   xA8,W
07DA0:  ADDLW  3C
07DA2:  MOVWF  FE9
07DA4:  MOVLW  02
07DA6:  ADDWFC 03,W
07DA8:  MOVWF  FEA
07DAA:  CLRF   FEF
07DAC:  INCF   xA8,F
07DAE:  BRA    7D96
....................    } 
....................    return; 
07DB0:  MOVLB  0
07DB2:  GOTO   81C2 (RETURN)
.................... } 
....................  
.................... void GET_LDM_DATA() 
.................... { 
....................    fputc(0x67,DC); 
*
08022:  MOVLW  67
08024:  MOVLB  2
08026:  MOVWF  xAF
08028:  MOVLB  0
0802A:  BRA    7FDC
....................    int16 n = 0; 
0802C:  MOVLB  2
0802E:  CLRF   xA9
08030:  CLRF   xA8
....................    for(int32 i = 0; i < /*10000000*/1000000; i++) 
08032:  CLRF   xAD
08034:  CLRF   xAC
08036:  CLRF   xAB
08038:  CLRF   xAA
0803A:  MOVF   xAD,F
0803C:  BNZ   8096
0803E:  MOVF   xAC,W
08040:  SUBLW  0F
08042:  BNC   8096
08044:  BNZ   8054
08046:  MOVF   xAB,W
08048:  SUBLW  42
0804A:  BNC   8096
0804C:  BNZ   8054
0804E:  MOVF   xAA,W
08050:  SUBLW  3F
08052:  BNC   8096
....................    { 
....................       if(kbhit(DC)) 
08054:  BTFSC  F86.1
08056:  BRA    8084
....................       { 
....................          LDM_DATA[n] = fgetc(DC); 
08058:  MOVLW  3C
0805A:  ADDWF  xA8,W
0805C:  MOVWF  FE9
0805E:  MOVLW  02
08060:  ADDWFC xA9,W
08062:  MOVWF  FEA
08064:  MOVFF  FEA,2B2
08068:  MOVFF  FE9,2B1
0806C:  MOVLB  0
0806E:  RCALL  7F3E
08070:  MOVFF  2B2,FEA
08074:  MOVFF  2B1,FE9
08078:  MOVFF  01,FEF
....................          n++; 
0807C:  MOVLB  2
0807E:  INCF   xA8,F
08080:  BTFSC  FD8.2
08082:  INCF   xA9,F
.................... //!         if(n>83 && LDM_DATA[0]==0xAA && LDM_DATA[82]==0xBB ) 
.................... //!         { 
.................... //!            n = 0; 
.................... //!            fprintf(PC,"Get data from LDM\r\n"); 
.................... //!            delay_ms(2000); 
.................... //!            for(int m = 0; m < 83; m++) 
.................... //!            { 
.................... //!               fprintf(PC,"%x",LDM_DATA[m]); 
.................... //!            } 
.................... //!            fprintf(PC,"\r\n"); 
.................... //!            break; 
.................... //!         }else{ 
.................... //!            fprintf(PC,"Data were not correct\r\n"); 
.................... //!            for(int m = 0; m < 83; m++) 
.................... //!            { 
.................... //!               fprintf(PC,"%x",LDM_DATA[m]); 
.................... //!            } 
.................... //!            fprintf(PC,"\r\n"); 
.................... //!            break; 
.................... //!         } 
.................... //!       //break; 
....................       } 
08084:  MOVLW  01
08086:  ADDWF  xAA,F
08088:  BTFSC  FD8.0
0808A:  INCF   xAB,F
0808C:  BTFSC  FD8.2
0808E:  INCF   xAC,F
08090:  BTFSC  FD8.2
08092:  INCF   xAD,F
08094:  BRA    803A
....................    } 
....................    for(int m = 0; m < 83; m++) 
08096:  CLRF   xAE
08098:  MOVF   xAE,W
0809A:  SUBLW  52
0809C:  BNC   80C0
....................    { 
....................       fprintf(PC,"%x",LDM_DATA[m]); 
0809E:  CLRF   03
080A0:  MOVF   xAE,W
080A2:  ADDLW  3C
080A4:  MOVWF  FE9
080A6:  MOVLW  02
080A8:  ADDWFC 03,W
080AA:  MOVWF  FEA
080AC:  MOVFF  FEF,2D3
080B0:  MOVLW  57
080B2:  MOVWF  xD4
080B4:  MOVLB  0
080B6:  CALL   123E
080BA:  MOVLB  2
080BC:  INCF   xAE,F
080BE:  BRA    8098
....................    } 
....................    fprintf(PC,"\r\n"); 
080C0:  MOVLW  0D
080C2:  BTFSS  F9E.4
080C4:  BRA    80C2
080C6:  MOVWF  FAD
080C8:  MOVLW  0A
080CA:  BTFSS  F9E.4
080CC:  BRA    80CA
080CE:  MOVWF  FAD
....................    output_low(PIN_C4); 
080D0:  BCF    F94.4
080D2:  BCF    F8B.4
....................    output_low(PIN_A5); 
080D4:  BCF    F92.5
080D6:  BCF    F89.5
....................    for(m = 0; m < 83; m++) 
080D8:  CLRF   xAE
080DA:  MOVF   xAE,W
080DC:  SUBLW  52
080DE:  BNC   81AA
....................    { 
....................       WRITE_DATA_BYTE_OF(DC_STATUS_ADDRESS + m,LDM_DATA[m]); 
080E0:  MOVF   xAE,W
080E2:  ADDWF  53,W
080E4:  MOVWF  xAF
080E6:  MOVLW  00
080E8:  ADDWFC 54,W
080EA:  MOVWF  xB0
080EC:  MOVLW  00
080EE:  ADDWFC 55,W
080F0:  MOVWF  xB1
080F2:  MOVLW  00
080F4:  ADDWFC 56,W
080F6:  MOVWF  xB2
080F8:  CLRF   03
080FA:  MOVF   xAE,W
080FC:  ADDLW  3C
080FE:  MOVWF  FE9
08100:  MOVLW  02
08102:  ADDWFC 03,W
08104:  MOVWF  FEA
08106:  MOVFF  FEF,2D7
0810A:  MOVFF  2B2,2D6
0810E:  MOVFF  2B1,2D5
08112:  MOVFF  2B0,2D4
08116:  MOVFF  2AF,2D3
0811A:  MOVLB  0
0811C:  CALL   1080
....................       WRITE_DATA_BYTE_SCF(DC_STATUS_ADDRESS + m,LDM_DATA[m]); 
08120:  MOVLB  2
08122:  MOVF   xAE,W
08124:  ADDWF  53,W
08126:  MOVWF  xAF
08128:  MOVLW  00
0812A:  ADDWFC 54,W
0812C:  MOVWF  xB0
0812E:  MOVLW  00
08130:  ADDWFC 55,W
08132:  MOVWF  xB1
08134:  MOVLW  00
08136:  ADDWFC 56,W
08138:  MOVWF  xB2
0813A:  CLRF   03
0813C:  MOVF   xAE,W
0813E:  ADDLW  3C
08140:  MOVWF  FE9
08142:  MOVLW  02
08144:  ADDWFC 03,W
08146:  MOVWF  FEA
08148:  MOVFF  FEF,2D7
0814C:  MOVFF  2B2,2D6
08150:  MOVFF  2B1,2D5
08154:  MOVFF  2B0,2D4
08158:  MOVFF  2AF,2D3
0815C:  MOVLB  0
0815E:  CALL   110C
....................       WRITE_DATA_BYTE_SMF(DC_STATUS_ADDRESS + m,LDM_DATA[m]); 
08162:  MOVLB  2
08164:  MOVF   xAE,W
08166:  ADDWF  53,W
08168:  MOVWF  xAF
0816A:  MOVLW  00
0816C:  ADDWFC 54,W
0816E:  MOVWF  xB0
08170:  MOVLW  00
08172:  ADDWFC 55,W
08174:  MOVWF  xB1
08176:  MOVLW  00
08178:  ADDWFC 56,W
0817A:  MOVWF  xB2
0817C:  CLRF   03
0817E:  MOVF   xAE,W
08180:  ADDLW  3C
08182:  MOVWF  FE9
08184:  MOVLW  02
08186:  ADDWFC 03,W
08188:  MOVWF  FEA
0818A:  MOVFF  FEF,2D7
0818E:  MOVFF  2B2,2D6
08192:  MOVFF  2B1,2D5
08196:  MOVFF  2B0,2D4
0819A:  MOVFF  2AF,2D3
0819E:  MOVLB  0
081A0:  CALL   1198
081A4:  MOVLB  2
081A6:  INCF   xAE,F
081A8:  BRA    80DA
....................    } 
....................    output_high(PIN_C4); 
081AA:  BCF    F94.4
081AC:  BSF    F8B.4
....................    DC_STATUS_ADDRESS = DC_STATUS_ADDRESS + 83; 
081AE:  MOVLW  53
081B0:  ADDWF  53,F
081B2:  MOVLW  00
081B4:  ADDWFC 54,F
081B6:  ADDWFC 55,F
081B8:  ADDWFC 56,F
....................     
....................    return; 
081BA:  MOVLB  0
081BC:  GOTO   8206 (RETURN)
.................... } 
....................  
.................... void DATACOLLECTION_TEST_OPERATION() 
.................... { 
....................    DELETE_LDM_DATA();//prepare for mission 
081C0:  BRA    7D92
....................    LOOP_DC_STATUS_ADDRESS(); 
081C2:  BRA    7DB6
....................    fprintf(PC,"Trun ON LDM\r\n"); 
081C4:  MOVLW  16
081C6:  MOVWF  FF6
081C8:  MOVLW  0B
081CA:  MOVWF  FF7
081CC:  MOVLW  00
081CE:  MOVWF  FF8
081D0:  CALL   24F4
....................    Turn_On_DC(); 
081D4:  BRA    7F36
....................    delay_ms(30); 
081D6:  MOVLW  1E
081D8:  MOVLB  2
081DA:  MOVWF  xDB
081DC:  MOVLB  0
081DE:  CALL   230E
....................       //for(int32 num = 0; num < 10000 ;num++){} 
....................    //fputc(0x25,DC); 
....................    //while(true) 
....................    //{ 
....................       //fputc(0x69,DC); 
....................       //fputc(fgetc(DC),PC); 
....................    //} 
....................    //fprintf(PC,"SEND COMMAND AND WAIT FOR RESPONSE\r\n"); 
....................    CHECK_ACK_FROM_DC_10k(); 
081E2:  BRA    7F86
....................    if(DC_ACK == 0x20) 
081E4:  MOVLB  2
081E6:  MOVF   x3B,W
081E8:  SUBLW  20
081EA:  BNZ   820A
....................    { 
....................        
....................       fprintf(PC,"Get ACK From LDM\r\n"); 
081EC:  MOVLW  24
081EE:  MOVWF  FF6
081F0:  MOVLW  0B
081F2:  MOVWF  FF7
081F4:  MOVLW  00
081F6:  MOVWF  FF8
081F8:  MOVLB  0
081FA:  CALL   24F4
....................       //delay_ms(1000); 
....................       DC_ACK = 0; 
081FE:  MOVLB  2
08200:  CLRF   x3B
....................        
....................       //fprintf(PC,"WAITING NEXT RESPONSE\r\n"); 
....................       GET_LDM_DATA(); 
08202:  MOVLB  0
08204:  BRA    8022
.................... //!      CHECK_ACK_FROM_DC_10k(); 
.................... //!      if(DC_ACK == 0x25) 
.................... //!      { 
.................... //!         fprintf(PC,"DC WORKING\r\n"); 
.................... //!         output_low(PIN_C4); 
.................... //!         Write_DATA_BYTE_SCF(DC_STATUS_ADDRESS,0xBB); 
.................... //!         Write_DATA_BYTE_SMF(DC_STATUS_ADDRESS,0xBB); 
.................... //!         output_high(PIN_C4); 
.................... //!         fprintf(PC,"COM FLASH ADDRESS:%x, Status:BB ",DC_STATUS_ADDRESS); 
.................... //!         DC_STATUS_ADDRESS++; 
.................... //!         DC_ACK = 0; 
.................... //!      }else{ 
.................... //!         DC_ACK = 0; 
.................... //!         fprintf(PC,"FAILUED GETTING ACK From DC\r\n"); 
.................... //!         output_low(PIN_C4); 
.................... //!         Write_DATA_BYTE_SCF(DC_STATUS_ADDRESS,0xCC); 
.................... //!         Write_DATA_BYTE_SMF(DC_STATUS_ADDRESS,0xCC); 
.................... //!         output_high(PIN_C4); 
.................... //!         fprintf(PC,"COM FLASH ADDRESS:%x, Status:CC ",DC_STATUS_ADDRESS); 
.................... //!         DC_STATUS_ADDRESS++; 
.................... //!         DC_ACK = 0; 
.................... //!      } 
....................    }else{ 
08206:  BRA    821E
08208:  MOVLB  2
....................       DC_ACK = 0; 
0820A:  CLRF   x3B
....................       fprintf(PC,"FAILUED GETTING ACK From DC\r\n"); 
0820C:  MOVLW  38
0820E:  MOVWF  FF6
08210:  MOVLW  0B
08212:  MOVWF  FF7
08214:  MOVLW  00
08216:  MOVWF  FF8
08218:  MOVLB  0
0821A:  CALL   24F4
....................    } 
....................     
....................    fprintf(PC,"Turn OFF...\r\n"); 
0821E:  MOVLW  56
08220:  MOVWF  FF6
08222:  MOVLW  0B
08224:  MOVWF  FF7
08226:  MOVLW  00
08228:  MOVWF  FF8
0822A:  CALL   24F4
....................    Turn_Off_DC(); 
0822E:  CALL   2090
....................    output_high(PIN_C4); 
08232:  BCF    F94.4
08234:  BSF    F8B.4
....................     
....................    return; 
08236:  RETURN 0
.................... } 
....................  
.................... //-------Kill Switch----------------------------------------------------------- 
.................... Static int8 KILL_COUNTER = 0; 
.................... void Count_Kill_Flag() 
.................... { 
....................    KILL_COUNTER++; 
*
0B12E:  MOVLB  2
0B130:  INCF   x8F,F
....................    if(Kill_COUNTER > 4) 
0B132:  MOVF   x8F,W
0B134:  SUBLW  04
0B136:  BC    B14A
....................    { 
....................       Kill_FLAG_MAIN = 1; 
0B138:  MOVLW  01
0B13A:  MOVLB  0
0B13C:  MOVWF  x6B
....................       output_high(PIN_A4); //Kill Switch ON 
0B13E:  BCF    F92.4
0B140:  BSF    F89.4
....................       fputc(0x17,FAB); 
0B142:  MOVLW  17
0B144:  CALL   339A
0B148:  MOVLB  2
....................    } 
....................    fprintf(PC,"Kill counter: %x\r\n",KILL_COUNTER); 
0B14A:  MOVLW  64
0B14C:  MOVWF  FF6
0B14E:  MOVLW  0B
0B150:  MOVWF  FF7
0B152:  MOVLW  00
0B154:  MOVWF  FF8
0B156:  MOVLW  0E
0B158:  MOVWF  xD2
0B15A:  MOVLB  0
0B15C:  CALL   120C
0B160:  MOVFF  28F,2D3
0B164:  MOVLW  57
0B166:  MOVLB  2
0B168:  MOVWF  xD4
0B16A:  MOVLB  0
0B16C:  CALL   123E
0B170:  MOVLW  0D
0B172:  BTFSS  F9E.4
0B174:  BRA    B172
0B176:  MOVWF  FAD
0B178:  MOVLW  0A
0B17A:  BTFSS  F9E.4
0B17C:  BRA    B17A
0B17E:  MOVWF  FAD
....................    return; 
0B180:  RETURN 0
.................... } 
....................  
.................... void Disable_Kill() 
.................... { 
....................    KILL_COUNTER = 0; 
0B182:  MOVLB  2
0B184:  CLRF   x8F
....................     
....................    Kill_FLAG_MAIN = 0; 
0B186:  MOVLB  0
0B188:  CLRF   x6B
....................    output_low(PIN_A4); //Kill Switch ON 
0B18A:  BCF    F92.4
0B18C:  BCF    F89.4
....................    fputc(0x18,FAB); 
0B18E:  MOVLW  18
0B190:  CALL   339A
....................     
....................    fprintf(PC,"Kill counter: %x\r\n",KILL_COUNTER); 
0B194:  MOVLW  78
0B196:  MOVWF  FF6
0B198:  MOVLW  0B
0B19A:  MOVWF  FF7
0B19C:  MOVLW  00
0B19E:  MOVWF  FF8
0B1A0:  MOVLW  0E
0B1A2:  MOVLB  2
0B1A4:  MOVWF  xD2
0B1A6:  MOVLB  0
0B1A8:  CALL   120C
0B1AC:  MOVFF  28F,2D3
0B1B0:  MOVLW  57
0B1B2:  MOVLB  2
0B1B4:  MOVWF  xD4
0B1B6:  MOVLB  0
0B1B8:  CALL   123E
0B1BC:  MOVLW  0D
0B1BE:  BTFSS  F9E.4
0B1C0:  BRA    B1BE
0B1C2:  MOVWF  FAD
0B1C4:  MOVLW  0A
0B1C6:  BTFSS  F9E.4
0B1C8:  BRA    B1C6
0B1CA:  MOVWF  FAD
....................    return; 
0B1CC:  RETURN 0
.................... } 
....................  
....................  
.................... //-------Reset Function-------------------------------------------------------- 
....................  
....................  
.................... void BC_ON_30min() 
.................... { 
....................    if(currenttime > 1805 && BC_ATTEMPT_FLAG == 0)//if first attempt and 30 min(1800sec) passed 
*
06D38:  MOVLB  1
06D3A:  MOVF   x53,W
06D3C:  SUBLW  06
06D3E:  BC    6E02
06D40:  XORLW  FF
06D42:  BNZ   6D4A
06D44:  MOVF   x52,W
06D46:  SUBLW  0D
06D48:  BC    6E02
06D4A:  MOVLB  0
06D4C:  MOVF   x63,F
06D4E:  BTFSC  FD8.2
06D50:  BRA    6D56
06D52:  MOVLB  1
06D54:  BRA    6E02
....................    { 
....................       fprintf(PC,"send command to RESET PIC\r\n"); 
06D56:  MOVLW  8C
06D58:  MOVWF  FF6
06D5A:  MOVLW  0B
06D5C:  MOVWF  FF7
06D5E:  MOVLW  00
06D60:  MOVWF  FF8
06D62:  CALL   24F4
....................       for(int16 num = 0; num < 200; num++) 
06D66:  MOVLB  2
06D68:  CLRF   xAF
06D6A:  CLRF   xAE
06D6C:  MOVF   xAF,F
06D6E:  BNZ   6D94
06D70:  MOVF   xAE,W
06D72:  SUBLW  C7
06D74:  BNC   6D94
....................       { 
....................          fputc(0xBC,reset); 
06D76:  MOVLW  BC
06D78:  MOVLB  0
06D7A:  CALL   154E
....................          delay_ms(5); 
06D7E:  MOVLW  05
06D80:  MOVLB  2
06D82:  MOVWF  xDB
06D84:  MOVLB  0
06D86:  CALL   230E
06D8A:  MOVLB  2
06D8C:  INCF   xAE,F
06D8E:  BTFSC  FD8.2
06D90:  INCF   xAF,F
06D92:  BRA    6D6C
....................       } 
....................       delay_ms(1000); 
06D94:  MOVLW  04
06D96:  MOVWF  xB0
06D98:  MOVLW  FA
06D9A:  MOVWF  xDB
06D9C:  MOVLB  0
06D9E:  CALL   230E
06DA2:  MOVLB  2
06DA4:  DECFSZ xB0,F
06DA6:  BRA    6D98
....................       if(reset_bffr[0] == 0xCB) 
06DA8:  MOVLB  0
06DAA:  MOVF   xE0,W
06DAC:  SUBLW  CB
06DAE:  BNZ   6E00
....................       { 
....................          BC_OPERATION(); 
06DB0:  CALL   5AD8
....................          BC_ATTEMPT_FLAG++; 
06DB4:  INCF   x63,F
....................          WRITE_FLAG_to_EEPROM(); 
06DB6:  CALL   52B4
....................          STORE_FLAG_INFO(); 
06DBA:  CALL   50A4
....................          STORE_ADRESS_DATA_TO_FLASH(); 
06DBE:  CALL   2ABA
....................          reset_bffr[0] = 0; 
06DC2:  CLRF   xE0
....................          RESET_DATA = 0; 
06DC4:  CLRF   xDF
....................          delay_ms(1000); 
06DC6:  MOVLW  04
06DC8:  MOVLB  2
06DCA:  MOVWF  xB0
06DCC:  MOVLW  FA
06DCE:  MOVWF  xDB
06DD0:  MOVLB  0
06DD2:  CALL   230E
06DD6:  MOVLB  2
06DD8:  DECFSZ xB0,F
06DDA:  BRA    6DCC
....................          delay_ms(20000);//wait until RESET goes back to nomal loop 
06DDC:  MOVLW  50
06DDE:  MOVWF  xB0
06DE0:  MOVLW  FA
06DE2:  MOVWF  xDB
06DE4:  MOVLB  0
06DE6:  CALL   230E
06DEA:  MOVLB  2
06DEC:  DECFSZ xB0,F
06DEE:  BRA    6DE0
....................          SAVE_SAT_LOG(0xBC,0x30,0x30);//first 30 min antenna deployment 
06DF0:  MOVLW  BC
06DF2:  MOVWF  xC4
06DF4:  MOVLW  30
06DF6:  MOVWF  xC5
06DF8:  MOVWF  xC6
06DFA:  MOVLB  0
06DFC:  CALL   2DCE
06E00:  MOVLB  1
....................       } 
....................    } 
....................    return; 
06E02:  MOVLB  0
06E04:  RETURN 0
.................... } 
....................  
....................  
....................  
.................... void HIGHSAMP_SENSOR_COLLECTION(int16 times) 
.................... { 
....................    LOOP_HIGH_SAMP_HK_ADDRESS(); 
*
0721C:  GOTO   6506
....................    CHECK_50_and_CW_RESPOND(); 
07220:  CALL   321A
....................    LOOP_FAB_HK_ADDRESS(); 
07224:  CALL   2FB0
....................    CHECK_50_and_CW_RESPOND(); 
07228:  CALL   321A
....................    LOOP_FAB_CW_ADDRESS(); 
0722C:  CALL   3228
....................    int32 num = 0; 
07230:  MOVLB  2
07232:  CLRF   xAD
07234:  CLRF   xAC
07236:  CLRF   xAB
07238:  CLRF   xAA
....................    while(num < times) 
0723A:  MOVF   xAD,F
0723C:  BTFSS  FD8.2
0723E:  BRA    7300
07240:  MOVF   xAC,F
07242:  BNZ   7300
07244:  MOVF   xAB,W
07246:  SUBWF  xA9,W
07248:  BNC   7300
0724A:  BNZ   7252
0724C:  MOVF   xA8,W
0724E:  SUBWF  xAA,W
07250:  BC    7300
....................    { 
....................       CHECK_50_and_CW_RESPOND(); 
07252:  MOVLB  0
07254:  CALL   321A
....................       if(FAB_FLAG > 4) 
07258:  MOVLB  2
0725A:  MOVF   x34,F
0725C:  BNZ   726C
0725E:  MOVF   x33,F
07260:  BNZ   726C
07262:  MOVF   x32,F
07264:  BNZ   726C
07266:  MOVF   x31,W
07268:  SUBLW  04
0726A:  BC    72DE
....................       { 
....................          FAB_FLAG = 0; 
0726C:  CLRF   x34
0726E:  CLRF   x33
07270:  CLRF   x32
07272:  CLRF   x31
....................          HIGH_SAMP_FAB_OPERATION(); 
07274:  MOVLB  0
07276:  BRA    6ACE
....................           
....................          num++; 
07278:  MOVLW  01
0727A:  MOVLB  2
0727C:  ADDWF  xAA,F
0727E:  BTFSC  FD8.0
07280:  INCF   xAB,F
07282:  BTFSC  FD8.2
07284:  INCF   xAC,F
07286:  BTFSC  FD8.2
07288:  INCF   xAD,F
....................          if((num % 20) == 0)//once in the 20 times(every 100sec save the address to the flash) 
0728A:  BSF    FD8.1
0728C:  MOVLW  02
0728E:  MOVWF  FEA
07290:  MOVLW  AE
07292:  MOVWF  FE9
07294:  MOVFF  2AD,2C7
07298:  MOVFF  2AC,2C6
0729C:  MOVFF  2AB,2C5
072A0:  MOVFF  2AA,2C4
072A4:  CLRF   xCB
072A6:  CLRF   xCA
072A8:  CLRF   xC9
072AA:  MOVLW  14
072AC:  MOVWF  xC8
072AE:  MOVLB  0
072B0:  CALL   3E92
072B4:  MOVFF  2B1,2B5
072B8:  MOVFF  2B0,2B4
072BC:  MOVFF  2AF,2B3
072C0:  MOVFF  2AE,2B2
072C4:  MOVLB  2
072C6:  MOVF   xB2,F
072C8:  BNZ   72DE
072CA:  MOVF   xB3,F
072CC:  BNZ   72DE
072CE:  MOVF   xB4,F
072D0:  BNZ   72DE
072D2:  MOVF   xB5,F
072D4:  BNZ   72DE
....................          { 
....................             STORE_ADRESS_DATA_TO_FLASH();//for store the flag 
072D6:  MOVLB  0
072D8:  CALL   2ABA
072DC:  MOVLB  2
....................          }  
....................       } 
....................       BC_ON_30min(); 
072DE:  MOVLB  0
072E0:  RCALL  6D38
....................       if((CMD_FROM_PC[0] == 0xAB)||(in_bffr_main[4] == 0xAB))//forced termination function 
072E2:  MOVF   x74,W
072E4:  SUBLW  AB
072E6:  BZ    72EE
072E8:  MOVF   x7E,W
072EA:  SUBLW  AB
072EC:  BNZ   72F8
....................       { 
....................          Delete_Buffer(); 
072EE:  CALL   31F4
....................          break; 
072F2:  MOVLB  2
072F4:  BRA    7300
072F6:  MOVLB  0
....................       } 
....................       PC_DATA = 0; 
072F8:  CLRF   x8D
....................       RESET_SATELLITE(); 
072FA:  RCALL  720E
072FC:  MOVLB  2
072FE:  BRA    723A
....................    } 
....................    fprintf(PC,"HSSC DONE\r\n"); 
07300:  MOVLW  A8
07302:  MOVWF  FF6
07304:  MOVLW  0B
07306:  MOVWF  FF7
07308:  MOVLW  00
0730A:  MOVWF  FF8
0730C:  MOVLB  0
0730E:  CALL   24F4
....................    return; 
07312:  RETURN 0
.................... } 
....................  
.................... void REPLY_TO_COM(int8 data1,int8 data2) 
.................... { 
....................    if(ACK_for_COM[12] == 0x66 && ACK_for_COM[14] == 0x77) 
*
0AF42:  MOVLB  2
0AF44:  MOVF   x22,W
0AF46:  SUBLW  66
0AF48:  BNZ   AFC0
0AF4A:  MOVF   x24,W
0AF4C:  SUBLW  77
0AF4E:  BNZ   AFC0
....................    { 
....................       for(int n = 0; n < 24; n++)//send back the acknowledge 
0AF50:  CLRF   xAA
0AF52:  MOVF   xAA,W
0AF54:  SUBLW  17
0AF56:  BNC   AF78
....................       { 
....................          fputc(ACK_for_COM[n],COM); 
0AF58:  CLRF   03
0AF5A:  MOVF   xAA,W
0AF5C:  ADDLW  16
0AF5E:  MOVWF  FE9
0AF60:  MOVLW  02
0AF62:  ADDWFC 03,W
0AF64:  MOVWF  FEA
0AF66:  MOVFF  FEF,2AC
0AF6A:  MOVF   xAC,W
0AF6C:  MOVLB  0
0AF6E:  CALL   312C
0AF72:  MOVLB  2
0AF74:  INCF   xAA,F
0AF76:  BRA    AF52
....................       } 
....................       for(n = 0; n < 24; n++)//send back the acknowledge 
0AF78:  CLRF   xAA
0AF7A:  MOVF   xAA,W
0AF7C:  SUBLW  17
0AF7E:  BNC   AFAA
....................       { 
....................          fprintf(PC,"%x,",ACK_for_COM[n]); 
0AF80:  CLRF   03
0AF82:  MOVF   xAA,W
0AF84:  ADDLW  16
0AF86:  MOVWF  FE9
0AF88:  MOVLW  02
0AF8A:  ADDWFC 03,W
0AF8C:  MOVWF  FEA
0AF8E:  MOVFF  FEF,2D3
0AF92:  MOVLW  57
0AF94:  MOVWF  xD4
0AF96:  MOVLB  0
0AF98:  CALL   123E
0AF9C:  MOVLW  2C
0AF9E:  BTFSS  F9E.4
0AFA0:  BRA    AF9E
0AFA2:  MOVWF  FAD
0AFA4:  MOVLB  2
0AFA6:  INCF   xAA,F
0AFA8:  BRA    AF7A
....................       } 
....................       fprintf(PC,",AUTO\r\n"); 
0AFAA:  MOVLW  B4
0AFAC:  MOVWF  FF6
0AFAE:  MOVLW  0B
0AFB0:  MOVWF  FF7
0AFB2:  MOVLW  00
0AFB4:  MOVWF  FF8
0AFB6:  MOVLB  0
0AFB8:  CALL   24F4
....................    } 
0AFBC:  BRA    B03C
0AFBE:  MOVLB  2
....................    else{ 
....................       //REFLESH_MSN_ACK_for_COM(); 
.................... //!      for(int n = 7; n < 24; n++)//send back the acknowledge 
.................... //!      { 
.................... //!         ACK_for_COM[n] = 0xff; 
.................... //!      } 
....................       ACK_for_COM[0] = 0xAA; 
0AFC0:  MOVLW  AA
0AFC2:  MOVWF  x16
....................       ACK_for_COM[12] = data1; 
0AFC4:  MOVFF  2A8,222
....................       ACK_for_COM[13] = data2; 
0AFC8:  MOVFF  2A9,223
....................       ACK_for_COM[23] = 0xBB; 
0AFCC:  MOVLW  BB
0AFCE:  MOVWF  x2D
....................       for(int n = 0; n < 24; n++)//send back the acknowledge 
0AFD0:  CLRF   xAB
0AFD2:  MOVF   xAB,W
0AFD4:  SUBLW  17
0AFD6:  BNC   AFF8
....................       { 
....................          fputc(ACK_for_COM[n],COM); 
0AFD8:  CLRF   03
0AFDA:  MOVF   xAB,W
0AFDC:  ADDLW  16
0AFDE:  MOVWF  FE9
0AFE0:  MOVLW  02
0AFE2:  ADDWFC 03,W
0AFE4:  MOVWF  FEA
0AFE6:  MOVFF  FEF,2AC
0AFEA:  MOVF   xAC,W
0AFEC:  MOVLB  0
0AFEE:  CALL   312C
0AFF2:  MOVLB  2
0AFF4:  INCF   xAB,F
0AFF6:  BRA    AFD2
....................       } 
....................       for(n = 0; n < 24; n++)//send back the acknowledge 
0AFF8:  CLRF   xAB
0AFFA:  MOVF   xAB,W
0AFFC:  SUBLW  17
0AFFE:  BNC   B02A
....................       { 
....................          fprintf(PC,"%x,",ACK_for_COM[n]); 
0B000:  CLRF   03
0B002:  MOVF   xAB,W
0B004:  ADDLW  16
0B006:  MOVWF  FE9
0B008:  MOVLW  02
0B00A:  ADDWFC 03,W
0B00C:  MOVWF  FEA
0B00E:  MOVFF  FEF,2D3
0B012:  MOVLW  57
0B014:  MOVWF  xD4
0B016:  MOVLB  0
0B018:  CALL   123E
0B01C:  MOVLW  2C
0B01E:  BTFSS  F9E.4
0B020:  BRA    B01E
0B022:  MOVWF  FAD
0B024:  MOVLB  2
0B026:  INCF   xAB,F
0B028:  BRA    AFFA
....................       } 
....................       fprintf(PC,",NOMAL\r\n"); 
0B02A:  MOVLW  BC
0B02C:  MOVWF  FF6
0B02E:  MOVLW  0B
0B030:  MOVWF  FF7
0B032:  MOVLW  00
0B034:  MOVWF  FF8
0B036:  MOVLB  0
0B038:  CALL   24F4
....................    } 
0B03C:  RETURN 0
....................  
.................... } 
....................  
.................... void UPDATE_ACK_for_COM(int8 data1,int8 data2,int32 address, int16 size)//for automatical mission 
.................... { 
....................    REFLESH_MSN_ACK_for_COM(); 
*
0733A:  BRA    7314
....................    ACK_for_COM[15] = address >> 24; 
0733C:  MOVFF  2AB,225
....................    ACK_for_COM[16] = address >> 16; 
07340:  MOVFF  2AA,226
....................    ACK_for_COM[17] = address >> 8; 
07344:  MOVFF  2A9,227
....................    ACK_for_COM[18] = address; 
07348:  MOVFF  2A8,228
....................     
....................    ACK_for_COM[19] = size >> 24; 
0734C:  MOVLB  2
0734E:  CLRF   x29
....................    ACK_for_COM[20] = size >> 16; 
07350:  CLRF   x2A
....................    ACK_for_COM[21] = size >> 8; 
07352:  MOVFF  2AD,22B
....................    ACK_for_COM[22] = size; 
07356:  MOVFF  2AC,22C
....................     
....................    ACK_for_COM[0] = 0xAA; 
0735A:  MOVLW  AA
0735C:  MOVWF  x16
....................    ACK_for_COM[12] = data1; 
0735E:  MOVFF  2A6,222
....................    ACK_for_COM[14] = data2; 
07362:  MOVFF  2A7,224
....................    ACK_for_COM[23] = 0xBB; 
07366:  MOVLW  BB
07368:  MOVWF  x2D
....................    for(int n = 0; n < 24; n++)//send back the acknowledge 
0736A:  CLRF   xAE
0736C:  MOVF   xAE,W
0736E:  SUBLW  17
07370:  BNC   7392
....................    { 
....................       fputc(ACK_for_COM[n],COM); 
07372:  CLRF   03
07374:  MOVF   xAE,W
07376:  ADDLW  16
07378:  MOVWF  FE9
0737A:  MOVLW  02
0737C:  ADDWFC 03,W
0737E:  MOVWF  FEA
07380:  MOVFF  FEF,2AF
07384:  MOVF   xAF,W
07386:  MOVLB  0
07388:  CALL   312C
0738C:  MOVLB  2
0738E:  INCF   xAE,F
07390:  BRA    736C
....................    } 
07392:  MOVLB  0
07394:  RETURN 0
.................... } 
....................  
....................  
....................  
....................  
....................  
....................  
....................  
....................  
....................  
.................... #include<AUTO_MSN.c> 
.................... #define loop_day 70 
.................... int16 AD = 0;//DATE DATA 
.................... int16 D = 0;//Mainichi address no hozon basyo wo tuika suru. Kihonteki ni hinichi ga hueru to 5 packet saki ni susumu. 
.................... //everyday change the DL address. nomally, inclease 5 packet for each day 
.................... int8 ADH = 0;//for satellite log(int16 date high) 
.................... int8 ADL = 0;//for satellite log(int16 date low) 
.................... int32 DL_AD = 0;//Data size to increase when day changed 
....................  
.................... //@@@@@@@@@@@ HIGH SAMPLING@@@@@@@@@@@@@@@@@@@@@@@@@@@@@@@@@@@@@@@@@@@@@@@@@@@@@@@@@@@@@@@@@@@@@@@@ 
.................... void DAY0()//2 hour high sampling sensor 
.................... { 
....................    SAVE_SAT_LOG(0xFA,0x11,0x11);//01,01: automatical mission 
07396:  MOVLW  FA
07398:  MOVLB  2
0739A:  MOVWF  xC4
0739C:  MOVLW  11
0739E:  MOVWF  xC5
073A0:  MOVWF  xC6
073A2:  MOVLB  0
073A4:  CALL   2DCE
....................    FIRST_HSSC_DONE = 1; 
073A8:  MOVLW  01
073AA:  MOVWF  x6D
....................    STORE_FLAG_INFO();//save passed days 
073AC:  CALL   50A4
....................    WRITE_FLAG_to_EEPROM(); 
073B0:  CALL   52B4
....................    HIGHSAMP_SENSOR_COLLECTION(1440); 
073B4:  MOVLW  05
073B6:  MOVLB  2
073B8:  MOVWF  xA9
073BA:  MOVLW  A0
073BC:  MOVWF  xA8
073BE:  MOVLB  0
073C0:  RCALL  721C
....................    STORE_ADRESS_DATA_TO_FLASH(); 
073C2:  CALL   2ABA
....................     
....................    AD = PASSED_DAYS % loop_day;//1,2,3,4 
073C6:  MOVFF  65,2B4
073CA:  MOVFF  64,2B3
073CE:  MOVLB  2
073D0:  CLRF   xB6
073D2:  MOVLW  46
073D4:  MOVWF  xB5
073D6:  MOVLB  0
073D8:  CALL   5D4E
073DC:  MOVFF  00,290
073E0:  MOVLB  2
073E2:  MOVFF  03,291
....................    ADH = AD << 8; 
073E6:  CLRF   x94
....................    ADL = AD; 
073E8:  MOVFF  290,295
....................    SAVE_SAT_LOG(0xFD,ADH,ADL);//11,11: automatical mission 
073EC:  MOVLW  FD
073EE:  MOVWF  xC4
073F0:  MOVFF  294,2C5
073F4:  MOVFF  295,2C6
073F8:  MOVLB  0
073FA:  CALL   2DCE
....................    UPDATE_ACK_for_COM(0x66,0x77,SECT*1639,405);//118byte*3600*2/5 (about 2.59sector) 65536*1639 
073FE:  MOVLW  66
07400:  MOVLB  2
07402:  MOVWF  xA6
07404:  MOVLW  77
07406:  MOVWF  xA7
07408:  MOVLW  06
0740A:  MOVWF  xAB
0740C:  MOVLW  67
0740E:  MOVWF  xAA
07410:  CLRF   xA9
07412:  CLRF   xA8
07414:  MOVLW  01
07416:  MOVWF  xAD
07418:  MOVLW  95
0741A:  MOVWF  xAC
0741C:  MOVLB  0
0741E:  RCALL  733A
....................     
....................    return; 
07420:  GOTO   9CF6 (RETURN)
.................... } 
....................  
.................... void DAY1to4()//HIGH SAMPLING DL 
.................... { 
....................    AD = PASSED_DAYS % loop_day;//1,2,3,4 
*
074A2:  MOVFF  65,2B4
074A6:  MOVFF  64,2B3
074AA:  MOVLB  2
074AC:  CLRF   xB6
074AE:  MOVLW  46
074B0:  MOVWF  xB5
074B2:  MOVLB  0
074B4:  CALL   5D4E
074B8:  MOVFF  00,290
074BC:  MOVLB  2
074BE:  MOVFF  03,291
....................    ADH = AD << 8; 
074C2:  CLRF   x94
....................    ADL = AD; 
074C4:  MOVFF  290,295
....................    D = AD; 
074C8:  MOVFF  291,293
074CC:  MOVFF  290,292
....................     
....................    DL_AD = 220*D; 
074D0:  CLRF   xAB
074D2:  MOVLW  DC
074D4:  MOVWF  xAA
074D6:  MOVFF  293,2AD
074DA:  MOVFF  292,2AC
074DE:  MOVLB  0
074E0:  RCALL  7424
074E2:  MOVLB  2
074E4:  CLRF   x99
074E6:  CLRF   x98
074E8:  MOVFF  02,297
074EC:  MOVFF  01,296
....................    DL_AD = DL_AD * 81; 
074F0:  MOVFF  299,2A5
074F4:  MOVFF  298,2A4
074F8:  MOVFF  297,2A3
074FC:  MOVFF  296,2A2
07500:  CLRF   xA9
07502:  CLRF   xA8
07504:  CLRF   xA7
07506:  MOVLW  51
07508:  MOVWF  xA6
0750A:  MOVLB  0
0750C:  RCALL  7446
0750E:  MOVFF  03,299
07512:  MOVFF  02,298
07516:  MOVFF  01,297
0751A:  MOVFF  00,296
....................    ///////////////PACKET///////////////// 
....................    //220-224, 440-444, 660-664, 880-884 
....................    ////////////////////////////////////// 
....................     
....................     
....................    SAVE_SAT_LOG(0xFD,ADH,ADL);//11,11: automatical mission 
0751E:  MOVLW  FD
07520:  MOVLB  2
07522:  MOVWF  xC4
07524:  MOVFF  294,2C5
07528:  MOVFF  295,2C6
0752C:  MOVLB  0
0752E:  CALL   2DCE
....................    UPDATE_ACK_for_COM(0x66,0x77,SECT*1639+DL_AD,405);//65536*8 
07532:  MOVLB  2
07534:  MOVFF  296,2A2
07538:  MOVFF  297,2A3
0753C:  MOVLW  67
0753E:  ADDWF  x98,W
07540:  MOVWF  xA4
07542:  MOVLW  06
07544:  ADDWFC x99,W
07546:  MOVWF  xA5
07548:  MOVLW  66
0754A:  MOVWF  xA6
0754C:  MOVLW  77
0754E:  MOVWF  xA7
07550:  MOVFF  2A5,2AB
07554:  MOVFF  2A4,2AA
07558:  MOVFF  297,2A9
0755C:  MOVFF  296,2A8
07560:  MOVLW  01
07562:  MOVWF  xAD
07564:  MOVLW  95
07566:  MOVWF  xAC
07568:  MOVLB  0
0756A:  RCALL  733A
....................    ADH=0; ADL=0; DL_AD=0; D=0; 
0756C:  MOVLB  2
0756E:  CLRF   x94
07570:  CLRF   x95
07572:  CLRF   x99
07574:  CLRF   x98
07576:  CLRF   x97
07578:  CLRF   x96
0757A:  CLRF   x93
0757C:  CLRF   x92
....................    return; 
0757E:  MOVLB  0
07580:  GOTO   9D84 (RETURN)
.................... } 
....................  
.................... void DAY1to4_ADDRESS()//HIGH SAMPLING DL 
.................... { 
....................    AD = PASSED_DAYS % loop_day;//1,2,3,4 
*
0A186:  MOVFF  65,2B4
0A18A:  MOVFF  64,2B3
0A18E:  MOVLB  2
0A190:  CLRF   xB6
0A192:  MOVLW  46
0A194:  MOVWF  xB5
0A196:  MOVLB  0
0A198:  CALL   5D4E
0A19C:  MOVFF  00,290
0A1A0:  MOVLB  2
0A1A2:  MOVFF  03,291
....................    ADH = AD << 8; 
0A1A6:  CLRF   x94
....................    ADL = AD; 
0A1A8:  MOVFF  290,295
....................    D = AD; 
0A1AC:  MOVFF  291,293
0A1B0:  MOVFF  290,292
....................     
....................    DL_AD = 220*D; 
0A1B4:  CLRF   xAB
0A1B6:  MOVLW  DC
0A1B8:  MOVWF  xAA
0A1BA:  MOVFF  293,2AD
0A1BE:  MOVFF  292,2AC
0A1C2:  MOVLB  0
0A1C4:  CALL   7424
0A1C8:  MOVLB  2
0A1CA:  CLRF   x99
0A1CC:  CLRF   x98
0A1CE:  MOVFF  02,297
0A1D2:  MOVFF  01,296
....................    DL_AD = DL_AD * 81; 
0A1D6:  MOVFF  299,2A5
0A1DA:  MOVFF  298,2A4
0A1DE:  MOVFF  297,2A3
0A1E2:  MOVFF  296,2A2
0A1E6:  CLRF   xA9
0A1E8:  CLRF   xA8
0A1EA:  CLRF   xA7
0A1EC:  MOVLW  51
0A1EE:  MOVWF  xA6
0A1F0:  MOVLB  0
0A1F2:  CALL   7446
0A1F6:  MOVFF  03,299
0A1FA:  MOVFF  02,298
0A1FE:  MOVFF  01,297
0A202:  MOVFF  00,296
....................    ///////////////PACKET///////////////// 
....................    //220-224, 440-444, 660-664, 880-884 
....................    ////////////////////////////////////// 
....................     
....................     
....................    UPDATE_ACK_for_COM(0x66,0x77,SECT*1639+DL_AD,405);//65536*8 
0A206:  MOVLB  2
0A208:  MOVFF  296,2A2
0A20C:  MOVFF  297,2A3
0A210:  MOVLW  67
0A212:  ADDWF  x98,W
0A214:  MOVWF  xA4
0A216:  MOVLW  06
0A218:  ADDWFC x99,W
0A21A:  MOVWF  xA5
0A21C:  MOVLW  66
0A21E:  MOVWF  xA6
0A220:  MOVLW  77
0A222:  MOVWF  xA7
0A224:  MOVFF  2A5,2AB
0A228:  MOVFF  2A4,2AA
0A22C:  MOVFF  297,2A9
0A230:  MOVFF  296,2A8
0A234:  MOVLW  01
0A236:  MOVWF  xAD
0A238:  MOVLW  95
0A23A:  MOVWF  xAC
0A23C:  MOVLB  0
0A23E:  CALL   733A
....................    ADH=0; ADL=0; DL_AD=0; D=0; 
0A242:  MOVLB  2
0A244:  CLRF   x94
0A246:  CLRF   x95
0A248:  CLRF   x99
0A24A:  CLRF   x98
0A24C:  CLRF   x97
0A24E:  CLRF   x96
0A250:  CLRF   x93
0A252:  CLRF   x92
....................    return; 
0A254:  MOVLB  0
0A256:  GOTO   A936 (RETURN)
.................... } 
....................  
.................... void DAY20to25()//20-25day 
.................... { 
....................    AD = PASSED_DAYS % loop_day;//20,21,22,23,24,25 
*
09840:  MOVFF  65,2B4
09844:  MOVFF  64,2B3
09848:  MOVLB  2
0984A:  CLRF   xB6
0984C:  MOVLW  46
0984E:  MOVWF  xB5
09850:  MOVLB  0
09852:  CALL   5D4E
09856:  MOVFF  00,290
0985A:  MOVLB  2
0985C:  MOVFF  03,291
....................    ADH = AD << 8; 
09860:  CLRF   x94
....................    ADL = AD; 
09862:  MOVFF  290,295
....................     
....................    D = AD - 15;//5,6,7,8,9,10 
09866:  MOVLW  0F
09868:  SUBWF  x90,W
0986A:  MOVWF  x92
0986C:  MOVLW  00
0986E:  SUBWFB x91,W
09870:  MOVWF  x93
....................    DL_AD = 220*D; 
09872:  CLRF   xAB
09874:  MOVLW  DC
09876:  MOVWF  xAA
09878:  MOVFF  293,2AD
0987C:  MOVFF  292,2AC
09880:  MOVLB  0
09882:  CALL   7424
09886:  MOVLB  2
09888:  CLRF   x99
0988A:  CLRF   x98
0988C:  MOVFF  02,297
09890:  MOVFF  01,296
....................    DL_AD = DL_AD * 81; 
09894:  MOVFF  299,2A5
09898:  MOVFF  298,2A4
0989C:  MOVFF  297,2A3
098A0:  MOVFF  296,2A2
098A4:  CLRF   xA9
098A6:  CLRF   xA8
098A8:  CLRF   xA7
098AA:  MOVLW  51
098AC:  MOVWF  xA6
098AE:  MOVLB  0
098B0:  CALL   7446
098B4:  MOVFF  03,299
098B8:  MOVFF  02,298
098BC:  MOVFF  01,297
098C0:  MOVFF  00,296
....................    //////////////////////////////PACKET//////////////////////////////// 
....................    //1100-1104, 1320-1324, 1540-1544, 1760-1764, 1980,1984, 2200-2204 
....................    //////////////////////////////////////////////////////////////////// 
....................     
....................    SAVE_SAT_LOG(0xFD,ADH,ADL);//11,11: automatical mission 
098C4:  MOVLW  FD
098C6:  MOVLB  2
098C8:  MOVWF  xC4
098CA:  MOVFF  294,2C5
098CE:  MOVFF  295,2C6
098D2:  MOVLB  0
098D4:  CALL   2DCE
....................    UPDATE_ACK_for_COM(0x66,0x77,SECT*1639+DL_AD,405);//65536*8 
098D8:  MOVLB  2
098DA:  MOVFF  296,2A2
098DE:  MOVFF  297,2A3
098E2:  MOVLW  67
098E4:  ADDWF  x98,W
098E6:  MOVWF  xA4
098E8:  MOVLW  06
098EA:  ADDWFC x99,W
098EC:  MOVWF  xA5
098EE:  MOVLW  66
098F0:  MOVWF  xA6
098F2:  MOVLW  77
098F4:  MOVWF  xA7
098F6:  MOVFF  2A5,2AB
098FA:  MOVFF  2A4,2AA
098FE:  MOVFF  297,2A9
09902:  MOVFF  296,2A8
09906:  MOVLW  01
09908:  MOVWF  xAD
0990A:  MOVLW  95
0990C:  MOVWF  xAC
0990E:  MOVLB  0
09910:  CALL   733A
....................    ADH=0; ADL=0; DL_AD=0; D=0; 
09914:  MOVLB  2
09916:  CLRF   x94
09918:  CLRF   x95
0991A:  CLRF   x99
0991C:  CLRF   x98
0991E:  CLRF   x97
09920:  CLRF   x96
09922:  CLRF   x93
09924:  CLRF   x92
....................    return; 
09926:  MOVLB  0
09928:  GOTO   9FE2 (RETURN)
.................... } 
....................  
.................... void DAY20to25_ADDRESS()//20-25day 
.................... { 
....................    AD = PASSED_DAYS % loop_day;//20,21,22,23,24,25 
*
0A456:  MOVFF  65,2B4
0A45A:  MOVFF  64,2B3
0A45E:  MOVLB  2
0A460:  CLRF   xB6
0A462:  MOVLW  46
0A464:  MOVWF  xB5
0A466:  MOVLB  0
0A468:  CALL   5D4E
0A46C:  MOVFF  00,290
0A470:  MOVLB  2
0A472:  MOVFF  03,291
....................    ADH = AD << 8; 
0A476:  CLRF   x94
....................    ADL = AD; 
0A478:  MOVFF  290,295
....................     
....................    D = AD - 15;//5,6,7,8,9,10 
0A47C:  MOVLW  0F
0A47E:  SUBWF  x90,W
0A480:  MOVWF  x92
0A482:  MOVLW  00
0A484:  SUBWFB x91,W
0A486:  MOVWF  x93
....................    DL_AD = 220*D; 
0A488:  CLRF   xAB
0A48A:  MOVLW  DC
0A48C:  MOVWF  xAA
0A48E:  MOVFF  293,2AD
0A492:  MOVFF  292,2AC
0A496:  MOVLB  0
0A498:  CALL   7424
0A49C:  MOVLB  2
0A49E:  CLRF   x99
0A4A0:  CLRF   x98
0A4A2:  MOVFF  02,297
0A4A6:  MOVFF  01,296
....................    DL_AD = DL_AD * 81; 
0A4AA:  MOVFF  299,2A5
0A4AE:  MOVFF  298,2A4
0A4B2:  MOVFF  297,2A3
0A4B6:  MOVFF  296,2A2
0A4BA:  CLRF   xA9
0A4BC:  CLRF   xA8
0A4BE:  CLRF   xA7
0A4C0:  MOVLW  51
0A4C2:  MOVWF  xA6
0A4C4:  MOVLB  0
0A4C6:  CALL   7446
0A4CA:  MOVFF  03,299
0A4CE:  MOVFF  02,298
0A4D2:  MOVFF  01,297
0A4D6:  MOVFF  00,296
....................    //////////////////////////////PACKET//////////////////////////////// 
....................    //1100-1104, 1320-1324, 1540-1544, 1760-1764, 1980,1984, 2200-2204 
....................    //////////////////////////////////////////////////////////////////// 
....................     
....................    UPDATE_ACK_for_COM(0x66,0x77,SECT*1639+DL_AD,405);//65536*8 
0A4DA:  MOVLB  2
0A4DC:  MOVFF  296,2A2
0A4E0:  MOVFF  297,2A3
0A4E4:  MOVLW  67
0A4E6:  ADDWF  x98,W
0A4E8:  MOVWF  xA4
0A4EA:  MOVLW  06
0A4EC:  ADDWFC x99,W
0A4EE:  MOVWF  xA5
0A4F0:  MOVLW  66
0A4F2:  MOVWF  xA6
0A4F4:  MOVLW  77
0A4F6:  MOVWF  xA7
0A4F8:  MOVFF  2A5,2AB
0A4FC:  MOVFF  2A4,2AA
0A500:  MOVFF  297,2A9
0A504:  MOVFF  296,2A8
0A508:  MOVLW  01
0A50A:  MOVWF  xAD
0A50C:  MOVLW  95
0A50E:  MOVWF  xAC
0A510:  MOVLB  0
0A512:  CALL   733A
....................    ADH=0; ADL=0; DL_AD=0; D=0; 
0A516:  MOVLB  2
0A518:  CLRF   x94
0A51A:  CLRF   x95
0A51C:  CLRF   x99
0A51E:  CLRF   x98
0A520:  CLRF   x97
0A522:  CLRF   x96
0A524:  CLRF   x93
0A526:  CLRF   x92
....................    return; 
0A528:  MOVLB  0
0A52A:  GOTO   AC0A (RETURN)
.................... } 
....................  
.................... //@@@@@@@@@@@ CAM MISSION @@@@@@@@@@@@@@@@@@@@@@@@@@@@@@@@@@@@@@@@@@@@@@@@@@@@@@@@@@@@@@@@@@@@@@@@ 
.................... void DAY5()//CAM MSN 
.................... { 
....................    SAVE_SAT_LOG(0xC0,0x11,0x11);//11,11: automatical mission 
*
07C1C:  MOVLW  C0
07C1E:  MOVLB  2
07C20:  MOVWF  xC4
07C22:  MOVLW  11
07C24:  MOVWF  xC5
07C26:  MOVWF  xC6
07C28:  MOVLB  0
07C2A:  CALL   2DCE
....................    AUTO_CAM_DONE = 1; 
07C2E:  MOVLW  01
07C30:  MOVWF  x6E
....................    STORE_FLAG_INFO();//save flag 
07C32:  CALL   50A4
....................    WRITE_FLAG_to_EEPROM(); 
07C36:  CALL   52B4
....................    CAM_TEST_OPERATION(0xA0); 
07C3A:  MOVLW  A0
07C3C:  MOVLB  2
07C3E:  MOVWF  xA8
07C40:  MOVLB  0
07C42:  RCALL  7908
....................    STORE_ADRESS_DATA_TO_FLASH(); 
07C44:  CALL   2ABA
....................     
....................    AD = PASSED_DAYS % loop_day;//1,2,3,4 
07C48:  MOVFF  65,2B4
07C4C:  MOVFF  64,2B3
07C50:  MOVLB  2
07C52:  CLRF   xB6
07C54:  MOVLW  46
07C56:  MOVWF  xB5
07C58:  MOVLB  0
07C5A:  CALL   5D4E
07C5E:  MOVFF  00,290
07C62:  MOVLB  2
07C64:  MOVFF  03,291
....................    ADH = AD << 8; 
07C68:  CLRF   x94
....................    ADL = AD; 
07C6A:  MOVFF  290,295
....................    SAVE_SAT_LOG(0xCD,ADH,ADL);//11,11: automatical mission 
07C6E:  MOVLW  CD
07C70:  MOVWF  xC4
07C72:  MOVFF  294,2C5
07C76:  MOVFF  295,2C6
07C7A:  MOVLB  0
07C7C:  CALL   2DCE
....................    UPDATE_ACK_for_COM(0x66,0x77,SECT*8,405);//65536*8 
07C80:  MOVLW  66
07C82:  MOVLB  2
07C84:  MOVWF  xA6
07C86:  MOVLW  77
07C88:  MOVWF  xA7
07C8A:  CLRF   xAB
07C8C:  MOVLW  08
07C8E:  MOVWF  xAA
07C90:  CLRF   xA9
07C92:  CLRF   xA8
07C94:  MOVLW  01
07C96:  MOVWF  xAD
07C98:  MOVLW  95
07C9A:  MOVWF  xAC
07C9C:  MOVLB  0
07C9E:  CALL   733A
....................    return; 
07CA2:  GOTO   9DCA (RETURN)
.................... } 
....................  
.................... void DAY6to9()//CAM DL 1 
.................... { 
....................    AD = PASSED_DAYS % loop_day;//6,7,8,9 
07CA6:  MOVFF  65,2B4
07CAA:  MOVFF  64,2B3
07CAE:  MOVLB  2
07CB0:  CLRF   xB6
07CB2:  MOVLW  46
07CB4:  MOVWF  xB5
07CB6:  MOVLB  0
07CB8:  CALL   5D4E
07CBC:  MOVFF  00,290
07CC0:  MOVLB  2
07CC2:  MOVFF  03,291
....................    ADH = AD << 8; 
07CC6:  CLRF   x94
....................    ADL = AD; 
07CC8:  MOVFF  290,295
....................     
....................    D = AD - 5;//1,2,3,4 
07CCC:  MOVLW  05
07CCE:  SUBWF  x90,W
07CD0:  MOVWF  x92
07CD2:  MOVLW  00
07CD4:  SUBWFB x91,W
07CD6:  MOVWF  x93
....................    DL_AD = D*5; 
07CD8:  MOVFF  293,2AB
07CDC:  MOVFF  292,2AA
07CE0:  CLRF   xAD
07CE2:  MOVLW  05
07CE4:  MOVWF  xAC
07CE6:  MOVLB  0
07CE8:  CALL   7424
07CEC:  MOVLB  2
07CEE:  CLRF   x99
07CF0:  CLRF   x98
07CF2:  MOVFF  02,297
07CF6:  MOVFF  01,296
....................    DL_AD = DL_AD * 81; 
07CFA:  MOVFF  299,2A5
07CFE:  MOVFF  298,2A4
07D02:  MOVFF  297,2A3
07D06:  MOVFF  296,2A2
07D0A:  CLRF   xA9
07D0C:  CLRF   xA8
07D0E:  CLRF   xA7
07D10:  MOVLW  51
07D12:  MOVWF  xA6
07D14:  MOVLB  0
07D16:  CALL   7446
07D1A:  MOVFF  03,299
07D1E:  MOVFF  02,298
07D22:  MOVFF  01,297
07D26:  MOVFF  00,296
....................    //////////PACKET//////////// 
....................    //5-9, 10-14, 15-19, 20-24 
....................    //////////////////////////// 
....................     
....................    SAVE_SAT_LOG(0xCD,ADH,ADL);//11,11: automatical mission 
07D2A:  MOVLW  CD
07D2C:  MOVLB  2
07D2E:  MOVWF  xC4
07D30:  MOVFF  294,2C5
07D34:  MOVFF  295,2C6
07D38:  MOVLB  0
07D3A:  CALL   2DCE
....................    UPDATE_ACK_for_COM(0x66,0x77,SECT*8+DL_AD,405);//65536*8 
07D3E:  MOVLB  2
07D40:  MOVFF  296,2A2
07D44:  MOVFF  297,2A3
07D48:  MOVLW  08
07D4A:  ADDWF  x98,W
07D4C:  MOVWF  xA4
07D4E:  MOVLW  00
07D50:  ADDWFC x99,W
07D52:  MOVWF  xA5
07D54:  MOVLW  66
07D56:  MOVWF  xA6
07D58:  MOVLW  77
07D5A:  MOVWF  xA7
07D5C:  MOVFF  2A5,2AB
07D60:  MOVFF  2A4,2AA
07D64:  MOVFF  297,2A9
07D68:  MOVFF  296,2A8
07D6C:  MOVLW  01
07D6E:  MOVWF  xAD
07D70:  MOVLW  95
07D72:  MOVWF  xAC
07D74:  MOVLB  0
07D76:  CALL   733A
....................    ADH=0; ADL=0; DL_AD=0; D=0; 
07D7A:  MOVLB  2
07D7C:  CLRF   x94
07D7E:  CLRF   x95
07D80:  CLRF   x99
07D82:  CLRF   x98
07D84:  CLRF   x97
07D86:  CLRF   x96
07D88:  CLRF   x93
07D8A:  CLRF   x92
....................    return; 
07D8C:  MOVLB  0
07D8E:  GOTO   9E2E (RETURN)
.................... } 
....................  
.................... void DAY6to9_ADDRESS()//CAM DL 1 
.................... { 
....................    AD = PASSED_DAYS % loop_day;//6,7,8,9 
*
0A25A:  MOVFF  65,2B4
0A25E:  MOVFF  64,2B3
0A262:  MOVLB  2
0A264:  CLRF   xB6
0A266:  MOVLW  46
0A268:  MOVWF  xB5
0A26A:  MOVLB  0
0A26C:  CALL   5D4E
0A270:  MOVFF  00,290
0A274:  MOVLB  2
0A276:  MOVFF  03,291
....................    ADH = AD << 8; 
0A27A:  CLRF   x94
....................    ADL = AD; 
0A27C:  MOVFF  290,295
....................     
....................    D = AD - 5;//1,2,3,4 
0A280:  MOVLW  05
0A282:  SUBWF  x90,W
0A284:  MOVWF  x92
0A286:  MOVLW  00
0A288:  SUBWFB x91,W
0A28A:  MOVWF  x93
....................    DL_AD = D*5; 
0A28C:  MOVFF  293,2AB
0A290:  MOVFF  292,2AA
0A294:  CLRF   xAD
0A296:  MOVLW  05
0A298:  MOVWF  xAC
0A29A:  MOVLB  0
0A29C:  CALL   7424
0A2A0:  MOVLB  2
0A2A2:  CLRF   x99
0A2A4:  CLRF   x98
0A2A6:  MOVFF  02,297
0A2AA:  MOVFF  01,296
....................    DL_AD = DL_AD * 81; 
0A2AE:  MOVFF  299,2A5
0A2B2:  MOVFF  298,2A4
0A2B6:  MOVFF  297,2A3
0A2BA:  MOVFF  296,2A2
0A2BE:  CLRF   xA9
0A2C0:  CLRF   xA8
0A2C2:  CLRF   xA7
0A2C4:  MOVLW  51
0A2C6:  MOVWF  xA6
0A2C8:  MOVLB  0
0A2CA:  CALL   7446
0A2CE:  MOVFF  03,299
0A2D2:  MOVFF  02,298
0A2D6:  MOVFF  01,297
0A2DA:  MOVFF  00,296
....................    //////////PACKET//////////// 
....................    //5-9, 10-14, 15-19, 20-24 
....................    //////////////////////////// 
....................     
....................    UPDATE_ACK_for_COM(0x66,0x77,SECT*8+DL_AD,405);//65536*8 
0A2DE:  MOVLB  2
0A2E0:  MOVFF  296,2A2
0A2E4:  MOVFF  297,2A3
0A2E8:  MOVLW  08
0A2EA:  ADDWF  x98,W
0A2EC:  MOVWF  xA4
0A2EE:  MOVLW  00
0A2F0:  ADDWFC x99,W
0A2F2:  MOVWF  xA5
0A2F4:  MOVLW  66
0A2F6:  MOVWF  xA6
0A2F8:  MOVLW  77
0A2FA:  MOVWF  xA7
0A2FC:  MOVFF  2A5,2AB
0A300:  MOVFF  2A4,2AA
0A304:  MOVFF  297,2A9
0A308:  MOVFF  296,2A8
0A30C:  MOVLW  01
0A30E:  MOVWF  xAD
0A310:  MOVLW  95
0A312:  MOVWF  xAC
0A314:  MOVLB  0
0A316:  CALL   733A
....................    ADH=0; ADL=0; DL_AD=0; D=0; 
0A31A:  MOVLB  2
0A31C:  CLRF   x94
0A31E:  CLRF   x95
0A320:  CLRF   x99
0A322:  CLRF   x98
0A324:  CLRF   x97
0A326:  CLRF   x96
0A328:  CLRF   x93
0A32A:  CLRF   x92
....................    return; 
0A32C:  MOVLB  0
0A32E:  GOTO   A9FC (RETURN)
.................... } 
....................  
.................... void DAY26to46()//CAM DL 1 
.................... { 
....................    AD = PASSED_DAYS % loop_day;//26,27,28,29,30,31,32,33,34,35,36,37,38,39,40,41,42,43,44,45,46 
*
0992C:  MOVFF  65,2B4
09930:  MOVFF  64,2B3
09934:  MOVLB  2
09936:  CLRF   xB6
09938:  MOVLW  46
0993A:  MOVWF  xB5
0993C:  MOVLB  0
0993E:  CALL   5D4E
09942:  MOVFF  00,290
09946:  MOVLB  2
09948:  MOVFF  03,291
....................    ADH = AD << 8; 
0994C:  CLRF   x94
....................    ADL = AD; 
0994E:  MOVFF  290,295
....................     
....................    D = AD - 21; 
09952:  MOVLW  15
09954:  SUBWF  x90,W
09956:  MOVWF  x92
09958:  MOVLW  00
0995A:  SUBWFB x91,W
0995C:  MOVWF  x93
....................    DL_AD = D*5; 
0995E:  MOVFF  293,2AB
09962:  MOVFF  292,2AA
09966:  CLRF   xAD
09968:  MOVLW  05
0996A:  MOVWF  xAC
0996C:  MOVLB  0
0996E:  CALL   7424
09972:  MOVLB  2
09974:  CLRF   x99
09976:  CLRF   x98
09978:  MOVFF  02,297
0997C:  MOVFF  01,296
....................    DL_AD = DL_AD * 81; 
09980:  MOVFF  299,2A5
09984:  MOVFF  298,2A4
09988:  MOVFF  297,2A3
0998C:  MOVFF  296,2A2
09990:  CLRF   xA9
09992:  CLRF   xA8
09994:  CLRF   xA7
09996:  MOVLW  51
09998:  MOVWF  xA6
0999A:  MOVLB  0
0999C:  CALL   7446
099A0:  MOVFF  03,299
099A4:  MOVFF  02,298
099A8:  MOVFF  01,297
099AC:  MOVFF  00,296
....................    ///////////////////////PACKET///////////////////////// 
....................    //25-29,   40-34,   35-39,   40-44,   45-49 
....................    //50-54,   55-59,   60-64,   65-69,   70-74 
....................    //75-79,   80-84,   85-89,   90-94,   95-99 
....................    //100-104, 105-109, 110-114, 115-119, 120-124 
....................    //125-129 
....................    //---------------------------------------------------- 
....................    //total is 129 packet 
....................    ////////////////////////////////////////////////////// 
....................     
....................    /////////////////////////////BYTE///////////////////////// 
....................    //2025-2429, 2430-2834, 2835-3239, 3240-3644, 3645-4049 
....................    //4050-4454, 4455-4859, 4860-5264, 5265-5669, 5670-6074 
....................    //6075-6479, 6480-6884, 6885-7289, 7290-7694, 7695-8099 
....................    //8100-8504, 8505-8909, 8910-9314, 9315-9719, 9720-10124 
....................    //10125-10530 
....................    //-------------------------------------------------------- 
....................    //total is about 10kB 
....................    ////////////////////////////////////////////////////////// 
....................     
....................    SAVE_SAT_LOG(0xCD,ADH,ADL);//11,11: automatical mission 
099B0:  MOVLW  CD
099B2:  MOVLB  2
099B4:  MOVWF  xC4
099B6:  MOVFF  294,2C5
099BA:  MOVFF  295,2C6
099BE:  MOVLB  0
099C0:  CALL   2DCE
....................    UPDATE_ACK_for_COM(0x66,0x77,SECT*8+DL_AD,405);//65536*8 
099C4:  MOVLB  2
099C6:  MOVFF  296,2A2
099CA:  MOVFF  297,2A3
099CE:  MOVLW  08
099D0:  ADDWF  x98,W
099D2:  MOVWF  xA4
099D4:  MOVLW  00
099D6:  ADDWFC x99,W
099D8:  MOVWF  xA5
099DA:  MOVLW  66
099DC:  MOVWF  xA6
099DE:  MOVLW  77
099E0:  MOVWF  xA7
099E2:  MOVFF  2A5,2AB
099E6:  MOVFF  2A4,2AA
099EA:  MOVFF  297,2A9
099EE:  MOVFF  296,2A8
099F2:  MOVLW  01
099F4:  MOVWF  xAD
099F6:  MOVLW  95
099F8:  MOVWF  xAC
099FA:  MOVLB  0
099FC:  CALL   733A
....................    ADH=0; ADL=0; DL_AD=0; D=0; 
09A00:  MOVLB  2
09A02:  CLRF   x94
09A04:  CLRF   x95
09A06:  CLRF   x99
09A08:  CLRF   x98
09A0A:  CLRF   x97
09A0C:  CLRF   x96
09A0E:  CLRF   x93
09A10:  CLRF   x92
....................    return; 
09A12:  MOVLB  0
09A14:  GOTO   A044 (RETURN)
.................... } 
....................  
.................... void DAY26to46_ADDRESS()//CAM DL 1 
.................... { 
....................    AD = PASSED_DAYS % loop_day;//26,27,28,29,30,31,32,33,34,35,36,37,38,39,40,41,42,43,44,45,46 
*
0A52E:  MOVFF  65,2B4
0A532:  MOVFF  64,2B3
0A536:  MOVLB  2
0A538:  CLRF   xB6
0A53A:  MOVLW  46
0A53C:  MOVWF  xB5
0A53E:  MOVLB  0
0A540:  CALL   5D4E
0A544:  MOVFF  00,290
0A548:  MOVLB  2
0A54A:  MOVFF  03,291
....................    ADH = AD << 8; 
0A54E:  CLRF   x94
....................    ADL = AD; 
0A550:  MOVFF  290,295
....................     
....................    D = AD - 21; 
0A554:  MOVLW  15
0A556:  SUBWF  x90,W
0A558:  MOVWF  x92
0A55A:  MOVLW  00
0A55C:  SUBWFB x91,W
0A55E:  MOVWF  x93
....................    DL_AD = D*5; 
0A560:  MOVFF  293,2AB
0A564:  MOVFF  292,2AA
0A568:  CLRF   xAD
0A56A:  MOVLW  05
0A56C:  MOVWF  xAC
0A56E:  MOVLB  0
0A570:  CALL   7424
0A574:  MOVLB  2
0A576:  CLRF   x99
0A578:  CLRF   x98
0A57A:  MOVFF  02,297
0A57E:  MOVFF  01,296
....................    DL_AD = DL_AD * 81; 
0A582:  MOVFF  299,2A5
0A586:  MOVFF  298,2A4
0A58A:  MOVFF  297,2A3
0A58E:  MOVFF  296,2A2
0A592:  CLRF   xA9
0A594:  CLRF   xA8
0A596:  CLRF   xA7
0A598:  MOVLW  51
0A59A:  MOVWF  xA6
0A59C:  MOVLB  0
0A59E:  CALL   7446
0A5A2:  MOVFF  03,299
0A5A6:  MOVFF  02,298
0A5AA:  MOVFF  01,297
0A5AE:  MOVFF  00,296
....................    ///////////////////////PACKET///////////////////////// 
....................    //25-29,   40-34,   35-39,   40-44,   45-49 
....................    //50-54,   55-59,   60-64,   65-69,   70-74 
....................    //75-79,   80-84,   85-89,   90-94,   95-99 
....................    //100-104, 105-109, 110-114, 115-119, 120-124 
....................    //125-129 
....................    //---------------------------------------------------- 
....................    //total is 129 packet 
....................    ////////////////////////////////////////////////////// 
....................     
....................    /////////////////////////////BYTE///////////////////////// 
....................    //2025-2429, 2430-2834, 2835-3239, 3240-3644, 3645-4049 
....................    //4050-4454, 4455-4859, 4860-5264, 5265-5669, 5670-6074 
....................    //6075-6479, 6480-6884, 6885-7289, 7290-7694, 7695-8099 
....................    //8100-8504, 8505-8909, 8910-9314, 9315-9719, 9720-10124 
....................    //10125-10530 
....................    //-------------------------------------------------------- 
....................    //total is about 10kB 
....................    ////////////////////////////////////////////////////////// 
....................     
....................    UPDATE_ACK_for_COM(0x66,0x77,SECT*8+DL_AD,405);//65536*8 
0A5B2:  MOVLB  2
0A5B4:  MOVFF  296,2A2
0A5B8:  MOVFF  297,2A3
0A5BC:  MOVLW  08
0A5BE:  ADDWF  x98,W
0A5C0:  MOVWF  xA4
0A5C2:  MOVLW  00
0A5C4:  ADDWFC x99,W
0A5C6:  MOVWF  xA5
0A5C8:  MOVLW  66
0A5CA:  MOVWF  xA6
0A5CC:  MOVLW  77
0A5CE:  MOVWF  xA7
0A5D0:  MOVFF  2A5,2AB
0A5D4:  MOVFF  2A4,2AA
0A5D8:  MOVFF  297,2A9
0A5DC:  MOVFF  296,2A8
0A5E0:  MOVLW  01
0A5E2:  MOVWF  xAD
0A5E4:  MOVLW  95
0A5E6:  MOVWF  xAC
0A5E8:  MOVLB  0
0A5EA:  CALL   733A
....................    ADH=0; ADL=0; DL_AD=0; D=0; 
0A5EE:  MOVLB  2
0A5F0:  CLRF   x94
0A5F2:  CLRF   x95
0A5F4:  CLRF   x99
0A5F6:  CLRF   x98
0A5F8:  CLRF   x97
0A5FA:  CLRF   x96
0A5FC:  CLRF   x93
0A5FE:  CLRF   x92
....................    return; 
0A600:  MOVLB  0
0A602:  GOTO   AC6C (RETURN)
.................... } 
....................  
.................... //@@@@@@@@@@@ LoRa Demonstration MISSION @@@@@@@@@@@@@@@@@@@@@@@@@@@@@@@@@@@@@@@@@@@@@@@@@@@@@@@@@@ 
.................... void DAY10()//LDM 
.................... { 
....................    AUTO_LDM_DONE = 1; 
*
08238:  MOVLW  01
0823A:  MOVWF  x6F
....................    STORE_FLAG_INFO();//save flag 
0823C:  CALL   50A4
....................    WRITE_FLAG_to_EEPROM(); 
08240:  CALL   52B4
....................     
....................    SAVE_SAT_LOG(0xD0,0x11,0x11);//01,01: automatical mission 
08244:  MOVLW  D0
08246:  MOVLB  2
08248:  MOVWF  xC4
0824A:  MOVLW  11
0824C:  MOVWF  xC5
0824E:  MOVWF  xC6
08250:  MOVLB  0
08252:  CALL   2DCE
....................    DATACOLLECTION_TEST_OPERATION(); 
08256:  RCALL  81C0
....................    delay_ms(3000); 
08258:  MOVLW  0C
0825A:  MOVLB  2
0825C:  MOVWF  xA2
0825E:  MOVLW  FA
08260:  MOVWF  xDB
08262:  MOVLB  0
08264:  CALL   230E
08268:  MOVLB  2
0826A:  DECFSZ xA2,F
0826C:  BRA    825E
....................    SAVE_SAT_LOG(0xD0,0x22,0x22);//01,01: automatical mission 
0826E:  MOVLW  D0
08270:  MOVWF  xC4
08272:  MOVLW  22
08274:  MOVWF  xC5
08276:  MOVWF  xC6
08278:  MOVLB  0
0827A:  CALL   2DCE
....................    DATACOLLECTION_TEST_OPERATION(); 
0827E:  RCALL  81C0
....................    delay_ms(3000); 
08280:  MOVLW  0C
08282:  MOVLB  2
08284:  MOVWF  xA2
08286:  MOVLW  FA
08288:  MOVWF  xDB
0828A:  MOVLB  0
0828C:  CALL   230E
08290:  MOVLB  2
08292:  DECFSZ xA2,F
08294:  BRA    8286
....................    SAVE_SAT_LOG(0xD0,0x33,0x33);//01,01: automatical mission 
08296:  MOVLW  D0
08298:  MOVWF  xC4
0829A:  MOVLW  33
0829C:  MOVWF  xC5
0829E:  MOVWF  xC6
082A0:  MOVLB  0
082A2:  CALL   2DCE
....................    DATACOLLECTION_TEST_OPERATION(); 
082A6:  RCALL  81C0
....................    delay_ms(3000); 
082A8:  MOVLW  0C
082AA:  MOVLB  2
082AC:  MOVWF  xA2
082AE:  MOVLW  FA
082B0:  MOVWF  xDB
082B2:  MOVLB  0
082B4:  CALL   230E
082B8:  MOVLB  2
082BA:  DECFSZ xA2,F
082BC:  BRA    82AE
....................    SAVE_SAT_LOG(0xD0,0x44,0x44);//01,01: automatical mission 
082BE:  MOVLW  D0
082C0:  MOVWF  xC4
082C2:  MOVLW  44
082C4:  MOVWF  xC5
082C6:  MOVWF  xC6
082C8:  MOVLB  0
082CA:  CALL   2DCE
....................    DATACOLLECTION_TEST_OPERATION(); 
082CE:  RCALL  81C0
....................    STORE_ADRESS_DATA_TO_FLASH(); 
082D0:  CALL   2ABA
....................     
....................    AD = PASSED_DAYS % loop_day;//6,7,8,9 
082D4:  MOVFF  65,2B4
082D8:  MOVFF  64,2B3
082DC:  MOVLB  2
082DE:  CLRF   xB6
082E0:  MOVLW  46
082E2:  MOVWF  xB5
082E4:  MOVLB  0
082E6:  CALL   5D4E
082EA:  MOVFF  00,290
082EE:  MOVLB  2
082F0:  MOVFF  03,291
....................    ADH = AD << 8; 
082F4:  CLRF   x94
....................    ADL = AD; 
082F6:  MOVFF  290,295
....................    SAVE_SAT_LOG(0xDD,ADH,ADL);//11,11: automatical mission 
082FA:  MOVLW  DD
082FC:  MOVWF  xC4
082FE:  MOVFF  294,2C5
08302:  MOVFF  295,2C6
08306:  MOVLB  0
08308:  CALL   2DCE
....................    UPDATE_ACK_for_COM(0x66,0x77,DC_STATUS_ADDRESS-332,332);//65536*162 
0830C:  MOVLW  4C
0830E:  SUBWF  53,W
08310:  MOVLB  2
08312:  MOVWF  xA2
08314:  MOVLW  01
08316:  SUBWFB 54,W
08318:  MOVWF  xA3
0831A:  MOVLW  00
0831C:  SUBWFB 55,W
0831E:  MOVWF  xA4
08320:  MOVLW  00
08322:  SUBWFB 56,W
08324:  MOVWF  xA5
08326:  MOVLW  66
08328:  MOVWF  xA6
0832A:  MOVLW  77
0832C:  MOVWF  xA7
0832E:  MOVFF  2A5,2AB
08332:  MOVFF  2A4,2AA
08336:  MOVFF  2A3,2A9
0833A:  MOVFF  2A2,2A8
0833E:  MOVLW  01
08340:  MOVWF  xAD
08342:  MOVLW  4C
08344:  MOVWF  xAC
08346:  MOVLB  0
08348:  CALL   733A
....................    return; 
0834C:  GOTO   9E74 (RETURN)
.................... } 
....................  
.................... void DAY11to14()//LDM DL 
.................... { 
....................    SAVE_SAT_LOG(0xD0,0x11,0x11);//01,01: automatical mission 
08350:  MOVLW  D0
08352:  MOVLB  2
08354:  MOVWF  xC4
08356:  MOVLW  11
08358:  MOVWF  xC5
0835A:  MOVWF  xC6
0835C:  MOVLB  0
0835E:  CALL   2DCE
....................    DATACOLLECTION_TEST_OPERATION(); 
08362:  RCALL  81C0
....................    delay_ms(3000); 
08364:  MOVLW  0C
08366:  MOVLB  2
08368:  MOVWF  xA2
0836A:  MOVLW  FA
0836C:  MOVWF  xDB
0836E:  MOVLB  0
08370:  CALL   230E
08374:  MOVLB  2
08376:  DECFSZ xA2,F
08378:  BRA    836A
....................    SAVE_SAT_LOG(0xD0,0x22,0x22);//01,01: automatical mission 
0837A:  MOVLW  D0
0837C:  MOVWF  xC4
0837E:  MOVLW  22
08380:  MOVWF  xC5
08382:  MOVWF  xC6
08384:  MOVLB  0
08386:  CALL   2DCE
....................    DATACOLLECTION_TEST_OPERATION(); 
0838A:  RCALL  81C0
....................    delay_ms(3000); 
0838C:  MOVLW  0C
0838E:  MOVLB  2
08390:  MOVWF  xA2
08392:  MOVLW  FA
08394:  MOVWF  xDB
08396:  MOVLB  0
08398:  CALL   230E
0839C:  MOVLB  2
0839E:  DECFSZ xA2,F
083A0:  BRA    8392
....................    SAVE_SAT_LOG(0xD0,0x33,0x33);//01,01: automatical mission 
083A2:  MOVLW  D0
083A4:  MOVWF  xC4
083A6:  MOVLW  33
083A8:  MOVWF  xC5
083AA:  MOVWF  xC6
083AC:  MOVLB  0
083AE:  CALL   2DCE
....................    DATACOLLECTION_TEST_OPERATION(); 
083B2:  RCALL  81C0
....................    delay_ms(3000); 
083B4:  MOVLW  0C
083B6:  MOVLB  2
083B8:  MOVWF  xA2
083BA:  MOVLW  FA
083BC:  MOVWF  xDB
083BE:  MOVLB  0
083C0:  CALL   230E
083C4:  MOVLB  2
083C6:  DECFSZ xA2,F
083C8:  BRA    83BA
....................    SAVE_SAT_LOG(0xD4,0x44,0x44);//01,01: automatical mission 
083CA:  MOVLW  D4
083CC:  MOVWF  xC4
083CE:  MOVLW  44
083D0:  MOVWF  xC5
083D2:  MOVWF  xC6
083D4:  MOVLB  0
083D6:  CALL   2DCE
....................    DATACOLLECTION_TEST_OPERATION(); 
083DA:  RCALL  81C0
....................    STORE_ADRESS_DATA_TO_FLASH(); 
083DC:  CALL   2ABA
....................     
....................    AD = PASSED_DAYS % loop_day;//11,12,13,14 
083E0:  MOVFF  65,2B4
083E4:  MOVFF  64,2B3
083E8:  MOVLB  2
083EA:  CLRF   xB6
083EC:  MOVLW  46
083EE:  MOVWF  xB5
083F0:  MOVLB  0
083F2:  CALL   5D4E
083F6:  MOVFF  00,290
083FA:  MOVLB  2
083FC:  MOVFF  03,291
....................    ADH = AD << 8; 
08400:  CLRF   x94
....................    ADL = AD; 
08402:  MOVFF  290,295
....................    SAVE_SAT_LOG(0xDD,ADH,ADL); 
08406:  MOVLW  DD
08408:  MOVWF  xC4
0840A:  MOVFF  294,2C5
0840E:  MOVFF  295,2C6
08412:  MOVLB  0
08414:  CALL   2DCE
....................    UPDATE_ACK_for_COM(0x66,0x77,DC_STATUS_ADDRESS-332,332);//65536*8 
08418:  MOVLW  4C
0841A:  SUBWF  53,W
0841C:  MOVLB  2
0841E:  MOVWF  xA2
08420:  MOVLW  01
08422:  SUBWFB 54,W
08424:  MOVWF  xA3
08426:  MOVLW  00
08428:  SUBWFB 55,W
0842A:  MOVWF  xA4
0842C:  MOVLW  00
0842E:  SUBWFB 56,W
08430:  MOVWF  xA5
08432:  MOVLW  66
08434:  MOVWF  xA6
08436:  MOVLW  77
08438:  MOVWF  xA7
0843A:  MOVFF  2A5,2AB
0843E:  MOVFF  2A4,2AA
08442:  MOVFF  2A3,2A9
08446:  MOVFF  2A2,2A8
0844A:  MOVLW  01
0844C:  MOVWF  xAD
0844E:  MOVLW  4C
08450:  MOVWF  xAC
08452:  MOVLB  0
08454:  CALL   733A
....................    ADH=0; ADL=0; DL_AD=0; D=0; 
08458:  MOVLB  2
0845A:  CLRF   x94
0845C:  CLRF   x95
0845E:  CLRF   x99
08460:  CLRF   x98
08462:  CLRF   x97
08464:  CLRF   x96
08466:  CLRF   x93
08468:  CLRF   x92
....................    return; 
0846A:  MOVLB  0
0846C:  GOTO   9ED8 (RETURN)
.................... } 
....................  
.................... void DAY11to14_ADDRESS()//LDM DL 
.................... {    
....................    AD = PASSED_DAYS % loop_day;//11,12,13,14 
*
0A332:  MOVFF  65,2B4
0A336:  MOVFF  64,2B3
0A33A:  MOVLB  2
0A33C:  CLRF   xB6
0A33E:  MOVLW  46
0A340:  MOVWF  xB5
0A342:  MOVLB  0
0A344:  CALL   5D4E
0A348:  MOVFF  00,290
0A34C:  MOVLB  2
0A34E:  MOVFF  03,291
....................    ADH = AD << 8; 
0A352:  CLRF   x94
....................    ADL = AD; 
0A354:  MOVFF  290,295
....................    UPDATE_ACK_for_COM(0x66,0x77,DC_STATUS_ADDRESS-332,332);//65536*8 
0A358:  MOVLW  4C
0A35A:  SUBWF  53,W
0A35C:  MOVWF  xA2
0A35E:  MOVLW  01
0A360:  SUBWFB 54,W
0A362:  MOVWF  xA3
0A364:  MOVLW  00
0A366:  SUBWFB 55,W
0A368:  MOVWF  xA4
0A36A:  MOVLW  00
0A36C:  SUBWFB 56,W
0A36E:  MOVWF  xA5
0A370:  MOVLW  66
0A372:  MOVWF  xA6
0A374:  MOVLW  77
0A376:  MOVWF  xA7
0A378:  MOVFF  2A5,2AB
0A37C:  MOVFF  2A4,2AA
0A380:  MOVFF  2A3,2A9
0A384:  MOVFF  2A2,2A8
0A388:  MOVLW  01
0A38A:  MOVWF  xAD
0A38C:  MOVLW  4C
0A38E:  MOVWF  xAC
0A390:  MOVLB  0
0A392:  CALL   733A
....................    ADH=0; ADL=0; DL_AD=0; D=0; 
0A396:  MOVLB  2
0A398:  CLRF   x94
0A39A:  CLRF   x95
0A39C:  CLRF   x99
0A39E:  CLRF   x98
0A3A0:  CLRF   x97
0A3A2:  CLRF   x96
0A3A4:  CLRF   x93
0A3A6:  CLRF   x92
....................    return; 
0A3A8:  MOVLB  0
0A3AA:  GOTO   AAE0 (RETURN)
.................... } 
....................  
.................... //@@@@@@@@@@@ ADCS MISSION @@@@@@@@@@@@@@@@@@@@@@@@@@@@@@@@@@@@@@@@@@@@@@@@@@@@@@@@@@@@@@@@@@@@@@@@@@ 
.................... void DAY15()//ADCS MSN 
.................... { 
....................    SAVE_SAT_LOG(0xA0,0x11,0x11);//01,01: automatical mission 
*
096F0:  MOVLW  A0
096F2:  MOVLB  2
096F4:  MOVWF  xC4
096F6:  MOVLW  11
096F8:  MOVWF  xC5
096FA:  MOVWF  xC6
096FC:  MOVLB  0
096FE:  CALL   2DCE
....................    AUTO_ADCS_DONE = 1; 
09702:  MOVLW  01
09704:  MOVWF  x70
....................    STORE_FLAG_INFO();//save flag 
09706:  CALL   50A4
....................    WRITE_FLAG_to_EEPROM(); 
0970A:  CALL   52B4
....................    ADCS_TEST_OPERATION(5400,AUTO_ADCS_MSN); 
0970E:  MOVLW  15
09710:  MOVLB  2
09712:  MOVWF  xAB
09714:  MOVLW  18
09716:  MOVWF  xAA
09718:  MOVLW  27
0971A:  MOVWF  xAC
0971C:  MOVLB  0
0971E:  RCALL  9488
....................    STORE_ADRESS_DATA_TO_FLASH(); 
09720:  CALL   2ABA
....................     
....................    AD = PASSED_DAYS % loop_day;//11,12,13,14 
09724:  MOVFF  65,2B4
09728:  MOVFF  64,2B3
0972C:  MOVLB  2
0972E:  CLRF   xB6
09730:  MOVLW  46
09732:  MOVWF  xB5
09734:  MOVLB  0
09736:  CALL   5D4E
0973A:  MOVFF  00,290
0973E:  MOVLB  2
09740:  MOVFF  03,291
....................    ADH = AD << 8; 
09744:  CLRF   x94
....................    ADL = AD; 
09746:  MOVFF  290,295
....................    SAVE_SAT_LOG(0xAD,ADH,ADL);//11,11: automatical mission 
0974A:  MOVLW  AD
0974C:  MOVWF  xC4
0974E:  MOVFF  294,2C5
09752:  MOVFF  295,2C6
09756:  MOVLB  0
09758:  CALL   2DCE
....................    UPDATE_ACK_for_COM(0x66, 0x77, SECT*1138, 405);//(9byte) + (initial 81byte) + (end 81byte) 
0975C:  MOVLW  66
0975E:  MOVLB  2
09760:  MOVWF  xA6
09762:  MOVLW  77
09764:  MOVWF  xA7
09766:  MOVLW  04
09768:  MOVWF  xAB
0976A:  MOVLW  72
0976C:  MOVWF  xAA
0976E:  CLRF   xA9
09770:  CLRF   xA8
09772:  MOVLW  01
09774:  MOVWF  xAD
09776:  MOVLW  95
09778:  MOVWF  xAC
0977A:  MOVLB  0
0977C:  CALL   733A
....................    return; 
09780:  GOTO   9F1E (RETURN)
.................... } 
....................  
.................... void DAY16to19()//ADCS DL 
.................... { 
....................    AD = PASSED_DAYS % loop_day;//11,12,13,14 
09784:  MOVFF  65,2B4
09788:  MOVFF  64,2B3
0978C:  MOVLB  2
0978E:  CLRF   xB6
09790:  MOVLW  46
09792:  MOVWF  xB5
09794:  MOVLB  0
09796:  CALL   5D4E
0979A:  MOVFF  00,290
0979E:  MOVLB  2
097A0:  MOVFF  03,291
....................    ADH = AD << 8; 
097A4:  CLRF   x94
....................    ADL = AD; 
097A6:  MOVFF  290,295
....................    D = AD - 15; 
097AA:  MOVLW  0F
097AC:  SUBWF  x90,W
097AE:  MOVWF  x92
097B0:  MOVLW  00
097B2:  SUBWFB x91,W
097B4:  MOVWF  x93
....................    DL_AD = 360*D; 
097B6:  MOVLW  01
097B8:  MOVWF  xAB
097BA:  MOVLW  68
097BC:  MOVWF  xAA
097BE:  MOVFF  293,2AD
097C2:  MOVFF  292,2AC
097C6:  MOVLB  0
097C8:  CALL   7424
097CC:  MOVLB  2
097CE:  CLRF   x99
097D0:  CLRF   x98
097D2:  MOVFF  02,297
097D6:  MOVFF  01,296
....................    SAVE_SAT_LOG(0xAD,ADH,ADL);//11,11: automatical mission 
097DA:  MOVLW  AD
097DC:  MOVWF  xC4
097DE:  MOVFF  294,2C5
097E2:  MOVFF  295,2C6
097E6:  MOVLB  0
097E8:  CALL   2DCE
....................    UPDATE_ACK_for_COM(0x66,0x77,SECT*1138+DL_AD,405);//65536*8 
097EC:  MOVLB  2
097EE:  MOVFF  296,2A2
097F2:  MOVFF  297,2A3
097F6:  MOVLW  72
097F8:  ADDWF  x98,W
097FA:  MOVWF  xA4
097FC:  MOVLW  04
097FE:  ADDWFC x99,W
09800:  MOVWF  xA5
09802:  MOVLW  66
09804:  MOVWF  xA6
09806:  MOVLW  77
09808:  MOVWF  xA7
0980A:  MOVFF  2A5,2AB
0980E:  MOVFF  2A4,2AA
09812:  MOVFF  297,2A9
09816:  MOVFF  296,2A8
0981A:  MOVLW  01
0981C:  MOVWF  xAD
0981E:  MOVLW  95
09820:  MOVWF  xAC
09822:  MOVLB  0
09824:  CALL   733A
....................    ADH=0; ADL=0; DL_AD=0; D=0; 
09828:  MOVLB  2
0982A:  CLRF   x94
0982C:  CLRF   x95
0982E:  CLRF   x99
09830:  CLRF   x98
09832:  CLRF   x97
09834:  CLRF   x96
09836:  CLRF   x93
09838:  CLRF   x92
....................    return; 
0983A:  MOVLB  0
0983C:  GOTO   9F80 (RETURN)
.................... } 
....................  
.................... void DAY16to19_ADDRESS()//ADCS DL 
.................... { 
....................    AD = PASSED_DAYS % loop_day;//11,12,13,14 
*
0A3AE:  MOVFF  65,2B4
0A3B2:  MOVFF  64,2B3
0A3B6:  MOVLB  2
0A3B8:  CLRF   xB6
0A3BA:  MOVLW  46
0A3BC:  MOVWF  xB5
0A3BE:  MOVLB  0
0A3C0:  CALL   5D4E
0A3C4:  MOVFF  00,290
0A3C8:  MOVLB  2
0A3CA:  MOVFF  03,291
....................    ADH = AD << 8; 
0A3CE:  CLRF   x94
....................    ADL = AD; 
0A3D0:  MOVFF  290,295
....................    D = AD - 15; 
0A3D4:  MOVLW  0F
0A3D6:  SUBWF  x90,W
0A3D8:  MOVWF  x92
0A3DA:  MOVLW  00
0A3DC:  SUBWFB x91,W
0A3DE:  MOVWF  x93
....................    DL_AD = 360*D; 
0A3E0:  MOVLW  01
0A3E2:  MOVWF  xAB
0A3E4:  MOVLW  68
0A3E6:  MOVWF  xAA
0A3E8:  MOVFF  293,2AD
0A3EC:  MOVFF  292,2AC
0A3F0:  MOVLB  0
0A3F2:  CALL   7424
0A3F6:  MOVLB  2
0A3F8:  CLRF   x99
0A3FA:  CLRF   x98
0A3FC:  MOVFF  02,297
0A400:  MOVFF  01,296
....................    UPDATE_ACK_for_COM(0x66,0x77,SECT*1138+DL_AD,405);//65536*8 
0A404:  MOVFF  296,2A2
0A408:  MOVFF  297,2A3
0A40C:  MOVLW  72
0A40E:  ADDWF  x98,W
0A410:  MOVWF  xA4
0A412:  MOVLW  04
0A414:  ADDWFC x99,W
0A416:  MOVWF  xA5
0A418:  MOVLW  66
0A41A:  MOVWF  xA6
0A41C:  MOVLW  77
0A41E:  MOVWF  xA7
0A420:  MOVFF  2A5,2AB
0A424:  MOVFF  2A4,2AA
0A428:  MOVFF  297,2A9
0A42C:  MOVFF  296,2A8
0A430:  MOVLW  01
0A432:  MOVWF  xAD
0A434:  MOVLW  95
0A436:  MOVWF  xAC
0A438:  MOVLB  0
0A43A:  CALL   733A
....................    ADH=0; ADL=0; DL_AD=0; D=0; 
0A43E:  MOVLB  2
0A440:  CLRF   x94
0A442:  CLRF   x95
0A444:  CLRF   x99
0A446:  CLRF   x98
0A448:  CLRF   x97
0A44A:  CLRF   x96
0A44C:  CLRF   x93
0A44E:  CLRF   x92
....................    return; 
0A450:  MOVLB  0
0A452:  GOTO   ABA8 (RETURN)
.................... } 
....................  
.................... void DAY47to52()//ADCS DL 
.................... { 
....................    AD = PASSED_DAYS % loop_day;//47,48,49,50,51,52 
*
09A18:  MOVFF  65,2B4
09A1C:  MOVFF  64,2B3
09A20:  MOVLB  2
09A22:  CLRF   xB6
09A24:  MOVLW  46
09A26:  MOVWF  xB5
09A28:  MOVLB  0
09A2A:  CALL   5D4E
09A2E:  MOVFF  00,290
09A32:  MOVLB  2
09A34:  MOVFF  03,291
....................    ADH = AD << 8; 
09A38:  CLRF   x94
....................    ADL = AD; 
09A3A:  MOVFF  290,295
....................    D = AD - 42;//5,6,7,8,9,10 
09A3E:  MOVLW  2A
09A40:  SUBWF  x90,W
09A42:  MOVWF  x92
09A44:  MOVLW  00
09A46:  SUBWFB x91,W
09A48:  MOVWF  x93
....................     
....................    DL_AD = 360*D; 
09A4A:  MOVLW  01
09A4C:  MOVWF  xAB
09A4E:  MOVLW  68
09A50:  MOVWF  xAA
09A52:  MOVFF  293,2AD
09A56:  MOVFF  292,2AC
09A5A:  MOVLB  0
09A5C:  CALL   7424
09A60:  MOVLB  2
09A62:  CLRF   x99
09A64:  CLRF   x98
09A66:  MOVFF  02,297
09A6A:  MOVFF  01,296
....................    DL_AD = DL_AD * 81; 
09A6E:  MOVFF  299,2A5
09A72:  MOVFF  298,2A4
09A76:  MOVFF  297,2A3
09A7A:  MOVFF  296,2A2
09A7E:  CLRF   xA9
09A80:  CLRF   xA8
09A82:  CLRF   xA7
09A84:  MOVLW  51
09A86:  MOVWF  xA6
09A88:  MOVLB  0
09A8A:  CALL   7446
09A8E:  MOVFF  03,299
09A92:  MOVFF  02,298
09A96:  MOVFF  01,297
09A9A:  MOVFF  00,296
....................    /////////////////////////////PACKET//////////////////////////////// 
....................    //1800-1804, 2160-2164, 2520-2524, 2880-2884, 3240-3244, 3600-3604 
....................    /////////////////////////////////////////////////////////////////// 
....................     
....................    SAVE_SAT_LOG(0xAD,ADH,ADL);//11,11: automatical mission 
09A9E:  MOVLW  AD
09AA0:  MOVLB  2
09AA2:  MOVWF  xC4
09AA4:  MOVFF  294,2C5
09AA8:  MOVFF  295,2C6
09AAC:  MOVLB  0
09AAE:  CALL   2DCE
....................    UPDATE_ACK_for_COM(0x66,0x77,SECT*1138+DL_AD,405);//65536*8 
09AB2:  MOVLB  2
09AB4:  MOVFF  296,2A2
09AB8:  MOVFF  297,2A3
09ABC:  MOVLW  72
09ABE:  ADDWF  x98,W
09AC0:  MOVWF  xA4
09AC2:  MOVLW  04
09AC4:  ADDWFC x99,W
09AC6:  MOVWF  xA5
09AC8:  MOVLW  66
09ACA:  MOVWF  xA6
09ACC:  MOVLW  77
09ACE:  MOVWF  xA7
09AD0:  MOVFF  2A5,2AB
09AD4:  MOVFF  2A4,2AA
09AD8:  MOVFF  297,2A9
09ADC:  MOVFF  296,2A8
09AE0:  MOVLW  01
09AE2:  MOVWF  xAD
09AE4:  MOVLW  95
09AE6:  MOVWF  xAC
09AE8:  MOVLB  0
09AEA:  CALL   733A
....................    ADH=0; ADL=0; DL_AD=0; D=0; 
09AEE:  MOVLB  2
09AF0:  CLRF   x94
09AF2:  CLRF   x95
09AF4:  CLRF   x99
09AF6:  CLRF   x98
09AF8:  CLRF   x97
09AFA:  CLRF   x96
09AFC:  CLRF   x93
09AFE:  CLRF   x92
....................    return; 
09B00:  MOVLB  0
09B02:  GOTO   A0A6 (RETURN)
.................... } 
....................  
.................... void DAY47to52_ADDRESS()//ADCS DL 
.................... { 
....................    AD = PASSED_DAYS % loop_day;//47,48,49,50,51,52 
*
0A606:  MOVFF  65,2B4
0A60A:  MOVFF  64,2B3
0A60E:  MOVLB  2
0A610:  CLRF   xB6
0A612:  MOVLW  46
0A614:  MOVWF  xB5
0A616:  MOVLB  0
0A618:  CALL   5D4E
0A61C:  MOVFF  00,290
0A620:  MOVLB  2
0A622:  MOVFF  03,291
....................    ADH = AD << 8; 
0A626:  CLRF   x94
....................    ADL = AD; 
0A628:  MOVFF  290,295
....................    D = AD - 42;//5,6,7,8,9,10 
0A62C:  MOVLW  2A
0A62E:  SUBWF  x90,W
0A630:  MOVWF  x92
0A632:  MOVLW  00
0A634:  SUBWFB x91,W
0A636:  MOVWF  x93
....................     
....................    DL_AD = 360*D; 
0A638:  MOVLW  01
0A63A:  MOVWF  xAB
0A63C:  MOVLW  68
0A63E:  MOVWF  xAA
0A640:  MOVFF  293,2AD
0A644:  MOVFF  292,2AC
0A648:  MOVLB  0
0A64A:  CALL   7424
0A64E:  MOVLB  2
0A650:  CLRF   x99
0A652:  CLRF   x98
0A654:  MOVFF  02,297
0A658:  MOVFF  01,296
....................    DL_AD = DL_AD * 81; 
0A65C:  MOVFF  299,2A5
0A660:  MOVFF  298,2A4
0A664:  MOVFF  297,2A3
0A668:  MOVFF  296,2A2
0A66C:  CLRF   xA9
0A66E:  CLRF   xA8
0A670:  CLRF   xA7
0A672:  MOVLW  51
0A674:  MOVWF  xA6
0A676:  MOVLB  0
0A678:  CALL   7446
0A67C:  MOVFF  03,299
0A680:  MOVFF  02,298
0A684:  MOVFF  01,297
0A688:  MOVFF  00,296
....................    /////////////////////////////PACKET//////////////////////////////// 
....................    //1800-1804, 2160-2164, 2520-2524, 2880-2884, 3240-3244, 3600-3604 
....................    /////////////////////////////////////////////////////////////////// 
....................     
....................    UPDATE_ACK_for_COM(0x66,0x77,SECT*1138+DL_AD,405);//65536*8 
0A68C:  MOVLB  2
0A68E:  MOVFF  296,2A2
0A692:  MOVFF  297,2A3
0A696:  MOVLW  72
0A698:  ADDWF  x98,W
0A69A:  MOVWF  xA4
0A69C:  MOVLW  04
0A69E:  ADDWFC x99,W
0A6A0:  MOVWF  xA5
0A6A2:  MOVLW  66
0A6A4:  MOVWF  xA6
0A6A6:  MOVLW  77
0A6A8:  MOVWF  xA7
0A6AA:  MOVFF  2A5,2AB
0A6AE:  MOVFF  2A4,2AA
0A6B2:  MOVFF  297,2A9
0A6B6:  MOVFF  296,2A8
0A6BA:  MOVLW  01
0A6BC:  MOVWF  xAD
0A6BE:  MOVLW  95
0A6C0:  MOVWF  xAC
0A6C2:  MOVLB  0
0A6C4:  CALL   733A
....................    ADH=0; ADL=0; DL_AD=0; D=0; 
0A6C8:  MOVLB  2
0A6CA:  CLRF   x94
0A6CC:  CLRF   x95
0A6CE:  CLRF   x99
0A6D0:  CLRF   x98
0A6D2:  CLRF   x97
0A6D4:  CLRF   x96
0A6D6:  CLRF   x93
0A6D8:  CLRF   x92
....................    return; 
0A6DA:  MOVLB  0
0A6DC:  GOTO   ACCE (RETURN)
.................... } 
....................  
.................... //@@@@@@@@@@@ SAT_LOG @@@@@@@@@@@@@@@@@@@@@@@@@@@@@@@@@@@@@@@@@@@@@@@@@@@@@@@@@@@@@@@@@@@@@@@@@@ 
.................... void DAY53to59()//LOG DL 
.................... { 
....................    AD = PASSED_DAYS % loop_day;//53,54,55,56,57,58,59 
*
09B06:  MOVFF  65,2B4
09B0A:  MOVFF  64,2B3
09B0E:  MOVLB  2
09B10:  CLRF   xB6
09B12:  MOVLW  46
09B14:  MOVWF  xB5
09B16:  MOVLB  0
09B18:  CALL   5D4E
09B1C:  MOVFF  00,290
09B20:  MOVLB  2
09B22:  MOVFF  03,291
....................    ADH = AD << 8; 
09B26:  CLRF   x94
....................    ADL = AD; 
09B28:  MOVFF  290,295
....................    D = AD - 53;//0,1,2,3,4,5,6 
09B2C:  MOVLW  35
09B2E:  SUBWF  x90,W
09B30:  MOVWF  x92
09B32:  MOVLW  00
09B34:  SUBWFB x91,W
09B36:  MOVWF  x93
....................     
....................    DL_AD = D; 
09B38:  CLRF   x99
09B3A:  CLRF   x98
09B3C:  MOVFF  293,297
09B40:  MOVFF  292,296
....................    DL_AD = DL_AD * 81; 
09B44:  MOVFF  299,2A5
09B48:  MOVFF  298,2A4
09B4C:  MOVFF  297,2A3
09B50:  MOVFF  296,2A2
09B54:  CLRF   xA9
09B56:  CLRF   xA8
09B58:  CLRF   xA7
09B5A:  MOVLW  51
09B5C:  MOVWF  xA6
09B5E:  MOVLB  0
09B60:  CALL   7446
09B64:  MOVFF  03,299
09B68:  MOVFF  02,298
09B6C:  MOVFF  01,297
09B70:  MOVFF  00,296
....................    /////////////////////////////PACKET////////////////////////////// 
....................    //0-4, 5-10, 10-14, 15-19, 20-24, 25-29, 30-34 
....................    ///////////////////////////////////////////////////////////////// 
....................     
....................    SAVE_SAT_LOG(0xAD,ADH,ADL);//11,11: automatical mission 
09B74:  MOVLW  AD
09B76:  MOVLB  2
09B78:  MOVWF  xC4
09B7A:  MOVFF  294,2C5
09B7E:  MOVFF  295,2C6
09B82:  MOVLB  0
09B84:  CALL   2DCE
....................    UPDATE_ACK_for_COM(0x66,0x77,SECT*6+DL_AD,405);//65536*8 
09B88:  MOVLB  2
09B8A:  MOVFF  296,2A2
09B8E:  MOVFF  297,2A3
09B92:  MOVLW  06
09B94:  ADDWF  x98,W
09B96:  MOVWF  xA4
09B98:  MOVLW  00
09B9A:  ADDWFC x99,W
09B9C:  MOVWF  xA5
09B9E:  MOVLW  66
09BA0:  MOVWF  xA6
09BA2:  MOVLW  77
09BA4:  MOVWF  xA7
09BA6:  MOVFF  2A5,2AB
09BAA:  MOVFF  2A4,2AA
09BAE:  MOVFF  297,2A9
09BB2:  MOVFF  296,2A8
09BB6:  MOVLW  01
09BB8:  MOVWF  xAD
09BBA:  MOVLW  95
09BBC:  MOVWF  xAC
09BBE:  MOVLB  0
09BC0:  CALL   733A
....................    ADH=0; ADL=0; DL_AD=0; D=0; 
09BC4:  MOVLB  2
09BC6:  CLRF   x94
09BC8:  CLRF   x95
09BCA:  CLRF   x99
09BCC:  CLRF   x98
09BCE:  CLRF   x97
09BD0:  CLRF   x96
09BD2:  CLRF   x93
09BD4:  CLRF   x92
....................    return; 
09BD6:  MOVLB  0
09BD8:  GOTO   A108 (RETURN)
.................... } 
....................  
.................... void DAY53to59_ADDRESS()//LOG DL 
.................... { 
....................    AD = PASSED_DAYS % loop_day;//53,54,55,56,57,58,59 
*
0A6E0:  MOVFF  65,2B4
0A6E4:  MOVFF  64,2B3
0A6E8:  MOVLB  2
0A6EA:  CLRF   xB6
0A6EC:  MOVLW  46
0A6EE:  MOVWF  xB5
0A6F0:  MOVLB  0
0A6F2:  CALL   5D4E
0A6F6:  MOVFF  00,290
0A6FA:  MOVLB  2
0A6FC:  MOVFF  03,291
....................    ADH = AD << 8; 
0A700:  CLRF   x94
....................    ADL = AD; 
0A702:  MOVFF  290,295
....................    D = AD - 53;//0,1,2,3,4,5,6 
0A706:  MOVLW  35
0A708:  SUBWF  x90,W
0A70A:  MOVWF  x92
0A70C:  MOVLW  00
0A70E:  SUBWFB x91,W
0A710:  MOVWF  x93
....................     
....................    DL_AD = D; 
0A712:  CLRF   x99
0A714:  CLRF   x98
0A716:  MOVFF  293,297
0A71A:  MOVFF  292,296
....................    DL_AD = DL_AD * 81; 
0A71E:  MOVFF  299,2A5
0A722:  MOVFF  298,2A4
0A726:  MOVFF  297,2A3
0A72A:  MOVFF  296,2A2
0A72E:  CLRF   xA9
0A730:  CLRF   xA8
0A732:  CLRF   xA7
0A734:  MOVLW  51
0A736:  MOVWF  xA6
0A738:  MOVLB  0
0A73A:  CALL   7446
0A73E:  MOVFF  03,299
0A742:  MOVFF  02,298
0A746:  MOVFF  01,297
0A74A:  MOVFF  00,296
....................    /////////////////////////////PACKET////////////////////////////// 
....................    //0-4, 5-10, 10-14, 15-19, 20-24, 25-29, 30-34 
....................    ///////////////////////////////////////////////////////////////// 
....................     
....................    UPDATE_ACK_for_COM(0x66,0x77,SECT*6+DL_AD,405);//65536*8 
0A74E:  MOVLB  2
0A750:  MOVFF  296,2A2
0A754:  MOVFF  297,2A3
0A758:  MOVLW  06
0A75A:  ADDWF  x98,W
0A75C:  MOVWF  xA4
0A75E:  MOVLW  00
0A760:  ADDWFC x99,W
0A762:  MOVWF  xA5
0A764:  MOVLW  66
0A766:  MOVWF  xA6
0A768:  MOVLW  77
0A76A:  MOVWF  xA7
0A76C:  MOVFF  2A5,2AB
0A770:  MOVFF  2A4,2AA
0A774:  MOVFF  297,2A9
0A778:  MOVFF  296,2A8
0A77C:  MOVLW  01
0A77E:  MOVWF  xAD
0A780:  MOVLW  95
0A782:  MOVWF  xAC
0A784:  MOVLB  0
0A786:  CALL   733A
....................    ADH=0; ADL=0; DL_AD=0; D=0; 
0A78A:  MOVLB  2
0A78C:  CLRF   x94
0A78E:  CLRF   x95
0A790:  CLRF   x99
0A792:  CLRF   x98
0A794:  CLRF   x97
0A796:  CLRF   x96
0A798:  CLRF   x93
0A79A:  CLRF   x92
....................    return; 
0A79C:  MOVLB  0
0A79E:  GOTO   AD30 (RETURN)
.................... } 
....................  
.................... //@@@@@@@@@@@ NOMAL SAMPLING HK @@@@@@@@@@@@@@@@@@@@@@@@@@@@@@@@@@@@@@@@@@@@@@@@@@@@@@@@ 
.................... void DAY60to69()//HK Download 
.................... { 
....................    AD = PASSED_DAYS % loop_day;//60,61,62,63,64,65,66,67,68,69 
*
09BDC:  MOVFF  65,2B4
09BE0:  MOVFF  64,2B3
09BE4:  MOVLB  2
09BE6:  CLRF   xB6
09BE8:  MOVLW  46
09BEA:  MOVWF  xB5
09BEC:  MOVLB  0
09BEE:  CALL   5D4E
09BF2:  MOVFF  00,290
09BF6:  MOVLB  2
09BF8:  MOVFF  03,291
....................    ADH = AD << 8; 
09BFC:  CLRF   x94
....................    ADL = AD; 
09BFE:  MOVFF  290,295
....................    D = AD - 53;//0,1,2,3,4,5,6,7,8,9 
09C02:  MOVLW  35
09C04:  SUBWF  x90,W
09C06:  MOVWF  x92
09C08:  MOVLW  00
09C0A:  SUBWFB x91,W
09C0C:  MOVWF  x93
....................     
....................    DL_AD = 9798*D; 
09C0E:  MOVLW  26
09C10:  MOVWF  xAB
09C12:  MOVLW  46
09C14:  MOVWF  xAA
09C16:  MOVFF  293,2AD
09C1A:  MOVFF  292,2AC
09C1E:  MOVLB  0
09C20:  CALL   7424
09C24:  MOVLB  2
09C26:  CLRF   x99
09C28:  CLRF   x98
09C2A:  MOVFF  02,297
09C2E:  MOVFF  01,296
....................    DL_AD = DL_AD * 81; 
09C32:  MOVFF  299,2A5
09C36:  MOVFF  298,2A4
09C3A:  MOVFF  297,2A3
09C3E:  MOVFF  296,2A2
09C42:  CLRF   xA9
09C44:  CLRF   xA8
09C46:  CLRF   xA7
09C48:  MOVLW  51
09C4A:  MOVWF  xA6
09C4C:  MOVLB  0
09C4E:  CALL   7446
09C52:  MOVFF  03,299
09C56:  MOVFF  02,298
09C5A:  MOVFF  01,297
09C5E:  MOVFF  00,296
....................    /////////////////////////////PACKET////////////////////////////// 
....................    //    0-4,      9798-9802,  19596-19600, 29394-29398, 39192-39196 
....................    //48990-48994, 58788-58792, 68586-68590, 78384-78388, 88182-88186 
....................    ///////////////////////////////////////////////////////////////// 
....................     
....................    SAVE_SAT_LOG(0xAD,ADH,ADL);//11,11: automatical mission 
09C62:  MOVLW  AD
09C64:  MOVLB  2
09C66:  MOVWF  xC4
09C68:  MOVFF  294,2C5
09C6C:  MOVFF  295,2C6
09C70:  MOVLB  0
09C72:  CALL   2DCE
....................    UPDATE_ACK_for_COM(0x66,0x77,SECT*98+DL_AD,405);//65536*8 
09C76:  MOVLB  2
09C78:  MOVFF  296,2A2
09C7C:  MOVFF  297,2A3
09C80:  MOVLW  62
09C82:  ADDWF  x98,W
09C84:  MOVWF  xA4
09C86:  MOVLW  00
09C88:  ADDWFC x99,W
09C8A:  MOVWF  xA5
09C8C:  MOVLW  66
09C8E:  MOVWF  xA6
09C90:  MOVLW  77
09C92:  MOVWF  xA7
09C94:  MOVFF  2A5,2AB
09C98:  MOVFF  2A4,2AA
09C9C:  MOVFF  297,2A9
09CA0:  MOVFF  296,2A8
09CA4:  MOVLW  01
09CA6:  MOVWF  xAD
09CA8:  MOVLW  95
09CAA:  MOVWF  xAC
09CAC:  MOVLB  0
09CAE:  CALL   733A
....................    ADH=0; ADL=0; DL_AD=0; D=0; 
09CB2:  MOVLB  2
09CB4:  CLRF   x94
09CB6:  CLRF   x95
09CB8:  CLRF   x99
09CBA:  CLRF   x98
09CBC:  CLRF   x97
09CBE:  CLRF   x96
09CC0:  CLRF   x93
09CC2:  CLRF   x92
....................    return; 
09CC4:  MOVLB  0
09CC6:  GOTO   A16A (RETURN)
.................... } 
....................  
.................... void DAY60to69_ADDRESS()//HK Download 
.................... { 
....................    AD = PASSED_DAYS % loop_day;//60,61,62,63,64,65,66,67,68,69 
*
0A7A2:  MOVFF  65,2B4
0A7A6:  MOVFF  64,2B3
0A7AA:  MOVLB  2
0A7AC:  CLRF   xB6
0A7AE:  MOVLW  46
0A7B0:  MOVWF  xB5
0A7B2:  MOVLB  0
0A7B4:  CALL   5D4E
0A7B8:  MOVFF  00,290
0A7BC:  MOVLB  2
0A7BE:  MOVFF  03,291
....................    ADH = AD << 8; 
0A7C2:  CLRF   x94
....................    ADL = AD; 
0A7C4:  MOVFF  290,295
....................    D = AD - 53;//0,1,2,3,4,5,6,7,8,9 
0A7C8:  MOVLW  35
0A7CA:  SUBWF  x90,W
0A7CC:  MOVWF  x92
0A7CE:  MOVLW  00
0A7D0:  SUBWFB x91,W
0A7D2:  MOVWF  x93
....................     
....................    DL_AD = 9798*D; 
0A7D4:  MOVLW  26
0A7D6:  MOVWF  xAB
0A7D8:  MOVLW  46
0A7DA:  MOVWF  xAA
0A7DC:  MOVFF  293,2AD
0A7E0:  MOVFF  292,2AC
0A7E4:  MOVLB  0
0A7E6:  CALL   7424
0A7EA:  MOVLB  2
0A7EC:  CLRF   x99
0A7EE:  CLRF   x98
0A7F0:  MOVFF  02,297
0A7F4:  MOVFF  01,296
....................    DL_AD = DL_AD * 81; 
0A7F8:  MOVFF  299,2A5
0A7FC:  MOVFF  298,2A4
0A800:  MOVFF  297,2A3
0A804:  MOVFF  296,2A2
0A808:  CLRF   xA9
0A80A:  CLRF   xA8
0A80C:  CLRF   xA7
0A80E:  MOVLW  51
0A810:  MOVWF  xA6
0A812:  MOVLB  0
0A814:  CALL   7446
0A818:  MOVFF  03,299
0A81C:  MOVFF  02,298
0A820:  MOVFF  01,297
0A824:  MOVFF  00,296
....................    /////////////////////////////PACKET////////////////////////////// 
....................    //    0-4,      9798-9802,  19596-19600, 29394-29398, 39192-39196 
....................    //48990-48994, 58788-58792, 68586-68590, 78384-78388, 88182-88186 
....................    ///////////////////////////////////////////////////////////////// 
....................     
....................    UPDATE_ACK_for_COM(0x66,0x77,SECT*98+DL_AD,405);//65536*8 
0A828:  MOVLB  2
0A82A:  MOVFF  296,2A2
0A82E:  MOVFF  297,2A3
0A832:  MOVLW  62
0A834:  ADDWF  x98,W
0A836:  MOVWF  xA4
0A838:  MOVLW  00
0A83A:  ADDWFC x99,W
0A83C:  MOVWF  xA5
0A83E:  MOVLW  66
0A840:  MOVWF  xA6
0A842:  MOVLW  77
0A844:  MOVWF  xA7
0A846:  MOVFF  2A5,2AB
0A84A:  MOVFF  2A4,2AA
0A84E:  MOVFF  297,2A9
0A852:  MOVFF  296,2A8
0A856:  MOVLW  01
0A858:  MOVWF  xAD
0A85A:  MOVLW  95
0A85C:  MOVWF  xAC
0A85E:  MOVLB  0
0A860:  CALL   733A
....................    ADH=0; ADL=0; DL_AD=0; D=0; 
0A864:  MOVLB  2
0A866:  CLRF   x94
0A868:  CLRF   x95
0A86A:  CLRF   x99
0A86C:  CLRF   x98
0A86E:  CLRF   x97
0A870:  CLRF   x96
0A872:  CLRF   x93
0A874:  CLRF   x92
....................    return; 
0A876:  MOVLB  0
0A878:  GOTO   AD92 (RETURN)
.................... } 
....................  
.................... //@@@@@@@@@@@ ADDRESS CHANGE @@@@@@@@@@@@@@@@@@@@@@@@@@@@@@@@@@@@@@@@@@@@@@@@@@@@@@@@ 
.................... void AUTO_MSN_AD_CHANGE() 
.................... { 
....................    unsigned int16 D = PASSED_DAYS/loop_day; 
....................    int8 UPDATE_TIME = (int8)D; 
....................    SAVE_SAT_LOG(0xF9,UPDATE_TIME,UPDATE_TIME);// 
....................    int32 DATA = 8192*D;//11byte*500 < 5500 (enough) 
....................    SAT_LOG = SECT*6 + DATA;//2sector 
....................     
....................    DATA = SECT*D;//1sector 
....................    CAM_ADDRESS = SECT*8 + DATA; 
....................     
....................    DATA = SECT*130;//124*3600*24*70/90 < 128sector 
....................    DATA = DATA*D; 
....................    FAB_HK_ADDRESS = SECT*98 + DATA;//1000sector 
....................     
....................    DATA = SECT*5;//81*5400/1.5 < 5sector 
....................    DATA = DATA*D; 
....................    ADCS_SENSOR_ADDRESS = SECT*1138 + DATA;//500sector 
....................     
....................    DATA = 405*5;//5packet*5 
....................    DATA = DATA*D; 
....................    DC_STATUS_ADDRESS = SECT*1638 + DATA;//1sector 
....................     
....................    DATA = SECT*3;//124*3600*2/5 < 3sector 
....................    DATA = DATA*D; 
....................    HIGH_SAMP_HK_ADDRESS = SECT*1639 + DATA;//409sector 
....................     
....................    STORE_ADRESS_DATA_TO_FLASH();//update 
....................     
....................    return; 
.................... } 
....................  
....................  
.................... //@@@@@@@@@@@ AUTO MISSION EXECUTING FUNCTION @@@@@@@@@@@@@@@@@@@@@@@@@@@@@@@@@@@@@@@@ 
....................  
.................... void AUTOMATICAL_MSN_EXE() 
.................... { 
....................    //PASSED_DAYS = make16(reset_bffr[4],reset_bffr[5]); 
....................    if(((PASSED_DAYS%loop_day) >= 0 && UPLINK_SUCCESS == 0) && FIRST_HSSC_DONE == 0)//automated high samp mission 
*
09CCA:  MOVFF  65,2B4
09CCE:  MOVFF  64,2B3
09CD2:  MOVLB  2
09CD4:  CLRF   xB6
09CD6:  MOVLW  46
09CD8:  MOVWF  xB5
09CDA:  MOVLB  0
09CDC:  CALL   5D4E
09CE0:  MOVFF  00,2A2
09CE4:  MOVFF  03,2A3
09CE8:  MOVLB  0
09CEA:  MOVF   x72,F
09CEC:  BNZ   9CF8
09CEE:  MOVF   x6D,F
09CF0:  BNZ   9CF8
....................    { 
....................       DAY0(); 
09CF2:  GOTO   7396
....................    }else if(PASSED_DAYS < make16(reset_bffr[4],reset_bffr[5]))//if the date changed(next day) 
09CF6:  BRA    A16A
09CF8:  MOVFF  E4,03
09CFC:  MOVFF  E5,01
09D00:  MOVF   x65,W
09D02:  SUBWF  xE4,W
09D04:  BTFSS  FD8.0
09D06:  BRA    A16A
09D08:  BNZ   9D12
09D0A:  MOVF   01,W
09D0C:  SUBWF  x64,W
09D0E:  BTFSC  FD8.0
09D10:  BRA    A16A
....................    { 
....................       PASSED_DAYS = make16(reset_bffr[4],reset_bffr[5]);//update passed days 
09D12:  MOVFF  E4,65
09D16:  MOVFF  E5,64
....................       STORE_FLAG_INFO();//save passed days 
09D1A:  CALL   50A4
....................       WRITE_FLAG_to_EEPROM(); 
09D1E:  CALL   52B4
....................        
....................       if(((PASSED_DAYS%loop_day) >= 1 && (PASSED_DAYS%loop_day) <= 4) && UPLINK_SUCCESS == 0){//1-4th day high samp mission download  
09D22:  MOVFF  65,2B4
09D26:  MOVFF  64,2B3
09D2A:  MOVLB  2
09D2C:  CLRF   xB6
09D2E:  MOVLW  46
09D30:  MOVWF  xB5
09D32:  MOVLB  0
09D34:  CALL   5D4E
09D38:  MOVFF  00,2A2
09D3C:  MOVLB  2
09D3E:  MOVFF  03,2A3
09D42:  MOVF   xA3,F
09D44:  BNZ   9D4C
09D46:  MOVF   xA2,W
09D48:  SUBLW  00
09D4A:  BC    9D88
09D4C:  MOVFF  65,2B4
09D50:  MOVFF  64,2B3
09D54:  CLRF   xB6
09D56:  MOVLW  46
09D58:  MOVWF  xB5
09D5A:  MOVLB  0
09D5C:  CALL   5D4E
09D60:  MOVFF  00,2A2
09D64:  MOVLB  2
09D66:  MOVFF  03,2A3
09D6A:  MOVF   xA3,F
09D6C:  BNZ   9D88
09D6E:  MOVF   xA2,W
09D70:  SUBLW  04
09D72:  BNC   9D88
09D74:  MOVLB  0
09D76:  MOVF   x72,F
09D78:  BTFSC  FD8.2
09D7A:  BRA    9D80
09D7C:  MOVLB  2
09D7E:  BRA    9D88
....................          DAY1to4(); 
09D80:  GOTO   74A2
....................       }else if(((PASSED_DAYS%loop_day) >= 5 && UPLINK_SUCCESS == 0) && AUTO_CAM_DONE == 0){//5th day (CAM MSN) 
09D84:  BRA    A16A
09D86:  MOVLB  2
09D88:  MOVFF  65,2B4
09D8C:  MOVFF  64,2B3
09D90:  CLRF   xB6
09D92:  MOVLW  46
09D94:  MOVWF  xB5
09D96:  MOVLB  0
09D98:  CALL   5D4E
09D9C:  MOVFF  00,2A2
09DA0:  MOVLB  2
09DA2:  MOVFF  03,2A3
09DA6:  MOVF   xA3,F
09DA8:  BNZ   9DB0
09DAA:  MOVF   xA2,W
09DAC:  SUBLW  04
09DAE:  BC    9DCE
09DB0:  MOVLB  0
09DB2:  MOVF   x72,F
09DB4:  BTFSC  FD8.2
09DB6:  BRA    9DBC
09DB8:  MOVLB  2
09DBA:  BRA    9DCE
09DBC:  MOVF   x6E,F
09DBE:  BTFSC  FD8.2
09DC0:  BRA    9DC6
09DC2:  MOVLB  2
09DC4:  BRA    9DCE
....................          DAY5(); 
09DC6:  GOTO   7C1C
....................       }else if(((PASSED_DAYS%loop_day) >= 6 && (PASSED_DAYS%loop_day) <= 9) && UPLINK_SUCCESS == 0){//download cam data 
09DCA:  BRA    A16A
09DCC:  MOVLB  2
09DCE:  MOVFF  65,2B4
09DD2:  MOVFF  64,2B3
09DD6:  CLRF   xB6
09DD8:  MOVLW  46
09DDA:  MOVWF  xB5
09DDC:  MOVLB  0
09DDE:  CALL   5D4E
09DE2:  MOVFF  00,2A2
09DE6:  MOVLB  2
09DE8:  MOVFF  03,2A3
09DEC:  MOVF   xA3,F
09DEE:  BNZ   9DF6
09DF0:  MOVF   xA2,W
09DF2:  SUBLW  05
09DF4:  BC    9E32
09DF6:  MOVFF  65,2B4
09DFA:  MOVFF  64,2B3
09DFE:  CLRF   xB6
09E00:  MOVLW  46
09E02:  MOVWF  xB5
09E04:  MOVLB  0
09E06:  CALL   5D4E
09E0A:  MOVFF  00,2A2
09E0E:  MOVLB  2
09E10:  MOVFF  03,2A3
09E14:  MOVF   xA3,F
09E16:  BNZ   9E32
09E18:  MOVF   xA2,W
09E1A:  SUBLW  09
09E1C:  BNC   9E32
09E1E:  MOVLB  0
09E20:  MOVF   x72,F
09E22:  BTFSC  FD8.2
09E24:  BRA    9E2A
09E26:  MOVLB  2
09E28:  BRA    9E32
....................          DAY6to9(); 
09E2A:  GOTO   7CA6
....................       }else if(((PASSED_DAYS%loop_day) >= 10 && UPLINK_SUCCESS == 0) && AUTO_LDM_DONE == 0){//LDM and download 
09E2E:  BRA    A16A
09E30:  MOVLB  2
09E32:  MOVFF  65,2B4
09E36:  MOVFF  64,2B3
09E3A:  CLRF   xB6
09E3C:  MOVLW  46
09E3E:  MOVWF  xB5
09E40:  MOVLB  0
09E42:  CALL   5D4E
09E46:  MOVFF  00,2A2
09E4A:  MOVLB  2
09E4C:  MOVFF  03,2A3
09E50:  MOVF   xA3,F
09E52:  BNZ   9E5A
09E54:  MOVF   xA2,W
09E56:  SUBLW  09
09E58:  BC    9E78
09E5A:  MOVLB  0
09E5C:  MOVF   x72,F
09E5E:  BTFSC  FD8.2
09E60:  BRA    9E66
09E62:  MOVLB  2
09E64:  BRA    9E78
09E66:  MOVF   x6F,F
09E68:  BTFSC  FD8.2
09E6A:  BRA    9E70
09E6C:  MOVLB  2
09E6E:  BRA    9E78
....................          DAY10(); 
09E70:  GOTO   8238
....................       }else if(((PASSED_DAYS%loop_day) >= 11 && (PASSED_DAYS%loop_day) <= 14) && UPLINK_SUCCESS == 0){//LDM and download 
09E74:  BRA    A16A
09E76:  MOVLB  2
09E78:  MOVFF  65,2B4
09E7C:  MOVFF  64,2B3
09E80:  CLRF   xB6
09E82:  MOVLW  46
09E84:  MOVWF  xB5
09E86:  MOVLB  0
09E88:  CALL   5D4E
09E8C:  MOVFF  00,2A2
09E90:  MOVLB  2
09E92:  MOVFF  03,2A3
09E96:  MOVF   xA3,F
09E98:  BNZ   9EA0
09E9A:  MOVF   xA2,W
09E9C:  SUBLW  0A
09E9E:  BC    9EDC
09EA0:  MOVFF  65,2B4
09EA4:  MOVFF  64,2B3
09EA8:  CLRF   xB6
09EAA:  MOVLW  46
09EAC:  MOVWF  xB5
09EAE:  MOVLB  0
09EB0:  CALL   5D4E
09EB4:  MOVFF  00,2A2
09EB8:  MOVLB  2
09EBA:  MOVFF  03,2A3
09EBE:  MOVF   xA3,F
09EC0:  BNZ   9EDC
09EC2:  MOVF   xA2,W
09EC4:  SUBLW  0E
09EC6:  BNC   9EDC
09EC8:  MOVLB  0
09ECA:  MOVF   x72,F
09ECC:  BTFSC  FD8.2
09ECE:  BRA    9ED4
09ED0:  MOVLB  2
09ED2:  BRA    9EDC
....................          DAY11to14(); 
09ED4:  GOTO   8350
....................       }else if(((PASSED_DAYS%loop_day) >= 15 && UPLINK_SUCCESS == 0) && AUTO_ADCS_DONE == 0){//ADCS Mission and Download 
09ED8:  BRA    A16A
09EDA:  MOVLB  2
09EDC:  MOVFF  65,2B4
09EE0:  MOVFF  64,2B3
09EE4:  CLRF   xB6
09EE6:  MOVLW  46
09EE8:  MOVWF  xB5
09EEA:  MOVLB  0
09EEC:  CALL   5D4E
09EF0:  MOVFF  00,2A2
09EF4:  MOVLB  2
09EF6:  MOVFF  03,2A3
09EFA:  MOVF   xA3,F
09EFC:  BNZ   9F04
09EFE:  MOVF   xA2,W
09F00:  SUBLW  0E
09F02:  BC    9F22
09F04:  MOVLB  0
09F06:  MOVF   x72,F
09F08:  BTFSC  FD8.2
09F0A:  BRA    9F10
09F0C:  MOVLB  2
09F0E:  BRA    9F22
09F10:  MOVF   x70,F
09F12:  BTFSC  FD8.2
09F14:  BRA    9F1A
09F16:  MOVLB  2
09F18:  BRA    9F22
....................          DAY15(); 
09F1A:  GOTO   96F0
....................       }else if(((PASSED_DAYS%loop_day) >= 16 && (PASSED_DAYS%loop_day) <= 19) && UPLINK_SUCCESS == 0){//ADCS Download 
09F1E:  BRA    A16A
09F20:  MOVLB  2
09F22:  MOVFF  65,2B4
09F26:  MOVFF  64,2B3
09F2A:  CLRF   xB6
09F2C:  MOVLW  46
09F2E:  MOVWF  xB5
09F30:  MOVLB  0
09F32:  CALL   5D4E
09F36:  MOVFF  00,2A2
09F3A:  MOVLB  2
09F3C:  MOVFF  03,2A3
09F40:  MOVF   xA3,F
09F42:  BNZ   9F4A
09F44:  MOVF   xA2,W
09F46:  SUBLW  0F
09F48:  BC    9F84
09F4A:  MOVFF  65,2B4
09F4E:  MOVFF  64,2B3
09F52:  CLRF   xB6
09F54:  MOVLW  46
09F56:  MOVWF  xB5
09F58:  MOVLB  0
09F5A:  CALL   5D4E
09F5E:  MOVFF  00,2A2
09F62:  MOVLB  2
09F64:  MOVFF  03,2A3
09F68:  MOVF   xA3,F
09F6A:  BNZ   9F84
09F6C:  MOVF   xA2,W
09F6E:  SUBLW  13
09F70:  BNC   9F84
09F72:  MOVLB  0
09F74:  MOVF   x72,F
09F76:  BTFSC  FD8.2
09F78:  BRA    9F7E
09F7A:  MOVLB  2
09F7C:  BRA    9F84
....................          DAY16to19(); 
09F7E:  BRA    9784
....................       }else if(((PASSED_DAYS%loop_day) >= 20 && (PASSED_DAYS%loop_day) <= 25) && UPLINK_SUCCESS == 0){//High sampling sensor collecting mission download 
09F80:  BRA    A16A
09F82:  MOVLB  2
09F84:  MOVFF  65,2B4
09F88:  MOVFF  64,2B3
09F8C:  CLRF   xB6
09F8E:  MOVLW  46
09F90:  MOVWF  xB5
09F92:  MOVLB  0
09F94:  CALL   5D4E
09F98:  MOVFF  00,2A2
09F9C:  MOVLB  2
09F9E:  MOVFF  03,2A3
09FA2:  MOVF   xA3,F
09FA4:  BNZ   9FAC
09FA6:  MOVF   xA2,W
09FA8:  SUBLW  13
09FAA:  BC    9FE6
09FAC:  MOVFF  65,2B4
09FB0:  MOVFF  64,2B3
09FB4:  CLRF   xB6
09FB6:  MOVLW  46
09FB8:  MOVWF  xB5
09FBA:  MOVLB  0
09FBC:  CALL   5D4E
09FC0:  MOVFF  00,2A2
09FC4:  MOVLB  2
09FC6:  MOVFF  03,2A3
09FCA:  MOVF   xA3,F
09FCC:  BNZ   9FE6
09FCE:  MOVF   xA2,W
09FD0:  SUBLW  19
09FD2:  BNC   9FE6
09FD4:  MOVLB  0
09FD6:  MOVF   x72,F
09FD8:  BTFSC  FD8.2
09FDA:  BRA    9FE0
09FDC:  MOVLB  2
09FDE:  BRA    9FE6
....................          DAY20to25(); 
09FE0:  BRA    9840
....................       }else if(((PASSED_DAYS%loop_day) >= 26 && (PASSED_DAYS%loop_day) <= 46) && UPLINK_SUCCESS == 0){//CAM Mission Download 
09FE2:  BRA    A16A
09FE4:  MOVLB  2
09FE6:  MOVFF  65,2B4
09FEA:  MOVFF  64,2B3
09FEE:  CLRF   xB6
09FF0:  MOVLW  46
09FF2:  MOVWF  xB5
09FF4:  MOVLB  0
09FF6:  CALL   5D4E
09FFA:  MOVFF  00,2A2
09FFE:  MOVLB  2
0A000:  MOVFF  03,2A3
0A004:  MOVF   xA3,F
0A006:  BNZ   A00E
0A008:  MOVF   xA2,W
0A00A:  SUBLW  19
0A00C:  BC    A048
0A00E:  MOVFF  65,2B4
0A012:  MOVFF  64,2B3
0A016:  CLRF   xB6
0A018:  MOVLW  46
0A01A:  MOVWF  xB5
0A01C:  MOVLB  0
0A01E:  CALL   5D4E
0A022:  MOVFF  00,2A2
0A026:  MOVLB  2
0A028:  MOVFF  03,2A3
0A02C:  MOVF   xA3,F
0A02E:  BNZ   A048
0A030:  MOVF   xA2,W
0A032:  SUBLW  2E
0A034:  BNC   A048
0A036:  MOVLB  0
0A038:  MOVF   x72,F
0A03A:  BTFSC  FD8.2
0A03C:  BRA    A042
0A03E:  MOVLB  2
0A040:  BRA    A048
....................          DAY26to46(); 
0A042:  BRA    992C
....................       }else if(((PASSED_DAYS%loop_day) >= 47 && (PASSED_DAYS%loop_day) <= 52) && UPLINK_SUCCESS == 0){//ADCS Mission Data Download 
0A044:  BRA    A16A
0A046:  MOVLB  2
0A048:  MOVFF  65,2B4
0A04C:  MOVFF  64,2B3
0A050:  CLRF   xB6
0A052:  MOVLW  46
0A054:  MOVWF  xB5
0A056:  MOVLB  0
0A058:  CALL   5D4E
0A05C:  MOVFF  00,2A2
0A060:  MOVLB  2
0A062:  MOVFF  03,2A3
0A066:  MOVF   xA3,F
0A068:  BNZ   A070
0A06A:  MOVF   xA2,W
0A06C:  SUBLW  2E
0A06E:  BC    A0AA
0A070:  MOVFF  65,2B4
0A074:  MOVFF  64,2B3
0A078:  CLRF   xB6
0A07A:  MOVLW  46
0A07C:  MOVWF  xB5
0A07E:  MOVLB  0
0A080:  CALL   5D4E
0A084:  MOVFF  00,2A2
0A088:  MOVLB  2
0A08A:  MOVFF  03,2A3
0A08E:  MOVF   xA3,F
0A090:  BNZ   A0AA
0A092:  MOVF   xA2,W
0A094:  SUBLW  34
0A096:  BNC   A0AA
0A098:  MOVLB  0
0A09A:  MOVF   x72,F
0A09C:  BTFSC  FD8.2
0A09E:  BRA    A0A4
0A0A0:  MOVLB  2
0A0A2:  BRA    A0AA
....................          DAY47to52(); 
0A0A4:  BRA    9A18
....................       }else if(((PASSED_DAYS%loop_day) >= 53 && (PASSED_DAYS%loop_day) <= 59) && UPLINK_SUCCESS == 0){//Satellite LOG Download 
0A0A6:  BRA    A16A
0A0A8:  MOVLB  2
0A0AA:  MOVFF  65,2B4
0A0AE:  MOVFF  64,2B3
0A0B2:  CLRF   xB6
0A0B4:  MOVLW  46
0A0B6:  MOVWF  xB5
0A0B8:  MOVLB  0
0A0BA:  CALL   5D4E
0A0BE:  MOVFF  00,2A2
0A0C2:  MOVLB  2
0A0C4:  MOVFF  03,2A3
0A0C8:  MOVF   xA3,F
0A0CA:  BNZ   A0D2
0A0CC:  MOVF   xA2,W
0A0CE:  SUBLW  34
0A0D0:  BC    A10C
0A0D2:  MOVFF  65,2B4
0A0D6:  MOVFF  64,2B3
0A0DA:  CLRF   xB6
0A0DC:  MOVLW  46
0A0DE:  MOVWF  xB5
0A0E0:  MOVLB  0
0A0E2:  CALL   5D4E
0A0E6:  MOVFF  00,2A2
0A0EA:  MOVLB  2
0A0EC:  MOVFF  03,2A3
0A0F0:  MOVF   xA3,F
0A0F2:  BNZ   A10C
0A0F4:  MOVF   xA2,W
0A0F6:  SUBLW  3B
0A0F8:  BNC   A10C
0A0FA:  MOVLB  0
0A0FC:  MOVF   x72,F
0A0FE:  BTFSC  FD8.2
0A100:  BRA    A106
0A102:  MOVLB  2
0A104:  BRA    A10C
....................          DAY53to59(); 
0A106:  BRA    9B06
....................       }else if(((PASSED_DAYS%loop_day) >= 60 && (PASSED_DAYS%loop_day) <= 69) && UPLINK_SUCCESS == 0){//Normal HK Download 
0A108:  BRA    A16A
0A10A:  MOVLB  2
0A10C:  MOVFF  65,2B4
0A110:  MOVFF  64,2B3
0A114:  CLRF   xB6
0A116:  MOVLW  46
0A118:  MOVWF  xB5
0A11A:  MOVLB  0
0A11C:  CALL   5D4E
0A120:  MOVFF  00,2A2
0A124:  MOVLB  2
0A126:  MOVFF  03,2A3
0A12A:  MOVF   xA3,F
0A12C:  BNZ   A134
0A12E:  MOVF   xA2,W
0A130:  SUBLW  3B
0A132:  BC    A16C
0A134:  MOVFF  65,2B4
0A138:  MOVFF  64,2B3
0A13C:  CLRF   xB6
0A13E:  MOVLW  46
0A140:  MOVWF  xB5
0A142:  MOVLB  0
0A144:  CALL   5D4E
0A148:  MOVFF  00,2A2
0A14C:  MOVLB  2
0A14E:  MOVFF  03,2A3
0A152:  MOVF   xA3,F
0A154:  BNZ   A16C
0A156:  MOVF   xA2,W
0A158:  SUBLW  45
0A15A:  BNC   A16C
0A15C:  MOVLB  0
0A15E:  MOVF   x72,F
0A160:  BTFSC  FD8.2
0A162:  BRA    A168
0A164:  MOVLB  2
0A166:  BRA    A16C
....................          DAY60to69(); 
0A168:  BRA    9BDC
0A16A:  MOVLB  2
....................       } 
....................    } 
....................    if(BC_ATTEMPT_FLAG == 0)//at this moment, this flag should be over 1 
0A16C:  MOVLB  0
0A16E:  MOVF   x63,F
0A170:  BNZ   A176
....................    { 
....................       BC_ON_30min(); 
0A172:  CALL   6D38
....................    } 
....................     
....................    FAB_FLAG = 0; 
0A176:  MOVLB  2
0A178:  CLRF   x34
0A17A:  CLRF   x33
0A17C:  CLRF   x32
0A17E:  CLRF   x31
....................    return; 
0A180:  MOVLB  0
0A182:  GOTO   AEE8 (RETURN)
.................... } 
....................  
.................... void PREPARE_AUTOMATICAL_MSN_ADDRESS() 
.................... { 
....................    if((PASSED_DAYS%loop_day) == 0 && UPLINK_SUCCESS == 0){//0th day high samp mission download 
*
0A87C:  MOVFF  65,2B4
0A880:  MOVFF  64,2B3
0A884:  MOVLB  2
0A886:  CLRF   xB6
0A888:  MOVLW  46
0A88A:  MOVWF  xB5
0A88C:  MOVLB  0
0A88E:  CALL   5D4E
0A892:  MOVFF  00,2A2
0A896:  MOVLB  2
0A898:  MOVFF  03,2A3
0A89C:  MOVF   xA2,F
0A89E:  BNZ   A8D8
0A8A0:  MOVF   xA3,F
0A8A2:  BNZ   A8D8
0A8A4:  MOVLB  0
0A8A6:  MOVF   x72,F
0A8A8:  BTFSC  FD8.2
0A8AA:  BRA    A8B0
0A8AC:  MOVLB  2
0A8AE:  BRA    A8D8
....................       UPDATE_ACK_for_COM(0x66,0x77,SECT*1639,405); 
0A8B0:  MOVLW  66
0A8B2:  MOVLB  2
0A8B4:  MOVWF  xA6
0A8B6:  MOVLW  77
0A8B8:  MOVWF  xA7
0A8BA:  MOVLW  06
0A8BC:  MOVWF  xAB
0A8BE:  MOVLW  67
0A8C0:  MOVWF  xAA
0A8C2:  CLRF   xA9
0A8C4:  CLRF   xA8
0A8C6:  MOVLW  01
0A8C8:  MOVWF  xAD
0A8CA:  MOVLW  95
0A8CC:  MOVWF  xAC
0A8CE:  MOVLB  0
0A8D0:  CALL   733A
....................    }else if(((PASSED_DAYS%loop_day) >= 1 && (PASSED_DAYS%loop_day) <= 4) && UPLINK_SUCCESS == 0){//1-4th day high samp mission download  
0A8D4:  BRA    AD92
0A8D6:  MOVLB  2
0A8D8:  MOVFF  65,2B4
0A8DC:  MOVFF  64,2B3
0A8E0:  CLRF   xB6
0A8E2:  MOVLW  46
0A8E4:  MOVWF  xB5
0A8E6:  MOVLB  0
0A8E8:  CALL   5D4E
0A8EC:  MOVFF  00,2A2
0A8F0:  MOVLB  2
0A8F2:  MOVFF  03,2A3
0A8F6:  MOVF   xA3,F
0A8F8:  BNZ   A900
0A8FA:  MOVF   xA2,W
0A8FC:  SUBLW  00
0A8FE:  BC    A93A
0A900:  MOVFF  65,2B4
0A904:  MOVFF  64,2B3
0A908:  CLRF   xB6
0A90A:  MOVLW  46
0A90C:  MOVWF  xB5
0A90E:  MOVLB  0
0A910:  CALL   5D4E
0A914:  MOVFF  00,2A2
0A918:  MOVLB  2
0A91A:  MOVFF  03,2A3
0A91E:  MOVF   xA3,F
0A920:  BNZ   A93A
0A922:  MOVF   xA2,W
0A924:  SUBLW  04
0A926:  BNC   A93A
0A928:  MOVLB  0
0A92A:  MOVF   x72,F
0A92C:  BTFSC  FD8.2
0A92E:  BRA    A934
0A930:  MOVLB  2
0A932:  BRA    A93A
....................       DAY1to4_ADDRESS(); 
0A934:  BRA    A186
....................    }else if(((PASSED_DAYS%loop_day) >= 5 && UPLINK_SUCCESS == 0) && AUTO_CAM_DONE == 0){//5th day (CAM MSN) 
0A936:  BRA    AD92
0A938:  MOVLB  2
0A93A:  MOVFF  65,2B4
0A93E:  MOVFF  64,2B3
0A942:  CLRF   xB6
0A944:  MOVLW  46
0A946:  MOVWF  xB5
0A948:  MOVLB  0
0A94A:  CALL   5D4E
0A94E:  MOVFF  00,2A2
0A952:  MOVLB  2
0A954:  MOVFF  03,2A3
0A958:  MOVF   xA3,F
0A95A:  BNZ   A962
0A95C:  MOVF   xA2,W
0A95E:  SUBLW  04
0A960:  BC    A99E
0A962:  MOVLB  0
0A964:  MOVF   x72,F
0A966:  BTFSC  FD8.2
0A968:  BRA    A96E
0A96A:  MOVLB  2
0A96C:  BRA    A99E
0A96E:  MOVF   x6E,F
0A970:  BTFSC  FD8.2
0A972:  BRA    A978
0A974:  MOVLB  2
0A976:  BRA    A99E
....................       UPDATE_ACK_for_COM(0x66,0x77,SECT*8,405);//65536*8; 
0A978:  MOVLW  66
0A97A:  MOVLB  2
0A97C:  MOVWF  xA6
0A97E:  MOVLW  77
0A980:  MOVWF  xA7
0A982:  CLRF   xAB
0A984:  MOVLW  08
0A986:  MOVWF  xAA
0A988:  CLRF   xA9
0A98A:  CLRF   xA8
0A98C:  MOVLW  01
0A98E:  MOVWF  xAD
0A990:  MOVLW  95
0A992:  MOVWF  xAC
0A994:  MOVLB  0
0A996:  CALL   733A
....................    }else if(((PASSED_DAYS%loop_day) >= 6 && (PASSED_DAYS%loop_day) <= 9) && UPLINK_SUCCESS == 0){//download cam data 
0A99A:  BRA    AD92
0A99C:  MOVLB  2
0A99E:  MOVFF  65,2B4
0A9A2:  MOVFF  64,2B3
0A9A6:  CLRF   xB6
0A9A8:  MOVLW  46
0A9AA:  MOVWF  xB5
0A9AC:  MOVLB  0
0A9AE:  CALL   5D4E
0A9B2:  MOVFF  00,2A2
0A9B6:  MOVLB  2
0A9B8:  MOVFF  03,2A3
0A9BC:  MOVF   xA3,F
0A9BE:  BNZ   A9C6
0A9C0:  MOVF   xA2,W
0A9C2:  SUBLW  05
0A9C4:  BC    AA00
0A9C6:  MOVFF  65,2B4
0A9CA:  MOVFF  64,2B3
0A9CE:  CLRF   xB6
0A9D0:  MOVLW  46
0A9D2:  MOVWF  xB5
0A9D4:  MOVLB  0
0A9D6:  CALL   5D4E
0A9DA:  MOVFF  00,2A2
0A9DE:  MOVLB  2
0A9E0:  MOVFF  03,2A3
0A9E4:  MOVF   xA3,F
0A9E6:  BNZ   AA00
0A9E8:  MOVF   xA2,W
0A9EA:  SUBLW  09
0A9EC:  BNC   AA00
0A9EE:  MOVLB  0
0A9F0:  MOVF   x72,F
0A9F2:  BTFSC  FD8.2
0A9F4:  BRA    A9FA
0A9F6:  MOVLB  2
0A9F8:  BRA    AA00
....................       DAY6to9_ADDRESS(); 
0A9FA:  BRA    A25A
....................    }else if(((PASSED_DAYS%loop_day) >= 10 && UPLINK_SUCCESS == 0) && AUTO_LDM_DONE == 0){//LDM and download 
0A9FC:  BRA    AD92
0A9FE:  MOVLB  2
0AA00:  MOVFF  65,2B4
0AA04:  MOVFF  64,2B3
0AA08:  CLRF   xB6
0AA0A:  MOVLW  46
0AA0C:  MOVWF  xB5
0AA0E:  MOVLB  0
0AA10:  CALL   5D4E
0AA14:  MOVFF  00,2A2
0AA18:  MOVLB  2
0AA1A:  MOVFF  03,2A3
0AA1E:  MOVF   xA3,F
0AA20:  BNZ   AA28
0AA22:  MOVF   xA2,W
0AA24:  SUBLW  09
0AA26:  BC    AA82
0AA28:  MOVLB  0
0AA2A:  MOVF   x72,F
0AA2C:  BTFSC  FD8.2
0AA2E:  BRA    AA34
0AA30:  MOVLB  2
0AA32:  BRA    AA82
0AA34:  MOVF   x6F,F
0AA36:  BTFSC  FD8.2
0AA38:  BRA    AA3E
0AA3A:  MOVLB  2
0AA3C:  BRA    AA82
....................       UPDATE_ACK_for_COM(0x66,0x77,DC_STATUS_ADDRESS-332,332);//65536*162; 
0AA3E:  MOVLW  4C
0AA40:  SUBWF  53,W
0AA42:  MOVLB  2
0AA44:  MOVWF  xA2
0AA46:  MOVLW  01
0AA48:  SUBWFB 54,W
0AA4A:  MOVWF  xA3
0AA4C:  MOVLW  00
0AA4E:  SUBWFB 55,W
0AA50:  MOVWF  xA4
0AA52:  MOVLW  00
0AA54:  SUBWFB 56,W
0AA56:  MOVWF  xA5
0AA58:  MOVLW  66
0AA5A:  MOVWF  xA6
0AA5C:  MOVLW  77
0AA5E:  MOVWF  xA7
0AA60:  MOVFF  2A5,2AB
0AA64:  MOVFF  2A4,2AA
0AA68:  MOVFF  2A3,2A9
0AA6C:  MOVFF  2A2,2A8
0AA70:  MOVLW  01
0AA72:  MOVWF  xAD
0AA74:  MOVLW  4C
0AA76:  MOVWF  xAC
0AA78:  MOVLB  0
0AA7A:  CALL   733A
....................    }else if(((PASSED_DAYS%loop_day) >= 11 && (PASSED_DAYS%loop_day) <= 14) && UPLINK_SUCCESS == 0){//LDM and download 
0AA7E:  BRA    AD92
0AA80:  MOVLB  2
0AA82:  MOVFF  65,2B4
0AA86:  MOVFF  64,2B3
0AA8A:  CLRF   xB6
0AA8C:  MOVLW  46
0AA8E:  MOVWF  xB5
0AA90:  MOVLB  0
0AA92:  CALL   5D4E
0AA96:  MOVFF  00,2A2
0AA9A:  MOVLB  2
0AA9C:  MOVFF  03,2A3
0AAA0:  MOVF   xA3,F
0AAA2:  BNZ   AAAA
0AAA4:  MOVF   xA2,W
0AAA6:  SUBLW  0A
0AAA8:  BC    AAE4
0AAAA:  MOVFF  65,2B4
0AAAE:  MOVFF  64,2B3
0AAB2:  CLRF   xB6
0AAB4:  MOVLW  46
0AAB6:  MOVWF  xB5
0AAB8:  MOVLB  0
0AABA:  CALL   5D4E
0AABE:  MOVFF  00,2A2
0AAC2:  MOVLB  2
0AAC4:  MOVFF  03,2A3
0AAC8:  MOVF   xA3,F
0AACA:  BNZ   AAE4
0AACC:  MOVF   xA2,W
0AACE:  SUBLW  0E
0AAD0:  BNC   AAE4
0AAD2:  MOVLB  0
0AAD4:  MOVF   x72,F
0AAD6:  BTFSC  FD8.2
0AAD8:  BRA    AADE
0AADA:  MOVLB  2
0AADC:  BRA    AAE4
....................       DAY11to14_ADDRESS(); 
0AADE:  BRA    A332
....................    }else if(((PASSED_DAYS%loop_day) >= 15 && UPLINK_SUCCESS == 0) && AUTO_ADCS_DONE == 0){//ADCS Mission and Download 
0AAE0:  BRA    AD92
0AAE2:  MOVLB  2
0AAE4:  MOVFF  65,2B4
0AAE8:  MOVFF  64,2B3
0AAEC:  CLRF   xB6
0AAEE:  MOVLW  46
0AAF0:  MOVWF  xB5
0AAF2:  MOVLB  0
0AAF4:  CALL   5D4E
0AAF8:  MOVFF  00,2A2
0AAFC:  MOVLB  2
0AAFE:  MOVFF  03,2A3
0AB02:  MOVF   xA3,F
0AB04:  BNZ   AB0C
0AB06:  MOVF   xA2,W
0AB08:  SUBLW  0E
0AB0A:  BC    AB4A
0AB0C:  MOVLB  0
0AB0E:  MOVF   x72,F
0AB10:  BTFSC  FD8.2
0AB12:  BRA    AB18
0AB14:  MOVLB  2
0AB16:  BRA    AB4A
0AB18:  MOVF   x70,F
0AB1A:  BTFSC  FD8.2
0AB1C:  BRA    AB22
0AB1E:  MOVLB  2
0AB20:  BRA    AB4A
....................       UPDATE_ACK_for_COM(0x66, 0x77, SECT*1138, 405);//ADCS 
0AB22:  MOVLW  66
0AB24:  MOVLB  2
0AB26:  MOVWF  xA6
0AB28:  MOVLW  77
0AB2A:  MOVWF  xA7
0AB2C:  MOVLW  04
0AB2E:  MOVWF  xAB
0AB30:  MOVLW  72
0AB32:  MOVWF  xAA
0AB34:  CLRF   xA9
0AB36:  CLRF   xA8
0AB38:  MOVLW  01
0AB3A:  MOVWF  xAD
0AB3C:  MOVLW  95
0AB3E:  MOVWF  xAC
0AB40:  MOVLB  0
0AB42:  CALL   733A
....................    }else if(((PASSED_DAYS%loop_day) >= 16 && (PASSED_DAYS%loop_day) <= 19) && UPLINK_SUCCESS == 0){//ADCS Download 
0AB46:  BRA    AD92
0AB48:  MOVLB  2
0AB4A:  MOVFF  65,2B4
0AB4E:  MOVFF  64,2B3
0AB52:  CLRF   xB6
0AB54:  MOVLW  46
0AB56:  MOVWF  xB5
0AB58:  MOVLB  0
0AB5A:  CALL   5D4E
0AB5E:  MOVFF  00,2A2
0AB62:  MOVLB  2
0AB64:  MOVFF  03,2A3
0AB68:  MOVF   xA3,F
0AB6A:  BNZ   AB72
0AB6C:  MOVF   xA2,W
0AB6E:  SUBLW  0F
0AB70:  BC    ABAC
0AB72:  MOVFF  65,2B4
0AB76:  MOVFF  64,2B3
0AB7A:  CLRF   xB6
0AB7C:  MOVLW  46
0AB7E:  MOVWF  xB5
0AB80:  MOVLB  0
0AB82:  CALL   5D4E
0AB86:  MOVFF  00,2A2
0AB8A:  MOVLB  2
0AB8C:  MOVFF  03,2A3
0AB90:  MOVF   xA3,F
0AB92:  BNZ   ABAC
0AB94:  MOVF   xA2,W
0AB96:  SUBLW  13
0AB98:  BNC   ABAC
0AB9A:  MOVLB  0
0AB9C:  MOVF   x72,F
0AB9E:  BTFSC  FD8.2
0ABA0:  BRA    ABA6
0ABA2:  MOVLB  2
0ABA4:  BRA    ABAC
....................       DAY16to19_ADDRESS();//ADCS DL 
0ABA6:  BRA    A3AE
....................    }else if(((PASSED_DAYS%loop_day) >= 20 && (PASSED_DAYS%loop_day) <= 25) && UPLINK_SUCCESS == 0){//High sampling sensor collecting mission download 
0ABA8:  BRA    AD92
0ABAA:  MOVLB  2
0ABAC:  MOVFF  65,2B4
0ABB0:  MOVFF  64,2B3
0ABB4:  CLRF   xB6
0ABB6:  MOVLW  46
0ABB8:  MOVWF  xB5
0ABBA:  MOVLB  0
0ABBC:  CALL   5D4E
0ABC0:  MOVFF  00,2A2
0ABC4:  MOVLB  2
0ABC6:  MOVFF  03,2A3
0ABCA:  MOVF   xA3,F
0ABCC:  BNZ   ABD4
0ABCE:  MOVF   xA2,W
0ABD0:  SUBLW  13
0ABD2:  BC    AC0E
0ABD4:  MOVFF  65,2B4
0ABD8:  MOVFF  64,2B3
0ABDC:  CLRF   xB6
0ABDE:  MOVLW  46
0ABE0:  MOVWF  xB5
0ABE2:  MOVLB  0
0ABE4:  CALL   5D4E
0ABE8:  MOVFF  00,2A2
0ABEC:  MOVLB  2
0ABEE:  MOVFF  03,2A3
0ABF2:  MOVF   xA3,F
0ABF4:  BNZ   AC0E
0ABF6:  MOVF   xA2,W
0ABF8:  SUBLW  19
0ABFA:  BNC   AC0E
0ABFC:  MOVLB  0
0ABFE:  MOVF   x72,F
0AC00:  BTFSC  FD8.2
0AC02:  BRA    AC08
0AC04:  MOVLB  2
0AC06:  BRA    AC0E
....................       DAY20to25_ADDRESS(); 
0AC08:  BRA    A456
....................    }else if(((PASSED_DAYS%loop_day) >= 26 && (PASSED_DAYS%loop_day) <= 46) && UPLINK_SUCCESS == 0){//CAM Mission Download 
0AC0A:  BRA    AD92
0AC0C:  MOVLB  2
0AC0E:  MOVFF  65,2B4
0AC12:  MOVFF  64,2B3
0AC16:  CLRF   xB6
0AC18:  MOVLW  46
0AC1A:  MOVWF  xB5
0AC1C:  MOVLB  0
0AC1E:  CALL   5D4E
0AC22:  MOVFF  00,2A2
0AC26:  MOVLB  2
0AC28:  MOVFF  03,2A3
0AC2C:  MOVF   xA3,F
0AC2E:  BNZ   AC36
0AC30:  MOVF   xA2,W
0AC32:  SUBLW  19
0AC34:  BC    AC70
0AC36:  MOVFF  65,2B4
0AC3A:  MOVFF  64,2B3
0AC3E:  CLRF   xB6
0AC40:  MOVLW  46
0AC42:  MOVWF  xB5
0AC44:  MOVLB  0
0AC46:  CALL   5D4E
0AC4A:  MOVFF  00,2A2
0AC4E:  MOVLB  2
0AC50:  MOVFF  03,2A3
0AC54:  MOVF   xA3,F
0AC56:  BNZ   AC70
0AC58:  MOVF   xA2,W
0AC5A:  SUBLW  2E
0AC5C:  BNC   AC70
0AC5E:  MOVLB  0
0AC60:  MOVF   x72,F
0AC62:  BTFSC  FD8.2
0AC64:  BRA    AC6A
0AC66:  MOVLB  2
0AC68:  BRA    AC70
....................       DAY26to46_ADDRESS(); 
0AC6A:  BRA    A52E
....................    }else if(((PASSED_DAYS%loop_day) >= 47 && (PASSED_DAYS%loop_day) <= 52) && UPLINK_SUCCESS == 0){//ADCS Mission Data Download 
0AC6C:  BRA    AD92
0AC6E:  MOVLB  2
0AC70:  MOVFF  65,2B4
0AC74:  MOVFF  64,2B3
0AC78:  CLRF   xB6
0AC7A:  MOVLW  46
0AC7C:  MOVWF  xB5
0AC7E:  MOVLB  0
0AC80:  CALL   5D4E
0AC84:  MOVFF  00,2A2
0AC88:  MOVLB  2
0AC8A:  MOVFF  03,2A3
0AC8E:  MOVF   xA3,F
0AC90:  BNZ   AC98
0AC92:  MOVF   xA2,W
0AC94:  SUBLW  2E
0AC96:  BC    ACD2
0AC98:  MOVFF  65,2B4
0AC9C:  MOVFF  64,2B3
0ACA0:  CLRF   xB6
0ACA2:  MOVLW  46
0ACA4:  MOVWF  xB5
0ACA6:  MOVLB  0
0ACA8:  CALL   5D4E
0ACAC:  MOVFF  00,2A2
0ACB0:  MOVLB  2
0ACB2:  MOVFF  03,2A3
0ACB6:  MOVF   xA3,F
0ACB8:  BNZ   ACD2
0ACBA:  MOVF   xA2,W
0ACBC:  SUBLW  34
0ACBE:  BNC   ACD2
0ACC0:  MOVLB  0
0ACC2:  MOVF   x72,F
0ACC4:  BTFSC  FD8.2
0ACC6:  BRA    ACCC
0ACC8:  MOVLB  2
0ACCA:  BRA    ACD2
....................       DAY47to52_ADDRESS(); 
0ACCC:  BRA    A606
....................    }else if(((PASSED_DAYS%loop_day) >= 53 && (PASSED_DAYS%loop_day) <= 59) && UPLINK_SUCCESS == 0){//Satellite LOG Download 
0ACCE:  BRA    AD92
0ACD0:  MOVLB  2
0ACD2:  MOVFF  65,2B4
0ACD6:  MOVFF  64,2B3
0ACDA:  CLRF   xB6
0ACDC:  MOVLW  46
0ACDE:  MOVWF  xB5
0ACE0:  MOVLB  0
0ACE2:  CALL   5D4E
0ACE6:  MOVFF  00,2A2
0ACEA:  MOVLB  2
0ACEC:  MOVFF  03,2A3
0ACF0:  MOVF   xA3,F
0ACF2:  BNZ   ACFA
0ACF4:  MOVF   xA2,W
0ACF6:  SUBLW  34
0ACF8:  BC    AD34
0ACFA:  MOVFF  65,2B4
0ACFE:  MOVFF  64,2B3
0AD02:  CLRF   xB6
0AD04:  MOVLW  46
0AD06:  MOVWF  xB5
0AD08:  MOVLB  0
0AD0A:  CALL   5D4E
0AD0E:  MOVFF  00,2A2
0AD12:  MOVLB  2
0AD14:  MOVFF  03,2A3
0AD18:  MOVF   xA3,F
0AD1A:  BNZ   AD34
0AD1C:  MOVF   xA2,W
0AD1E:  SUBLW  3B
0AD20:  BNC   AD34
0AD22:  MOVLB  0
0AD24:  MOVF   x72,F
0AD26:  BTFSC  FD8.2
0AD28:  BRA    AD2E
0AD2A:  MOVLB  2
0AD2C:  BRA    AD34
....................       DAY53to59_ADDRESS(); 
0AD2E:  BRA    A6E0
....................    }else if(((PASSED_DAYS%loop_day) >= 60 && (PASSED_DAYS%loop_day) <= 69) && UPLINK_SUCCESS == 0){//Normal HK Download 
0AD30:  BRA    AD92
0AD32:  MOVLB  2
0AD34:  MOVFF  65,2B4
0AD38:  MOVFF  64,2B3
0AD3C:  CLRF   xB6
0AD3E:  MOVLW  46
0AD40:  MOVWF  xB5
0AD42:  MOVLB  0
0AD44:  CALL   5D4E
0AD48:  MOVFF  00,2A2
0AD4C:  MOVLB  2
0AD4E:  MOVFF  03,2A3
0AD52:  MOVF   xA3,F
0AD54:  BNZ   AD5C
0AD56:  MOVF   xA2,W
0AD58:  SUBLW  3B
0AD5A:  BC    AD94
0AD5C:  MOVFF  65,2B4
0AD60:  MOVFF  64,2B3
0AD64:  CLRF   xB6
0AD66:  MOVLW  46
0AD68:  MOVWF  xB5
0AD6A:  MOVLB  0
0AD6C:  CALL   5D4E
0AD70:  MOVFF  00,2A2
0AD74:  MOVLB  2
0AD76:  MOVFF  03,2A3
0AD7A:  MOVF   xA3,F
0AD7C:  BNZ   AD94
0AD7E:  MOVF   xA2,W
0AD80:  SUBLW  45
0AD82:  BNC   AD94
0AD84:  MOVLB  0
0AD86:  MOVF   x72,F
0AD88:  BTFSC  FD8.2
0AD8A:  BRA    AD90
0AD8C:  MOVLB  2
0AD8E:  BRA    AD94
....................       DAY60to69_ADDRESS(); 
0AD90:  BRA    A7A2
0AD92:  MOVLB  2
....................    } 
....................    return; 
0AD94:  MOVLB  0
0AD96:  GOTO   AEEA (RETURN)
.................... } 
....................  
....................  
.................... //@@@@@@@@@@@ AUTO MISSION OPERATION @@@@@@@@@@@@@@@@@@@@@@@@@@@@@@@@@@@@@@@@@@@@@@@@@@@@@@@@ 
.................... void AUTOMATICAL_MISSION_CHECK() 
.................... { 
....................    int c; 
....................    for(c = 0; c < 6; c++) 
0AD9A:  MOVLB  2
0AD9C:  CLRF   xA1
0AD9E:  MOVF   xA1,W
0ADA0:  SUBLW  05
0ADA2:  BNC   ADBC
....................    { 
....................       COLLECT_RESET_DATA(); 
0ADA4:  MOVLB  0
0ADA6:  CALL   15BA
....................       if(reset_bffr[0] == 0x8e) 
0ADAA:  MOVF   xE0,W
0ADAC:  SUBLW  8E
0ADAE:  BNZ   ADB6
....................       { 
....................          break; 
0ADB0:  MOVLB  2
0ADB2:  BRA    ADBC
0ADB4:  MOVLB  0
....................       } 
0ADB6:  MOVLB  2
0ADB8:  INCF   xA1,F
0ADBA:  BRA    AD9E
....................    } 
....................     
....................    for(c = 0; c < 10; c++) 
0ADBC:  CLRF   xA1
0ADBE:  MOVF   xA1,W
0ADC0:  SUBLW  09
0ADC2:  BNC   ADEE
....................    { 
....................       fprintf(PC,"%x,",reset_bffr[c]); 
0ADC4:  CLRF   03
0ADC6:  MOVF   xA1,W
0ADC8:  ADDLW  E0
0ADCA:  MOVWF  FE9
0ADCC:  MOVLW  00
0ADCE:  ADDWFC 03,W
0ADD0:  MOVWF  FEA
0ADD2:  MOVFF  FEF,2D3
0ADD6:  MOVLW  57
0ADD8:  MOVWF  xD4
0ADDA:  MOVLB  0
0ADDC:  CALL   123E
0ADE0:  MOVLW  2C
0ADE2:  BTFSS  F9E.4
0ADE4:  BRA    ADE2
0ADE6:  MOVWF  FAD
0ADE8:  MOVLB  2
0ADEA:  INCF   xA1,F
0ADEC:  BRA    ADBE
....................    } 
....................    fprintf(PC,"%x\r\n",reset_bffr[10]); 
0ADEE:  MOVFF  EA,2D3
0ADF2:  MOVLW  57
0ADF4:  MOVWF  xD4
0ADF6:  MOVLB  0
0ADF8:  CALL   123E
0ADFC:  MOVLW  0D
0ADFE:  BTFSS  F9E.4
0AE00:  BRA    ADFE
0AE02:  MOVWF  FAD
0AE04:  MOVLW  0A
0AE06:  BTFSS  F9E.4
0AE08:  BRA    AE06
0AE0A:  MOVWF  FAD
....................     
....................    if(((PASSED_DAYS%loop_day==0)&&(PASSED_DAYS>69))&&UPLINK_SUCCESS == 0)//after 60 day, auto mission again 
0AE0C:  MOVFF  65,2B4
0AE10:  MOVFF  64,2B3
0AE14:  MOVLB  2
0AE16:  CLRF   xB6
0AE18:  MOVLW  46
0AE1A:  MOVWF  xB5
0AE1C:  MOVLB  0
0AE1E:  CALL   5D4E
0AE22:  MOVFF  00,2A2
0AE26:  MOVLB  2
0AE28:  MOVFF  03,2A3
0AE2C:  MOVF   xA2,F
0AE2E:  BNZ   AEE2
0AE30:  MOVF   xA3,F
0AE32:  BNZ   AEE2
0AE34:  MOVLB  0
0AE36:  MOVF   x65,F
0AE38:  BNZ   AE46
0AE3A:  MOVF   x64,W
0AE3C:  SUBLW  45
0AE3E:  BTFSS  FD8.0
0AE40:  BRA    AE46
0AE42:  MOVLB  2
0AE44:  BRA    AEE2
0AE46:  MOVF   x72,F
0AE48:  BTFSC  FD8.2
0AE4A:  BRA    AE50
0AE4C:  MOVLB  2
0AE4E:  BRA    AEE2
....................    { 
....................       FIRST_HSSC_DONE = 0; 
0AE50:  CLRF   x6D
....................       AUTO_CAM_DONE = 0; 
0AE52:  CLRF   x6E
....................       AUTO_LDM_DONE = 0; 
0AE54:  CLRF   x6F
....................       AUTO_ADCS_DONE = 0; 
0AE56:  CLRF   x70
....................       //AUTO_MSN_AD_CHANGE(); 
....................       MEMORY_ERASE(); 
0AE58:  CALL   5D94
....................       FLAG_DATA_ADDRESS = SECT*4;//1sector 
0AE5C:  CLRF   3A
0AE5E:  MOVLW  04
0AE60:  MOVWF  39
0AE62:  CLRF   38
0AE64:  CLRF   37
....................       RSV_DATA_ADDRESS=SECT*5;//1sector 
0AE66:  CLRF   3E
0AE68:  MOVLW  05
0AE6A:  MOVWF  3D
0AE6C:  CLRF   3C
0AE6E:  CLRF   3B
....................       SAT_LOG = SECT*6;//2sector 
0AE70:  CLRF   42
0AE72:  MOVLW  06
0AE74:  MOVWF  41
0AE76:  CLRF   40
0AE78:  CLRF   3F
....................       CAM_ADDRESS = SECT*8;//90sector 
0AE7A:  CLRF   46
0AE7C:  MOVLW  08
0AE7E:  MOVWF  45
0AE80:  CLRF   44
0AE82:  CLRF   43
....................       FAB_HK_ADDRESS = SECT*98;//1000sector 
0AE84:  CLRF   4A
0AE86:  MOVLW  62
0AE88:  MOVWF  49
0AE8A:  CLRF   48
0AE8C:  CLRF   47
....................       FAB_CW_ADDRESS = SECT*1098;//40sector 
0AE8E:  MOVLW  04
0AE90:  MOVWF  4E
0AE92:  MOVLW  4A
0AE94:  MOVWF  4D
0AE96:  CLRF   4C
0AE98:  CLRF   4B
....................       ADCS_SENSOR_ADDRESS = SECT*1138;//500sector 
0AE9A:  MOVLW  04
0AE9C:  MOVWF  52
0AE9E:  MOVLW  72
0AEA0:  MOVWF  51
0AEA2:  CLRF   50
0AEA4:  CLRF   4F
....................       DC_STATUS_ADDRESS = SECT*1638;//1sector 
0AEA6:  MOVLW  06
0AEA8:  MOVWF  56
0AEAA:  MOVLW  66
0AEAC:  MOVWF  55
0AEAE:  CLRF   54
0AEB0:  CLRF   53
....................       HIGH_SAMP_HK_ADDRESS = SECT*1639;//409sector 
0AEB2:  MOVLW  06
0AEB4:  MOVWF  5A
0AEB6:  MOVLW  67
0AEB8:  MOVWF  59
0AEBA:  CLRF   58
0AEBC:  CLRF   57
....................       FLAG_ADDRESS_EEPROM = 0x18000;//from 75 percent of the programming memory 
0AEBE:  CLRF   5E
0AEC0:  MOVLW  01
0AEC2:  MOVWF  5D
0AEC4:  MOVLW  80
0AEC6:  MOVWF  5C
0AEC8:  CLRF   5B
....................       FLASH_AD_ADDRESS_EEPROM = 0x18000 + 28;//after flag info 
0AECA:  CLRF   x62
0AECC:  MOVLW  01
0AECE:  MOVWF  x61
0AED0:  MOVLW  80
0AED2:  MOVWF  x60
0AED4:  MOVLW  1C
0AED6:  MOVWF  5F
....................       STORE_FLAG_INFO(); 
0AED8:  CALL   50A4
....................       WRITE_FLAG_to_EEPROM(); 
0AEDC:  CALL   52B4
0AEE0:  MOVLB  2
....................    } 
....................    AUTOMATICAL_MSN_EXE(); 
0AEE2:  MOVLB  0
0AEE4:  GOTO   9CCA
....................    PREPARE_AUTOMATICAL_MSN_ADDRESS(); 
0AEE8:  BRA    A87C
....................    return; 
0AEEA:  RETURN 0
.................... } 
....................  
.................... #include<analyze_command.c> 
.................... void UPLINK_SUCCESS_CHECK() 
.................... { 
....................    if(UPLINK_SUCCESS == 0) 
*
0B0B0:  MOVF   x72,F
0B0B2:  BNZ   B0C0
....................    { 
....................       UPLINK_SUCCESS = 1; 
0B0B4:  MOVLW  01
0B0B6:  MOVWF  x72
....................       STORE_FLAG_INFO(); 
0B0B8:  CALL   50A4
....................       WRITE_FLAG_to_EEPROM(); 
0B0BC:  CALL   52B4
....................    } 
....................    return; 
0B0C0:  RETURN 0
.................... } 
....................  
.................... void UPLINK_SUCCESS_ADCS() 
.................... { 
....................    if(UPLINK_SUCCESS == 0) 
*
0B064:  MOVF   x72,F
0B066:  BNZ   B078
....................    { 
....................       UPLINK_SUCCESS = 1; 
0B068:  MOVLW  01
0B06A:  MOVWF  x72
....................       AUTO_ADCS_DONE = 1; 
0B06C:  MOVWF  x70
....................       STORE_FLAG_INFO(); 
0B06E:  CALL   50A4
....................       WRITE_FLAG_to_EEPROM(); 
0B072:  CALL   52B4
....................    }else if(AUTO_ADCS_DONE == 0){ 
0B076:  BRA    B088
0B078:  MOVF   x70,F
0B07A:  BNZ   B088
....................       AUTO_ADCS_DONE = 1; 
0B07C:  MOVLW  01
0B07E:  MOVWF  x70
....................       STORE_FLAG_INFO(); 
0B080:  CALL   50A4
....................       WRITE_FLAG_to_EEPROM(); 
0B084:  CALL   52B4
....................    } 
....................    return; 
0B088:  RETURN 0
.................... } 
....................  
.................... void UPLINK_SUCCESS_HSSC() 
.................... { 
....................    if(UPLINK_SUCCESS == 0) 
*
0B1CE:  MOVF   x72,F
0B1D0:  BNZ   B1E2
....................    { 
....................       UPLINK_SUCCESS = 1; 
0B1D2:  MOVLW  01
0B1D4:  MOVWF  x72
....................       FIRST_HSSC_DONE = 1; 
0B1D6:  MOVWF  x6D
....................       STORE_FLAG_INFO(); 
0B1D8:  CALL   50A4
....................       WRITE_FLAG_to_EEPROM(); 
0B1DC:  CALL   52B4
....................    }else if(FIRST_HSSC_DONE == 0){ 
0B1E0:  BRA    B1F2
0B1E2:  MOVF   x6D,F
0B1E4:  BNZ   B1F2
....................       FIRST_HSSC_DONE = 1; 
0B1E6:  MOVLW  01
0B1E8:  MOVWF  x6D
....................       STORE_FLAG_INFO(); 
0B1EA:  CALL   50A4
....................       WRITE_FLAG_to_EEPROM(); 
0B1EE:  CALL   52B4
....................    } 
....................    return; 
0B1F2:  RETURN 0
.................... } 
....................  
.................... void UPLINK_SUCCESS_LDM() 
.................... { 
....................    if(UPLINK_SUCCESS == 0) 
*
0B08A:  MOVF   x72,F
0B08C:  BNZ   B09E
....................    { 
....................       UPLINK_SUCCESS = 1; 
0B08E:  MOVLW  01
0B090:  MOVWF  x72
....................       AUTO_LDM_DONE = 1; 
0B092:  MOVWF  x6F
....................       STORE_FLAG_INFO(); 
0B094:  CALL   50A4
....................       WRITE_FLAG_to_EEPROM(); 
0B098:  CALL   52B4
....................    }else if(AUTO_LDM_DONE == 0){ 
0B09C:  BRA    B0AE
0B09E:  MOVF   x6F,F
0B0A0:  BNZ   B0AE
....................       AUTO_LDM_DONE = 1; 
0B0A2:  MOVLW  01
0B0A4:  MOVWF  x6F
....................       STORE_FLAG_INFO(); 
0B0A6:  CALL   50A4
....................       WRITE_FLAG_to_EEPROM(); 
0B0AA:  CALL   52B4
....................    } 
....................    return; 
0B0AE:  RETURN 0
.................... } 
....................  
.................... void UPLINK_SUCCESS_CAM() 
.................... { 
....................    if(UPLINK_SUCCESS == 0) 
*
0B03E:  MOVF   x72,F
0B040:  BNZ   B052
....................    { 
....................       AUTO_CAM_DONE = 1; 
0B042:  MOVLW  01
0B044:  MOVWF  x6E
....................       UPLINK_SUCCESS = 1; 
0B046:  MOVWF  x72
....................       STORE_FLAG_INFO(); 
0B048:  CALL   50A4
....................       WRITE_FLAG_to_EEPROM(); 
0B04C:  CALL   52B4
....................    }else if(AUTO_CAM_DONE == 0){ 
0B050:  BRA    B062
0B052:  MOVF   x6E,F
0B054:  BNZ   B062
....................       AUTO_CAM_DONE = 1; 
0B056:  MOVLW  01
0B058:  MOVWF  x6E
....................       STORE_FLAG_INFO(); 
0B05A:  CALL   50A4
....................       WRITE_FLAG_to_EEPROM(); 
0B05E:  CALL   52B4
....................    } 
....................    return; 
0B062:  RETURN 0
.................... } 
....................  
.................... void EXECUTE_MISSION_from_COM(int8 CMD1,int8 CMD2,int8 CMD3,int8 CMD4,int8 CMD5) 
.................... { 
....................    switch(CMD1) 
*
0BF10:  MOVLB  2
0BF12:  MOVF   xA1,W
0BF14:  XORLW  C0
0BF16:  MOVLB  0
0BF18:  BZ    BFB2
0BF1A:  XORLW  60
0BF1C:  BTFSC  FD8.2
0BF1E:  BRA    BFEA
0BF20:  XORLW  70
0BF22:  BTFSC  FD8.2
0BF24:  BRA    C04E
0BF26:  XORLW  7A
0BF28:  BTFSC  FD8.2
0BF2A:  BRA    C08E
0BF2C:  XORLW  88
0BF2E:  BTFSC  FD8.2
0BF30:  BRA    C0B8
0BF32:  XORLW  92
0BF34:  BTFSC  FD8.2
0BF36:  BRA    C0E4
0BF38:  XORLW  01
0BF3A:  BTFSC  FD8.2
0BF3C:  BRA    C100
0BF3E:  XORLW  03
0BF40:  BTFSC  FD8.2
0BF42:  BRA    C11C
0BF44:  XORLW  01
0BF46:  BTFSC  FD8.2
0BF48:  BRA    C138
0BF4A:  XORLW  07
0BF4C:  BTFSC  FD8.2
0BF4E:  BRA    C154
0BF50:  XORLW  FF
0BF52:  BTFSC  FD8.2
0BF54:  BRA    C170
0BF56:  XORLW  F0
0BF58:  BTFSC  FD8.2
0BF5A:  BRA    C19E
0BF5C:  XORLW  41
0BF5E:  BTFSC  FD8.2
0BF60:  BRA    C1CC
0BF62:  XORLW  A3
0BF64:  BTFSC  FD8.2
0BF66:  BRA    C244
0BF68:  XORLW  D1
0BF6A:  BTFSC  FD8.2
0BF6C:  BRA    C25C
0BF6E:  XORLW  17
0BF70:  BTFSC  FD8.2
0BF72:  BRA    C262
0BF74:  XORLW  CF
0BF76:  BTFSC  FD8.2
0BF78:  BRA    C268
0BF7A:  XORLW  B0
0BF7C:  BTFSC  FD8.2
0BF7E:  BRA    C27A
0BF80:  XORLW  01
0BF82:  BTFSC  FD8.2
0BF84:  BRA    C29A
0BF86:  XORLW  03
0BF88:  BTFSC  FD8.2
0BF8A:  BRA    C2BA
0BF8C:  XORLW  F0
0BF8E:  BTFSC  FD8.2
0BF90:  BRA    C2DA
0BF92:  XORLW  01
0BF94:  BTFSC  FD8.2
0BF96:  BRA    C2FA
0BF98:  XORLW  32
0BF9A:  BTFSC  FD8.2
0BF9C:  BRA    C31A
0BF9E:  XORLW  02
0BFA0:  BTFSC  FD8.2
0BFA2:  BRA    C33A
0BFA4:  XORLW  12
0BFA6:  BTFSC  FD8.2
0BFA8:  BRA    C35A
0BFAA:  XORLW  03
0BFAC:  BTFSC  FD8.2
0BFAE:  BRA    C378
0BFB0:  BRA    C394
....................    { 
....................       case 0xC0: 
....................          REPLY_TO_COM(0x66,0); 
0BFB2:  MOVLW  66
0BFB4:  MOVLB  2
0BFB6:  MOVWF  xA8
0BFB8:  CLRF   xA9
0BFBA:  MOVLB  0
0BFBC:  CALL   AF42
....................          SAVE_SAT_LOG(CMD1, 0, CMD2); 
0BFC0:  MOVFF  2A1,2C4
0BFC4:  MOVLB  2
0BFC6:  CLRF   xC5
0BFC8:  MOVFF  2A2,2C6
0BFCC:  MOVLB  0
0BFCE:  CALL   2DCE
....................           
....................          UPLINK_SUCCESS_CAM(); 
0BFD2:  CALL   B03E
....................          ACK_for_COM[14] = 0x00; 
0BFD6:  MOVLB  2
0BFD8:  CLRF   x24
....................           
....................          CAM_TEST_OPERATION(CMD2); 
0BFDA:  MOVFF  2A2,2A8
0BFDE:  MOVLB  0
0BFE0:  CALL   7908
....................          STORE_ADRESS_DATA_TO_FLASH(); 
0BFE4:  CALL   2ABA
....................          break; 
0BFE8:  BRA    C394
....................       case 0xA0: 
....................          REPLY_TO_COM(0x66,0); 
0BFEA:  MOVLW  66
0BFEC:  MOVLB  2
0BFEE:  MOVWF  xA8
0BFF0:  CLRF   xA9
0BFF2:  MOVLB  0
0BFF4:  CALL   AF42
....................          SAVE_SAT_LOG(CMD1,0,CMD2); 
0BFF8:  MOVFF  2A1,2C4
0BFFC:  MOVLB  2
0BFFE:  CLRF   xC5
0C000:  MOVFF  2A2,2C6
0C004:  MOVLB  0
0C006:  CALL   2DCE
....................          unsigned int16 duration = (unsigned int16)CMD2*60; 
0C00A:  MOVLB  2
0C00C:  CLRF   xA9
0C00E:  MOVFF  2A2,2A8
0C012:  MOVFF  2A9,2AB
0C016:  MOVFF  2A2,2AA
0C01A:  CLRF   xAD
0C01C:  MOVLW  3C
0C01E:  MOVWF  xAC
0C020:  MOVLB  0
0C022:  CALL   7424
0C026:  MOVFF  02,2A7
0C02A:  MOVFF  01,2A6
....................           
....................          UPLINK_SUCCESS_ADCS(); 
0C02E:  CALL   B064
....................          ACK_for_COM[14] = 0x00; 
0C032:  MOVLB  2
0C034:  CLRF   x24
....................           
....................          ADCS_TEST_OPERATION(duration,NOMAL_ADCS_MSN); 
0C036:  MOVFF  2A7,2AB
0C03A:  MOVFF  2A6,2AA
0C03E:  MOVLW  22
0C040:  MOVWF  xAC
0C042:  MOVLB  0
0C044:  CALL   9488
....................          STORE_ADRESS_DATA_TO_FLASH(); 
0C048:  CALL   2ABA
....................          break; 
0C04C:  BRA    C394
....................       case 0xD0: 
....................          REPLY_TO_COM(0x66,0); 
0C04E:  MOVLW  66
0C050:  MOVLB  2
0C052:  MOVWF  xA8
0C054:  CLRF   xA9
0C056:  MOVLB  0
0C058:  CALL   AF42
....................          SAVE_SAT_LOG(CMD1, 0, CMD2); 
0C05C:  MOVFF  2A1,2C4
0C060:  MOVLB  2
0C062:  CLRF   xC5
0C064:  MOVFF  2A2,2C6
0C068:  MOVLB  0
0C06A:  CALL   2DCE
....................           
....................          UPLINK_SUCCESS_LDM(); 
0C06E:  CALL   B08A
....................          ACK_for_COM[14] = 0x00; 
0C072:  MOVLB  2
0C074:  CLRF   x24
....................           
....................          DATACOLLECTION_TEST_OPERATION(); 
0C076:  MOVLB  0
0C078:  CALL   81C0
....................          STORE_ADRESS_DATA_TO_FLASH(); 
0C07C:  CALL   2ABA
....................          delay_ms(10); 
0C080:  MOVLW  0A
0C082:  MOVLB  2
0C084:  MOVWF  xDB
0C086:  MOVLB  0
0C088:  CALL   230E
....................          break; 
0C08C:  BRA    C394
....................       case 0xaa: 
....................          SAVE_SAT_LOG(CMD1, 0, CMD2); 
0C08E:  MOVFF  2A1,2C4
0C092:  MOVLB  2
0C094:  CLRF   xC5
0C096:  MOVFF  2A2,2C6
0C09A:  MOVLB  0
0C09C:  CALL   2DCE
....................          STORE_ADRESS_DATA_TO_FLASH(); 
0C0A0:  CALL   2ABA
....................           
....................          UPLINK_SUCCESS_CHECK(); 
0C0A4:  CALL   B0B0
....................          ACK_for_COM[14] = 0x00; 
0C0A8:  MOVLB  2
0C0AA:  CLRF   x24
....................           
....................          STORE_FLAG_INFO(); 
0C0AC:  MOVLB  0
0C0AE:  CALL   50A4
....................          WRITE_FLAG_to_EEPROM(); 
0C0B2:  CALL   52B4
....................          break; 
0C0B6:  BRA    C394
....................       case 0x22: 
....................          UPLINK_SUCCESS_CHECK(); 
0C0B8:  CALL   B0B0
....................          ACK_for_COM[14] = 0x00; 
0C0BC:  MOVLB  2
0C0BE:  CLRF   x24
....................          REPLY_TO_COM(0x66,0); 
0C0C0:  MOVLW  66
0C0C2:  MOVWF  xA8
0C0C4:  CLRF   xA9
0C0C6:  MOVLB  0
0C0C8:  CALL   AF42
....................           
....................          SAVE_SAT_LOG(CMD1, 0, CMD2); 
0C0CC:  MOVFF  2A1,2C4
0C0D0:  MOVLB  2
0C0D2:  CLRF   xC5
0C0D4:  MOVFF  2A2,2C6
0C0D8:  MOVLB  0
0C0DA:  CALL   2DCE
....................           
....................          SEND_CMD_FOR_RESET_SATELLITE(); 
0C0DE:  CALL   703E
....................          break; 
0C0E2:  BRA    C394
....................       case 0xb0: 
....................          CLEAR_BC_FLAG(); 
0C0E4:  CALL   B0C2
....................           
....................          UPLINK_SUCCESS_CHECK(); 
0C0E8:  CALL   B0B0
....................          ACK_for_COM[14] = 0x00; 
0C0EC:  MOVLB  2
0C0EE:  CLRF   x24
....................           
....................          STORE_ADRESS_DATA_TO_FLASH(); 
0C0F0:  MOVLB  0
0C0F2:  CALL   2ABA
....................          STORE_FLAG_INFO(); 
0C0F6:  CALL   50A4
....................          WRITE_FLAG_to_EEPROM(); 
0C0FA:  CALL   52B4
....................          break; 
0C0FE:  BRA    C394
....................       case 0xb1: 
....................          MAKE_BC_FLAG_1(); 
0C100:  CALL   B0D6
....................           
....................          UPLINK_SUCCESS_CHECK(); 
0C104:  CALL   B0B0
....................          ACK_for_COM[14] = 0x00; 
0C108:  MOVLB  2
0C10A:  CLRF   x24
....................           
....................          STORE_ADRESS_DATA_TO_FLASH(); 
0C10C:  MOVLB  0
0C10E:  CALL   2ABA
....................          STORE_FLAG_INFO(); 
0C112:  CALL   50A4
....................          WRITE_FLAG_to_EEPROM(); 
0C116:  CALL   52B4
....................          break; 
0C11A:  BRA    C394
....................       case 0xb2: 
....................          MAKE_BC_FLAG_2(); 
0C11C:  CALL   B0EC
....................           
....................          UPLINK_SUCCESS_CHECK(); 
0C120:  CALL   B0B0
....................          ACK_for_COM[14] = 0x00; 
0C124:  MOVLB  2
0C126:  CLRF   x24
....................           
....................          STORE_ADRESS_DATA_TO_FLASH(); 
0C128:  MOVLB  0
0C12A:  CALL   2ABA
....................          STORE_FLAG_INFO(); 
0C12E:  CALL   50A4
....................          WRITE_FLAG_to_EEPROM(); 
0C132:  CALL   52B4
....................          break; 
0C136:  BRA    C394
....................       case 0xb3: 
....................          MAKE_BC_FLAG_3(); 
0C138:  CALL   B102
....................           
....................          UPLINK_SUCCESS_CHECK(); 
0C13C:  CALL   B0B0
....................          ACK_for_COM[14] = 0x00; 
0C140:  MOVLB  2
0C142:  CLRF   x24
....................           
....................          STORE_ADRESS_DATA_TO_FLASH(); 
0C144:  MOVLB  0
0C146:  CALL   2ABA
....................          STORE_FLAG_INFO(); 
0C14A:  CALL   50A4
....................          WRITE_FLAG_to_EEPROM(); 
0C14E:  CALL   52B4
....................          break; 
0C152:  BRA    C394
....................       case 0xb4: 
....................          MAKE_BC_FLAG_4(); 
0C154:  CALL   B118
....................           
....................          UPLINK_SUCCESS_CHECK(); 
0C158:  CALL   B0B0
....................          ACK_for_COM[14] = 0x00; 
0C15C:  MOVLB  2
0C15E:  CLRF   x24
....................           
....................          STORE_ADRESS_DATA_TO_FLASH(); 
0C160:  MOVLB  0
0C162:  CALL   2ABA
....................          STORE_FLAG_INFO(); 
0C166:  CALL   50A4
....................          WRITE_FLAG_to_EEPROM(); 
0C16A:  CALL   52B4
....................          break; 
0C16E:  BRA    C394
....................       case 0x4b: 
....................          REPLY_TO_COM(0x66,0); 
0C170:  MOVLW  66
0C172:  MOVLB  2
0C174:  MOVWF  xA8
0C176:  CLRF   xA9
0C178:  MOVLB  0
0C17A:  CALL   AF42
....................          UPLINK_SUCCESS_CHECK(); 
0C17E:  CALL   B0B0
....................          ACK_for_COM[14] = 0x00; 
0C182:  MOVLB  2
0C184:  CLRF   x24
....................           
....................          Count_Kill_Flag(); 
0C186:  MOVLB  0
0C188:  CALL   B12E
....................          SAVE_SAT_LOG(CMD1, KILL_COUNTER, CMD2); 
0C18C:  MOVFF  2A1,2C4
0C190:  MOVFF  28F,2C5
0C194:  MOVFF  2A2,2C6
0C198:  CALL   2DCE
....................          break; 
0C19C:  BRA    C394
....................       case 0xbb: 
....................          REPLY_TO_COM(0x66,0); 
0C19E:  MOVLW  66
0C1A0:  MOVLB  2
0C1A2:  MOVWF  xA8
0C1A4:  CLRF   xA9
0C1A6:  MOVLB  0
0C1A8:  CALL   AF42
....................          UPLINK_SUCCESS_CHECK(); 
0C1AC:  CALL   B0B0
....................          ACK_for_COM[14] = 0x00; 
0C1B0:  MOVLB  2
0C1B2:  CLRF   x24
....................        
....................          Disable_Kill(); 
0C1B4:  MOVLB  0
0C1B6:  CALL   B182
....................          SAVE_SAT_LOG(CMD1, KILL_COUNTER, CMD2); 
0C1BA:  MOVFF  2A1,2C4
0C1BE:  MOVFF  28F,2C5
0C1C2:  MOVFF  2A2,2C6
0C1C6:  CALL   2DCE
....................          break; 
0C1CA:  BRA    C394
....................       case 0xfa: 
....................        
....................          UPLINK_SUCCESS_HSSC();//High Sampling Sensor Collect mission 
0C1CC:  CALL   B1CE
....................          ACK_for_COM[14] = 0x00; 
0C1D0:  MOVLB  2
0C1D2:  CLRF   x24
....................        
....................          REPLY_TO_COM(0x66,0); 
0C1D4:  MOVLW  66
0C1D6:  MOVWF  xA8
0C1D8:  CLRF   xA9
0C1DA:  MOVLB  0
0C1DC:  CALL   AF42
....................          SAVE_SAT_LOG(CMD1, 0, CMD2); 
0C1E0:  MOVFF  2A1,2C4
0C1E4:  MOVLB  2
0C1E6:  CLRF   xC5
0C1E8:  MOVFF  2A2,2C6
0C1EC:  MOVLB  0
0C1EE:  CALL   2DCE
....................           
....................          duration = (unsigned int16)CMD2*12;//CMD2 is operation time(min), maximum duration = 1440 
0C1F2:  MOVLB  2
0C1F4:  CLRF   xA9
0C1F6:  MOVFF  2A2,2A8
0C1FA:  MOVFF  2A9,2AB
0C1FE:  MOVFF  2A2,2AA
0C202:  CLRF   xAD
0C204:  MOVLW  0C
0C206:  MOVWF  xAC
0C208:  MOVLB  0
0C20A:  CALL   7424
0C20E:  MOVFF  02,2A7
0C212:  MOVFF  01,2A6
....................          if(duration > 1440){duration = 1440;} 
0C216:  MOVLB  2
0C218:  MOVF   xA7,W
0C21A:  SUBLW  04
0C21C:  BC    C230
0C21E:  XORLW  FF
0C220:  BNZ   C228
0C222:  MOVF   xA6,W
0C224:  SUBLW  A0
0C226:  BC    C230
0C228:  MOVLW  05
0C22A:  MOVWF  xA7
0C22C:  MOVLW  A0
0C22E:  MOVWF  xA6
....................          HIGHSAMP_SENSOR_COLLECTION(duration); 
0C230:  MOVFF  2A7,2A9
0C234:  MOVFF  2A6,2A8
0C238:  MOVLB  0
0C23A:  CALL   721C
....................          STORE_ADRESS_DATA_TO_FLASH(); 
0C23E:  CALL   2ABA
....................          break; 
0C242:  BRA    C394
....................       case 0x59: 
....................        
....................          //UPLINK_SUCCESS_CHECK(); 
....................          //ACK_for_COM[14] = 0x00; 
....................        
....................          REPLY_TO_COM(0x66,0); 
0C244:  MOVLW  66
0C246:  MOVLB  2
0C248:  MOVWF  xA8
0C24A:  CLRF   xA9
0C24C:  MOVLB  0
0C24E:  CALL   AF42
....................          GIVE_ACCESS_SCF_Nsec(CMD2); 
0C252:  MOVFF  2A2,2A8
0C256:  CALL   B1F4
....................          break; 
0C25A:  BRA    C394
....................       case 0x88: 
....................        
....................          //UPLINK_SUCCESS_CHECK(); 
....................          //ACK_for_COM[14] = 0x00; 
....................        
....................          CURRENT_FLAG_STATUS(); 
0C25C:  CALL   209C
....................          break; 
0C260:  BRA    C394
....................       case 0x9f: 
....................        
....................          //UPLINK_SUCCESS_CHECK(); 
....................          //ACK_for_COM[14] = 0x00; 
....................        
....................          Disp_RSV(); 
0C262:  CALL   B278
....................          break; 
0C266:  BRA    C394
....................       case 0x50: 
....................          if(UPLINK_SUCCESS == 0){ACK_for_COM[14]=0x77;} 
0C268:  MOVF   x72,F
0C26A:  BNZ   C274
0C26C:  MOVLW  77
0C26E:  MOVLB  2
0C270:  MOVWF  x24
0C272:  MOVLB  0
....................          CW_RESPOND(); 
0C274:  CALL   3138
....................          break; 
0C278:  BRA    C394
....................       case 0xe0: 
....................        
....................          UPLINK_SUCCESS_CHECK(); 
0C27A:  CALL   B0B0
....................          ACK_for_COM[14] = 0x00; 
0C27E:  MOVLB  2
0C280:  CLRF   x24
....................        
....................          REFRESH_SECTOR_OF(CMD2,CMD3,CMD4,CMD5);//this function contains saving log 
0C282:  MOVFF  2A2,2B8
0C286:  MOVFF  2A3,2B9
0C28A:  MOVFF  2A4,2BA
0C28E:  MOVFF  2A5,2BB
0C292:  MOVLB  0
0C294:  CALL   B408
....................          break; 
0C298:  BRA    C394
....................       case 0xe1: 
....................        
....................          UPLINK_SUCCESS_CHECK(); 
0C29A:  CALL   B0B0
....................          ACK_for_COM[14] = 0x00; 
0C29E:  MOVLB  2
0C2A0:  CLRF   x24
....................        
....................          REFRESH_SECTOR_SCF(CMD2,CMD3,CMD4,CMD5);//this function contains saving log 
0C2A2:  MOVFF  2A2,2B8
0C2A6:  MOVFF  2A3,2B9
0C2AA:  MOVFF  2A4,2BA
0C2AE:  MOVFF  2A5,2BB
0C2B2:  MOVLB  0
0C2B4:  CALL   B4BA
....................          break; 
0C2B8:  BRA    C394
....................       case 0xe2: 
....................        
....................          UPLINK_SUCCESS_CHECK(); 
0C2BA:  CALL   B0B0
....................          ACK_for_COM[14] = 0x00; 
0C2BE:  MOVLB  2
0C2C0:  CLRF   x24
....................           
....................          REFRESH_SECTOR_SMF(CMD2,CMD3,CMD4,CMD5);//this function contains saving log 
0C2C2:  MOVFF  2A2,2B8
0C2C6:  MOVFF  2A3,2B9
0C2CA:  MOVFF  2A4,2BA
0C2CE:  MOVFF  2A5,2BB
0C2D2:  MOVLB  0
0C2D4:  CALL   B574
....................          break; 
0C2D8:  BRA    C394
....................       case 0x12: 
....................        
....................          UPLINK_SUCCESS_CHECK(); 
0C2DA:  CALL   B0B0
....................          ACK_for_COM[14] = 0x00; 
0C2DE:  MOVLB  2
0C2E0:  CLRF   x24
....................        
....................          TRANSFER_SECTOR_OF2SCF(CMD2,CMD3,CMD4,CMD5);//this function contains saving log 
0C2E2:  MOVFF  2A2,2A8
0C2E6:  MOVFF  2A3,2A9
0C2EA:  MOVFF  2A4,2AA
0C2EE:  MOVFF  2A5,2AB
0C2F2:  MOVLB  0
0C2F4:  CALL   B62A
....................          break; 
0C2F8:  BRA    C394
....................       case 0x13: 
....................        
....................          UPLINK_SUCCESS_CHECK(); 
0C2FA:  CALL   B0B0
....................          ACK_for_COM[14] = 0x00; 
0C2FE:  MOVLB  2
0C300:  CLRF   x24
....................        
....................          TRANSFER_SECTOR_OF2SMF(CMD2,CMD3,CMD4,CMD5);//this function contains saving log 
0C302:  MOVFF  2A2,2A8
0C306:  MOVFF  2A3,2A9
0C30A:  MOVFF  2A4,2AA
0C30E:  MOVFF  2A5,2AB
0C312:  MOVLB  0
0C314:  GOTO   B7A4
....................          break; 
0C318:  BRA    C394
....................       case 0x21: 
....................        
....................          UPLINK_SUCCESS_CHECK(); 
0C31A:  CALL   B0B0
....................          ACK_for_COM[14] = 0x00; 
0C31E:  MOVLB  2
0C320:  CLRF   x24
....................           
....................          TRANSFER_SECTOR_SCF2OF(CMD2,CMD3,CMD4,CMD5);//this function contains saving log 
0C322:  MOVFF  2A2,2A8
0C326:  MOVFF  2A3,2A9
0C32A:  MOVFF  2A4,2AA
0C32E:  MOVFF  2A5,2AB
0C332:  MOVLB  0
0C334:  CALL   B91C
....................          break; 
0C338:  BRA    C394
....................       case 0x23: 
....................        
....................          UPLINK_SUCCESS_CHECK(); 
0C33A:  CALL   B0B0
....................          ACK_for_COM[14] = 0x00; 
0C33E:  MOVLB  2
0C340:  CLRF   x24
....................           
....................          TRANSFER_SECTOR_SCF2SMF(CMD2,CMD3,CMD4,CMD5);//this function contains saving log 
0C342:  MOVFF  2A2,2A8
0C346:  MOVFF  2A3,2A9
0C34A:  MOVFF  2A4,2AA
0C34E:  MOVFF  2A5,2AB
0C352:  MOVLB  0
0C354:  GOTO   BA96
....................          break; 
0C358:  BRA    C394
....................       case 0x31: 
....................        
....................          UPLINK_SUCCESS_CHECK(); 
0C35A:  CALL   B0B0
....................          ACK_for_COM[14] = 0x00; 
0C35E:  MOVLB  2
0C360:  CLRF   x24
....................           
....................          TRANSFER_SECTOR_SMF2OF(CMD2,CMD3,CMD4,CMD5);//this function contains saving log 
0C362:  MOVFF  2A2,2A8
0C366:  MOVFF  2A3,2A9
0C36A:  MOVFF  2A4,2AA
0C36E:  MOVFF  2A5,2AB
0C372:  MOVLB  0
0C374:  BRA    BC16
....................          break; 
0C376:  BRA    C394
....................       case 0x32: 
....................        
....................          UPLINK_SUCCESS_CHECK(); 
0C378:  CALL   B0B0
....................          ACK_for_COM[14] = 0x00; 
0C37C:  MOVLB  2
0C37E:  CLRF   x24
....................        
....................          TRANSFER_SECTOR_SMF2SCF(CMD2,CMD3,CMD4,CMD5);//this function contains saving log 
0C380:  MOVFF  2A2,2A8
0C384:  MOVFF  2A3,2A9
0C388:  MOVFF  2A4,2AA
0C38C:  MOVFF  2A5,2AB
0C390:  MOVLB  0
0C392:  RCALL  BD90
....................          break; 
....................        
....................        
....................    } 
....................    return; 
0C394:  RETURN 0
.................... } 
....................  
....................  
....................  
....................  
....................  
....................  
....................  
....................  
....................  
....................  
....................  
.................... void EXECUTE_MISSION_from_PC(int8 CMD1,int8 CMD2,int8 CMD3,int8 CMD4,int8 CMD5) 
.................... { 
....................    switch(CMD1) 
*
0C7BE:  MOVLB  2
0C7C0:  MOVF   xA1,W
0C7C2:  XORLW  C0
0C7C4:  MOVLB  0
0C7C6:  BZ    C85E
0C7C8:  XORLW  60
0C7CA:  BZ    C888
0C7CC:  XORLW  70
0C7CE:  BTFSC  FD8.2
0C7D0:  BRA    C8E2
0C7D2:  XORLW  49
0C7D4:  BTFSC  FD8.2
0C7D6:  BRA    C910
0C7D8:  XORLW  33
0C7DA:  BTFSC  FD8.2
0C7DC:  BRA    C92A
0C7DE:  XORLW  88
0C7E0:  BTFSC  FD8.2
0C7E2:  BRA    C94C
0C7E4:  XORLW  92
0C7E6:  BTFSC  FD8.2
0C7E8:  BRA    C964
0C7EA:  XORLW  01
0C7EC:  BTFSC  FD8.2
0C7EE:  BRA    C980
0C7F0:  XORLW  03
0C7F2:  BTFSC  FD8.2
0C7F4:  BRA    C99C
0C7F6:  XORLW  01
0C7F8:  BTFSC  FD8.2
0C7FA:  BRA    C9B8
0C7FC:  XORLW  07
0C7FE:  BTFSC  FD8.2
0C800:  BRA    C9D4
0C802:  XORLW  FF
0C804:  BTFSC  FD8.2
0C806:  BRA    C9F0
0C808:  XORLW  F0
0C80A:  BTFSC  FD8.2
0C80C:  BRA    CA0E
0C80E:  XORLW  41
0C810:  BTFSC  FD8.2
0C812:  BRA    CA2A
0C814:  XORLW  A3
0C816:  BTFSC  FD8.2
0C818:  BRA    CA98
0C81A:  XORLW  B7
0C81C:  BTFSC  FD8.2
0C81E:  BRA    CAAC
0C820:  XORLW  66
0C822:  BTFSC  FD8.2
0C824:  BRA    CAB4
0C826:  XORLW  17
0C828:  BTFSC  FD8.2
0C82A:  BRA    CABA
0C82C:  XORLW  50
0C82E:  BTFSC  FD8.2
0C830:  BRA    CAC0
0C832:  XORLW  A5
0C834:  BTFSC  FD8.2
0C836:  BRA    CAC4
0C838:  XORLW  8A
0C83A:  BTFSC  FD8.2
0C83C:  BRA    CAD2
0C83E:  XORLW  01
0C840:  BTFSC  FD8.2
0C842:  BRA    CAF2
0C844:  XORLW  03
0C846:  BTFSC  FD8.2
0C848:  BRA    CB12
0C84A:  XORLW  F0
0C84C:  BTFSC  FD8.2
0C84E:  BRA    CB32
0C850:  XORLW  20
0C852:  BTFSC  FD8.2
0C854:  BRA    CB52
0C856:  XORLW  13
0C858:  BTFSC  FD8.2
0C85A:  BRA    CB72
0C85C:  BRA    CB90
....................    { 
....................       case 0xC0: 
....................        
....................          UPLINK_SUCCESS_CAM(); 
0C85E:  CALL   B03E
....................          ACK_for_COM[14] = 0x00; 
0C862:  MOVLB  2
0C864:  CLRF   x24
....................        
....................          SAVE_SAT_LOG(CMD1,0,CMD2); 
0C866:  MOVFF  2A1,2C4
0C86A:  CLRF   xC5
0C86C:  MOVFF  2A2,2C6
0C870:  MOVLB  0
0C872:  CALL   2DCE
....................          CAM_TEST_OPERATION(CMD2); 
0C876:  MOVFF  2A2,2A8
0C87A:  CALL   7908
....................          STORE_ADRESS_DATA_TO_FLASH(); 
0C87E:  CALL   2ABA
....................          UPLINK_SUCCESS_CHECK(); 
0C882:  CALL   B0B0
....................          break; 
0C886:  BRA    CB90
....................       case 0xA0: 
....................        
....................          UPLINK_SUCCESS_ADCS(); 
0C888:  CALL   B064
....................          ACK_for_COM[14] = 0x00; 
0C88C:  MOVLB  2
0C88E:  CLRF   x24
....................        
....................          SAVE_SAT_LOG(CMD1,0,CMD2); 
0C890:  MOVFF  2A1,2C4
0C894:  CLRF   xC5
0C896:  MOVFF  2A2,2C6
0C89A:  MOVLB  0
0C89C:  CALL   2DCE
....................          unsigned int16 duration = (unsigned int16)CMD2*60; 
0C8A0:  MOVLB  2
0C8A2:  CLRF   xA9
0C8A4:  MOVFF  2A2,2A8
0C8A8:  MOVFF  2A9,2AB
0C8AC:  MOVFF  2A2,2AA
0C8B0:  CLRF   xAD
0C8B2:  MOVLW  3C
0C8B4:  MOVWF  xAC
0C8B6:  MOVLB  0
0C8B8:  CALL   7424
0C8BC:  MOVFF  02,2A7
0C8C0:  MOVFF  01,2A6
....................          UPLINK_SUCCESS_CHECK(); 
0C8C4:  CALL   B0B0
....................          ADCS_TEST_OPERATION(duration, NOMAL_ADCS_MSN); 
0C8C8:  MOVFF  2A7,2AB
0C8CC:  MOVFF  2A6,2AA
0C8D0:  MOVLW  22
0C8D2:  MOVLB  2
0C8D4:  MOVWF  xAC
0C8D6:  MOVLB  0
0C8D8:  CALL   9488
....................          STORE_ADRESS_DATA_TO_FLASH(); 
0C8DC:  CALL   2ABA
....................          break; 
0C8E0:  BRA    CB90
....................       case 0xD0: 
....................        
....................          UPLINK_SUCCESS_LDM(); 
0C8E2:  CALL   B08A
....................          ACK_for_COM[14] = 0x00; 
0C8E6:  MOVLB  2
0C8E8:  CLRF   x24
....................        
....................          SAVE_SAT_LOG(CMD1,0,CMD2); 
0C8EA:  MOVFF  2A1,2C4
0C8EE:  CLRF   xC5
0C8F0:  MOVFF  2A2,2C6
0C8F4:  MOVLB  0
0C8F6:  CALL   2DCE
....................          DATACOLLECTION_TEST_OPERATION(); 
0C8FA:  CALL   81C0
....................          delay_ms(10); 
0C8FE:  MOVLW  0A
0C900:  MOVLB  2
0C902:  MOVWF  xDB
0C904:  MOVLB  0
0C906:  CALL   230E
....................          STORE_ADRESS_DATA_TO_FLASH(); 
0C90A:  CALL   2ABA
....................          break; 
0C90E:  BRA    CB90
....................       case 0x99: 
....................        
....................          //UPLINK_SUCCESS_CHECK(); 
....................          ACK_for_COM[14] = 0x00; 
0C910:  MOVLB  2
0C912:  CLRF   x24
....................        
....................          SAVE_SAT_LOG(CMD1,0,CMD2); 
0C914:  MOVFF  2A1,2C4
0C918:  CLRF   xC5
0C91A:  MOVFF  2A2,2C6
0C91E:  MOVLB  0
0C920:  CALL   2DCE
....................          CURRENT_ADDRESS_OF_FLASH(); 
0C924:  CALL   4AD6
....................          break; 
0C928:  BRA    CB90
....................       case 0xaa: 
....................        
....................          //UPLINK_SUCCESS_CHECK(); 
....................          ACK_for_COM[14] = 0x00; 
0C92A:  MOVLB  2
0C92C:  CLRF   x24
....................        
....................          SAVE_SAT_LOG(CMD1,0,CMD2); 
0C92E:  MOVFF  2A1,2C4
0C932:  CLRF   xC5
0C934:  MOVFF  2A2,2C6
0C938:  MOVLB  0
0C93A:  CALL   2DCE
....................          STORE_ADRESS_DATA_TO_FLASH(); 
0C93E:  CALL   2ABA
....................          STORE_FLAG_INFO(); 
0C942:  CALL   50A4
....................          WRITE_FLAG_to_EEPROM(); 
0C946:  CALL   52B4
....................          break; 
0C94A:  BRA    CB90
....................       case 0x22: 
....................        
....................          //UPLINK_SUCCESS_CHECK(); 
....................          //ACK_for_COM[14] = 0x00; 
....................        
....................          SAVE_SAT_LOG(CMD1,0,CMD2); 
0C94C:  MOVFF  2A1,2C4
0C950:  MOVLB  2
0C952:  CLRF   xC5
0C954:  MOVFF  2A2,2C6
0C958:  MOVLB  0
0C95A:  CALL   2DCE
....................          SEND_CMD_FOR_RESET_SATELLITE(); 
0C95E:  CALL   703E
....................          break; 
0C962:  BRA    CB90
....................       case 0xb0: 
....................        
....................          UPLINK_SUCCESS_CHECK(); 
0C964:  CALL   B0B0
....................          ACK_for_COM[14] = 0x00; 
0C968:  MOVLB  2
0C96A:  CLRF   x24
....................        
....................          CLEAR_BC_FLAG(); 
0C96C:  MOVLB  0
0C96E:  CALL   B0C2
....................          STORE_ADRESS_DATA_TO_FLASH(); 
0C972:  CALL   2ABA
....................          STORE_FLAG_INFO(); 
0C976:  CALL   50A4
....................          WRITE_FLAG_to_EEPROM(); 
0C97A:  CALL   52B4
....................          break; 
0C97E:  BRA    CB90
....................       case 0xb1: 
....................        
....................          UPLINK_SUCCESS_CHECK(); 
0C980:  CALL   B0B0
....................          ACK_for_COM[14] = 0x00; 
0C984:  MOVLB  2
0C986:  CLRF   x24
....................        
....................          MAKE_BC_FLAG_1(); 
0C988:  MOVLB  0
0C98A:  CALL   B0D6
....................          STORE_ADRESS_DATA_TO_FLASH(); 
0C98E:  CALL   2ABA
....................          STORE_FLAG_INFO(); 
0C992:  CALL   50A4
....................          WRITE_FLAG_to_EEPROM(); 
0C996:  CALL   52B4
....................          break; 
0C99A:  BRA    CB90
....................       case 0xb2: 
....................        
....................          UPLINK_SUCCESS_CHECK(); 
0C99C:  CALL   B0B0
....................          ACK_for_COM[14] = 0x00; 
0C9A0:  MOVLB  2
0C9A2:  CLRF   x24
....................        
....................          MAKE_BC_FLAG_2(); 
0C9A4:  MOVLB  0
0C9A6:  CALL   B0EC
....................          STORE_ADRESS_DATA_TO_FLASH(); 
0C9AA:  CALL   2ABA
....................          STORE_FLAG_INFO(); 
0C9AE:  CALL   50A4
....................          WRITE_FLAG_to_EEPROM(); 
0C9B2:  CALL   52B4
....................          break;                
0C9B6:  BRA    CB90
....................       case 0xb3: 
....................        
....................          UPLINK_SUCCESS_CHECK(); 
0C9B8:  CALL   B0B0
....................          ACK_for_COM[14] = 0x00; 
0C9BC:  MOVLB  2
0C9BE:  CLRF   x24
....................           
....................          MAKE_BC_FLAG_3(); 
0C9C0:  MOVLB  0
0C9C2:  CALL   B102
....................          STORE_ADRESS_DATA_TO_FLASH(); 
0C9C6:  CALL   2ABA
....................          STORE_FLAG_INFO(); 
0C9CA:  CALL   50A4
....................          WRITE_FLAG_to_EEPROM(); 
0C9CE:  CALL   52B4
....................          break; 
0C9D2:  BRA    CB90
....................       case 0xb4: 
....................        
....................          UPLINK_SUCCESS_CHECK(); 
0C9D4:  CALL   B0B0
....................          ACK_for_COM[14] = 0x00; 
0C9D8:  MOVLB  2
0C9DA:  CLRF   x24
....................        
....................          MAKE_BC_FLAG_4(); 
0C9DC:  MOVLB  0
0C9DE:  CALL   B118
....................          STORE_ADRESS_DATA_TO_FLASH(); 
0C9E2:  CALL   2ABA
....................          STORE_FLAG_INFO(); 
0C9E6:  CALL   50A4
....................          WRITE_FLAG_to_EEPROM(); 
0C9EA:  CALL   52B4
....................          break; 
0C9EE:  BRA    CB90
....................       case 0x4b: 
....................        
....................          UPLINK_SUCCESS_CHECK(); 
0C9F0:  CALL   B0B0
....................          ACK_for_COM[14] = 0x00; 
0C9F4:  MOVLB  2
0C9F6:  CLRF   x24
....................        
....................          SAVE_SAT_LOG(CMD1,0,CMD2); 
0C9F8:  MOVFF  2A1,2C4
0C9FC:  CLRF   xC5
0C9FE:  MOVFF  2A2,2C6
0CA02:  MOVLB  0
0CA04:  CALL   2DCE
....................          Count_Kill_Flag(); 
0CA08:  CALL   B12E
....................          break; 
0CA0C:  BRA    CB90
....................       case 0xbb: 
....................        
....................          UPLINK_SUCCESS_CHECK(); 
0CA0E:  CALL   B0B0
....................          //ACK_for_COM[14] = 0x00; 
....................        
....................          SAVE_SAT_LOG(CMD1, 0, CMD2); 
0CA12:  MOVFF  2A1,2C4
0CA16:  MOVLB  2
0CA18:  CLRF   xC5
0CA1A:  MOVFF  2A2,2C6
0CA1E:  MOVLB  0
0CA20:  CALL   2DCE
....................          Disable_Kill(); 
0CA24:  CALL   B182
....................          break; 
0CA28:  BRA    CB90
....................       case 0xfa: 
....................        
....................          UPLINK_SUCCESS_HSSC();//High Sampling Sensor Collect mission 
0CA2A:  CALL   B1CE
....................          ACK_for_COM[14] = 0x00; 
0CA2E:  MOVLB  2
0CA30:  CLRF   x24
....................        
....................          SAVE_SAT_LOG(CMD1,0,CMD2); 
0CA32:  MOVFF  2A1,2C4
0CA36:  CLRF   xC5
0CA38:  MOVFF  2A2,2C6
0CA3C:  MOVLB  0
0CA3E:  CALL   2DCE
....................           
....................          duration = (unsigned int16)CMD2*12;//CMD2 is operation time(min), maximum duration = 1440 
0CA42:  MOVLB  2
0CA44:  CLRF   xA9
0CA46:  MOVFF  2A2,2A8
0CA4A:  MOVFF  2A9,2AB
0CA4E:  MOVFF  2A2,2AA
0CA52:  CLRF   xAD
0CA54:  MOVLW  0C
0CA56:  MOVWF  xAC
0CA58:  MOVLB  0
0CA5A:  CALL   7424
0CA5E:  MOVFF  02,2A7
0CA62:  MOVFF  01,2A6
....................          if(duration > 1440){duration = 1440;} 
0CA66:  MOVLB  2
0CA68:  MOVF   xA7,W
0CA6A:  SUBLW  04
0CA6C:  BC    CA80
0CA6E:  XORLW  FF
0CA70:  BNZ   CA78
0CA72:  MOVF   xA6,W
0CA74:  SUBLW  A0
0CA76:  BC    CA80
0CA78:  MOVLW  05
0CA7A:  MOVWF  xA7
0CA7C:  MOVLW  A0
0CA7E:  MOVWF  xA6
....................          HIGHSAMP_SENSOR_COLLECTION(duration); 
0CA80:  MOVFF  2A7,2A9
0CA84:  MOVFF  2A6,2A8
0CA88:  MOVLB  0
0CA8A:  CALL   721C
....................          Turn_OFF_ADCS(); 
0CA8E:  CALL   208A
....................          STORE_ADRESS_DATA_TO_FLASH(); 
0CA92:  CALL   2ABA
....................          break; 
0CA96:  BRA    CB90
....................       case 0x59: 
....................        
....................          UPLINK_SUCCESS_CHECK(); 
0CA98:  CALL   B0B0
....................          ACK_for_COM[14] = 0x00; 
0CA9C:  MOVLB  2
0CA9E:  CLRF   x24
....................        
....................          GIVE_ACCESS_SCF_Nsec(CMD2); 
0CAA0:  MOVFF  2A2,2A8
0CAA4:  MOVLB  0
0CAA6:  CALL   B1F4
....................          break; 
0CAAA:  BRA    CB90
....................       case 0xee: 
....................        
....................          //UPLINK_SUCCESS_CHECK(); 
....................          //ACK_for_COM[14] = 0x00; 
....................        
....................          ERASE_EEPROM_INFO(); 
0CAAC:  BRA    C74E
....................          MEMORY_ERASE(); 
0CAAE:  CALL   5D94
....................          break; 
0CAB2:  BRA    CB90
....................       case 0x88: 
....................        
....................          //UPLINK_SUCCESS_CHECK(); 
....................          //ACK_for_COM[14] = 0x00; 
....................        
....................          CURRENT_FLAG_STATUS(); 
0CAB4:  CALL   209C
....................          break; 
0CAB8:  BRA    CB90
....................       case 0x9f: 
....................        
....................          //UPLINK_SUCCESS_CHECK(); 
....................          //ACK_for_COM[14] = 0x00; 
....................        
....................          Disp_RSV(); 
0CABA:  CALL   B278
....................          break; 
0CABE:  BRA    CB90
....................       case 0xcf: 
....................        
....................          //UPLINK_SUCCESS_CHECK(); 
....................          //ACK_for_COM[14] = 0x00; 
....................        
....................          table_refresh(); 
0CAC0:  BRA    C768
....................          break; 
0CAC2:  BRA    CB90
....................       case 0x6a: 
....................        
....................          UPLINK_SUCCESS_CHECK(); 
0CAC4:  CALL   B0B0
....................          ACK_for_COM[14] = 0x00; 
0CAC8:  MOVLB  2
0CACA:  CLRF   x24
....................        
....................          RESET_FLAG_DATA(); 
0CACC:  MOVLB  0
0CACE:  BRA    C7A0
....................          break; 
0CAD0:  BRA    CB90
....................       case 0xe0: 
....................        
....................          UPLINK_SUCCESS_CHECK(); 
0CAD2:  CALL   B0B0
....................          ACK_for_COM[14] = 0x00; 
0CAD6:  MOVLB  2
0CAD8:  CLRF   x24
....................        
....................          REFRESH_SECTOR_OF(CMD2,CMD3,CMD4,CMD5);//this function contains saving log 
0CADA:  MOVFF  2A2,2B8
0CADE:  MOVFF  2A3,2B9
0CAE2:  MOVFF  2A4,2BA
0CAE6:  MOVFF  2A5,2BB
0CAEA:  MOVLB  0
0CAEC:  CALL   B408
....................          break; 
0CAF0:  BRA    CB90
....................       case 0xe1: 
....................        
....................          UPLINK_SUCCESS_CHECK(); 
0CAF2:  CALL   B0B0
....................          ACK_for_COM[14] = 0x00; 
0CAF6:  MOVLB  2
0CAF8:  CLRF   x24
....................        
....................          REFRESH_SECTOR_SCF(CMD2,CMD3,CMD4,CMD5);//this function contains saving log 
0CAFA:  MOVFF  2A2,2B8
0CAFE:  MOVFF  2A3,2B9
0CB02:  MOVFF  2A4,2BA
0CB06:  MOVFF  2A5,2BB
0CB0A:  MOVLB  0
0CB0C:  CALL   B4BA
....................          break; 
0CB10:  BRA    CB90
....................       case 0xe2: 
....................        
....................          UPLINK_SUCCESS_CHECK(); 
0CB12:  CALL   B0B0
....................          ACK_for_COM[14] = 0x00; 
0CB16:  MOVLB  2
0CB18:  CLRF   x24
....................        
....................          REFRESH_SECTOR_SMF(CMD2,CMD3,CMD4,CMD5);//this function contains saving log 
0CB1A:  MOVFF  2A2,2B8
0CB1E:  MOVFF  2A3,2B9
0CB22:  MOVFF  2A4,2BA
0CB26:  MOVFF  2A5,2BB
0CB2A:  MOVLB  0
0CB2C:  CALL   B574
....................          break; 
0CB30:  BRA    CB90
....................       case 0x12: 
....................        
....................          UPLINK_SUCCESS_CHECK(); 
0CB32:  CALL   B0B0
....................          ACK_for_COM[14] = 0x00; 
0CB36:  MOVLB  2
0CB38:  CLRF   x24
....................        
....................          TRANSFER_SECTOR_OF2SCF(CMD2,CMD3,CMD4,CMD5);//this function contains saving log 
0CB3A:  MOVFF  2A2,2A8
0CB3E:  MOVFF  2A3,2A9
0CB42:  MOVFF  2A4,2AA
0CB46:  MOVFF  2A5,2AB
0CB4A:  MOVLB  0
0CB4C:  CALL   B62A
....................          break; 
0CB50:  BRA    CB90
....................       case 0x32: 
....................        
....................          UPLINK_SUCCESS_CHECK(); 
0CB52:  CALL   B0B0
....................          ACK_for_COM[14] = 0x00; 
0CB56:  MOVLB  2
0CB58:  CLRF   x24
....................        
....................          TRANSFER_SECTOR_SMF2SCF(CMD2,CMD3,CMD4,CMD5);//this function contains saving log 
0CB5A:  MOVFF  2A2,2A8
0CB5E:  MOVFF  2A3,2A9
0CB62:  MOVFF  2A4,2AA
0CB66:  MOVFF  2A5,2AB
0CB6A:  MOVLB  0
0CB6C:  CALL   BD90
....................          break; 
0CB70:  BRA    CB90
....................       case 0x21: 
....................        
....................          UPLINK_SUCCESS_CHECK(); 
0CB72:  CALL   B0B0
....................          ACK_for_COM[14] = 0x00; 
0CB76:  MOVLB  2
0CB78:  CLRF   x24
....................        
....................          TRANSFER_SECTOR_SCF2OF(CMD2,CMD3,CMD4,CMD5);//this function contains saving log 
0CB7A:  MOVFF  2A2,2A8
0CB7E:  MOVFF  2A3,2A9
0CB82:  MOVFF  2A4,2AA
0CB86:  MOVFF  2A5,2AB
0CB8A:  MOVLB  0
0CB8C:  CALL   B91C
....................          break; 
....................    } 
....................    return; 
0CB90:  GOTO   D25E (RETURN)
.................... } 
....................  
....................  
....................  
.................... int8 CHECK_MEMORY_FUNCTION(int8 data) 
.................... { 
....................    if((data == 0xe0)||(data == 0xe1)||(data == 0xe2)) 
*
0AF0E:  MOVLB  2
0AF10:  MOVF   xA1,W
0AF12:  SUBLW  E0
0AF14:  BZ    AF22
0AF16:  MOVF   xA1,W
0AF18:  SUBLW  E1
0AF1A:  BZ    AF22
0AF1C:  MOVF   xA1,W
0AF1E:  SUBLW  E2
0AF20:  BNZ   AF24
....................    { 
....................       data = 0; 
0AF22:  CLRF   xA1
....................    } 
....................    if((data == 0x12)||(data == 0x32)||(data == 0x21)) 
0AF24:  MOVF   xA1,W
0AF26:  SUBLW  12
0AF28:  BZ    AF36
0AF2A:  MOVF   xA1,W
0AF2C:  SUBLW  32
0AF2E:  BZ    AF36
0AF30:  MOVF   xA1,W
0AF32:  SUBLW  21
0AF34:  BNZ   AF38
....................    { 
....................       data = 0; 
0AF36:  CLRF   xA1
....................    } 
....................    return data; 
0AF38:  MOVFF  2A1,01
0AF3C:  MOVLB  0
0AF3E:  GOTO   D132 (RETURN)
.................... } 
....................  
....................  
.................... //----------Flash_memory_MT25QL01GBBB_OF.c------------------------------------- 
....................  
.................... void WRITE_ENABLE_OF(); 
.................... void WRITE_ENABLE_SCF(); 
.................... void WRITE_ENABLE_SMF(); 
....................  
.................... void sector_erase_OF(unsigned int32 sector_address); 
.................... void sector_erase_SCF(unsigned int32 sector_address); 
.................... void sector_erase_SMF(unsigned int32 sector_address); 
....................  
.................... void SUBSECTOR_4KB_ERASE_OF(unsigned int32 sector_address); 
.................... void SUBSECTOR_4KB_ERASE_SCF(unsigned int32 sector_address); 
.................... void SUBSECTOR_4KB_ERASE_SMF(unsigned int32 sector_address); 
....................  
.................... void SUBSECTOR_32KB_ERASE_OF(unsigned int32 sector_address); 
.................... void SUBSECTOR_32KB_ERASE_SCF(unsigned int32 sector_address); 
.................... void SUBSECTOR_32KB_ERASE_SMF(unsigned int32 sector_address); 
....................  
.................... void WRITE_DATA_BYTE_OF(unsigned int32 page_address, int8 data); 
.................... void WRITE_DATA_BYTE_SCF(unsigned int32 page_address, int8 data); 
.................... void WRITE_DATA_BYTE_SMF(unsigned int32 page_address, int8 data); 
....................  
.................... int8 READ_CHIP_ID_OF(); 
.................... int8 READ_CHIP_ID_SCF(); 
.................... int8 READ_CHIP_ID_SMF(); 
....................  
.................... int8 READ_STATUS_REGISTER_OF(); 
.................... int8 READ_STATUS_REGISTER_SCF(); 
.................... int8 READ_STATUS_REGISTER_SMF(); 
....................  
.................... int8 READ_DATA_BYTE_OF(unsigned INT32 ADDRESS); 
.................... int8 READ_DATA_BYTE_SCF(unsigned INT32 ADDRESS); 
.................... int8 READ_DATA_BYTE_SMF(unsigned INT32 ADDRESS); 
....................  
.................... void TRANSFER_DATA_256byte_OF(unsigned INT32 ADRESS, int PORT_NUM); 
.................... void TRANSFER_DATA_256byte_SCF(unsigned INT32 ADRESS, int PORT_NUM); 
.................... void TRANSFER_DATA_256byte_SMF(unsigned INT32 ADRESS, int PORT_NUM); 
....................  
.................... void WRITE_DATA_NBYTE_OF(unsigned INT32 ADDRES,int32 data_byte); 
.................... void WRITE_DATA_NBYTE_SCF(unsigned INT32 ADDRES,int32 data_byte); 
.................... void WRITE_DATA_NBYTE_SMF(unsigned INT32 ADDRES,int32 data_byte); 
....................  
.................... void TRANSFER_DATA_NBYTE_TOPC_OF(unsigned INT32 ADRESS,int32 data_byte); //for testing 
.................... void TRANSFER_DATA_NBYTE_TOPC_SCF(unsigned INT32 ADRESS,int32 data_byte); //for testing 
.................... void TRANSFER_DATA_NBYTE_TOPC_SMF(unsigned INT32 ADRESS,int32 data_byte); //for testing 
....................  
.................... void TRANSFER_DATA_NBYTE_OFtoSCF(unsigned INT32 FROM_ADRESS,unsigned INT32 TO_ADRESS,int32 data_byte); //transfer data from MAIN FLASH to COM FLASH 
.................... void TRANSFER_DATA_NBYTE_SCFtoOF(unsigned INT32 FROM_ADRESS,unsigned INT32 TO_ADRESS,int32 data_byte); //transfer data from COM FLASH to MAIN FLASH 
.................... void TRANSFER_DATA_NBYTE_OFtoSMF(unsigned INT32 FROM_ADRESS,unsigned INT32 TO_ADRESS,int32 data_byte); //transfer data from MAIN FLASH to MISSION FLASH 
.................... void TRANSFER_DATA_NBYTE_SMFtoOF(unsigned INT32 FROM_ADRESS,unsigned INT32 TO_ADRESS,int32 data_byte); //transfer data from MISSION FLASH to MAIN FLASH 
.................... void TRANSFER_DATA_NBYTE_SMFtoSCF(unsigned INT32 FROM_ADRESS,unsigned INT32 TO_ADRESS,int32 data_byte); //transfer data from MISSION FLASH to COM FLASH 
.................... void TRANSFER_DATA_NBYTE_SCFtoSMF(unsigned INT32 FROM_ADRESS,unsigned INT32 TO_ADRESS,int32 data_byte); //transfer data from COM FLASH to MISSION FLASH 
....................  
.................... void TRANSFER_DATA_NBYTE_OF(unsigned INT32 FROM_ADRESS,unsigned INT32 TO_ADRESS,int32 data_byte); //for testing 
....................  
.................... //void sector_erase(unsigned int32 sector_address);  //this is for sector erase 
....................  
....................  
.................... //----------------------------------------------------------------------------- 
....................  
....................  
....................  
.................... //#include <mainpic_testing.c> 
.................... #int_timer0 
.................... void intval() 
.................... { 
....................    static int32 counter = 0; 
....................    counter++; 
*
00BC6:  MOVLW  01
00BC8:  MOVLB  2
00BCA:  ADDWF  x9A,F
00BCC:  BTFSC  FD8.0
00BCE:  INCF   x9B,F
00BD0:  BTFSC  FD8.2
00BD2:  INCF   x9C,F
00BD4:  BTFSC  FD8.2
00BD6:  INCF   x9D,F
....................    if (counter > 60) 
00BD8:  MOVF   x9D,F
00BDA:  BNZ   0BEA
00BDC:  MOVF   x9C,F
00BDE:  BNZ   0BEA
00BE0:  MOVF   x9B,F
00BE2:  BNZ   0BEA
00BE4:  MOVF   x9A,W
00BE6:  SUBLW  3C
00BE8:  BC    0C1C
....................    { 
....................       counter = 0; 
00BEA:  CLRF   x9D
00BEC:  CLRF   x9C
00BEE:  CLRF   x9B
00BF0:  CLRF   x9A
.................... //!      nowtime++; 
.................... //!       
.................... //!      if(nowtime > 0) 
.................... //!      { 
....................          //fprintf(PC,"%ld",nowtime); 
....................          FAB_FLAG++; 
00BF2:  MOVLW  01
00BF4:  ADDWF  x31,F
00BF6:  BTFSC  FD8.0
00BF8:  INCF   x32,F
00BFA:  BTFSC  FD8.2
00BFC:  INCF   x33,F
00BFE:  BTFSC  FD8.2
00C00:  INCF   x34,F
....................          RESERVE_SEC_FLAG++; 
00C02:  MOVLB  0
00C04:  INCF   x73,F
....................          currenttime++; 
00C06:  MOVLB  1
00C08:  INCF   x52,F
00C0A:  BTFSC  FD8.2
00C0C:  INCF   x53,F
....................          //fprintf(PC,"Done\r\n"); 
.................... //!      } 
....................       if(RESERVE_SEC_FLAG > 59) 
00C0E:  MOVLB  0
00C10:  MOVF   x73,W
00C12:  SUBLW  3B
00C14:  BC    0C1A
....................       { 
....................          RESERVE_SEC_FLAG = 0; 
00C16:  CLRF   x73
....................          RESERVE_MIN_FLAG++; 
00C18:  INCF   x67,F
00C1A:  MOVLB  2
....................       } 
....................    } 
.................... } 
....................  
00C1C:  BCF    FF2.2
00C1E:  MOVLB  0
00C20:  GOTO   009C
.................... #INT_rda//PC Interrupt 
.................... void UART1_RXD(void) 
.................... { 
....................    CMD_FROM_PC[PC_DATA] = fgetc(PC); 
*
00C50:  CLRF   03
00C52:  MOVF   x8D,W
00C54:  ADDLW  74
00C56:  MOVWF  FE9
00C58:  MOVLW  00
00C5A:  ADDWFC 03,W
00C5C:  MOVWF  FEA
00C5E:  BTFSS  F9E.5
00C60:  BRA    0C5E
00C62:  MOVFF  FAE,FEF
....................    PC_DATA = ((PC_DATA + 1) % 6); 
00C66:  MOVLW  01
00C68:  ADDWF  x8D,W
00C6A:  MOVLB  2
00C6C:  MOVWF  xE8
00C6E:  MOVWF  xE9
00C70:  MOVLW  06
00C72:  MOVWF  xEA
00C74:  MOVLB  0
00C76:  RCALL  0C24
00C78:  MOVFF  00,8D
....................    //fputc(fgetc(PC),PC); 
.................... } 
....................  
00C7C:  BCF    F9E.5
00C7E:  GOTO   009C
.................... #INT_rda2 HIGH //COM Interrupt 
.................... void UART2_RXD(void) 
.................... { 
....................    //SerialDataReceive();  //get 32 byte 
....................    //COM_ONEBYTE_COMMAND = fgetc(COM); 
....................    in_bffr_main[COM_DATA] = fgetc(COM); 
00C82:  CLRF   03
00C84:  MOVF   x8A,W
00C86:  ADDLW  7A
00C88:  MOVWF  FE9
00C8A:  MOVLW  00
00C8C:  ADDWFC 03,W
00C8E:  MOVWF  FEA
00C90:  BTFSS  FA4.5
00C92:  BRA    0C90
00C94:  MOVLB  F
00C96:  MOVFF  F1E,FEF
....................    COM_DATA = ((COM_DATA + 1) % 16); 
00C9A:  MOVLW  01
00C9C:  MOVLB  0
00C9E:  ADDWF  x8A,W
00CA0:  ANDLW  0F
00CA2:  MOVWF  x8A
.................... }  
....................  
00CA4:  BCF    FA4.5
00CA6:  GOTO   0148
.................... #INT_rda3 //FAB Interrupt 
.................... void UART3_RXD(void) 
.................... { 
....................    //collect_HK_from_FAB(); 
....................    in_HK[FAB_DATA] = fgetc(FAB); 
00CAA:  CLRF   03
00CAC:  MOVLB  2
00CAE:  MOVF   x2E,W
00CB0:  ADDLW  6D
00CB2:  MOVWF  FE9
00CB4:  MOVLW  01
00CB6:  ADDWFC 03,W
00CB8:  MOVWF  FEA
00CBA:  BTFSS  FA6.5
00CBC:  BRA    0CBA
00CBE:  MOVLB  F
00CC0:  MOVFF  F2A,FEF
....................    FAB_DATA = ((FAB_DATA + 1) % FAB_SENSOR_size); 
00CC4:  MOVLW  01
00CC6:  MOVLB  2
00CC8:  ADDWF  x2E,W
00CCA:  MOVWF  xE8
00CCC:  MOVWF  xE9
00CCE:  MOVLW  2D
00CD0:  MOVWF  xEA
00CD2:  MOVLB  0
00CD4:  RCALL  0C24
00CD6:  MOVFF  00,22E
.................... }  
....................  
00CDA:  BCF    FA6.5
00CDC:  GOTO   009C
.................... #INT_rda4//reset Interrupt 
.................... void UART4_RXD(void) 
.................... { 
....................     
....................    reset_bffr[RESET_DATA] = fgetc(reset); 
00CE0:  CLRF   03
00CE2:  MOVF   xDF,W
00CE4:  ADDLW  E0
00CE6:  MOVWF  FE9
00CE8:  MOVLW  00
00CEA:  ADDWFC 03,W
00CEC:  MOVWF  FEA
00CEE:  BTFSS  FA6.7
00CF0:  BRA    0CEE
00CF2:  MOVLB  E
00CF4:  MOVFF  EFA,FEF
....................    RESET_DATA = ((RESET_DATA + 1) % RESET_size); 
00CF8:  MOVLW  01
00CFA:  MOVLB  0
00CFC:  ADDWF  xDF,W
00CFE:  MOVLB  2
00D00:  MOVWF  xE8
00D02:  MOVWF  xE9
00D04:  MOVLW  0B
00D06:  MOVWF  xEA
00D08:  MOVLB  0
00D0A:  RCALL  0C24
00D0C:  MOVFF  00,DF
....................     
....................    if(reset_bffr[0] == 0xaa)//get ready for reset satellite 
00D10:  MOVF   xE0,W
00D12:  SUBLW  AA
00D14:  BNZ   0D1C
....................    { 
....................       reset_flag = 1; 
00D16:  MOVLW  01
00D18:  MOVWF  xEB
....................       RESET_DATA = 0; 
00D1A:  CLRF   xDF
....................    } 
....................     
00D1C:  BCF    FA6.7
00D1E:  GOTO   009C
.................... }  
....................  
.................... void settings() 
.................... { 
....................    set_tris_b(0b11010000); 
*
02F0A:  MOVLW  D0
02F0C:  MOVWF  F93
....................    enable_interrupts(global); 
02F0E:  MOVLW  C0
02F10:  IORWF  FF2,F
....................    enable_interrupts(INT_rda);   // Main to PC 
02F12:  BSF    F9D.5
....................    enable_interrupts(INT_rda2);  // Main to COM PIC 
02F14:  BSF    FA3.5
....................    enable_interrupts(INT_rda3);  // Main to FAB PIC 
02F16:  BSF    F61.5
....................    enable_interrupts(INT_rda4);  // Main to RESET PIC 
02F18:  BSF    F61.7
....................     
....................    setup_timer_0(RTCC_INTERNAL | RTCC_DIV_256 | RTCC_8_BIT); 
02F1A:  MOVLW  D7
02F1C:  MOVWF  FD5
....................    set_timer0(0); 
02F1E:  CLRF   FD7
02F20:  CLRF   FD6
....................     
....................    READ_WRTITING_ADDRESS_LOCATION(); 
02F22:  GOTO   1284
....................    RESERVE_CHECK = 0; 
02F26:  CLRF   x66
....................    RESET_DATA = 0; 
02F28:  CLRF   xDF
....................  
....................    CHECK_FLAG_INFO(); 
02F2A:  GOTO   1CB0
....................    CHECK_ADDRESS_DATA(); 
02F2E:  GOTO   1EFE
....................     
....................    BC_SETUP(); 
02F32:  CALL   2068
....................     
....................    output_low(PIN_A4);//kill switch off 
02F36:  BCF    F92.4
02F38:  BCF    F89.4
....................    Turn_OFF_CAM(); 
02F3A:  CALL   2084
....................    Turn_OFF_ADCS(); 
02F3E:  CALL   208A
....................    Turn_OFF_DC(); 
02F42:  CALL   2090
....................    Turn_OFF_BC(); 
02F46:  CALL   2096
....................  
....................    fprintf(PC,"\r\n"); 
02F4A:  MOVLW  0D
02F4C:  BTFSS  F9E.4
02F4E:  BRA    2F4C
02F50:  MOVWF  FAD
02F52:  MOVLW  0A
02F54:  BTFSS  F9E.4
02F56:  BRA    2F54
02F58:  MOVWF  FAD
....................    CURRENT_FLAG_STATUS(); 
02F5A:  CALL   209C
....................    fprintf(PC,"\r\n"); 
02F5E:  MOVLW  0D
02F60:  BTFSS  F9E.4
02F62:  BRA    2F60
02F64:  MOVWF  FAD
02F66:  MOVLW  0A
02F68:  BTFSS  F9E.4
02F6A:  BRA    2F68
02F6C:  MOVWF  FAD
....................    CHANGE_ADDRESS_WRITING_LOCATION(); 
02F6E:  CALL   251E
....................     
....................    output_high(PIN_C4); //MUX: COM (MAIN-COM) 
02F72:  BCF    F94.4
02F74:  BSF    F8B.4
....................    output_low(PIN_A5); //MUX: CAM (MAIN-MISSION) 
02F76:  BCF    F92.5
02F78:  BCF    F89.5
....................     
....................    Get_RSV();//read the reservation table info from flash memory 
02F7A:  RCALL  2846
....................    SAVE_SAT_LOG(0x25,0x25,0x25);//reset log 
02F7C:  MOVLW  25
02F7E:  MOVLB  2
02F80:  MOVWF  xC4
02F82:  MOVWF  xC5
02F84:  MOVWF  xC6
02F86:  MOVLB  0
02F88:  RCALL  2DCE
....................     
....................    return; 
02F8A:  GOTO   CFBE (RETURN)
.................... } 
....................  
.................... ///////////TEST PART////////////////////////// 
.................... //#org DEFAULT  
.................... void main() 
*
0CD3A:  CLRF   FF8
0CD3C:  BCF    FF1.2
0CD3E:  BCF    F9F.5
0CD40:  BSF    FA5.5
0CD42:  BCF    FA9.5
0CD44:  BCF    FA9.7
0CD46:  BSF    FD0.7
0CD48:  BSF    07.7
0CD4A:  MOVLB  E
0CD4C:  MOVLW  55
0CD4E:  MOVWF  F7E
0CD50:  MOVLW  AA
0CD52:  MOVWF  F7E
0CD54:  BCF    F66.6
0CD56:  MOVLW  F4
0CD58:  MOVWF  x2A
0CD5A:  MOVLW  F5
0CD5C:  MOVWF  x2B
0CD5E:  MOVLW  F8
0CD60:  MOVWF  x2C
0CD62:  MOVLW  F9
0CD64:  MOVWF  x2D
0CD66:  MOVLW  01
0CD68:  MOVWF  x1B
0CD6A:  MOVLW  20
0CD6C:  MOVWF  x1D
0CD6E:  MOVLW  30
0CD70:  MOVWF  x22
0CD72:  MOVLW  20
0CD74:  MOVWF  x24
0CD76:  MOVLW  55
0CD78:  MOVWF  F7E
0CD7A:  MOVLW  AA
0CD7C:  MOVWF  F7E
0CD7E:  BSF    F66.6
0CD80:  CLRF   F9B
0CD82:  CLRF   F64
0CD84:  CLRF   F65
0CD86:  CLRF   F66
0CD88:  MOVLW  02
0CD8A:  MOVWF  FD3
0CD8C:  BSF    F67.3
0CD8E:  MOVLW  22
0CD90:  MOVWF  FAF
0CD92:  MOVLW  00
0CD94:  MOVLB  F
0CD96:  MOVWF  x30
0CD98:  MOVLW  A6
0CD9A:  MOVWF  FAC
0CD9C:  MOVLW  90
0CD9E:  MOVWF  FAB
0CDA0:  BSF    x31.3
0CDA2:  MOVLW  A0
0CDA4:  MOVWF  x1F
0CDA6:  MOVLW  01
0CDA8:  MOVWF  x20
0CDAA:  MOVLW  A6
0CDAC:  MOVWF  x32
0CDAE:  MOVLW  90
0CDB0:  MOVWF  x33
0CDB2:  BSF    x2D.3
0CDB4:  MOVLW  A0
0CDB6:  MOVWF  x2B
0CDB8:  MOVLW  01
0CDBA:  MOVWF  x2C
0CDBC:  MOVLW  A6
0CDBE:  MOVWF  x2E
0CDC0:  MOVLW  90
0CDC2:  MOVWF  x2F
0CDC4:  MOVLB  E
0CDC6:  BSF    xFD.3
0CDC8:  MOVLW  A0
0CDCA:  MOVWF  xFB
0CDCC:  MOVLW  01
0CDCE:  MOVWF  xFC
0CDD0:  MOVLW  A6
0CDD2:  MOVWF  xFE
0CDD4:  MOVLW  90
0CDD6:  MOVWF  xFF
0CDD8:  BCF    F97.7
0CDDA:  BSF    F8E.7
0CDDC:  BCF    F98.2
0CDDE:  BSF    F8F.2
0CDE0:  BCF    F98.0
0CDE2:  BSF    F8F.0
0CDE4:  BSF    F96.0
0CDE6:  BCF    F96.6
0CDE8:  BCF    F96.1
0CDEA:  BCF    F8D.1
0CDEC:  BSF    F93.5
0CDEE:  BCF    F93.4
0CDF0:  BCF    F93.2
0CDF2:  BCF    F8A.2
0CDF4:  BSF    F92.0
0CDF6:  BCF    F92.1
0CDF8:  BCF    F92.3
0CDFA:  BCF    F89.3
0CDFC:  CLRF   32
0CDFE:  CLRF   31
0CE00:  MOVLW  10
0CE02:  MOVWF  30
0CE04:  CLRF   2F
0CE06:  CLRF   36
0CE08:  CLRF   35
0CE0A:  CLRF   34
0CE0C:  CLRF   33
0CE0E:  CLRF   3A
0CE10:  MOVLW  04
0CE12:  MOVWF  39
0CE14:  CLRF   38
0CE16:  CLRF   37
0CE18:  CLRF   3E
0CE1A:  MOVLW  05
0CE1C:  MOVWF  3D
0CE1E:  CLRF   3C
0CE20:  CLRF   3B
0CE22:  CLRF   42
0CE24:  MOVLW  06
0CE26:  MOVWF  41
0CE28:  CLRF   40
0CE2A:  CLRF   3F
0CE2C:  CLRF   46
0CE2E:  MOVLW  08
0CE30:  MOVWF  45
0CE32:  CLRF   44
0CE34:  CLRF   43
0CE36:  CLRF   4A
0CE38:  MOVLW  62
0CE3A:  MOVWF  49
0CE3C:  CLRF   48
0CE3E:  CLRF   47
0CE40:  MOVLW  04
0CE42:  MOVWF  4E
0CE44:  MOVLW  4A
0CE46:  MOVWF  4D
0CE48:  CLRF   4C
0CE4A:  CLRF   4B
0CE4C:  MOVLW  04
0CE4E:  MOVWF  52
0CE50:  MOVLW  72
0CE52:  MOVWF  51
0CE54:  CLRF   50
0CE56:  CLRF   4F
0CE58:  MOVLW  06
0CE5A:  MOVWF  56
0CE5C:  MOVLW  66
0CE5E:  MOVWF  55
0CE60:  CLRF   54
0CE62:  CLRF   53
0CE64:  MOVLW  06
0CE66:  MOVWF  5A
0CE68:  MOVLW  67
0CE6A:  MOVWF  59
0CE6C:  CLRF   58
0CE6E:  CLRF   57
0CE70:  CLRF   5E
0CE72:  MOVLW  01
0CE74:  MOVWF  5D
0CE76:  MOVLW  80
0CE78:  MOVWF  5C
0CE7A:  CLRF   5B
0CE7C:  MOVLB  0
0CE7E:  CLRF   x62
0CE80:  MOVLW  01
0CE82:  MOVWF  x61
0CE84:  MOVLW  80
0CE86:  MOVWF  x60
0CE88:  MOVLW  1C
0CE8A:  MOVWF  5F
0CE8C:  CLRF   x63
0CE8E:  CLRF   x65
0CE90:  CLRF   x64
0CE92:  CLRF   x66
0CE94:  CLRF   x67
0CE96:  CLRF   x68
0CE98:  CLRF   x69
0CE9A:  CLRF   x6A
0CE9C:  CLRF   x6B
0CE9E:  CLRF   x6C
0CEA0:  CLRF   x6D
0CEA2:  CLRF   x6E
0CEA4:  CLRF   x6F
0CEA6:  CLRF   x70
0CEA8:  CLRF   x71
0CEAA:  CLRF   x72
0CEAC:  CLRF   x73
0CEAE:  CLRF   x8A
0CEB0:  CLRF   x8B
0CEB2:  CLRF   x8C
0CEB4:  CLRF   x8D
0CEB6:  CLRF   x8E
0CEB8:  CLRF   xDD
0CEBA:  CLRF   xDE
0CEBC:  CLRF   xDF
0CEBE:  CLRF   xEB
0CEC0:  MOVLB  1
0CEC2:  CLRF   x26
0CEC4:  CLRF   x25
0CEC6:  CLRF   x46
0CEC8:  CLRF   x53
0CECA:  CLRF   x52
0CECC:  CLRF   x55
0CECE:  CLRF   x54
0CED0:  CLRF   x57
0CED2:  CLRF   x56
0CED4:  CLRF   x59
0CED6:  CLRF   x58
0CED8:  CLRF   x5D
0CEDA:  CLRF   x5C
0CEDC:  CLRF   x5B
0CEDE:  CLRF   x5A
0CEE0:  CLRF   x61
0CEE2:  CLRF   x60
0CEE4:  CLRF   x5F
0CEE6:  CLRF   x5E
0CEE8:  CLRF   x65
0CEEA:  CLRF   x64
0CEEC:  CLRF   x63
0CEEE:  CLRF   x62
0CEF0:  CLRF   x67
0CEF2:  CLRF   x66
0CEF4:  MOVLB  2
0CEF6:  CLRF   x2E
0CEF8:  CLRF   x2F
0CEFA:  CLRF   x30
0CEFC:  CLRF   x34
0CEFE:  CLRF   x33
0CF00:  CLRF   x32
0CF02:  CLRF   x31
0CF04:  CLRF   x35
0CF06:  CLRF   x39
0CF08:  CLRF   x38
0CF0A:  CLRF   x37
0CF0C:  CLRF   x36
0CF0E:  CLRF   x3A
0CF10:  CLRF   x3B
0CF12:  CLRF   x8F
0CF14:  CLRF   x91
0CF16:  CLRF   x90
0CF18:  CLRF   x93
0CF1A:  CLRF   x92
0CF1C:  CLRF   x94
0CF1E:  CLRF   x95
0CF20:  CLRF   x99
0CF22:  CLRF   x98
0CF24:  CLRF   x97
0CF26:  CLRF   x96
0CF28:  CLRF   x9D
0CF2A:  CLRF   x9C
0CF2C:  CLRF   x9B
0CF2E:  CLRF   x9A
0CF30:  MOVLB  E
0CF32:  CLRF   xD9
0CF34:  CLRF   xDA
0CF36:  CLRF   x45
0CF38:  CLRF   x46
0CF3A:  CLRF   x47
0CF3C:  BCF    x8D.7
0CF3E:  BCF    x8D.6
0CF40:  BCF    x8D.5
0CF42:  MOVLB  1
0CF44:  CLRF   x88
0CF46:  MOVLB  F
0CF48:  CLRF   x53
0CF4A:  CLRF   x38
0CF4C:  CLRF   x37
0CF4E:  BRA    CF7A
0CF50:  DATA 16,40
0CF52:  DATA 74,00
0CF54:  DATA 4E,40
0CF56:  DATA 8F,00
0CF58:  DATA 0B,40
0CF5A:  DATA E0,00
0CF5C:  DATA 39,40
0CF5E:  DATA EC,00
0CF60:  DATA 1F,41
0CF62:  DATA 27,00
0CF64:  DATA 0B,41
0CF66:  DATA 47,00
0CF68:  DATA AE,41
0CF6A:  DATA 68,00
0CF6C:  DATA 01,80
0CF6E:  DATA AA,16
0CF70:  DATA C0,00
0CF72:  DATA 01,80
0CF74:  DATA BB,53
0CF76:  DATA 42,3C
0CF78:  DATA 00,00
0CF7A:  MOVLW  00
0CF7C:  MOVWF  FF8
0CF7E:  MOVLW  CF
0CF80:  MOVWF  FF7
0CF82:  MOVLW  50
0CF84:  MOVWF  FF6
0CF86:  TBLRD*+
0CF88:  MOVF   FF5,W
0CF8A:  MOVWF  00
0CF8C:  XORLW  00
0CF8E:  BZ    CFB6
0CF90:  TBLRD*+
0CF92:  MOVF   FF5,W
0CF94:  MOVWF  01
0CF96:  BTFSC  FE8.7
0CF98:  BRA    CFA4
0CF9A:  ANDLW  0F
0CF9C:  MOVWF  FEA
0CF9E:  TBLRD*+
0CFA0:  MOVFF  FF5,FE9
0CFA4:  BTFSC  01.6
0CFA6:  TBLRD*+
0CFA8:  BTFSS  01.6
0CFAA:  TBLRD*+
0CFAC:  MOVFF  FF5,FEE
0CFB0:  DCFSNZ 00,F
0CFB2:  BRA    CF86
0CFB4:  BRA    CFA8
0CFB6:  CLRF   FF8
.................... { 
....................    settings(); 
0CFB8:  MOVLB  0
0CFBA:  GOTO   2F0A
....................    enable_interrupts(INT_TIMER0); 
0CFBE:  BSF    FF2.5
....................    fprintf(PC,"Start Operating\r\n"); 
0CFC0:  MOVLW  22
0CFC2:  MOVWF  FF6
0CFC4:  MOVLW  0D
0CFC6:  MOVWF  FF7
0CFC8:  MOVLW  00
0CFCA:  MOVWF  FF8
0CFCC:  CALL   24F4
....................    FAB_TEST_OPERATION(); 
0CFD0:  CALL   47E2
....................  
....................    STORE_ADRESS_DATA_TO_FLASH(); 
0CFD4:  CALL   2ABA
....................    CURRENT_ADDRESS_OF_FLASH(); 
0CFD8:  CALL   4AD6
....................    STORE_FLAG_INFO(); 
0CFDC:  CALL   50A4
....................    WRITE_FLAG_to_EEPROM(); 
0CFE0:  CALL   52B4
....................     
....................    fprintf(PC,"CW:"); 
0CFE4:  MOVLW  34
0CFE6:  MOVWF  FF6
0CFE8:  MOVLW  0D
0CFEA:  MOVWF  FF7
0CFEC:  MOVLW  00
0CFEE:  MOVWF  FF8
0CFF0:  CALL   24F4
....................    for(int i = 0; i < 4; i++) 
0CFF4:  MOVLB  2
0CFF6:  CLRF   x9E
0CFF8:  MOVF   x9E,W
0CFFA:  SUBLW  03
0CFFC:  BNC   D028
....................    { 
....................       fprintf(PC,"%x,",CW_FORMAT[i]); 
0CFFE:  CLRF   03
0D000:  MOVF   x9E,W
0D002:  ADDLW  68
0D004:  MOVWF  FE9
0D006:  MOVLW  01
0D008:  ADDWFC 03,W
0D00A:  MOVWF  FEA
0D00C:  MOVFF  FEF,2D3
0D010:  MOVLW  57
0D012:  MOVWF  xD4
0D014:  MOVLB  0
0D016:  CALL   123E
0D01A:  MOVLW  2C
0D01C:  BTFSS  F9E.4
0D01E:  BRA    D01C
0D020:  MOVWF  FAD
0D022:  MOVLB  2
0D024:  INCF   x9E,F
0D026:  BRA    CFF8
....................    } 
....................    fprintf(PC,"%x\r\n",CW_FORMAT[4]); 
0D028:  MOVFF  16C,2D3
0D02C:  MOVLW  57
0D02E:  MOVWF  xD4
0D030:  MOVLB  0
0D032:  CALL   123E
0D036:  MOVLW  0D
0D038:  BTFSS  F9E.4
0D03A:  BRA    D038
0D03C:  MOVWF  FAD
0D03E:  MOVLW  0A
0D040:  BTFSS  F9E.4
0D042:  BRA    D040
0D044:  MOVWF  FAD
....................     
....................     
....................    Antenna_Deploy(); 
0D046:  GOTO   5C7C
....................    //try 5 times for reliability 
....................    AUTOMATICAL_MISSION_CHECK(); 
0D04A:  CALL   AD9A
....................    AUTOMATICAL_MISSION_CHECK(); 
0D04E:  CALL   AD9A
....................    AUTOMATICAL_MISSION_CHECK(); 
0D052:  CALL   AD9A
....................    AUTOMATICAL_MISSION_CHECK(); 
0D056:  CALL   AD9A
....................    AUTOMATICAL_MISSION_CHECK(); 
0D05A:  CALL   AD9A
....................    
....................    RESET_DATA = 0; 
0D05E:  CLRF   xDF
....................    while(true) 
....................    { 
....................       BC_ON_30min();//if satellite shut down during automatical MSN, this function will be used after start again  
0D060:  CALL   6D38
....................       RESET_SATELLITE();//check reset command from RESET PIC 
0D064:  CALL   720E
....................        
....................       if(FAB_FLAG > 89)//every 90 sec, OBC gather sensor data and update CW format  
0D068:  MOVLB  2
0D06A:  MOVF   x34,F
0D06C:  BNZ   D07C
0D06E:  MOVF   x33,F
0D070:  BNZ   D07C
0D072:  MOVF   x32,F
0D074:  BNZ   D07C
0D076:  MOVF   x31,W
0D078:  SUBLW  59
0D07A:  BC    D10E
....................       { 
....................          FAB_FLAG = 0; 
0D07C:  CLRF   x34
0D07E:  CLRF   x33
0D080:  CLRF   x32
0D082:  CLRF   x31
....................          fprintf(PC,"90sec passed\r\n"); 
0D084:  MOVLW  38
0D086:  MOVWF  FF6
0D088:  MOVLW  0D
0D08A:  MOVWF  FF7
0D08C:  MOVLW  00
0D08E:  MOVWF  FF8
0D090:  MOVLB  0
0D092:  CALL   24F4
....................          FAB_TEST_OPERATION();//get all sensor data 
0D096:  CALL   47E2
....................          COM_DATA = 0; 
0D09A:  CLRF   x8A
....................          STORE_ADRESS_DATA_TO_FLASH();//for store the address info 
0D09C:  CALL   2ABA
....................          fprintf(PC,"CW:"); 
0D0A0:  MOVLW  48
0D0A2:  MOVWF  FF6
0D0A4:  MOVLW  0D
0D0A6:  MOVWF  FF7
0D0A8:  MOVLW  00
0D0AA:  MOVWF  FF8
0D0AC:  CALL   24F4
....................          for(int i = 0; i < 4; i++)//show CW format 
0D0B0:  MOVLB  2
0D0B2:  CLRF   x9F
0D0B4:  MOVF   x9F,W
0D0B6:  SUBLW  03
0D0B8:  BNC   D0E4
....................          { 
....................             fprintf(PC,"%x,",CW_FORMAT[i]); 
0D0BA:  CLRF   03
0D0BC:  MOVF   x9F,W
0D0BE:  ADDLW  68
0D0C0:  MOVWF  FE9
0D0C2:  MOVLW  01
0D0C4:  ADDWFC 03,W
0D0C6:  MOVWF  FEA
0D0C8:  MOVFF  FEF,2D3
0D0CC:  MOVLW  57
0D0CE:  MOVWF  xD4
0D0D0:  MOVLB  0
0D0D2:  CALL   123E
0D0D6:  MOVLW  2C
0D0D8:  BTFSS  F9E.4
0D0DA:  BRA    D0D8
0D0DC:  MOVWF  FAD
0D0DE:  MOVLB  2
0D0E0:  INCF   x9F,F
0D0E2:  BRA    D0B4
....................          } 
....................          fprintf(PC,"%x\r\n",CW_FORMAT[4]); 
0D0E4:  MOVFF  16C,2D3
0D0E8:  MOVLW  57
0D0EA:  MOVWF  xD4
0D0EC:  MOVLB  0
0D0EE:  CALL   123E
0D0F2:  MOVLW  0D
0D0F4:  BTFSS  F9E.4
0D0F6:  BRA    D0F4
0D0F8:  MOVWF  FAD
0D0FA:  MOVLW  0A
0D0FC:  BTFSS  F9E.4
0D0FE:  BRA    D0FC
0D100:  MOVWF  FAD
....................          DELETE_CMD_FROM_PC();//delete PC command 
0D102:  CALL   AEEC
....................          PC_DATA = 0;//reset interrupt data for safety 
0D106:  CLRF   x8D
....................          COM_DATA = 0;//reset interrupt data for safety 
0D108:  CLRF   x8A
....................          RESET_DATA = 0;//reset interrupt data for safety 
0D10A:  CLRF   xDF
0D10C:  MOVLB  2
....................       }    
....................        
....................       if((RESERVE_MIN_FLAG >= RESERVE_TARGET_FLAG) && RESERVE_CHECK == 1)//check the reservation command, if time came, execute 
0D10E:  MOVLB  0
0D110:  MOVF   x68,W
0D112:  SUBWF  x67,W
0D114:  BNC   D16A
0D116:  DECFSZ x66,W
0D118:  BRA    D16A
....................       { 
....................          fprintf(PC,"execute reserved command\r\n"); 
0D11A:  MOVLW  4C
0D11C:  MOVWF  FF6
0D11E:  MOVLW  0D
0D120:  MOVWF  FF7
0D122:  MOVLW  00
0D124:  MOVWF  FF8
0D126:  CALL   24F4
....................          MISSION_CONTENTS = CHECK_MEMORY_FUNCTION(MISSION_CONTENTS); 
0D12A:  MOVFF  69,2A1
0D12E:  GOTO   AF0E
0D132:  MOVFF  01,69
....................          EXECUTE_MISSION_from_COM(MISSION_CONTENTS,MISSION_DETAIL,0,0,0);//execute command 
0D136:  MOVFF  69,2A1
0D13A:  MOVFF  6A,2A2
0D13E:  MOVLB  2
0D140:  CLRF   xA3
0D142:  CLRF   xA4
0D144:  CLRF   xA5
0D146:  MOVLB  0
0D148:  CALL   BF10
....................          Remove_1_Reservation();//remove the finished command and sort again and save updated command table 
0D14C:  GOTO   C4F4
....................          if(reserve_table[30] != 0x00)//if next reservation is registered, wait until time will be come 
0D150:  MOVLB  1
0D152:  MOVF   x45,F
0D154:  BZ    D160
....................          { 
....................             Reserve_next(); 
0D156:  MOVLB  0
0D158:  GOTO   C588
....................          }else{//if all reservation finished, reset flag about reservation 
0D15C:  BRA    D16A
0D15E:  MOVLB  1
....................             RESERVE_TARGET_FLAG = 0; //reset flag 
0D160:  MOVLB  0
0D162:  CLRF   x68
....................             RESERVE_CHECK = 0; 
0D164:  CLRF   x66
....................             MISSION_CONTENTS = 0; 
0D166:  CLRF   x69
....................             MISSION_DETAIL = 0; 
0D168:  CLRF   x6A
....................          } 
....................       } 
....................        
....................       if(buffer_from_com) 
0D16A:  MOVF   x7A,W
0D16C:  SUBLW  AA
0D16E:  BNZ   D1F0
0D170:  MOVF   x89,W
0D172:  SUBLW  BB
0D174:  BNZ   D1F0
....................       { 
....................          for(COM_DATA = 0; COM_DATA < 16; COM_DATA++)//display command 
0D176:  CLRF   x8A
0D178:  MOVF   x8A,W
0D17A:  SUBLW  0F
0D17C:  BNC   D19E
....................          { 
....................             fputc(in_bffr_main[COM_DATA],PC); 
0D17E:  CLRF   03
0D180:  MOVF   x8A,W
0D182:  ADDLW  7A
0D184:  MOVWF  FE9
0D186:  MOVLW  00
0D188:  ADDWFC 03,W
0D18A:  MOVWF  FEA
0D18C:  MOVFF  FEF,2A1
0D190:  MOVLB  2
0D192:  MOVF   xA1,W
0D194:  MOVLB  0
0D196:  CALL   3446
0D19A:  INCF   x8A,F
0D19C:  BRA    D178
....................          } 
....................          COM_DATA = 0; 
0D19E:  CLRF   x8A
....................          fprintf(PC,"COM COMMAND\r\n"); 
0D1A0:  MOVLW  68
0D1A2:  MOVWF  FF6
0D1A4:  MOVLW  0D
0D1A6:  MOVWF  FF7
0D1A8:  MOVLW  00
0D1AA:  MOVWF  FF8
0D1AC:  CALL   24F4
....................          if(in_bffr_main[5] == 0)//if time data is not placed 
0D1B0:  MOVF   x7F,F
0D1B2:  BNZ   D1CE
....................          { 
....................             EXECUTE_MISSION_from_COM(in_bffr_main[4],in_bffr_main[6],in_bffr_main[7],in_bffr_main[8],in_bffr_main[9]); 
0D1B4:  MOVFF  7E,2A1
0D1B8:  MOVFF  80,2A2
0D1BC:  MOVFF  81,2A3
0D1C0:  MOVFF  82,2A4
0D1C4:  MOVFF  83,2A5
0D1C8:  CALL   BF10
....................          }else{//if time data is placed (that means reservation command) 
0D1CC:  BRA    D1E2
....................             SAVE_SAT_LOG(in_bffr_main[4],in_bffr_main[5],in_bffr_main[6]);//reservation command log 
0D1CE:  MOVFF  7E,2C4
0D1D2:  MOVFF  7F,2C5
0D1D6:  MOVFF  80,2C6
0D1DA:  CALL   2DCE
....................             Reserve_command_COM(); 
0D1DE:  GOTO   C712
....................          } 
....................          DELETE_CMD_FROM_PC(); 
0D1E2:  CALL   AEEC
....................          Delete_Buffer(); 
0D1E6:  CALL   31F4
....................          CMD_FROM_PC[1] = 0; 
0D1EA:  CLRF   x75
....................          COM_DATA = 0; 
0D1EC:  CLRF   x8A
....................          PC_DATA = 0; 
0D1EE:  CLRF   x8D
....................       } 
....................        
....................        
....................        
....................       if(CMD_FROM_PC[0]) 
0D1F0:  MOVF   x74,F
0D1F2:  BZ    D280
....................       { 
....................          fprintf(PC,"PC COMMAND:"); 
0D1F4:  MOVLW  76
0D1F6:  MOVWF  FF6
0D1F8:  MOVLW  0D
0D1FA:  MOVWF  FF7
0D1FC:  MOVLW  00
0D1FE:  MOVWF  FF8
0D200:  CALL   24F4
....................          for(int m = 0; m < 6; m++) 
0D204:  MOVLB  2
0D206:  CLRF   xA0
0D208:  MOVF   xA0,W
0D20A:  SUBLW  05
0D20C:  BNC   D230
....................          { 
....................             fprintf(PC,"%x",CMD_FROM_PC[m]); 
0D20E:  CLRF   03
0D210:  MOVF   xA0,W
0D212:  ADDLW  74
0D214:  MOVWF  FE9
0D216:  MOVLW  00
0D218:  ADDWFC 03,W
0D21A:  MOVWF  FEA
0D21C:  MOVFF  FEF,2D3
0D220:  MOVLW  57
0D222:  MOVWF  xD4
0D224:  MOVLB  0
0D226:  CALL   123E
0D22A:  MOVLB  2
0D22C:  INCF   xA0,F
0D22E:  BRA    D208
....................          } 
....................          fprintf(PC,"\r\n"); 
0D230:  MOVLW  0D
0D232:  BTFSS  F9E.4
0D234:  BRA    D232
0D236:  MOVWF  FAD
0D238:  MOVLW  0A
0D23A:  BTFSS  F9E.4
0D23C:  BRA    D23A
0D23E:  MOVWF  FAD
....................           
....................          if(CMD_FROM_PC[1] == 0)//if time data is not placed 
0D240:  MOVLB  0
0D242:  MOVF   x75,F
0D244:  BNZ   D260
....................          { 
....................             EXECUTE_MISSION_from_PC(CMD_FROM_PC[0],CMD_FROM_PC[2],CMD_FROM_PC[3],CMD_FROM_PC[4],CMD_FROM_PC[5]);//execute mission 
0D246:  MOVFF  74,2A1
0D24A:  MOVFF  76,2A2
0D24E:  MOVFF  77,2A3
0D252:  MOVFF  78,2A4
0D256:  MOVFF  79,2A5
0D25A:  GOTO   C7BE
....................          }else{//if time data is placed (that means reservation command) 
0D25E:  BRA    D272
....................             SAVE_SAT_LOG(CMD_FROM_PC[0],CMD_FROM_PC[1],CMD_FROM_PC[2]);//reservation command log 
0D260:  MOVFF  74,2C4
0D264:  MOVFF  75,2C5
0D268:  MOVFF  76,2C6
0D26C:  CALL   2DCE
....................             Reserve_command_PC();//mission command reservation 
0D270:  BRA    CCFE
....................          } 
....................          DELETE_CMD_FROM_PC(); 
0D272:  CALL   AEEC
....................          Delete_Buffer(); 
0D276:  CALL   31F4
....................          CMD_FROM_PC[1] = 0; 
0D27A:  CLRF   x75
....................          COM_DATA = 0; 
0D27C:  CLRF   x8A
....................          PC_DATA = 0; 
0D27E:  CLRF   x8D
....................       } 
....................        
....................       if(COM_DATA != 0 || PC_DATA != 0) 
0D280:  MOVF   x8A,F
0D282:  BNZ   D288
0D284:  MOVF   x8D,F
0D286:  BZ    D2B4
....................       { 
....................          delay_ms(500); 
0D288:  MOVLW  02
0D28A:  MOVLB  2
0D28C:  MOVWF  xA1
0D28E:  MOVLW  FA
0D290:  MOVWF  xDB
0D292:  MOVLB  0
0D294:  CALL   230E
0D298:  MOVLB  2
0D29A:  DECFSZ xA1,F
0D29C:  BRA    D28E
....................          if(PC_DATA != 0) 
0D29E:  MOVLB  0
0D2A0:  MOVF   x8D,F
0D2A2:  BZ    D2B4
....................          { 
....................             CMD_FROM_PC[0] = 0; 
0D2A4:  CLRF   x74
....................             CMD_FROM_PC[1] = 0; 
0D2A6:  CLRF   x75
....................             CMD_FROM_PC[2] = 0; 
0D2A8:  CLRF   x76
....................             CMD_FROM_PC[3] = 0; 
0D2AA:  CLRF   x77
....................             CMD_FROM_PC[4] = 0; 
0D2AC:  CLRF   x78
....................             CMD_FROM_PC[5] = 0; 
0D2AE:  CLRF   x79
....................             COM_DATA = 0; 
0D2B0:  CLRF   x8A
....................             PC_DATA = 0; 
0D2B2:  CLRF   x8D
....................          } 
....................       } 
....................       delay_ms(400); 
0D2B4:  MOVLW  02
0D2B6:  MOVLB  2
0D2B8:  MOVWF  xA1
0D2BA:  MOVLW  C8
0D2BC:  MOVWF  xDB
0D2BE:  MOVLB  0
0D2C0:  CALL   230E
0D2C4:  MOVLB  2
0D2C6:  DECFSZ xA1,F
0D2C8:  BRA    D2BA
0D2CA:  MOVLB  0
0D2CC:  BRA    D060
....................    } 
.................... } 
0D2CE:  SLEEP 

Configuration Fuses:
   Word  1: F6A0   STVREN NOXINST NODEBUG NOBROWNOUT BORV18 NOPROTECT
   Word  2: FFA2   PR SOSC_DIG CLOCKOUT IESO NOPLL
   Word  3: F032   HS
   Word  4: F7FF   WPFP WPDIS WPEND NOWPCFG
   Word  5: FF03   T5G_IS_T5G CINA_DEFAULT IOL1WAY LS48MHZ MSSP2MSK7 MSSPMSK7
   Word  6: FCFF   WDTWIN_25% WDTCLK_FRC WDT32768 NOWDT WINDIS WPRES128
   Word  7: F01D   NOVREGSLEEP VBATBOR DSBOR DS_SW
   Word  8: F3F8   DSWDT_25DAYS DSWDT DSWDTOSC_INT
