CCS PCM C Compiler, Version 5.050, 43599               16-7-18 13:45

               Filename:   C:\Users\Kaki\Documents\CCS C Projects\main pic v1.4\comreset\RESETPIC.lst

               ROM used:   156 words (1%)
                           Largest free fragment is 2048
               RAM used:   10 (0%) at main() level
                           22 (1%) worst case
               Stack used: 0 locations
               Stack size: 16

*
0000:  MOVLP  00
0001:  GOTO   059
0002:  NOP
*
0004:  CLRF   03
0005:  MOVLP  00
0006:  MOVLB  00
0007:  MOVF   77,W
0008:  MOVWF  20
0009:  MOVF   78,W
000A:  MOVWF  21
000B:  MOVF   79,W
000C:  MOVWF  22
000D:  MOVF   7A,W
000E:  MOVWF  23
000F:  CLRF   05
0010:  MOVLW  91
0011:  MOVWF  04
0012:  BTFSS  00.5
0013:  GOTO   016
0014:  BTFSC  11.5
0015:  GOTO   01F
0016:  MOVF   20,W
0017:  MOVWF  77
0018:  MOVF   21,W
0019:  MOVWF  78
001A:  MOVF   22,W
001B:  MOVWF  79
001C:  MOVF   23,W
001D:  MOVWF  7A
001E:  RETFIE
001F:  MOVLP  00
0020:  GOTO   021
.................... #include <16F1789.h> 
.................... //////////// Standard Header file for the PIC16F1789 device //////////////// 
.................... /////////////////////////////////////////////////////////////////////////// 
.................... ////        (C) Copyright 1996, 2014 Custom Computer Services          //// 
.................... //// This source code may only be used by licensed users of the CCS C  //// 
.................... //// compiler.  This source code may only be distributed to other      //// 
.................... //// licensed users of the CCS C compiler.  No other use, reproduction //// 
.................... //// or distribution is permitted without written permission.          //// 
.................... //// Derivative programs created using this software in object code    //// 
.................... //// form are not restricted in any way.                               //// 
.................... /////////////////////////////////////////////////////////////////////////// 
.................... #device PIC16F1789 
....................  
.................... #list 
....................  
.................... #include <compicreg.h> 
.................... #byte INDF0 = 0x000 
.................... #byte INDF1 = 0x001 
.................... #byte PCL = 0x002 
.................... #byte STATUS = 0x003 
.................... #bit    C  = STATUS.0 
.................... #bit    DC = STATUS.1 
.................... #bit    Z  = STATUS.2 
.................... #bit    PD = STATUS.3 
.................... #bit    TO = STATUS.4 
....................  
.................... #word FSR0 = 0x004 
.................... #word FSR1 = 0x006 
.................... #byte BSR = 0x008 
.................... #byte WREG = 0x009 
.................... #byte PCLATH = 0x00A 
....................  
.................... #byte INTCON = 0x00B 
.................... #bit    IOCIF  = INTCON.0 
.................... #bit    INTF   = INTCON.1 
.................... #bit    TMR0IF = INTCON.2 
.................... #bit    IOCIE  = INTCON.3 
.................... #bit    INTE   = INTCON.4 
.................... #bit    TMR0IE = INTCON.5 
.................... #bit    PEIE   = INTCON.6 
.................... #bit    GIE    = INTCON.7 
....................  
.................... #byte PORTA = 0x00C 
.................... #bit    RA0 = PORTA.0 
.................... #bit    RA1 = PORTA.1 
.................... #bit    RA2 = PORTA.2 
.................... #bit    RA3 = PORTA.3 
.................... #bit    RA4 = PORTA.4 
.................... #bit    RA5 = PORTA.5 
.................... #bit    RA6 = PORTA.6 
.................... #bit    RA7 = PORTA.7 
....................  
.................... #byte PORTB = 0x00D 
.................... #bit    RB0 = PORTB.0 
.................... #bit    RB1 = PORTB.1 
.................... #bit    RB2 = PORTB.2 
.................... #bit    RB3 = PORTB.3 
.................... #bit    RB4 = PORTB.4 
.................... #bit    RB5 = PORTB.5 
.................... #bit    RB6 = PORTB.6 
.................... #bit    RB7 = PORTB.7 
....................  
.................... #byte PORTC = 0x00E 
.................... #bit    RC0 = PORTC.0 
.................... #bit    RC1 = PORTC.1 
.................... #bit    RC2 = PORTC.2 
.................... #bit    RC3 = PORTC.3 
.................... #bit    RC4 = PORTC.4 
.................... #bit    RC5 = PORTC.5 
.................... #bit    RC6 = PORTC.6 
.................... #bit    RC7 = PORTC.7 
....................  
.................... #byte PORTD = 0x00F 
.................... #bit    RD0 = PORTD.0 
.................... #bit    RD1 = PORTD.1 
.................... #bit    RD2 = PORTD.2 
.................... #bit    RD3 = PORTD.3 
.................... #bit    RD4 = PORTD.4 
.................... #bit    RD5 = PORTD.5 
.................... #bit    RD6 = PORTD.6 
.................... #bit    RD7 = PORTD.7 
....................  
.................... #byte PORTE = 0x010 
.................... #byte PIR1 = 0x011 
.................... #bit    TMR1IF = PIR1.0 
.................... #bit    TMR2IF = PIR1.1 
.................... #bit    CCP1IF = PIR1.2 
.................... #bit    SSP1IF = PIR1.3 
.................... #bit    TXIF = PIR1.4 
.................... #bit    RCIF = PIR1.5 
.................... #bit    ADIF = PIR1.6 
.................... #bit    TMR1GIF = PIR1.7 
....................  
.................... #byte PIR2 = 0x012 
.................... #bit    CCP2IF = PIR2.0 
.................... #bit    C3IF = PIR2.1 
.................... #bit    C4IF = PIR2.2 
.................... #bit    BCL1IF = PIR2.3 
.................... #bit    EEIF = PIR2.4 
.................... #bit    C1IF = PIR2.5 
.................... #bit    C2IF = PIR2.6 
.................... #bit    OSFIF = PIR2.7 
....................  
.................... #byte PIR3 = 0x013 
.................... #bit    CCP3IF = PIR3.4 
.................... #byte PIR4 = 0x014 
.................... #bit    PSMC1SIF = PIR4.0 
.................... #bit    PSMC2SIF = PIR4.1 
.................... #bit    PSMC3SIF = PIR4.2 
.................... #bit    PSMC1TIF = PIR4.4 
.................... #bit    PSMC2TIF = PIR4.5 
.................... #bit    PSMC3TIF = PIR4.6 
.................... #byte TMR0 = 0x015 
.................... #word TMR1 = 0x016 
.................... #byte T1CON = 0x018 
.................... #bit    TMR1ON = T1CON.0 
.................... #bit    T1SYNC = T1CON.2 
.................... #bit    T1OSCEN = T1CON.3 
.................... #bit    T1CKPS0 = T1CON.4 
.................... #bit    T1CKPS1 = T1CON.5 
.................... #bit    TMR1CS0 = T1CON.6 
.................... #bit    TMR1CS1 = T1CON.7 
.................... #byte T1GCON = 0x019 
.................... #bit    T1GSS0 = T1GCON.0 
.................... #bit    T1GSS1 = T1GCON.1 
.................... #bit    T1GVAL = T1GCON.2 
.................... #bit    T1GGO = T1GCON.3 
.................... #bit    T1GSPM = T1GCON.4 
.................... #bit    T1GTM = T1GCON.5 
.................... #bit    T1GPOL = T1GCON.6 
.................... #bit    TMR1GE = T1GCON.7 
.................... #byte TMR2 = 0x01A 
.................... #byte PR2 = 0x01B 
.................... #byte T2CON = 0x01C 
.................... #bit    T2CKPS0 = T2CON.0 
.................... #bit    T2CKPS1 = T2CON.1 
.................... #bit    TMR2ON = T2CON.2 
.................... #bit    T2OUTPS0 = T2CON.3 
.................... #bit    T2OUTPS1 = T2CON.4 
.................... #bit    T2OUTPS2 = T2CON.5 
.................... #bit    T2OUTPS3 = T2CON.6 
.................... #byte TRISA = 0x08C 
.................... #bit    TRISA0 = TRISA.0 
.................... #bit    TRISA1 = TRISA.1 
.................... #bit    TRISA2 = TRISA.2 
.................... #bit    TRISA3 = TRISA.3 
.................... #bit    TRISA4 = TRISA.4 
.................... #bit    TRISA5 = TRISA.5 
.................... #bit    TRISA6 = TRISA.6 
.................... #bit    TRISA7 = TRISA.7 
.................... #byte TRISB = 0x08D 
.................... #bit    TRISB0 = TRISB.0 
.................... #bit    TRISB1 = TRISB.1 
.................... #bit    TRISB2 = TRISB.2 
.................... #bit    TRISB3 = TRISB.3 
.................... #bit    TRISB4 = TRISB.4 
.................... #bit    TRISB5 = TRISB.5 
.................... #bit    TRISB6 = TRISB.6 
.................... #bit    TRISB7 = TRISB.7 
.................... #byte TRISC = 0x08E 
.................... #bit    TRISC0 = TRISC.0 
.................... #bit    TRISC1 = TRISC.1 
.................... #bit    TRISC2 = TRISC.2 
.................... #bit    TRISC3 = TRISC.3 
.................... #bit    TRISC4 = TRISC.4 
.................... #bit    TRISC5 = TRISC.5 
.................... #bit    TRISC6 = TRISC.6 
.................... #bit    TRISC7 = TRISC.7 
.................... #byte TRISD = 0x08F 
.................... #bit    TRISD0 = TRISD.0 
.................... #bit    TRISD1 = TRISD.1 
.................... #bit    TRISD2 = TRISD.2 
.................... #bit    TRISD3 = TRISD.3 
.................... #bit    TRISD4 = TRISD.4 
.................... #bit    TRISD5 = TRISD.5 
.................... #bit    TRISD6 = TRISD.6 
.................... #bit    TRISD7 = TRISD.7 
.................... #byte TRISE = 0x090 
.................... #byte PIE1 = 0x091 
.................... #bit    TMR1IE = PIE1.0 
.................... #bit    TMR2IE = PIE1.1 
.................... #bit    CCP1IE = PIE1.2 
.................... #bit    SSP1IE = PIE1.3 
.................... #bit    TXIE = PIE1.4 
.................... #bit    RCIE = PIE1.5 
.................... #bit    ADIE = PIE1.6 
.................... #bit    TMR1GIE = PIE1.7 
.................... #byte PIE2 = 0x092 
.................... #bit    CCP2IE = PIE2.0 
.................... #bit    C3IE = PIE2.1 
.................... #bit    C4IE = PIE2.2 
.................... #bit    BCL1IE = PIE2.3 
.................... #bit    EEIE = PIE2.4 
.................... #bit    C1IE = PIE2.5 
.................... #bit    C2IE = PIE2.6 
.................... #bit    OSFIE = PIE2.7 
.................... #byte PIE3 = 0x093 
.................... #bit    CCP3IE = PIE3.4 
.................... #byte PIE4 = 0x094 
.................... #bit    PSMC1SIE = PIE4.0 
.................... #bit    PSMC2SIE = PIE4.1 
.................... #bit    PSMC3SIE = PIE4.2 
.................... #bit    PSMC1TIE = PIE4.4 
.................... #bit    PSMC2TIE = PIE4.5 
.................... #bit    PSMC3TIE = PIE4.6 
....................  
.................... #byte OPTION_REG = 0x095 
.................... #bit    PS0 = OPTION_REG.0 
.................... #bit    PS1 = OPTION_REG.1 
.................... #bit    PS2 = OPTION_REG.2 
.................... #bit    PSA = OPTION_REG.3 
.................... #bit    TMR0SE = OPTION_REG.4 
.................... #bit    TMR0CS = OPTION_REG.5 
.................... #bit    INTEDG = OPTION_REG.6 
.................... #bit    WPUEN = OPTION_REG.7 
....................  
.................... #byte PCON = 0x096 
.................... #bit    BOR = PCON.0 
.................... #bit    POR = PCON.1 
.................... #bit    RI = PCON.2 
.................... #bit    RMCLR = PCON.3 
.................... #bit    RWDT = PCON.4 
.................... #bit    STKUNF = PCON.6 
.................... #bit    STKOVF = PCON.7 
.................... #byte WDTCON = 0x097 
.................... #bit    SWDTEN = WDTCON.0 
.................... #bit    WDTPS0 = WDTCON.1 
.................... #bit    WDTPS1 = WDTCON.2 
.................... #bit    WDTPS2 = WDTCON.3 
.................... #bit    WDTPS3 = WDTCON.4 
.................... #bit    WDTPS4 = WDTCON.5 
.................... #byte OSCTUNE = 0x098 
.................... #byte OSCCON = 0x099 
.................... #bit    SCS0 = OSCCON.0 
.................... #bit    SCS1 = OSCCON.1 
.................... #bit    IRCF0 = OSCCON.3 
.................... #bit    IRCF1 = OSCCON.4 
.................... #bit    IRCF2 = OSCCON.5 
.................... #bit    IRCF3 = OSCCON.6 
.................... #bit    SPLLEN = OSCCON.7 
.................... #byte OSCSTAT = 0x09A 
.................... #bit    HFIOFS = OSCSTAT.0 
.................... #bit    LFIOFR = OSCSTAT.1 
.................... #bit    MFIOFR = OSCSTAT.2 
.................... #bit    HFIOFL = OSCSTAT.3 
.................... #bit    HFIOFR = OSCSTAT.4 
.................... #bit    OSTS = OSCSTAT.5 
.................... #bit    PLLR = OSCSTAT.6 
.................... #bit    T1OSCR = OSCSTAT.7 
.................... #word ADRES = 0x09B 
.................... #byte ADCON0 = 0x09D 
.................... #bit    ADON = ADCON0.0 
.................... #bit    GO = ADCON0.1 
.................... #bit    CHS0 = ADCON0.2 
.................... #bit    CHS1 = ADCON0.3 
.................... #bit    CHS2 = ADCON0.4 
.................... #bit    CHS3 = ADCON0.5 
.................... #bit    CHS4 = ADCON0.6 
.................... #bit    ADRMD = ADCON0.7 
....................  
....................  
.................... #byte ADCON1 = 0x09E 
.................... #bit    ADPREF0 = ADCON1.0 
.................... #bit    ADPREF1 = ADCON1.1 
.................... #bit    ADNREF  = ADCON1.2 
.................... #bit    ADCS0   = ADCON1.4 
.................... #bit    ADCS1   = ADCON1.5 
.................... #bit    ADCS2   = ADCON1.6 
.................... #bit    ADFM    = ADCON1.7 
.................... #byte ADCON2 = 0x09F 
.................... #bit    CHSN0 = ADCON2.0 
.................... #bit    CHSN1 = ADCON2.1 
.................... #bit    CHSN2 = ADCON2.2 
.................... #bit    CHSN3 = ADCON2.3 
.................... #bit    TRIGSEL0 = ADCON2.4 
.................... #bit    TRIGSEL1 = ADCON2.5 
.................... #bit    TRIGSEL2 = ADCON2.6 
.................... #bit    TRIGSEL3 = ADCON2.7 
.................... #byte LATA = 0x10C 
.................... #bit    LATA0 = LATA.0 
.................... #bit    LATA1 = LATA.1 
.................... #bit    LATA2 = LATA.2 
.................... #bit    LATA3 = LATA.3 
.................... #bit    LATA4 = LATA.4 
.................... #bit    LATA5 = LATA.5 
.................... #bit    LATA6 = LATA.6 
.................... #bit    LATA7 = LATA.7 
.................... #byte LATB = 0x10D 
.................... #bit    LATB0 = LATB.0 
.................... #bit    LATB1 = LATB.1 
.................... #bit    LATB2 = LATB.2 
.................... #bit    LATB3 = LATB.3 
.................... #bit    LATB4 = LATB.4 
.................... #bit    LATB5 = LATB.5 
.................... #bit    LATB6 = LATB.6 
.................... #bit    LATB7 = LATB.7 
.................... #byte LATC = 0x10E 
.................... #bit    LATC0 = LATC.0 
.................... #bit    LATC1 = LATC.1 
.................... #bit    LATC2 = LATC.2 
.................... #bit    LATC3 = LATC.3 
.................... #bit    LATC4 = LATC.4 
.................... #bit    LATC5 = LATC.5 
.................... #bit    LATC6 = LATC.6 
.................... #bit    LATC7 = LATC.7 
.................... #byte LATD = 0x10F 
.................... #bit    LATD0 = LATD.0 
.................... #bit    LATD1 = LATD.1 
.................... #bit    LATD2 = LATD.2 
.................... #bit    LATD3 = LATD.3 
.................... #bit    LATD4 = LATD.4 
.................... #bit    LATD5 = LATD.5 
.................... #bit    LATD6 = LATD.6 
.................... #bit    LATD7 = LATD.7 
....................  
....................  
.................... #fuses NOMCLR,NOWDT,NOPUT 
.................... #use delay(crystal=16Mhz, clock=16mhz) 
.................... #use rs232(baud=9600,parity=N,UART1,xmit=pin_D4,rcv=pin_D5, bits=8,stream=mpic)  
0021:  MOVLB  01
0022:  BSF    0F.5
0023:  MOVLB  00
0024:  BTFSC  0F.5
0025:  GOTO   024
0026:  MOVLW  08
0027:  MOVWF  77
0028:  CLRF   25
0029:  BSF    77.7
002A:  GOTO   039
002B:  BCF    77.7
002C:  GOTO   039
002D:  BCF    03.0
002E:  BTFSC  0F.5
002F:  BSF    03.0
0030:  RRF    25,F
0031:  BSF    77.6
0032:  GOTO   039
0033:  BCF    77.6
0034:  DECFSZ 77,F
0035:  GOTO   02D
0036:  MOVF   25,W
0037:  MOVWF  78
0038:  GOTO   045
0039:  MOVLW  84
003A:  BTFSC  77.7
003B:  MOVLW  24
003C:  MOVWF  78
003D:  DECFSZ 78,F
003E:  GOTO   03D
003F:  GOTO   040
0040:  BTFSC  77.7
0041:  GOTO   02B
0042:  BTFSC  77.6
0043:  GOTO   033
0044:  GOTO   02D
.................... #use rs232(baud=9600,parity=N,xmit=pin_b6,rcv=pin_b7, bits=8,stream=PC)  
*
004A:  BTFSS  11.4
004B:  GOTO   04A
004C:  MOVLB  03
004D:  MOVWF  1A
004E:  MOVLB  00
....................  
.................... #INT_rda 
.................... void UART_RXD(void) 
.................... { 
....................    if(fgetc(mpic)==0x70) 
*
0045:  MOVF   78,W
0046:  SUBLW  70
0047:  BTFSS  03.2
0048:  GOTO   04F
....................    { 
....................       fputc(0x70,PC); 
0049:  MOVLW  70
....................    } 
*
004F:  BCF    11.5
0050:  MOVLP  00
0051:  GOTO   016
.................... } 
....................  
.................... void settings() 
.................... { 
....................   enable_interrupts(global);   
0052:  MOVLW  C0
0053:  IORWF  0B,F
....................   enable_interrupts(INT_rda); 
0054:  MOVLB  01
0055:  BSF    11.5
....................   return; 
0056:  MOVLP  00
0057:  MOVLB  00
0058:  GOTO   09B (RETURN)
.................... } 
....................  
.................... void main() 
0059:  MOVLB  01
005A:  BCF    0F.4
005B:  MOVLB  02
005C:  BSF    0F.4
005D:  BSF    1D.2
005E:  BSF    1D.1
005F:  MOVLB  03
0060:  BSF    1F.3
0061:  MOVLW  A0
0062:  MOVWF  1B
0063:  MOVLW  01
0064:  MOVWF  1C
0065:  MOVLW  A6
0066:  MOVWF  1E
0067:  MOVLW  90
0068:  MOVWF  1D
0069:  CLRF   0C
006A:  CLRF   0D
006B:  CLRF   0E
006C:  CLRF   0F
006D:  CLRF   10
006E:  MOVLB  02
006F:  CLRF   12
0070:  CLRF   11
.................... { 
....................    OUTPUT_HIGH(PIN_D1); 
0071:  MOVLB  01
0072:  BCF    0F.1
0073:  MOVLB  02
0074:  BSF    0F.1
....................    OUTPUT_HIGH(PIN_C4); 
0075:  MOVLB  01
0076:  BCF    0E.4
0077:  MOVLB  02
0078:  BSF    0E.4
....................     
....................    OUTPUT_HIGH(PIN_D0); 
0079:  MOVLB  01
007A:  BCF    0F.0
007B:  MOVLB  02
007C:  BSF    0F.0
....................    OUTPUT_HIGH(PIN_D3); 
007D:  MOVLB  01
007E:  BCF    0F.3
007F:  MOVLB  02
0080:  BSF    0F.3
....................     
....................    OUTPUT_HIGH(PIN_D2); 
0081:  MOVLB  01
0082:  BCF    0F.2
0083:  MOVLB  02
0084:  BSF    0F.2
....................    OUTPUT_HIGH(PIN_C3); 
0085:  MOVLB  01
0086:  BCF    0E.3
0087:  MOVLB  02
0088:  BSF    0E.3
....................     
....................    OUTPUT_HIGH(PIN_C2); 
0089:  MOVLB  01
008A:  BCF    0E.2
008B:  MOVLB  02
008C:  BSF    0E.2
....................    OUTPUT_HIGH(PIN_C5); 
008D:  MOVLB  01
008E:  BCF    0E.5
008F:  MOVLB  02
0090:  BSF    0E.5
....................     
....................    OUTPUT_HIGH(PIN_D6); 
0091:  MOVLB  01
0092:  BCF    0F.6
0093:  MOVLB  02
0094:  BSF    0F.6
....................    OUTPUT_HIGH(PIN_D7); 
0095:  MOVLB  01
0096:  BCF    0F.7
0097:  MOVLB  02
0098:  BSF    0F.7
....................     
....................    int8 message; 
....................     
....................    settings(); 
0099:  MOVLB  00
009A:  GOTO   052
.................... /*    
....................    while(TRUE) 
....................    { 
....................    fputc(0x70,mpic); 
....................    fputc(0xaa,PC); 
....................    delay_ms(5000); 
....................    } 
....................    */ 
....................       while(true) 
....................    { 
009B:  GOTO   09B
....................       //fputc(fgetc(mpic),PC); 
....................    } 
....................  
.................... } 
009C:  SLEEP

Configuration Fuses:
   Word  1: 3FA2   HS NOWDT NOPUT NOMCLR NOPROTECT NOCPD BROWNOUT NOCLKOUT IESO FCMEN
   Word  2: 1E23   NOWRT NOVCAP PLL_SW STVREN BORV19 NOLPBOR NODEBUG NOLVP
