CCS PCH C Compiler, Version 5.056, 29513               24-Jan-20 15:58

               Filename:   C:\Users\maisun\Documents\PhD\offline\code\ccs\MAIN_PIC_FM\MAIN_PIC_FM.lst

               ROM used:   59000 bytes (45%)
                           Largest free fragment is 65520
               RAM used:   813 (23%) at main() level
                           894 (25%) worst case
               Stack used: 12 locations (10 in main + 2 for interrupts)
               Stack size: 31

*
00000:  NOP   
00002:  GOTO   E082
*
00008:  GOTO   00F2
0000C:  NOP   
0000E:  NOP   
00010:  NOP   
00012:  NOP   
00014:  NOP   
00016:  NOP   
00018:  MOVWF  04
0001A:  MOVFF  FD8,05
0001E:  MOVFF  FE0,06
00022:  MOVLB  0
00024:  MOVFF  FE9,0C
00028:  MOVFF  FEA,07
0002C:  MOVFF  FE1,08
00030:  MOVFF  FE2,09
00034:  MOVFF  FD9,0A
00038:  MOVFF  FDA,0B
0003C:  MOVFF  FF3,12
00040:  MOVFF  FF4,13
00044:  MOVFF  FFA,14
00048:  MOVFF  FF5,15
0004C:  MOVFF  FF6,16
00050:  MOVFF  FF7,17
00054:  MOVFF  FF8,18
00058:  MOVFF  FFB,19
0005C:  MOVFF  00,0E
00060:  MOVFF  01,0F
00064:  MOVFF  02,10
00068:  MOVFF  03,11
0006C:  BTFSS  FF2.5
0006E:  GOTO   0078
00072:  BTFSC  FF2.2
00074:  GOTO   1152
00078:  BTFSS  F9D.5
0007A:  GOTO   0084
0007E:  BTFSC  F9E.5
00080:  GOTO   11B2
00084:  BTFSS  F61.5
00086:  GOTO   0090
0008A:  BTFSC  FA6.5
0008C:  GOTO   122A
00090:  BTFSS  F61.7
00092:  GOTO   009C
00096:  BTFSC  FA6.7
00098:  GOTO   1262
0009C:  MOVFF  0E,00
000A0:  MOVFF  0F,01
000A4:  MOVFF  10,02
000A8:  MOVFF  11,03
000AC:  MOVFF  0C,FE9
000B0:  MOVFF  07,FEA
000B4:  BSF    07.7
000B6:  MOVFF  08,FE1
000BA:  MOVFF  09,FE2
000BE:  MOVFF  0A,FD9
000C2:  MOVFF  0B,FDA
000C6:  MOVFF  12,FF3
000CA:  MOVFF  13,FF4
000CE:  MOVFF  14,FFA
000D2:  MOVFF  15,FF5
000D6:  MOVFF  16,FF6
000DA:  MOVFF  17,FF7
000DE:  MOVFF  18,FF8
000E2:  MOVFF  19,FFB
000E6:  MOVF   04,W
000E8:  MOVFF  06,FE0
000EC:  MOVFF  05,FD8
000F0:  RETFIE 0
000F2:  MOVLB  0
000F4:  MOVFF  FE9,21
000F8:  MOVFF  FEA,1C
000FC:  MOVFF  FE1,1D
00100:  MOVFF  FE2,1E
00104:  MOVFF  FD9,1F
00108:  MOVFF  FDA,20
0010C:  MOVFF  FF3,27
00110:  MOVFF  FF4,28
00114:  MOVFF  FFA,29
00118:  MOVFF  FF5,2A
0011C:  MOVFF  FF6,2B
00120:  MOVFF  FF7,2C
00124:  MOVFF  FF8,2D
00128:  MOVFF  FFB,2E
0012C:  MOVFF  00,23
00130:  MOVFF  01,24
00134:  MOVFF  02,25
00138:  MOVFF  03,26
0013C:  BTFSS  FA3.5
0013E:  GOTO   0148
00142:  BTFSC  FA4.5
00144:  GOTO   11D6
00148:  MOVFF  23,00
0014C:  MOVFF  24,01
00150:  MOVFF  25,02
00154:  MOVFF  26,03
00158:  MOVFF  21,FE9
0015C:  MOVFF  1C,FEA
00160:  BSF    1C.7
00162:  MOVFF  1D,FE1
00166:  MOVFF  1E,FE2
0016A:  MOVFF  1F,FD9
0016E:  MOVFF  20,FDA
00172:  MOVFF  27,FF3
00176:  MOVFF  28,FF4
0017A:  MOVFF  29,FFA
0017E:  MOVFF  2A,FF5
00182:  MOVFF  2B,FF6
00186:  MOVFF  2C,FF7
0018A:  MOVFF  2D,FF8
0018E:  MOVFF  2E,FFB
00192:  RETFIE 1
....................  
.................... #include <MAIN_PIC_FM.h> 
.................... #include <18F67J94.h> 
.................... //////////// Standard Header file for the PIC18F67J94 device //////////////// 
.................... /////////////////////////////////////////////////////////////////////////// 
.................... ////        (C) Copyright 1996, 2014 Custom Computer Services          //// 
.................... //// This source code may only be used by licensed users of the CCS C  //// 
.................... //// compiler.  This source code may only be distributed to other      //// 
.................... //// licensed users of the CCS C compiler.  No other use, reproduction //// 
.................... //// or distribution is permitted without written permission.          //// 
.................... //// Derivative programs created using this software in object code    //// 
.................... //// form are not restricted in any way.                               //// 
.................... /////////////////////////////////////////////////////////////////////////// 
.................... #device PIC18F67J94 
00194:  DATA 0D,0A
00196:  DATA 50,41
00198:  DATA 53,53
0019A:  DATA 45,44
0019C:  DATA 20,44
0019E:  DATA 41,59
001A0:  DATA 53,3A
001A2:  DATA 25,78
001A4:  DATA 0D,0A
001A6:  DATA 00,00
001A8:  DATA 52,45
001AA:  DATA 53,45
001AC:  DATA 52,56
001AE:  DATA 45,20
001B0:  DATA 43,48
001B2:  DATA 45,43
001B4:  DATA 4B,3A
001B6:  DATA 25,78
001B8:  DATA 0D,0A
001BA:  DATA 00,00
001BC:  DATA 4B,69
001BE:  DATA 6C,6C
001C0:  DATA 20,46
001C2:  DATA 4C,41
001C4:  DATA 47,20
001C6:  DATA 4D,41
001C8:  DATA 49,4E
001CA:  DATA 3A,25
001CC:  DATA 78,0D
001CE:  DATA 0A,00
001D0:  DATA 4B,69
001D2:  DATA 6C,6C
001D4:  DATA 20,46
001D6:  DATA 4C,41
001D8:  DATA 47,20
001DA:  DATA 46,41
001DC:  DATA 42,3A
001DE:  DATA 25,78
001E0:  DATA 0D,0A
001E2:  DATA 00,00
001E4:  DATA 41,55
001E6:  DATA 54,4F
001E8:  DATA 20,48
001EA:  DATA 49,47
001EC:  DATA 48,20
001EE:  DATA 53,41
001F0:  DATA 4D,50
001F2:  DATA 4C,49
001F4:  DATA 4E,47
001F6:  DATA 3A,25
001F8:  DATA 78,0D
001FA:  DATA 0A,00
001FC:  DATA 41,55
001FE:  DATA 54,4F
00200:  DATA 20,43
00202:  DATA 41,4D
00204:  DATA 3A,25
00206:  DATA 78,0D
00208:  DATA 0A,00
0020A:  DATA 41,55
0020C:  DATA 54,4F
0020E:  DATA 20,4D
00210:  DATA 42,50
00212:  DATA 3A,25
00214:  DATA 78,0D
00216:  DATA 0A,00
00218:  DATA 41,55
0021A:  DATA 54,4F
0021C:  DATA 20,41
0021E:  DATA 44,43
00220:  DATA 53,3A
00222:  DATA 25,78
00224:  DATA 0D,0A
00226:  DATA 00,00
00228:  DATA 41,4E
0022A:  DATA 54,45
0022C:  DATA 4E,4E
0022E:  DATA 41,20
00230:  DATA 44,45
00232:  DATA 50,4C
00234:  DATA 4F,59
00236:  DATA 3A,25
00238:  DATA 78,0D
0023A:  DATA 0A,00
0023C:  DATA 41,4E
0023E:  DATA 54,45
00240:  DATA 4E,4E
00242:  DATA 41,20
00244:  DATA 44,45
00246:  DATA 50,4C
00248:  DATA 4F,59
0024A:  DATA 20,41
0024C:  DATA 54,54
0024E:  DATA 45,4D
00250:  DATA 50,54
00252:  DATA 3A,25
00254:  DATA 78,0D
00256:  DATA 0A,00
00258:  DATA 55,50
0025A:  DATA 4C,49
0025C:  DATA 4E,4B
0025E:  DATA 20,53
00260:  DATA 55,43
00262:  DATA 43,45
00264:  DATA 53,53
00266:  DATA 3A,25
00268:  DATA 78,0D
0026A:  DATA 0A,0D
0026C:  DATA 0A,00
0026E:  DATA 0D,0A
00270:  DATA 41,44
00272:  DATA 44,20
00274:  DATA 49,4E
00276:  DATA 46,4F
00278:  DATA 20,41
0027A:  DATA 44,44
0027C:  DATA 52,45
0027E:  DATA 53,53
00280:  DATA 3A,25
00282:  DATA 6C,78
00284:  DATA 0D,0A
00286:  DATA 0D,0A
00288:  DATA 00,00
0028A:  DATA 46,4C
0028C:  DATA 41,47
0028E:  DATA 20,44
00290:  DATA 41,54
00292:  DATA 41,20
00294:  DATA 41,44
00296:  DATA 44,52
00298:  DATA 45,53
0029A:  DATA 53,3A
0029C:  DATA 25,78
0029E:  DATA 25,78
002A0:  DATA 25,78
002A2:  DATA 25,78
002A4:  DATA 0D,0A
002A6:  DATA 00,00
002A8:  DATA 52,45
002AA:  DATA 53,45
002AC:  DATA 52,56
002AE:  DATA 41,54
002B0:  DATA 49,4F
002B2:  DATA 4E,20
002B4:  DATA 54,41
002B6:  DATA 42,4C
002B8:  DATA 45,20
002BA:  DATA 41,44
002BC:  DATA 44,52
002BE:  DATA 45,53
002C0:  DATA 53,3A
002C2:  DATA 25,78
002C4:  DATA 25,78
002C6:  DATA 25,78
002C8:  DATA 25,78
002CA:  DATA 0D,0A
002CC:  DATA 00,00
002CE:  DATA 53,41
002D0:  DATA 54,45
002D2:  DATA 4C,4C
002D4:  DATA 49,54
002D6:  DATA 45,20
002D8:  DATA 4C,4F
002DA:  DATA 47,20
002DC:  DATA 41,44
002DE:  DATA 44,52
002E0:  DATA 45,53
002E2:  DATA 53,3A
002E4:  DATA 25,78
002E6:  DATA 25,78
002E8:  DATA 25,78
002EA:  DATA 25,78
002EC:  DATA 0D,0A
002EE:  DATA 00,00
002F0:  DATA 43,41
002F2:  DATA 4D,20
002F4:  DATA 41,44
002F6:  DATA 44,52
002F8:  DATA 45,53
002FA:  DATA 53,3A
002FC:  DATA 25,78
002FE:  DATA 25,78
00300:  DATA 25,78
00302:  DATA 25,78
00304:  DATA 0D,0A
00306:  DATA 00,00
00308:  DATA 46,41
0030A:  DATA 42,20
0030C:  DATA 48,4B
0030E:  DATA 20,41
00310:  DATA 44,44
00312:  DATA 52,45
00314:  DATA 53,53
00316:  DATA 3A,25
00318:  DATA 78,25
0031A:  DATA 78,25
0031C:  DATA 78,25
0031E:  DATA 78,0D
00320:  DATA 0A,00
00322:  DATA 46,41
00324:  DATA 42,20
00326:  DATA 43,57
00328:  DATA 20,41
0032A:  DATA 44,44
0032C:  DATA 52,45
0032E:  DATA 53,53
00330:  DATA 3A,25
00332:  DATA 78,25
00334:  DATA 78,25
00336:  DATA 78,25
00338:  DATA 78,0D
0033A:  DATA 0A,00
0033C:  DATA 41,44
0033E:  DATA 43,53
00340:  DATA 20,53
00342:  DATA 45,4E
00344:  DATA 53,4F
00346:  DATA 52,20
00348:  DATA 41,44
0034A:  DATA 44,52
0034C:  DATA 45,53
0034E:  DATA 53,3A
00350:  DATA 25,78
00352:  DATA 25,78
00354:  DATA 25,78
00356:  DATA 25,78
00358:  DATA 0D,0A
0035A:  DATA 00,00
0035C:  DATA 41,44
0035E:  DATA 43,53
00360:  DATA 20,54
00362:  DATA 4C,45
00364:  DATA 20,41
00366:  DATA 44,44
00368:  DATA 52,45
0036A:  DATA 53,53
0036C:  DATA 3A,25
0036E:  DATA 78,25
00370:  DATA 78,25
00372:  DATA 78,25
00374:  DATA 78,0D
00376:  DATA 0A,00
00378:  DATA 4D,49
0037A:  DATA 53,53
0037C:  DATA 49,4F
0037E:  DATA 4E,20
00380:  DATA 42,4F
00382:  DATA 53,53
00384:  DATA 20,41
00386:  DATA 44,44
00388:  DATA 52,45
0038A:  DATA 53,53
0038C:  DATA 3A,25
0038E:  DATA 78,25
00390:  DATA 78,25
00392:  DATA 78,25
00394:  DATA 78,0D
00396:  DATA 0A,00
00398:  DATA 48,49
0039A:  DATA 47,48
0039C:  DATA 20,53
0039E:  DATA 41,4D
003A0:  DATA 50,20
003A2:  DATA 48,4B
003A4:  DATA 20,41
003A6:  DATA 44,44
003A8:  DATA 45,52
003AA:  DATA 53,53
003AC:  DATA 3A,25
003AE:  DATA 78,25
003B0:  DATA 78,25
003B2:  DATA 78,25
003B4:  DATA 78,0D
003B6:  DATA 0A,00
003B8:  DATA 57,52
003BA:  DATA 49,54
003BC:  DATA 45,20
003BE:  DATA 25,6C
003C0:  DATA 78,20
003C2:  DATA 54,49
003C4:  DATA 4D,45
003C6:  DATA 53,0D
003C8:  DATA 0A,00
003CA:  DATA 0D,0A
003CC:  DATA 50,41
003CE:  DATA 53,53
003D0:  DATA 45,44
003D2:  DATA 20,44
003D4:  DATA 41,59
003D6:  DATA 53,3A
003D8:  DATA 25,6C
003DA:  DATA 78,0D
003DC:  DATA 0A,00
003DE:  DATA 52,45
003E0:  DATA 53,45
003E2:  DATA 52,56
003E4:  DATA 45,20
003E6:  DATA 43,48
003E8:  DATA 45,43
003EA:  DATA 4B,3A
003EC:  DATA 25,78
003EE:  DATA 0D,0A
003F0:  DATA 00,00
003F2:  DATA 4B,69
003F4:  DATA 6C,6C
003F6:  DATA 20,46
003F8:  DATA 4C,41
003FA:  DATA 47,20
003FC:  DATA 4D,41
003FE:  DATA 49,4E
00400:  DATA 3A,25
00402:  DATA 78,0D
00404:  DATA 0A,00
00406:  DATA 4B,69
00408:  DATA 6C,6C
0040A:  DATA 20,46
0040C:  DATA 4C,41
0040E:  DATA 47,20
00410:  DATA 46,41
00412:  DATA 42,3A
00414:  DATA 25,78
00416:  DATA 0D,0A
00418:  DATA 00,00
0041A:  DATA 41,55
0041C:  DATA 54,4F
0041E:  DATA 20,48
00420:  DATA 49,47
00422:  DATA 48,20
00424:  DATA 53,41
00426:  DATA 4D,50
00428:  DATA 4C,49
0042A:  DATA 4E,47
0042C:  DATA 3A,25
0042E:  DATA 78,0D
00430:  DATA 0A,00
00432:  DATA 41,55
00434:  DATA 54,4F
00436:  DATA 20,43
00438:  DATA 41,4D
0043A:  DATA 3A,25
0043C:  DATA 78,0D
0043E:  DATA 0A,00
00440:  DATA 41,55
00442:  DATA 54,4F
00444:  DATA 20,4D
00446:  DATA 42,50
00448:  DATA 3A,25
0044A:  DATA 78,0D
0044C:  DATA 0A,00
0044E:  DATA 41,55
00450:  DATA 54,4F
00452:  DATA 20,41
00454:  DATA 44,43
00456:  DATA 53,3A
00458:  DATA 25,78
0045A:  DATA 0D,0A
0045C:  DATA 00,00
0045E:  DATA 41,4E
00460:  DATA 54,45
00462:  DATA 4E,4E
00464:  DATA 41,20
00466:  DATA 44,45
00468:  DATA 50,4C
0046A:  DATA 4F,59
0046C:  DATA 3A,25
0046E:  DATA 78,0D
00470:  DATA 0A,00
00472:  DATA 55,50
00474:  DATA 4C,49
00476:  DATA 4E,4B
00478:  DATA 20,53
0047A:  DATA 55,43
0047C:  DATA 43,45
0047E:  DATA 53,53
00480:  DATA 3A,25
00482:  DATA 78,0D
00484:  DATA 0A,0D
00486:  DATA 0A,00
00488:  DATA 46,4C
0048A:  DATA 41,47
0048C:  DATA 20,49
0048E:  DATA 4E,46
00490:  DATA 4F,20
00492:  DATA 53,54
00494:  DATA 4F,52
00496:  DATA 45,44
00498:  DATA 20,49
0049A:  DATA 4E,20
0049C:  DATA 46,4C
0049E:  DATA 41,53
004A0:  DATA 48,0D
004A2:  DATA 0A,00
004A4:  DATA 0D,0A
004A6:  DATA 61,64
004A8:  DATA 64,72
004AA:  DATA 65,73
004AC:  DATA 73,20
004AE:  DATA 69,6E
004B0:  DATA 66,6F
004B2:  DATA 20,6C
004B4:  DATA 6F,63
004B6:  DATA 61,74
004B8:  DATA 69,6F
004BA:  DATA 6E,3A
004BC:  DATA 25,6C
004BE:  DATA 78,0D
004C0:  DATA 0A,00
004C2:  DATA 41,44
004C4:  DATA 20,43
004C6:  DATA 4F,55
004C8:  DATA 4E,54
004CA:  DATA 45,52
004CC:  DATA 3A,25
004CE:  DATA 6C,78
004D0:  DATA 0D,0A
004D2:  DATA 00,00
004D4:  DATA 43,48
004D6:  DATA 41,4E
004D8:  DATA 47,45
004DA:  DATA 44,20
004DC:  DATA 4D,45
004DE:  DATA 4D,4F
004E0:  DATA 52,59
004E2:  DATA 20,41
004E4:  DATA 44,44
004E6:  DATA 52,45
004E8:  DATA 53,53
004EA:  DATA 3A,00
004EC:  DATA 0D,0A
004EE:  DATA 53,74
004F0:  DATA 6F,72
004F2:  DATA 65,69
004F4:  DATA 6E,67
004F6:  DATA 20,41
004F8:  DATA 64,64
004FA:  DATA 72,65
004FC:  DATA 73,73
004FE:  DATA 20,44
00500:  DATA 61,74
00502:  DATA 61,20
00504:  DATA 69,6E
00506:  DATA 20,46
00508:  DATA 6C,61
0050A:  DATA 73,68
0050C:  DATA 0D,0A
0050E:  DATA 00,00
00510:  DATA 41,44
00512:  DATA 44,52
00514:  DATA 45,53
00516:  DATA 53,20
00518:  DATA 44,41
0051A:  DATA 54,41
0051C:  DATA 20,53
0051E:  DATA 54,4F
00520:  DATA 52,45
00522:  DATA 20,44
00524:  DATA 4F,4E
00526:  DATA 45,3A
00528:  DATA 25,6C
0052A:  DATA 78,0D
0052C:  DATA 0A,00
0052E:  DATA 46,4C
00530:  DATA 41,53
00532:  DATA 48,20
00534:  DATA 4D,45
00536:  DATA 4D,4F
00538:  DATA 52,59
0053A:  DATA 20,45
0053C:  DATA 52,41
0053E:  DATA 53,45
00540:  DATA 20,53
00542:  DATA 54,41
00544:  DATA 52,54
00546:  DATA 0D,0A
00548:  DATA 00,00
0054A:  DATA 46,4C
0054C:  DATA 41,53
0054E:  DATA 48,20
00550:  DATA 4D,45
00552:  DATA 4D,4F
00554:  DATA 52,59
00556:  DATA 20,45
00558:  DATA 52,41
0055A:  DATA 53,45
0055C:  DATA 20,44
0055E:  DATA 4F,4E
00560:  DATA 45,0D
00562:  DATA 0A,00
00564:  DATA 52,65
00566:  DATA 6D,61
00568:  DATA 69,6E
0056A:  DATA 69,6E
0056C:  DATA 67,20
0056E:  DATA 74,69
00570:  DATA 6D,65
00572:  DATA 3A,20
00574:  DATA 25,64
00576:  DATA 20,20
00578:  DATA 0D,00
0057A:  DATA 65,72
0057C:  DATA 61,73
0057E:  DATA 69,6E
00580:  DATA 67,20
00582:  DATA 6E,65
00584:  DATA 78,74
00586:  DATA 20,73
00588:  DATA 65,63
0058A:  DATA 74,6F
0058C:  DATA 72,0D
0058E:  DATA 0A,00
00590:  DATA 65,72
00592:  DATA 61,73
00594:  DATA 69,6E
00596:  DATA 67,20
00598:  DATA 6E,65
0059A:  DATA 78,74
0059C:  DATA 20,73
0059E:  DATA 65,63
005A0:  DATA 74,6F
005A2:  DATA 72,0D
005A4:  DATA 0A,00
005A6:  DATA 65,72
005A8:  DATA 61,73
005AA:  DATA 69,6E
005AC:  DATA 67,20
005AE:  DATA 6E,65
005B0:  DATA 78,74
005B2:  DATA 20,73
005B4:  DATA 65,63
005B6:  DATA 74,6F
005B8:  DATA 72,0D
005BA:  DATA 0A,00
005BC:  DATA 65,72
005BE:  DATA 61,73
005C0:  DATA 69,6E
005C2:  DATA 67,20
005C4:  DATA 6E,65
005C6:  DATA 78,74
005C8:  DATA 20,73
005CA:  DATA 65,63
005CC:  DATA 74,6F
005CE:  DATA 72,0D
005D0:  DATA 0A,00
005D2:  DATA 65,72
005D4:  DATA 61,73
005D6:  DATA 69,6E
005D8:  DATA 67,20
005DA:  DATA 6E,65
005DC:  DATA 78,74
005DE:  DATA 20,73
005E0:  DATA 65,63
005E2:  DATA 74,6F
005E4:  DATA 72,0D
005E6:  DATA 0A,00
005E8:  DATA 52,45
005EA:  DATA 53,45
005EC:  DATA 52,56
005EE:  DATA 45,5F
005F0:  DATA 43,48
005F2:  DATA 45,43
005F4:  DATA 4B,20
005F6:  DATA 3D,20
005F8:  DATA 25,78
005FA:  DATA 0D,0A
005FC:  DATA 00,00
005FE:  DATA 4E,45
00600:  DATA 58,54
00602:  DATA 20,46
00604:  DATA 55,4E
00606:  DATA 43,54
00608:  DATA 49,4F
0060A:  DATA 4E,5F
0060C:  DATA 43,4F
0060E:  DATA 4E,54
00610:  DATA 45,4E
00612:  DATA 54,53
00614:  DATA 20,3D
00616:  DATA 20,25
00618:  DATA 78,0D
0061A:  DATA 0A,00
0061C:  DATA 52,45
0061E:  DATA 53,45
00620:  DATA 52,56
00622:  DATA 45,5F
00624:  DATA 54,41
00626:  DATA 52,47
00628:  DATA 45,54
0062A:  DATA 5F,46
0062C:  DATA 4C,41
0062E:  DATA 47,20
00630:  DATA 3D,20
00632:  DATA 25,78
00634:  DATA 0D,0A
00636:  DATA 00,00
00638:  DATA 4E,45
0063A:  DATA 58,54
0063C:  DATA 20,46
0063E:  DATA 55,4E
00640:  DATA 43,54
00642:  DATA 49,4F
00644:  DATA 4E,20
00646:  DATA 44,45
00648:  DATA 54,41
0064A:  DATA 49,4C
0064C:  DATA 20,3D
0064E:  DATA 20,25
00650:  DATA 78,0D
00652:  DATA 0A,00
00654:  DATA 4E,45
00656:  DATA 58,54
00658:  DATA 20,46
0065A:  DATA 55,4E
0065C:  DATA 43,54
0065E:  DATA 49,4F
00660:  DATA 4E,20
00662:  DATA 41,44
00664:  DATA 44,52
00666:  DATA 45,53
00668:  DATA 53,20
0066A:  DATA 3D,20
0066C:  DATA 25,78
0066E:  DATA 25,78
00670:  DATA 25,78
00672:  DATA 25,78
00674:  DATA 0D,0A
00676:  DATA 00,00
00678:  DATA 4E,45
0067A:  DATA 58,54
0067C:  DATA 20,46
0067E:  DATA 55,4E
00680:  DATA 43,54
00682:  DATA 49,4F
00684:  DATA 4E,20
00686:  DATA 50,43
00688:  DATA 4B,54
0068A:  DATA 20,4E
0068C:  DATA 55,4D
0068E:  DATA 42,45
00690:  DATA 52,20
00692:  DATA 3D,20
00694:  DATA 25,78
00696:  DATA 0D,0A
00698:  DATA 00,00
0069A:  DATA 52,45
0069C:  DATA 53,45
0069E:  DATA 52,56
006A0:  DATA 45,5F
006A2:  DATA 4D,49
006A4:  DATA 4E,5F
006A6:  DATA 46,4C
006A8:  DATA 41,47
006AA:  DATA 20,3D
006AC:  DATA 20,25
006AE:  DATA 78,0D
006B0:  DATA 0A,00
006B2:  DATA 54,41
006B4:  DATA 42,4C
006B6:  DATA 45,20
006B8:  DATA 4E,55
006BA:  DATA 4D,20
006BC:  DATA 3D,20
006BE:  DATA 25,78
006C0:  DATA 0D,0A
006C2:  DATA 00,00
006C4:  DATA 52,65
006C6:  DATA 73,65
006C8:  DATA 72,76
006CA:  DATA 61,74
006CC:  DATA 69,6F
006CE:  DATA 6E,20
006D0:  DATA 74,61
006D2:  DATA 62,6C
006D4:  DATA 65,20
006D6:  DATA 69,73
006D8:  DATA 20,46
006DA:  DATA 75,6C
006DC:  DATA 6C,21
006DE:  DATA 0D,0A
006E0:  DATA 0D,0A
006E2:  DATA 00,00
006E4:  DATA 54,61
006E6:  DATA 62,6C
006E8:  DATA 65,20
006EA:  DATA 6E,75
006EC:  DATA 6D,3A
006EE:  DATA 20,25
006F0:  DATA 78,0D
006F2:  DATA 0A,00
006F4:  DATA 52,65
006F6:  DATA 73,65
006F8:  DATA 72,76
006FA:  DATA 61,74
006FC:  DATA 69,6F
006FE:  DATA 6E,20
00700:  DATA 74,61
00702:  DATA 62,6C
00704:  DATA 65,20
00706:  DATA 69,73
00708:  DATA 20,46
0070A:  DATA 75,6C
0070C:  DATA 6C,21
0070E:  DATA 0D,0A
00710:  DATA 0D,0A
00712:  DATA 00,00
00714:  DATA 52,65
00716:  DATA 6D,6F
00718:  DATA 76,65
0071A:  DATA 64,20
0071C:  DATA 66,69
0071E:  DATA 6E,69
00720:  DATA 73,68
00722:  DATA 65,64
00724:  DATA 20,6D
00726:  DATA 69,73
00728:  DATA 73,69
0072A:  DATA 6F,6E
0072C:  DATA 20,63
0072E:  DATA 6F,6D
00730:  DATA 6D,61
00732:  DATA 6E,64
00734:  DATA 3A,00
00736:  DATA 52,65
00738:  DATA 73,65
0073A:  DATA 72,76
0073C:  DATA 65,20
0073E:  DATA 43,4D
00740:  DATA 44,20
00742:  DATA 66,72
00744:  DATA 6F,6D
00746:  DATA 20,43
00748:  DATA 4F,4D
0074A:  DATA 0D,0A
0074C:  DATA 00,00
0074E:  DATA 52,65
00750:  DATA 73,65
00752:  DATA 72,76
00754:  DATA 65,20
00756:  DATA 43,4D
00758:  DATA 44,20
0075A:  DATA 66,72
0075C:  DATA 6F,6D
0075E:  DATA 20,50
00760:  DATA 43,0D
00762:  DATA 0A,00
00764:  DATA 52,65
00766:  DATA 73,65
00768:  DATA 72,76
0076A:  DATA 65,20
0076C:  DATA 6E,65
0076E:  DATA 78,74
00770:  DATA 0D,0A
00772:  DATA 00,00
00774:  DATA 52,65
00776:  DATA 61,64
00778:  DATA 79,20
0077A:  DATA 66,6F
0077C:  DATA 72,20
0077E:  DATA 72,65
00780:  DATA 73,65
00782:  DATA 74,00
00784:  DATA 4C,4F
00786:  DATA 47,20
00788:  DATA 73,61
0078A:  DATA 76,69
0078C:  DATA 6E,67
0078E:  DATA 20,64
00790:  DATA 6F,6E
00792:  DATA 65,0D
00794:  DATA 0A,00
00796:  DATA 45,52
00798:  DATA 41,53
0079A:  DATA 45,20
0079C:  DATA 4F,46
0079E:  DATA 3A,25
007A0:  DATA 78,25
007A2:  DATA 78,25
007A4:  DATA 78,25
007A6:  DATA 78,0D
007A8:  DATA 0A,00
007AA:  DATA 45,52
007AC:  DATA 41,53
007AE:  DATA 45,20
007B0:  DATA 53,43
007B2:  DATA 46,3A
007B4:  DATA 25,78
007B6:  DATA 25,78
007B8:  DATA 25,78
007BA:  DATA 25,78
007BC:  DATA 0D,0A
007BE:  DATA 00,00
007C0:  DATA 45,52
007C2:  DATA 41,53
007C4:  DATA 45,20
007C6:  DATA 53,4D
007C8:  DATA 46,3A
007CA:  DATA 25,78
007CC:  DATA 25,78
007CE:  DATA 25,78
007D0:  DATA 25,78
007D2:  DATA 0D,0A
007D4:  DATA 00,00
007D6:  DATA 74,72
007D8:  DATA 61,6E
007DA:  DATA 73,66
007DC:  DATA 65,72
007DE:  DATA 20,4F
007E0:  DATA 46,32
007E2:  DATA 53,43
007E4:  DATA 46,3A
007E6:  DATA 25,78
007E8:  DATA 25,78
007EA:  DATA 25,78
007EC:  DATA 25,78
007EE:  DATA 0D,0A
007F0:  DATA 00,00
007F2:  DATA 74,72
007F4:  DATA 61,6E
007F6:  DATA 73,66
007F8:  DATA 65,72
007FA:  DATA 20,4F
007FC:  DATA 46,32
007FE:  DATA 53,4D
00800:  DATA 46,3A
00802:  DATA 25,78
00804:  DATA 25,78
00806:  DATA 25,78
00808:  DATA 25,78
0080A:  DATA 0D,0A
0080C:  DATA 00,00
0080E:  DATA 74,72
00810:  DATA 61,6E
00812:  DATA 73,66
00814:  DATA 65,72
00816:  DATA 20,53
00818:  DATA 43,46
0081A:  DATA 32,4F
0081C:  DATA 46,3A
0081E:  DATA 25,78
00820:  DATA 25,78
00822:  DATA 25,78
00824:  DATA 25,78
00826:  DATA 0D,0A
00828:  DATA 00,00
0082A:  DATA 74,72
0082C:  DATA 61,6E
0082E:  DATA 73,66
00830:  DATA 65,72
00832:  DATA 20,53
00834:  DATA 43,46
00836:  DATA 32,53
00838:  DATA 4D,46
0083A:  DATA 3A,25
0083C:  DATA 78,25
0083E:  DATA 78,25
00840:  DATA 78,25
00842:  DATA 78,0D
00844:  DATA 0A,00
00846:  DATA 74,72
00848:  DATA 61,6E
0084A:  DATA 73,66
0084C:  DATA 65,72
0084E:  DATA 20,53
00850:  DATA 4D,46
00852:  DATA 32,4F
00854:  DATA 46,3A
00856:  DATA 25,78
00858:  DATA 25,78
0085A:  DATA 25,78
0085C:  DATA 25,78
0085E:  DATA 0D,0A
00860:  DATA 00,00
00862:  DATA 74,72
00864:  DATA 61,6E
00866:  DATA 73,66
00868:  DATA 65,72
0086A:  DATA 20,53
0086C:  DATA 4D,46
0086E:  DATA 32,53
00870:  DATA 43,46
00872:  DATA 3A,25
00874:  DATA 78,25
00876:  DATA 78,25
00878:  DATA 78,25
0087A:  DATA 78,0D
0087C:  DATA 0A,00
0087E:  DATA 67,69
00880:  DATA 76,69
00882:  DATA 6E,67
00884:  DATA 20,61
00886:  DATA 63,63
00888:  DATA 65,73
0088A:  DATA 73,20
0088C:  DATA 74,6F
0088E:  DATA 20,43
00890:  DATA 4F,4D
00892:  DATA 20,66
00894:  DATA 6F,72
00896:  DATA 20,25
00898:  DATA 64,20
0089A:  DATA 6D,69
0089C:  DATA 6E,0D
0089E:  DATA 0A,00
008A0:  DATA 0D,0A
008A2:  DATA 42,61
008A4:  DATA 63,6B
008A6:  DATA 20,74
008A8:  DATA 6F,20
008AA:  DATA 4E,6F
008AC:  DATA 6D,61
008AE:  DATA 6C,20
008B0:  DATA 4F,70
008B2:  DATA 65,72
008B4:  DATA 61,74
008B6:  DATA 69,6F
008B8:  DATA 6E,0D
008BA:  DATA 0A,00
008BC:  DATA 43,75
008BE:  DATA 72,72
008C0:  DATA 65,6E
008C2:  DATA 74,20
008C4:  DATA 54,65
008C6:  DATA 6D,70
008C8:  DATA 3A,20
008CA:  DATA 25,31
008CC:  DATA 2E,31
008CE:  DATA 66,0D
008D0:  DATA 0A,00
008D2:  DATA 54,75
008D4:  DATA 72,6E
008D6:  DATA 65,64
008D8:  DATA 20,4F
008DA:  DATA 4E,20
008DC:  DATA 42,43
008DE:  DATA 0D,0A
008E0:  DATA 00,00
008E2:  DATA 54,75
008E4:  DATA 72,6E
008E6:  DATA 65,64
008E8:  DATA 20,4F
008EA:  DATA 46,46
008EC:  DATA 20,42
008EE:  DATA 43,0D
008F0:  DATA 0A,00
008F2:  DATA 4D,41
008F4:  DATA 58,49
008F6:  DATA 4D,55
008F8:  DATA 4D,20
008FA:  DATA 54,45
008FC:  DATA 4D,50
008FE:  DATA 45,52
00900:  DATA 41,54
00902:  DATA 55,52
00904:  DATA 45,20
00906:  DATA 69,73
00908:  DATA 20,25
0090A:  DATA 31,2E
0090C:  DATA 31,66
0090E:  DATA 0D,0A
00910:  DATA 0D,0A
00912:  DATA 00,00
00914:  DATA 0D,0A
00916:  DATA 42,43
00918:  DATA 20,41
0091A:  DATA 74,74
0091C:  DATA 65,6D
0091E:  DATA 70,74
00920:  DATA 20,46
00922:  DATA 6C,61
00924:  DATA 67,20
00926:  DATA 63,6C
00928:  DATA 65,61
0092A:  DATA 72,20
0092C:  DATA 64,6F
0092E:  DATA 6E,65
00930:  DATA 0D,0A
00932:  DATA 00,00
00934:  DATA 0D,0A
00936:  DATA 42,43
00938:  DATA 20,41
0093A:  DATA 74,74
0093C:  DATA 65,6D
0093E:  DATA 70,74
00940:  DATA 20,46
00942:  DATA 6C,61
00944:  DATA 67,3A
00946:  DATA 31,0D
00948:  DATA 0A,00
0094A:  DATA 0D,0A
0094C:  DATA 42,43
0094E:  DATA 20,41
00950:  DATA 74,74
00952:  DATA 65,6D
00954:  DATA 70,74
00956:  DATA 20,46
00958:  DATA 6C,61
0095A:  DATA 67,3A
0095C:  DATA 32,0D
0095E:  DATA 0A,00
00960:  DATA 0D,0A
00962:  DATA 42,43
00964:  DATA 20,41
00966:  DATA 74,74
00968:  DATA 65,6D
0096A:  DATA 70,74
0096C:  DATA 20,46
0096E:  DATA 6C,61
00970:  DATA 67,3A
00972:  DATA 33,0D
00974:  DATA 0A,00
00976:  DATA 0D,0A
00978:  DATA 42,43
0097A:  DATA 20,41
0097C:  DATA 74,74
0097E:  DATA 65,6D
00980:  DATA 70,74
00982:  DATA 20,46
00984:  DATA 6C,61
00986:  DATA 67,3A
00988:  DATA 34,0D
0098A:  DATA 0A,00
0098C:  DATA 41,6E
0098E:  DATA 74,20
00990:  DATA 44,65
00992:  DATA 70,20
00994:  DATA 41,74
00996:  DATA 74,65
00998:  DATA 6D,70
0099A:  DATA 74,20
0099C:  DATA 4E,6F
0099E:  DATA 3A,20
009A0:  DATA 25,78
009A2:  DATA 0D,0A
009A4:  DATA 00,00
009A6:  DATA 42,43
009A8:  DATA 20,63
009AA:  DATA 6F,6D
009AC:  DATA 6D,61
009AE:  DATA 6E,64
009B0:  DATA 20,73
009B2:  DATA 65,6E
009B4:  DATA 74,20
009B6:  DATA 74,6F
009B8:  DATA 20,52
009BA:  DATA 45,53
009BC:  DATA 45,54
009BE:  DATA 20,50
009C0:  DATA 49,43
009C2:  DATA 0D,0A
009C4:  DATA 00,00
009C6:  DATA 0D,0A
009C8:  DATA 43,57
009CA:  DATA 20,41
009CC:  DATA 4E,53
009CE:  DATA 3A,00
009D0:  DATA 0D,0A
009D2:  DATA 41,44
009D4:  DATA 43,53
009D6:  DATA 20,44
009D8:  DATA 41,54
009DA:  DATA 41,20
009DC:  DATA 72,65
009DE:  DATA 63,65
009E0:  DATA 69,76
009E2:  DATA 65,64
009E4:  DATA 0D,0A
009E6:  DATA 00,00
009E8:  DATA 0D,0A
009EA:  DATA 41,44
009EC:  DATA 43,53
009EE:  DATA 20,44
009F0:  DATA 41,54
009F2:  DATA 41,20
009F4:  DATA 6E,6F
009F6:  DATA 74,20
009F8:  DATA 72,65
009FA:  DATA 63,65
009FC:  DATA 69,76
009FE:  DATA 65,64
00A00:  DATA 0D,0A
00A02:  DATA 00,00
00A04:  DATA 0D,0A
00A06:  DATA 54,4C
00A08:  DATA 45,3A
00A0A:  DATA 0D,0A
00A0C:  DATA 00,00
00A0E:  DATA 0D,0A
00A10:  DATA 43,57
00A12:  DATA 20,53
00A14:  DATA 41,56
00A16:  DATA 45,44
00A18:  DATA 0D,0A
00A1A:  DATA 00,00
00A1C:  DATA 47,45
00A1E:  DATA 54,20
00A20:  DATA 53,45
00A22:  DATA 4E,53
00A24:  DATA 4F,52
00A26:  DATA 20,44
00A28:  DATA 41,54
00A2A:  DATA 41,0D
00A2C:  DATA 0A,00
00A2E:  DATA 0D,0A
00A30:  DATA 52,45
00A32:  DATA 53,45
00A34:  DATA 54,20
00A36:  DATA 44,41
00A38:  DATA 54,41
00A3A:  DATA 20,4F
00A3C:  DATA 42,54
00A3E:  DATA 41,49
00A40:  DATA 4E,45
00A42:  DATA 44,0D
00A44:  DATA 0A,00
00A46:  DATA 0D,0A
00A48:  DATA 52,45
00A4A:  DATA 53,45
00A4C:  DATA 54,20
00A4E:  DATA 44,41
00A50:  DATA 54,41
00A52:  DATA 20,4E
00A54:  DATA 4F,20
00A56:  DATA 4F,42
00A58:  DATA 54,41
00A5A:  DATA 49,4E
00A5C:  DATA 45,44
00A5E:  DATA 0D,0A
00A60:  DATA 00,00
00A62:  DATA 0D,0A
00A64:  DATA 43,57
00A66:  DATA 3A,0D
00A68:  DATA 0A,00
00A6A:  DATA 0D,0A
00A6C:  DATA 43,6F
00A6E:  DATA 6C,6C
00A70:  DATA 65,63
00A72:  DATA 74,69
00A74:  DATA 6E,67
00A76:  DATA 20,48
00A78:  DATA 4B,20
00A7A:  DATA 61,6E
00A7C:  DATA 64,20
00A7E:  DATA 4D,61
00A80:  DATA 6B,69
00A82:  DATA 6E,67
00A84:  DATA 20,43
00A86:  DATA 57,46
00A88:  DATA 6F,72
00A8A:  DATA 6D,61
00A8C:  DATA 74,20
00A8E:  DATA 44,6F
00A90:  DATA 6E,65
00A92:  DATA 0D,0A
00A94:  DATA 00,00
00A96:  DATA 0D,0A
00A98:  DATA 48,4B
00A9A:  DATA 20,64
00A9C:  DATA 61,74
00A9E:  DATA 61,3A
00AA0:  DATA 0D,0A
00AA2:  DATA 00,00
00AA4:  DATA 0D,0A
00AA6:  DATA 53,45
00AA8:  DATA 4E,53
00AAA:  DATA 4F,52
00AAC:  DATA 53,20
00AAE:  DATA 44,41
00AB0:  DATA 54,41
00AB2:  DATA 20,53
00AB4:  DATA 41,56
00AB6:  DATA 45,44
00AB8:  DATA 20,4F
00ABA:  DATA 4E,20
00ABC:  DATA 46,4C
00ABE:  DATA 41,53
00AC0:  DATA 48,0D
00AC2:  DATA 0A,00
00AC4:  DATA 4E,4F
00AC6:  DATA 20,52
00AC8:  DATA 45,53
00ACA:  DATA 50,4F
00ACC:  DATA 4E,53
00ACE:  DATA 45,20
00AD0:  DATA 46,52
00AD2:  DATA 4F,4D
00AD4:  DATA 20,46
00AD6:  DATA 41,42
00AD8:  DATA 0D,0A
00ADA:  DATA 0D,0A
00ADC:  DATA 00,00
00ADE:  DATA 54,75
00AE0:  DATA 72,6E
00AE2:  DATA 20,4F
00AE4:  DATA 6E,20
00AE6:  DATA 41,44
00AE8:  DATA 43,53
00AEA:  DATA 20,0D
00AEC:  DATA 0A,00
00AEE:  DATA 52,65
00AF0:  DATA 63,65
00AF2:  DATA 69,76
00AF4:  DATA 65,64
00AF6:  DATA 20,41
00AF8:  DATA 43,4B
00AFA:  DATA 20,46
00AFC:  DATA 72,6F
00AFE:  DATA 6D,20
00B00:  DATA 41,44
00B02:  DATA 43,53
00B04:  DATA 0D,0A
00B06:  DATA 00,00
00B08:  DATA 53,65
00B0A:  DATA 6E,74
00B0C:  DATA 20,4F
00B0E:  DATA 50,45
00B10:  DATA 52,41
00B12:  DATA 54,49
00B14:  DATA 4F,4E
00B16:  DATA 20,4D
00B18:  DATA 4F,44
00B1A:  DATA 45,20
00B1C:  DATA 74,6F
00B1E:  DATA 20,41
00B20:  DATA 44,43
00B22:  DATA 53,0D
00B24:  DATA 0A,00
00B26:  DATA 46,41
00B28:  DATA 49,4C
00B2A:  DATA 55,52
00B2C:  DATA 45,44
00B2E:  DATA 20,47
00B30:  DATA 45,54
00B32:  DATA 54,49
00B34:  DATA 4E,47
00B36:  DATA 20,41
00B38:  DATA 43,4B
00B3A:  DATA 20,46
00B3C:  DATA 72,6F
00B3E:  DATA 6D,20
00B40:  DATA 41,44
00B42:  DATA 43,53
00B44:  DATA 0D,0A
00B46:  DATA 00,00
00B48:  DATA 64,6F
00B4A:  DATA 6E,65
00B4C:  DATA 0D,0A
00B4E:  DATA 00,00
00B50:  DATA 53,74
00B52:  DATA 6F,70
00B54:  DATA 20,41
00B56:  DATA 44,43
00B58:  DATA 53,20
00B5A:  DATA 4D,69
00B5C:  DATA 73,73
00B5E:  DATA 69,6F
00B60:  DATA 6E,0D
00B62:  DATA 0A,00
00B64:  DATA 0D,0A
00B66:  DATA 0D,0A
00B68:  DATA 54,75
00B6A:  DATA 72,6E
00B6C:  DATA 65,64
00B6E:  DATA 5F,4F
00B70:  DATA 46,46
00B72:  DATA 5F,41
00B74:  DATA 44,43
00B76:  DATA 53,0D
00B78:  DATA 0A,0D
00B7A:  DATA 0A,0D
00B7C:  DATA 0A,00
00B7E:  DATA 0D,0A
00B80:  DATA 0D,0A
00B82:  DATA 54,75
00B84:  DATA 72,6E
00B86:  DATA 65,64
00B88:  DATA 5F,4F
00B8A:  DATA 4E,5F
00B8C:  DATA 41,44
00B8E:  DATA 43,53
00B90:  DATA 0D,0A
00B92:  DATA 0D,0A
00B94:  DATA 0D,0A
00B96:  DATA 00,00
00B98:  DATA 54,75
00B9A:  DATA 72,6E
00B9C:  DATA 20,4F
00B9E:  DATA 6E,20
00BA0:  DATA 41,44
00BA2:  DATA 43,53
00BA4:  DATA 20,0D
00BA6:  DATA 0A,00
00BA8:  DATA 52,65
00BAA:  DATA 63,65
00BAC:  DATA 69,76
00BAE:  DATA 65,64
00BB0:  DATA 20,41
00BB2:  DATA 43,4B
00BB4:  DATA 20,46
00BB6:  DATA 72,6F
00BB8:  DATA 6D,20
00BBA:  DATA 41,44
00BBC:  DATA 43,53
00BBE:  DATA 0D,0A
00BC0:  DATA 00,00
00BC2:  DATA 53,65
00BC4:  DATA 6E,74
00BC6:  DATA 20,54
00BC8:  DATA 4C,45
00BCA:  DATA 20,64
00BCC:  DATA 61,74
00BCE:  DATA 61,20
00BD0:  DATA 74,6F
00BD2:  DATA 20,41
00BD4:  DATA 44,43
00BD6:  DATA 53,0D
00BD8:  DATA 0A,00
00BDA:  DATA 46,41
00BDC:  DATA 49,4C
00BDE:  DATA 55,52
00BE0:  DATA 45,44
00BE2:  DATA 20,47
00BE4:  DATA 45,54
00BE6:  DATA 54,49
00BE8:  DATA 4E,47
00BEA:  DATA 20,41
00BEC:  DATA 43,4B
00BEE:  DATA 20,46
00BF0:  DATA 72,6F
00BF2:  DATA 6D,20
00BF4:  DATA 41,44
00BF6:  DATA 43,53
00BF8:  DATA 0D,0A
00BFA:  DATA 00,00
00BFC:  DATA 0D,0A
00BFE:  DATA 46,41
00C00:  DATA 42,20
00C02:  DATA 44,41
00C04:  DATA 54,41
00C06:  DATA 20,4F
00C08:  DATA 42,54
00C0A:  DATA 41,49
00C0C:  DATA 4E,45
00C0E:  DATA 44,0D
00C10:  DATA 0A,00
00C12:  DATA 47,45
00C14:  DATA 54,20
00C16:  DATA 52,45
00C18:  DATA 53,45
00C1A:  DATA 54,0D
00C1C:  DATA 0A,00
00C1E:  DATA 4E,4F
00C20:  DATA 20,52
00C22:  DATA 45,53
00C24:  DATA 45,54
00C26:  DATA 0D,0A
00C28:  DATA 00,00
00C2A:  DATA 0D,0A
00C2C:  DATA 39,30
00C2E:  DATA 73,65
00C30:  DATA 63,0D
00C32:  DATA 0A,00
00C34:  DATA 0D,0A
00C36:  DATA 43,4F
00C38:  DATA 55,4E
00C3A:  DATA 54,3A
00C3C:  DATA 25,64
00C3E:  DATA 0D,0A
00C40:  DATA 00,00
00C42:  DATA 0D,0A
00C44:  DATA 43,4F
00C46:  DATA 55,4E
00C48:  DATA 54,3A
00C4A:  DATA 25,64
00C4C:  DATA 0D,0A
00C4E:  DATA 00,00
00C50:  DATA 43,6F
00C52:  DATA 6D,6D
00C54:  DATA 61,6E
00C56:  DATA 64,3A
00C58:  DATA 25,78
00C5A:  DATA 0D,0A
00C5C:  DATA 00,00
00C5E:  DATA 43,41
00C60:  DATA 4D,20
00C62:  DATA 53,74
00C64:  DATA 61,72
00C66:  DATA 74,20
00C68:  DATA 6F,70
00C6A:  DATA 65,72
00C6C:  DATA 61,74
00C6E:  DATA 69,6F
00C70:  DATA 6E,0D
00C72:  DATA 0A,00
00C74:  DATA 44,65
00C76:  DATA 6C,65
00C78:  DATA 74,69
00C7A:  DATA 6E,67
00C7C:  DATA 20,31
00C7E:  DATA 20,73
00C80:  DATA 65,63
00C82:  DATA 74,6F
00C84:  DATA 72,20
00C86:  DATA 53,4D
00C88:  DATA 46,20
00C8A:  DATA 41,64
00C8C:  DATA 64,72
00C8E:  DATA 65,73
00C90:  DATA 73,20
00C92:  DATA 30,30
00C94:  DATA 30,38
00C96:  DATA 30,30
00C98:  DATA 30,30
00C9A:  DATA 0D,0A
00C9C:  DATA 00,00
00C9E:  DATA 54,75
00CA0:  DATA 72,6E
00CA2:  DATA 65,64
00CA4:  DATA 20,4F
00CA6:  DATA 6E,20
00CA8:  DATA 43,41
00CAA:  DATA 4D,20
00CAC:  DATA 61,6E
00CAE:  DATA 64,20
00CB0:  DATA 4D,55
00CB2:  DATA 58,20
00CB4:  DATA 43,41
00CB6:  DATA 4D,20
00CB8:  DATA 73,69
00CBA:  DATA 64,65
00CBC:  DATA 0D,0A
00CBE:  DATA 00,00
00CC0:  DATA 53,65
00CC2:  DATA 6E,64
00CC4:  DATA 69,6E
00CC6:  DATA 67,20
00CC8:  DATA 68,61
00CCA:  DATA 6E,64
00CCC:  DATA 20,73
00CCE:  DATA 68,61
00CD0:  DATA 6B,65
00CD2:  DATA 20,43
00CD4:  DATA 6F,6D
00CD6:  DATA 6D,61
00CD8:  DATA 6E,64
00CDA:  DATA 20,74
00CDC:  DATA 6F,20
00CDE:  DATA 43,41
00CE0:  DATA 4D,0D
00CE2:  DATA 0A,00
00CE4:  DATA 41,43
00CE6:  DATA 4B,20
00CE8:  DATA 72,65
00CEA:  DATA 63,65
00CEC:  DATA 69,76
00CEE:  DATA 65,64
00CF0:  DATA 20,66
00CF2:  DATA 72,6F
00CF4:  DATA 6D,20
00CF6:  DATA 43,41
00CF8:  DATA 4D,0D
00CFA:  DATA 0A,0D
00CFC:  DATA 0A,00
00CFE:  DATA 53,65
00D00:  DATA 6E,64
00D02:  DATA 69,6E
00D04:  DATA 67,20
00D06:  DATA 43,41
00D08:  DATA 4D,20
00D0A:  DATA 4D,4F
00D0C:  DATA 44,45
00D0E:  DATA 20,64
00D10:  DATA 61,74
00D12:  DATA 61,0D
00D14:  DATA 0A,00
00D16:  DATA 43,61
00D18:  DATA 70,74
00D1A:  DATA 75,72
00D1C:  DATA 69,6E
00D1E:  DATA 67,20
00D20:  DATA 61,6E
00D22:  DATA 64,20
00D24:  DATA 73,61
00D26:  DATA 76,69
00D28:  DATA 6E,67
00D2A:  DATA 20,69
00D2C:  DATA 6E,20
00D2E:  DATA 53,46
00D30:  DATA 4D,2E
00D32:  DATA 2E,2E
00D34:  DATA 0D,0A
00D36:  DATA 0D,0A
00D38:  DATA 00,00
00D3A:  DATA 50,48
00D3C:  DATA 4F,54
00D3E:  DATA 4F,20
00D40:  DATA 53,41
00D42:  DATA 56,49
00D44:  DATA 4E,47
00D46:  DATA 20,44
00D48:  DATA 4F,4E
00D4A:  DATA 45,0D
00D4C:  DATA 0A,00
00D4E:  DATA 52,65
00D50:  DATA 61,64
00D52:  DATA 20,61
00D54:  DATA 6E,64
00D56:  DATA 20,54
00D58:  DATA 72,61
00D5A:  DATA 6E,73
00D5C:  DATA 66,65
00D5E:  DATA 72,20
00D60:  DATA 64,61
00D62:  DATA 74,61
00D64:  DATA 20,66
00D66:  DATA 72,6F
00D68:  DATA 6D,20
00D6A:  DATA 53,4D
00D6C:  DATA 46,20
00D6E:  DATA 54,4F
00D70:  DATA 20,53
00D72:  DATA 43,46
00D74:  DATA 20,61
00D76:  DATA 6E,64
00D78:  DATA 20,4F
00D7A:  DATA 46,20
00D7C:  DATA 53,74
00D7E:  DATA 61,72
00D80:  DATA 74,0D
00D82:  DATA 0A,00
00D84:  DATA 43,41
00D86:  DATA 4D,20
00D88:  DATA 44,41
00D8A:  DATA 54,41
00D8C:  DATA 20,53
00D8E:  DATA 41,56
00D90:  DATA 49,4E
00D92:  DATA 47,20
00D94:  DATA 46,41
00D96:  DATA 49,4C
00D98:  DATA 55,52
00D9A:  DATA 45,44
00D9C:  DATA 0D,0A
00D9E:  DATA 00,00
00DA0:  DATA 43,41
00DA2:  DATA 4D,20
00DA4:  DATA 41,43
00DA6:  DATA 4B,20
00DA8:  DATA 46,41
00DAA:  DATA 49,4C
00DAC:  DATA 55,52
00DAE:  DATA 45,44
00DB0:  DATA 0D,0A
00DB2:  DATA 00,00
00DB4:  DATA 54,75
00DB6:  DATA 72,6E
00DB8:  DATA 65,64
00DBA:  DATA 20,4F
00DBC:  DATA 46,46
00DBE:  DATA 20,43
00DC0:  DATA 41,4D
00DC2:  DATA 0D,0A
00DC4:  DATA 00,00
00DC6:  DATA 53,65
00DC8:  DATA 6E,64
00DCA:  DATA 69,6E
00DCC:  DATA 67,20
00DCE:  DATA 68,61
00DD0:  DATA 6E,64
00DD2:  DATA 20,73
00DD4:  DATA 68,61
00DD6:  DATA 6B,65
00DD8:  DATA 20,43
00DDA:  DATA 6F,6D
00DDC:  DATA 6D,61
00DDE:  DATA 6E,64
00DE0:  DATA 20,74
00DE2:  DATA 6F,20
00DE4:  DATA 43,41
00DE6:  DATA 4D,0D
00DE8:  DATA 0A,00
00DEA:  DATA 41,43
00DEC:  DATA 4B,20
00DEE:  DATA 72,65
00DF0:  DATA 63,65
00DF2:  DATA 69,76
00DF4:  DATA 65,64
00DF6:  DATA 20,66
00DF8:  DATA 72,6F
00DFA:  DATA 6D,20
00DFC:  DATA 43,41
00DFE:  DATA 4D,0D
00E00:  DATA 0A,0D
00E02:  DATA 0A,00
00E04:  DATA 53,65
00E06:  DATA 6E,64
00E08:  DATA 69,6E
00E0A:  DATA 67,20
00E0C:  DATA 43,41
00E0E:  DATA 4D,20
00E10:  DATA 4D,4F
00E12:  DATA 44,45
00E14:  DATA 20,64
00E16:  DATA 61,74
00E18:  DATA 61,0D
00E1A:  DATA 0A,00
00E1C:  DATA 43,61
00E1E:  DATA 70,74
00E20:  DATA 75,72
00E22:  DATA 69,6E
00E24:  DATA 67,20
00E26:  DATA 61,6E
00E28:  DATA 64,20
00E2A:  DATA 73,61
00E2C:  DATA 76,69
00E2E:  DATA 6E,67
00E30:  DATA 20,69
00E32:  DATA 6E,20
00E34:  DATA 53,46
00E36:  DATA 4D,2E
00E38:  DATA 2E,2E
00E3A:  DATA 0D,0A
00E3C:  DATA 0D,0A
00E3E:  DATA 00,00
00E40:  DATA 50,48
00E42:  DATA 4F,54
00E44:  DATA 4F,20
00E46:  DATA 25,64
00E48:  DATA 20,53
00E4A:  DATA 41,56
00E4C:  DATA 49,4E
00E4E:  DATA 47,20
00E50:  DATA 44,4F
00E52:  DATA 4E,45
00E54:  DATA 0D,0A
00E56:  DATA 00,00
00E58:  DATA 43,41
00E5A:  DATA 4D,20
00E5C:  DATA 44,41
00E5E:  DATA 54,41
00E60:  DATA 20,53
00E62:  DATA 41,56
00E64:  DATA 49,4E
00E66:  DATA 47,20
00E68:  DATA 46,41
00E6A:  DATA 49,4C
00E6C:  DATA 55,52
00E6E:  DATA 45,44
00E70:  DATA 0D,0A
00E72:  DATA 00,00
00E74:  DATA 43,41
00E76:  DATA 4D,20
00E78:  DATA 41,43
00E7A:  DATA 4B,20
00E7C:  DATA 46,41
00E7E:  DATA 49,4C
00E80:  DATA 55,52
00E82:  DATA 45,44
00E84:  DATA 0D,0A
00E86:  DATA 00,00
00E88:  DATA 54,75
00E8A:  DATA 72,6E
00E8C:  DATA 65,64
00E8E:  DATA 20,4F
00E90:  DATA 46,46
00E92:  DATA 20,43
00E94:  DATA 41,4D
00E96:  DATA 0D,0A
00E98:  DATA 00,00
00E9A:  DATA 54,72
00E9C:  DATA 61,6E
00E9E:  DATA 73,66
00EA0:  DATA 65,72
00EA2:  DATA 72,65
00EA4:  DATA 64,20
00EA6:  DATA 25,6C
00EA8:  DATA 64,20
00EAA:  DATA 42,79
00EAC:  DATA 74,65
00EAE:  DATA 73,00
00EB0:  DATA 73,65
00EB2:  DATA 6E,64
00EB4:  DATA 69,6E
00EB6:  DATA 67,20
00EB8:  DATA 63,6F
00EBA:  DATA 6D,6D
00EBC:  DATA 61,6E
00EBE:  DATA 64,73
00EC0:  DATA 20,74
00EC2:  DATA 6F,20
00EC4:  DATA 4D,42
00EC6:  DATA 50,0D
00EC8:  DATA 0A,00
00ECA:  DATA 52,65
00ECC:  DATA 63,65
00ECE:  DATA 69,76
00ED0:  DATA 65,64
00ED2:  DATA 20,41
00ED4:  DATA 43,4B
00ED6:  DATA 20,46
00ED8:  DATA 72,6F
00EDA:  DATA 6D,20
00EDC:  DATA 4D,42
00EDE:  DATA 50,0D
00EE0:  DATA 0A,00
00EE2:  DATA 54,52
00EE4:  DATA 41,4E
00EE6:  DATA 53,46
00EE8:  DATA 45,52
00EEA:  DATA 52,49
00EEC:  DATA 4E,47
00EEE:  DATA 20,25
00EF0:  DATA 6C,78
00EF2:  DATA 20,50
00EF4:  DATA 41,43
00EF6:  DATA 4B,45
00EF8:  DATA 54,53
00EFA:  DATA 0D,0A
00EFC:  DATA 00,00
00EFE:  DATA 46,41
00F00:  DATA 49,4C
00F02:  DATA 55,52
00F04:  DATA 45,44
00F06:  DATA 20,47
00F08:  DATA 45,54
00F0A:  DATA 54,49
00F0C:  DATA 4E,47
00F0E:  DATA 20,41
00F10:  DATA 43,4B
00F12:  DATA 20,46
00F14:  DATA 72,6F
00F16:  DATA 6D,20
00F18:  DATA 4D,42
00F1A:  DATA 50,0D
00F1C:  DATA 0A,00
00F1E:  DATA 73,65
00F20:  DATA 6E,64
00F22:  DATA 69,6E
00F24:  DATA 67,20
00F26:  DATA 63,6F
00F28:  DATA 6D,6D
00F2A:  DATA 61,6E
00F2C:  DATA 64,73
00F2E:  DATA 20,74
00F30:  DATA 6F,20
00F32:  DATA 4D,42
00F34:  DATA 50,0D
00F36:  DATA 0A,00
00F38:  DATA 52,65
00F3A:  DATA 63,65
00F3C:  DATA 69,76
00F3E:  DATA 65,64
00F40:  DATA 20,41
00F42:  DATA 43,4B
00F44:  DATA 20,46
00F46:  DATA 72,6F
00F48:  DATA 6D,20
00F4A:  DATA 4D,42
00F4C:  DATA 50,0D
00F4E:  DATA 0A,00
00F50:  DATA 46,41
00F52:  DATA 49,4C
00F54:  DATA 55,52
00F56:  DATA 45,44
00F58:  DATA 20,47
00F5A:  DATA 45,54
00F5C:  DATA 54,49
00F5E:  DATA 4E,47
00F60:  DATA 20,41
00F62:  DATA 43,4B
00F64:  DATA 20,46
00F66:  DATA 72,6F
00F68:  DATA 6D,20
00F6A:  DATA 4D,42
00F6C:  DATA 50,0D
00F6E:  DATA 0A,00
00F70:  DATA 50,57
00F72:  DATA 52,20
00F74:  DATA 63,79
00F76:  DATA 63,6C
00F78:  DATA 65,20
00F7A:  DATA 61,6E
00F7C:  DATA 64,20
00F7E:  DATA 73,65
00F80:  DATA 6E,64
00F82:  DATA 69,6E
00F84:  DATA 67,20
00F86:  DATA 63,6F
00F88:  DATA 6D,6D
00F8A:  DATA 61,6E
00F8C:  DATA 64,73
00F8E:  DATA 20,61
00F90:  DATA 67,61
00F92:  DATA 69,6E
00F94:  DATA 0D,0A
00F96:  DATA 00,00
00F98:  DATA 4B,69
00F9A:  DATA 6C,6C
00F9C:  DATA 20,63
00F9E:  DATA 6F,75
00FA0:  DATA 6E,74
00FA2:  DATA 65,72
00FA4:  DATA 3A,20
00FA6:  DATA 25,78
00FA8:  DATA 0D,0A
00FAA:  DATA 00,00
00FAC:  DATA 4B,69
00FAE:  DATA 6C,6C
00FB0:  DATA 20,63
00FB2:  DATA 6F,75
00FB4:  DATA 6E,74
00FB6:  DATA 65,72
00FB8:  DATA 3A,20
00FBA:  DATA 25,78
00FBC:  DATA 0D,0A
00FBE:  DATA 00,00
00FC0:  DATA 73,65
00FC2:  DATA 6E,64
00FC4:  DATA 69,6E
00FC6:  DATA 67,20
00FC8:  DATA 42,43
00FCA:  DATA 20,63
00FCC:  DATA 6F,6D
00FCE:  DATA 6D,61
00FD0:  DATA 6E,64
00FD2:  DATA 20,74
00FD4:  DATA 6F,20
00FD6:  DATA 52,45
00FD8:  DATA 53,45
00FDA:  DATA 54,20
00FDC:  DATA 50,49
00FDE:  DATA 43,0D
00FE0:  DATA 0A,00
00FE2:  DATA 48,53
00FE4:  DATA 53,43
00FE6:  DATA 20,44
00FE8:  DATA 4F,4E
00FEA:  DATA 45,0D
00FEC:  DATA 0A,00
00FEE:  DATA 2C,41
00FF0:  DATA 55,54
00FF2:  DATA 4F,0D
00FF4:  DATA 0A,00
00FF6:  DATA 2C,4E
00FF8:  DATA 4F,52
00FFA:  DATA 4D,41
00FFC:  DATA 4C,0D
00FFE:  DATA 0A,00
01000:  DATA 0D,0A
01002:  DATA 73,65
01004:  DATA 6E,64
01006:  DATA 69,6E
01008:  DATA 67,20
0100A:  DATA 53,59
0100C:  DATA 4E,43
0100E:  DATA 20,74
01010:  DATA 69,6D
01012:  DATA 65,20
01014:  DATA 74,6F
01016:  DATA 20,4D
01018:  DATA 42,50
0101A:  DATA 0D,0A
0101C:  DATA 00,00
0101E:  DATA 54,69
01020:  DATA 6D,65
01022:  DATA 20,72
01024:  DATA 65,63
01026:  DATA 65,69
01028:  DATA 76,65
0102A:  DATA 64,20
0102C:  DATA 66,72
0102E:  DATA 6F,6D
01030:  DATA 20,52
01032:  DATA 45,53
01034:  DATA 45,54
01036:  DATA 0D,0A
01038:  DATA 00,00
0103A:  DATA 4E,4F
0103C:  DATA 20,52
0103E:  DATA 45,53
01040:  DATA 45,54
01042:  DATA 20,74
01044:  DATA 69,6D
01046:  DATA 65,0D
01048:  DATA 0A,00
0104A:  DATA 54,69
0104C:  DATA 6D,65
0104E:  DATA 20,52
01050:  DATA 65,63
01052:  DATA 65,69
01054:  DATA 76,65
01056:  DATA 64,20
01058:  DATA 66,6F
0105A:  DATA 72,20
0105C:  DATA 4D,42
0105E:  DATA 50,0D
01060:  DATA 0A,00
01062:  DATA 46,41
01064:  DATA 49,4C
01066:  DATA 55,52
01068:  DATA 45,44
0106A:  DATA 20,47
0106C:  DATA 45,54
0106E:  DATA 54,49
01070:  DATA 4E,47
01072:  DATA 20,41
01074:  DATA 43,4B
01076:  DATA 20,46
01078:  DATA 72,6F
0107A:  DATA 6D,20
0107C:  DATA 4D,42
0107E:  DATA 50,0D
01080:  DATA 0A,00
01082:  DATA 53,65
01084:  DATA 6E,74
01086:  DATA 20,43
01088:  DATA 4D,44
0108A:  DATA 20,48
0108C:  DATA 65,61
0108E:  DATA 74,65
01090:  DATA 72,20
01092:  DATA 4F,4E
01094:  DATA 0D,0A
01096:  DATA 00,00
01098:  DATA 53,65
0109A:  DATA 6E,74
0109C:  DATA 20,43
0109E:  DATA 4D,44
010A0:  DATA 20,48
010A2:  DATA 65,61
010A4:  DATA 74,65
010A6:  DATA 72,20
010A8:  DATA 4F,46
010AA:  DATA 46,0D
010AC:  DATA 0A,00
010AE:  DATA 53,65
010B0:  DATA 6E,74
010B2:  DATA 20,43
010B4:  DATA 4D,44
010B6:  DATA 20,48
010B8:  DATA 65,61
010BA:  DATA 74,65
010BC:  DATA 72,20
010BE:  DATA 41,55
010C0:  DATA 54,4F
010C2:  DATA 0D,0A
010C4:  DATA 00,00
010C6:  DATA 53,65
010C8:  DATA 6E,74
010CA:  DATA 20,43
010CC:  DATA 4D,44
010CE:  DATA 20,74
010D0:  DATA 6F,20
010D2:  DATA 43,4F
010D4:  DATA 4D,20
010D6:  DATA 66,6F
010D8:  DATA 72,20
010DA:  DATA 64,61
010DC:  DATA 74,61
010DE:  DATA 20,64
010E0:  DATA 6F,77
010E2:  DATA 6E,6C
010E4:  DATA 6F,61
010E6:  DATA 64,0D
010E8:  DATA 0A,00
010EA:  DATA 53,65
010EC:  DATA 6E,74
010EE:  DATA 20,43
010F0:  DATA 4D,44
010F2:  DATA 20,48
010F4:  DATA 65,61
010F6:  DATA 74,65
010F8:  DATA 72,20
010FA:  DATA 4F,4E
010FC:  DATA 0D,0A
010FE:  DATA 00,00
01100:  DATA 53,65
01102:  DATA 6E,74
01104:  DATA 20,43
01106:  DATA 4D,44
01108:  DATA 20,48
0110A:  DATA 65,61
0110C:  DATA 74,65
0110E:  DATA 72,20
01110:  DATA 4F,46
01112:  DATA 46,0D
01114:  DATA 0A,00
01116:  DATA 53,65
01118:  DATA 6E,74
0111A:  DATA 20,43
0111C:  DATA 4D,44
0111E:  DATA 20,48
01120:  DATA 65,61
01122:  DATA 74,65
01124:  DATA 72,20
01126:  DATA 41,55
01128:  DATA 54,4F
0112A:  DATA 0D,0A
0112C:  DATA 00,00
0112E:  DATA 53,65
01130:  DATA 6E,74
01132:  DATA 20,43
01134:  DATA 4D,44
01136:  DATA 20,74
01138:  DATA 6F,20
0113A:  DATA 43,4F
0113C:  DATA 4D,20
0113E:  DATA 66,6F
01140:  DATA 72,20
01142:  DATA 64,61
01144:  DATA 74,61
01146:  DATA 20,64
01148:  DATA 6F,77
0114A:  DATA 6E,6C
0114C:  DATA 6F,61
0114E:  DATA 64,0D
01150:  DATA 0A,00
*
011FE:  MOVLB  3
01200:  MOVF   x7A,W
01202:  CLRF   01
01204:  SUBWF  x79,W
01206:  BC    120E
01208:  MOVFF  379,00
0120C:  BRA    1226
0120E:  CLRF   00
01210:  MOVLW  08
01212:  MOVWF  x7B
01214:  RLCF   x79,F
01216:  RLCF   00,F
01218:  MOVF   x7A,W
0121A:  SUBWF  00,W
0121C:  BTFSC  FD8.0
0121E:  MOVWF  00
01220:  RLCF   01,F
01222:  DECFSZ x7B,F
01224:  BRA    1214
01226:  MOVLB  0
01228:  RETURN 0
*
012A4:  DATA 53,74
012A6:  DATA 61,72
012A8:  DATA 74,20
012AA:  DATA 4F,70
012AC:  DATA 65,72
012AE:  DATA 61,74
012B0:  DATA 69,6E
012B2:  DATA 67,0D
012B4:  DATA 0A,00
012B6:  DATA 0D,0A
012B8:  DATA 43,57
012BA:  DATA 3A,00
012BC:  DATA 0D,0A
012BE:  DATA 2A,2A
012C0:  DATA 2A,39
012C2:  DATA 30,73
012C4:  DATA 65,63
012C6:  DATA 20,70
012C8:  DATA 61,73
012CA:  DATA 73,65
012CC:  DATA 64,2A
012CE:  DATA 2A,2A
012D0:  DATA 0D,0A
012D2:  DATA 00,00
012D4:  DATA 43,57
012D6:  DATA 3A,00
012D8:  DATA 45,78
012DA:  DATA 65,63
012DC:  DATA 75,74
012DE:  DATA 65,20
012E0:  DATA 72,65
012E2:  DATA 73,65
012E4:  DATA 72,76
012E6:  DATA 65,64
012E8:  DATA 20,63
012EA:  DATA 6F,6D
012EC:  DATA 6D,61
012EE:  DATA 6E,64
012F0:  DATA 0D,0A
012F2:  DATA 00,00
012F4:  DATA 43,4F
012F6:  DATA 4D,20
012F8:  DATA 43,4F
012FA:  DATA 4D,4D
012FC:  DATA 41,4E
012FE:  DATA 44,3A
01300:  DATA 0D,0A
01302:  DATA 00,00
01304:  DATA 43,4F
01306:  DATA 4D,4D
01308:  DATA 41,4E
0130A:  DATA 44,20
0130C:  DATA 52,45
0130E:  DATA 43,45
01310:  DATA 49,56
01312:  DATA 45,44
01314:  DATA 20,46
01316:  DATA 52,4F
01318:  DATA 4D,20
0131A:  DATA 50,43
0131C:  DATA 3A,20
0131E:  DATA 00,00
*
017AE:  TBLRD*+
017B0:  MOVFF  FF6,363
017B4:  MOVFF  FF7,364
017B8:  MOVFF  FF8,365
017BC:  MOVF   FF5,W
017BE:  BTFSS  F9E.4
017C0:  BRA    17BE
017C2:  MOVWF  FAD
017C4:  MOVFF  363,FF6
017C8:  MOVFF  364,FF7
017CC:  MOVFF  365,FF8
017D0:  MOVLB  3
017D2:  DECFSZ x62,F
017D4:  BRA    17D8
017D6:  BRA    17DC
017D8:  MOVLB  0
017DA:  BRA    17AE
017DC:  MOVLB  0
017DE:  RETURN 0
017E0:  MOVLB  3
017E2:  BTFSC  x64.7
017E4:  BRA    1806
017E6:  MOVLW  0F
017E8:  MOVWF  00
017EA:  SWAPF  x63,W
017EC:  ANDWF  00,F
017EE:  MOVLW  0A
017F0:  SUBWF  00,W
017F2:  BC    17FA
017F4:  MOVLW  30
017F6:  ADDWF  00,F
017F8:  BRA    17FE
017FA:  MOVF   x64,W
017FC:  ADDWF  00,F
017FE:  MOVF   00,W
01800:  BTFSS  F9E.4
01802:  BRA    1800
01804:  MOVWF  FAD
01806:  MOVLW  0F
01808:  ANDWF  x63,F
0180A:  MOVLW  0A
0180C:  SUBWF  x63,W
0180E:  BC    1814
01810:  MOVLW  30
01812:  BRA    1818
01814:  BCF    x64.7
01816:  MOVF   x64,W
01818:  ADDWF  x63,F
0181A:  MOVF   x63,W
0181C:  BTFSS  F9E.4
0181E:  BRA    181C
01820:  MOVWF  FAD
01822:  MOVLB  0
01824:  RETURN 0
*
0318C:  TBLRD*+
0318E:  MOVF   FF5,F
03190:  BZ    31B4
03192:  MOVFF  FF6,362
03196:  MOVFF  FF7,363
0319A:  MOVFF  FF8,364
0319E:  MOVF   FF5,W
031A0:  BTFSS  F9E.4
031A2:  BRA    31A0
031A4:  MOVWF  FAD
031A6:  MOVFF  362,FF6
031AA:  MOVFF  363,FF7
031AE:  MOVFF  364,FF8
031B2:  BRA    318C
031B4:  RETURN 0
*
04A1E:  MOVLW  8E
04A20:  MOVWF  00
04A22:  MOVFF  347,01
04A26:  MOVFF  346,02
04A2A:  CLRF   03
04A2C:  BTFSS  01.7
04A2E:  BRA    4A3A
04A30:  COMF   01,F
04A32:  COMF   02,F
04A34:  INCF   02,F
04A36:  BNZ   4A3A
04A38:  INCF   01,F
04A3A:  MOVF   01,F
04A3C:  BNZ   4A50
04A3E:  MOVFF  02,01
04A42:  CLRF   02
04A44:  MOVLW  08
04A46:  SUBWF  00,F
04A48:  MOVF   01,F
04A4A:  BNZ   4A50
04A4C:  CLRF   00
04A4E:  BRA    4A6C
04A50:  BCF    FD8.0
04A52:  BTFSC  01.7
04A54:  BRA    4A5E
04A56:  RLCF   02,F
04A58:  RLCF   01,F
04A5A:  DECF   00,F
04A5C:  BRA    4A50
04A5E:  MOVLB  3
04A60:  BTFSS  x47.7
04A62:  BRA    4A68
04A64:  MOVLB  0
04A66:  BRA    4A6C
04A68:  BCF    01.7
04A6A:  MOVLB  0
04A6C:  RETURN 0
04A6E:  MOVLB  3
04A70:  MOVF   x4E,W
04A72:  BTFSC  FD8.2
04A74:  BRA    4B58
04A76:  MOVWF  00
04A78:  MOVF   x52,W
04A7A:  BTFSC  FD8.2
04A7C:  BRA    4B58
04A7E:  ADDWF  00,F
04A80:  BNC   4A8A
04A82:  MOVLW  81
04A84:  ADDWF  00,F
04A86:  BC    4B58
04A88:  BRA    4A92
04A8A:  MOVLW  7F
04A8C:  SUBWF  00,F
04A8E:  BNC   4B58
04A90:  BZ    4B58
04A92:  MOVFF  34F,356
04A96:  MOVF   x53,W
04A98:  XORWF  x56,F
04A9A:  BSF    x4F.7
04A9C:  BSF    x53.7
04A9E:  MOVF   x51,W
04AA0:  MULWF  x55
04AA2:  MOVFF  FF4,358
04AA6:  MOVF   x50,W
04AA8:  MULWF  x54
04AAA:  MOVFF  FF4,03
04AAE:  MOVFF  FF3,357
04AB2:  MULWF  x55
04AB4:  MOVF   FF3,W
04AB6:  ADDWF  x58,F
04AB8:  MOVF   FF4,W
04ABA:  ADDWFC x57,F
04ABC:  MOVLW  00
04ABE:  ADDWFC 03,F
04AC0:  MOVF   x51,W
04AC2:  MULWF  x54
04AC4:  MOVF   FF3,W
04AC6:  ADDWF  x58,F
04AC8:  MOVF   FF4,W
04ACA:  ADDWFC x57,F
04ACC:  MOVLW  00
04ACE:  CLRF   02
04AD0:  ADDWFC 03,F
04AD2:  ADDWFC 02,F
04AD4:  MOVF   x4F,W
04AD6:  MULWF  x55
04AD8:  MOVF   FF3,W
04ADA:  ADDWF  x57,F
04ADC:  MOVF   FF4,W
04ADE:  ADDWFC 03,F
04AE0:  MOVLW  00
04AE2:  ADDWFC 02,F
04AE4:  MOVF   x4F,W
04AE6:  MULWF  x54
04AE8:  MOVF   FF3,W
04AEA:  ADDWF  03,F
04AEC:  MOVF   FF4,W
04AEE:  ADDWFC 02,F
04AF0:  MOVLW  00
04AF2:  CLRF   01
04AF4:  ADDWFC 01,F
04AF6:  MOVF   x51,W
04AF8:  MULWF  x53
04AFA:  MOVF   FF3,W
04AFC:  ADDWF  x57,F
04AFE:  MOVF   FF4,W
04B00:  ADDWFC 03,F
04B02:  MOVLW  00
04B04:  ADDWFC 02,F
04B06:  ADDWFC 01,F
04B08:  MOVF   x50,W
04B0A:  MULWF  x53
04B0C:  MOVF   FF3,W
04B0E:  ADDWF  03,F
04B10:  MOVF   FF4,W
04B12:  ADDWFC 02,F
04B14:  MOVLW  00
04B16:  ADDWFC 01,F
04B18:  MOVF   x4F,W
04B1A:  MULWF  x53
04B1C:  MOVF   FF3,W
04B1E:  ADDWF  02,F
04B20:  MOVF   FF4,W
04B22:  ADDWFC 01,F
04B24:  INCF   00,F
04B26:  BTFSC  01.7
04B28:  BRA    4B34
04B2A:  RLCF   x57,F
04B2C:  RLCF   03,F
04B2E:  RLCF   02,F
04B30:  RLCF   01,F
04B32:  DECF   00,F
04B34:  MOVLW  00
04B36:  BTFSS  x57.7
04B38:  BRA    4B4E
04B3A:  INCF   03,F
04B3C:  ADDWFC 02,F
04B3E:  ADDWFC 01,F
04B40:  MOVF   01,W
04B42:  BNZ   4B4E
04B44:  MOVF   02,W
04B46:  BNZ   4B4E
04B48:  MOVF   03,W
04B4A:  BNZ   4B4E
04B4C:  INCF   00,F
04B4E:  BTFSC  x56.7
04B50:  BSF    01.7
04B52:  BTFSS  x56.7
04B54:  BCF    01.7
04B56:  BRA    4B60
04B58:  CLRF   00
04B5A:  CLRF   01
04B5C:  CLRF   02
04B5E:  CLRF   03
04B60:  MOVLB  0
04B62:  RETURN 0
04B64:  MOVLW  80
04B66:  BTFSS  FD8.1
04B68:  BRA    4B6E
04B6A:  MOVLB  3
04B6C:  XORWF  x4F,F
04B6E:  MOVLB  3
04B70:  CLRF   x54
04B72:  CLRF   x55
04B74:  MOVFF  34B,353
04B78:  MOVF   x4F,W
04B7A:  XORWF  x53,F
04B7C:  MOVF   x4A,W
04B7E:  BTFSC  FD8.2
04B80:  BRA    4D40
04B82:  MOVWF  x52
04B84:  MOVWF  00
04B86:  MOVF   x4E,W
04B88:  BTFSC  FD8.2
04B8A:  BRA    4D52
04B8C:  SUBWF  x52,F
04B8E:  BTFSC  FD8.2
04B90:  BRA    4C98
04B92:  BNC   4C10
04B94:  MOVFF  34F,358
04B98:  BSF    x58.7
04B9A:  MOVFF  350,357
04B9E:  MOVFF  351,356
04BA2:  CLRF   x55
04BA4:  BCF    FD8.0
04BA6:  RRCF   x58,F
04BA8:  RRCF   x57,F
04BAA:  RRCF   x56,F
04BAC:  RRCF   x55,F
04BAE:  DECFSZ x52,F
04BB0:  BRA    4BA2
04BB2:  BTFSS  x53.7
04BB4:  BRA    4BBC
04BB6:  BSF    x54.0
04BB8:  BRA    4D7A
04BBA:  BCF    x54.0
04BBC:  BCF    x52.0
04BBE:  BSF    x54.4
04BC0:  MOVLW  03
04BC2:  MOVWF  FEA
04BC4:  MOVLW  4D
04BC6:  MOVWF  FE9
04BC8:  BRA    4DA0
04BCA:  BCF    x54.4
04BCC:  BTFSC  x53.7
04BCE:  BRA    4BE4
04BD0:  BTFSS  x52.0
04BD2:  BRA    4BFA
04BD4:  RRCF   x58,F
04BD6:  RRCF   x57,F
04BD8:  RRCF   x56,F
04BDA:  RRCF   x55,F
04BDC:  INCF   00,F
04BDE:  BTFSC  FD8.2
04BE0:  BRA    4D70
04BE2:  BRA    4BFA
04BE4:  BTFSC  x58.7
04BE6:  BRA    4C00
04BE8:  BCF    FD8.0
04BEA:  RLCF   x55,F
04BEC:  RLCF   x56,F
04BEE:  RLCF   x57,F
04BF0:  RLCF   x58,F
04BF2:  DECF   00,F
04BF4:  BTFSC  FD8.2
04BF6:  BRA    4D70
04BF8:  BRA    4BE4
04BFA:  BSF    x54.6
04BFC:  BRA    4CD8
04BFE:  BCF    x54.6
04C00:  MOVFF  34B,353
04C04:  BTFSS  x4B.7
04C06:  BRA    4C0C
04C08:  BSF    x58.7
04C0A:  BRA    4D62
04C0C:  BCF    x58.7
04C0E:  BRA    4D62
04C10:  MOVFF  34E,352
04C14:  MOVFF  34E,00
04C18:  MOVF   x4A,W
04C1A:  SUBWF  x52,F
04C1C:  MOVFF  34B,358
04C20:  BSF    x58.7
04C22:  MOVFF  34C,357
04C26:  MOVFF  34D,356
04C2A:  CLRF   x55
04C2C:  BCF    FD8.0
04C2E:  RRCF   x58,F
04C30:  RRCF   x57,F
04C32:  RRCF   x56,F
04C34:  RRCF   x55,F
04C36:  DECFSZ x52,F
04C38:  BRA    4C2A
04C3A:  BTFSS  x53.7
04C3C:  BRA    4C44
04C3E:  BSF    x54.1
04C40:  BRA    4D7A
04C42:  BCF    x54.1
04C44:  BCF    x52.0
04C46:  BSF    x54.5
04C48:  MOVLW  03
04C4A:  MOVWF  FEA
04C4C:  MOVLW  51
04C4E:  MOVWF  FE9
04C50:  BRA    4DA0
04C52:  BCF    x54.5
04C54:  BTFSC  x53.7
04C56:  BRA    4C6C
04C58:  BTFSS  x52.0
04C5A:  BRA    4C82
04C5C:  RRCF   x58,F
04C5E:  RRCF   x57,F
04C60:  RRCF   x56,F
04C62:  RRCF   x55,F
04C64:  INCF   00,F
04C66:  BTFSC  FD8.2
04C68:  BRA    4D70
04C6A:  BRA    4C82
04C6C:  BTFSC  x58.7
04C6E:  BRA    4C88
04C70:  BCF    FD8.0
04C72:  RLCF   x55,F
04C74:  RLCF   x56,F
04C76:  RLCF   x57,F
04C78:  RLCF   x58,F
04C7A:  DECF   00,F
04C7C:  BTFSC  FD8.2
04C7E:  BRA    4D70
04C80:  BRA    4C6C
04C82:  BSF    x54.7
04C84:  BRA    4CD8
04C86:  BCF    x54.7
04C88:  MOVFF  34F,353
04C8C:  BTFSS  x4F.7
04C8E:  BRA    4C94
04C90:  BSF    x58.7
04C92:  BRA    4D62
04C94:  BCF    x58.7
04C96:  BRA    4D62
04C98:  MOVFF  34F,358
04C9C:  BSF    x58.7
04C9E:  MOVFF  350,357
04CA2:  MOVFF  351,356
04CA6:  BTFSS  x53.7
04CA8:  BRA    4CB2
04CAA:  BCF    x58.7
04CAC:  BSF    x54.2
04CAE:  BRA    4D7A
04CB0:  BCF    x54.2
04CB2:  CLRF   x55
04CB4:  BCF    x52.0
04CB6:  MOVLW  03
04CB8:  MOVWF  FEA
04CBA:  MOVLW  4D
04CBC:  MOVWF  FE9
04CBE:  BRA    4DA0
04CC0:  BTFSC  x53.7
04CC2:  BRA    4CFC
04CC4:  MOVFF  34B,353
04CC8:  BTFSS  x52.0
04CCA:  BRA    4CD8
04CCC:  RRCF   x58,F
04CCE:  RRCF   x57,F
04CD0:  RRCF   x56,F
04CD2:  RRCF   x55,F
04CD4:  INCF   00,F
04CD6:  BZ    4D70
04CD8:  BTFSS  x55.7
04CDA:  BRA    4CF2
04CDC:  INCF   x56,F
04CDE:  BNZ   4CF2
04CE0:  INCF   x57,F
04CE2:  BNZ   4CF2
04CE4:  INCF   x58,F
04CE6:  BNZ   4CF2
04CE8:  RRCF   x58,F
04CEA:  RRCF   x57,F
04CEC:  RRCF   x56,F
04CEE:  INCF   00,F
04CF0:  BZ    4D70
04CF2:  BTFSC  x54.6
04CF4:  BRA    4BFE
04CF6:  BTFSC  x54.7
04CF8:  BRA    4C86
04CFA:  BRA    4D34
04CFC:  MOVLW  80
04CFE:  XORWF  x58,F
04D00:  BTFSS  x58.7
04D02:  BRA    4D0C
04D04:  BRA    4D7A
04D06:  MOVFF  34F,353
04D0A:  BRA    4D20
04D0C:  MOVFF  34B,353
04D10:  MOVF   x58,F
04D12:  BNZ   4D20
04D14:  MOVF   x57,F
04D16:  BNZ   4D20
04D18:  MOVF   x56,F
04D1A:  BNZ   4D20
04D1C:  CLRF   00
04D1E:  BRA    4D62
04D20:  BTFSC  x58.7
04D22:  BRA    4D34
04D24:  BCF    FD8.0
04D26:  RLCF   x55,F
04D28:  RLCF   x56,F
04D2A:  RLCF   x57,F
04D2C:  RLCF   x58,F
04D2E:  DECFSZ 00,F
04D30:  BRA    4D20
04D32:  BRA    4D70
04D34:  BTFSS  x53.7
04D36:  BRA    4D3C
04D38:  BSF    x58.7
04D3A:  BRA    4D62
04D3C:  BCF    x58.7
04D3E:  BRA    4D62
04D40:  MOVFF  34E,00
04D44:  MOVFF  34F,358
04D48:  MOVFF  350,357
04D4C:  MOVFF  351,356
04D50:  BRA    4D62
04D52:  MOVFF  34A,00
04D56:  MOVFF  34B,358
04D5A:  MOVFF  34C,357
04D5E:  MOVFF  34D,356
04D62:  MOVFF  358,01
04D66:  MOVFF  357,02
04D6A:  MOVFF  356,03
04D6E:  BRA    4DD8
04D70:  CLRF   00
04D72:  CLRF   01
04D74:  CLRF   02
04D76:  CLRF   03
04D78:  BRA    4DD8
04D7A:  CLRF   x55
04D7C:  COMF   x56,F
04D7E:  COMF   x57,F
04D80:  COMF   x58,F
04D82:  COMF   x55,F
04D84:  INCF   x55,F
04D86:  BNZ   4D92
04D88:  INCF   x56,F
04D8A:  BNZ   4D92
04D8C:  INCF   x57,F
04D8E:  BNZ   4D92
04D90:  INCF   x58,F
04D92:  BTFSC  x54.0
04D94:  BRA    4BBA
04D96:  BTFSC  x54.1
04D98:  BRA    4C42
04D9A:  BTFSC  x54.2
04D9C:  BRA    4CB0
04D9E:  BRA    4D06
04DA0:  MOVF   FEF,W
04DA2:  ADDWF  x56,F
04DA4:  BNC   4DB0
04DA6:  INCF   x57,F
04DA8:  BNZ   4DB0
04DAA:  INCF   x58,F
04DAC:  BTFSC  FD8.2
04DAE:  BSF    x52.0
04DB0:  MOVF   FED,F
04DB2:  MOVF   FEF,W
04DB4:  ADDWF  x57,F
04DB6:  BNC   4DBE
04DB8:  INCF   x58,F
04DBA:  BTFSC  FD8.2
04DBC:  BSF    x52.0
04DBE:  MOVF   FED,F
04DC0:  MOVF   FEF,W
04DC2:  BTFSC  FEF.7
04DC4:  BRA    4DC8
04DC6:  XORLW  80
04DC8:  ADDWF  x58,F
04DCA:  BTFSC  FD8.0
04DCC:  BSF    x52.0
04DCE:  BTFSC  x54.4
04DD0:  BRA    4BCA
04DD2:  BTFSC  x54.5
04DD4:  BRA    4C52
04DD6:  BRA    4CC0
04DD8:  MOVLB  0
04DDA:  RETURN 0
04DDC:  MOVLW  8E
04DDE:  MOVWF  00
04DE0:  MOVLB  3
04DE2:  MOVF   x46,W
04DE4:  SUBWF  00,F
04DE6:  MOVFF  347,02
04DEA:  MOVFF  348,01
04DEE:  BSF    02.7
04DF0:  MOVF   00,F
04DF2:  BZ    4E06
04DF4:  BCF    FD8.0
04DF6:  MOVF   02,F
04DF8:  BNZ   4DFE
04DFA:  MOVF   01,F
04DFC:  BZ    4E06
04DFE:  RRCF   02,F
04E00:  RRCF   01,F
04E02:  DECFSZ 00,F
04E04:  BRA    4DF4
04E06:  BTFSS  x47.7
04E08:  BRA    4E14
04E0A:  COMF   01,F
04E0C:  COMF   02,F
04E0E:  INCF   01,F
04E10:  BTFSC  FD8.2
04E12:  INCF   02,F
04E14:  MOVLB  0
04E16:  RETURN 0
*
058F0:  MOVLW  C0
058F2:  ANDWF  FF6,F
058F4:  MOVLW  3F
058F6:  MOVWF  00
058F8:  TBLRD*
058FA:  TBLWT*+
058FC:  DECFSZ 00,F
058FE:  BRA    58F8
05900:  TBLRD*
05902:  TBLWT*
05904:  RETURN 0
05906:  MOVF   FF2,W
05908:  MOVWF  03
0590A:  BCF    FF2.7
0590C:  BSF    F7F.2
0590E:  MOVLB  F
05910:  MOVLW  55
05912:  MOVWF  F7E
05914:  MOVLW  AA
05916:  MOVWF  F7E
05918:  BSF    F7F.1
0591A:  NOP   
0591C:  MOVF   03,W
0591E:  IORWF  FF2,F
05920:  MOVLB  0
05922:  RETURN 0
*
05E24:  MOVLW  8E
05E26:  MOVWF  00
05E28:  MOVFF  342,01
05E2C:  MOVFF  341,02
05E30:  CLRF   03
05E32:  MOVF   01,F
05E34:  BNZ   5E48
05E36:  MOVFF  02,01
05E3A:  CLRF   02
05E3C:  MOVLW  08
05E3E:  SUBWF  00,F
05E40:  MOVF   01,F
05E42:  BNZ   5E48
05E44:  CLRF   00
05E46:  BRA    5E58
05E48:  BCF    FD8.0
05E4A:  BTFSC  01.7
05E4C:  BRA    5E56
05E4E:  RLCF   02,F
05E50:  RLCF   01,F
05E52:  DECF   00,F
05E54:  BRA    5E48
05E56:  BCF    01.7
05E58:  GOTO   6308 (RETURN)
05E5C:  MOVLB  3
05E5E:  MOVF   x45,W
05E60:  BTFSC  FD8.2
05E62:  BRA    5FAE
05E64:  MOVWF  x51
05E66:  MOVF   x49,W
05E68:  BTFSC  FD8.2
05E6A:  BRA    5FAE
05E6C:  SUBWF  x51,F
05E6E:  BNC   5E7A
05E70:  MOVLW  7F
05E72:  ADDWF  x51,F
05E74:  BTFSC  FD8.0
05E76:  BRA    5FAE
05E78:  BRA    5E86
05E7A:  MOVLW  81
05E7C:  SUBWF  x51,F
05E7E:  BTFSS  FD8.0
05E80:  BRA    5FAE
05E82:  BTFSC  FD8.2
05E84:  BRA    5FAE
05E86:  MOVFF  351,00
05E8A:  CLRF   01
05E8C:  CLRF   02
05E8E:  CLRF   03
05E90:  CLRF   x50
05E92:  MOVFF  346,34F
05E96:  BSF    x4F.7
05E98:  MOVFF  347,34E
05E9C:  MOVFF  348,34D
05EA0:  MOVLW  19
05EA2:  MOVWF  x51
05EA4:  MOVF   x4C,W
05EA6:  SUBWF  x4D,F
05EA8:  BC    5EC4
05EAA:  MOVLW  01
05EAC:  SUBWF  x4E,F
05EAE:  BC    5EC4
05EB0:  SUBWF  x4F,F
05EB2:  BC    5EC4
05EB4:  SUBWF  x50,F
05EB6:  BC    5EC4
05EB8:  INCF   x50,F
05EBA:  INCF   x4F,F
05EBC:  INCF   x4E,F
05EBE:  MOVF   x4C,W
05EC0:  ADDWF  x4D,F
05EC2:  BRA    5F14
05EC4:  MOVF   x4B,W
05EC6:  SUBWF  x4E,F
05EC8:  BC    5EEE
05ECA:  MOVLW  01
05ECC:  SUBWF  x4F,F
05ECE:  BC    5EEE
05ED0:  SUBWF  x50,F
05ED2:  BC    5EEE
05ED4:  INCF   x50,F
05ED6:  INCF   x4F,F
05ED8:  MOVF   x4B,W
05EDA:  ADDWF  x4E,F
05EDC:  MOVF   x4C,W
05EDE:  ADDWF  x4D,F
05EE0:  BNC   5F14
05EE2:  INCF   x4E,F
05EE4:  BNZ   5F14
05EE6:  INCF   x4F,F
05EE8:  BNZ   5F14
05EEA:  INCF   x50,F
05EEC:  BRA    5F14
05EEE:  MOVF   x4A,W
05EF0:  IORLW  80
05EF2:  SUBWF  x4F,F
05EF4:  BC    5F12
05EF6:  MOVLW  01
05EF8:  SUBWF  x50,F
05EFA:  BC    5F12
05EFC:  INCF   x50,F
05EFE:  MOVF   x4A,W
05F00:  IORLW  80
05F02:  ADDWF  x4F,F
05F04:  MOVF   x4B,W
05F06:  ADDWF  x4E,F
05F08:  BNC   5EDC
05F0A:  INCF   x4F,F
05F0C:  BNZ   5EDC
05F0E:  INCF   x50,F
05F10:  BRA    5EDC
05F12:  BSF    03.0
05F14:  DECFSZ x51,F
05F16:  BRA    5F1A
05F18:  BRA    5F30
05F1A:  BCF    FD8.0
05F1C:  RLCF   x4D,F
05F1E:  RLCF   x4E,F
05F20:  RLCF   x4F,F
05F22:  RLCF   x50,F
05F24:  BCF    FD8.0
05F26:  RLCF   03,F
05F28:  RLCF   02,F
05F2A:  RLCF   01,F
05F2C:  RLCF   x52,F
05F2E:  BRA    5EA4
05F30:  BTFSS  x52.0
05F32:  BRA    5F40
05F34:  BCF    FD8.0
05F36:  RRCF   01,F
05F38:  RRCF   02,F
05F3A:  RRCF   03,F
05F3C:  RRCF   x52,F
05F3E:  BRA    5F44
05F40:  DECF   00,F
05F42:  BZ    5FAE
05F44:  BTFSC  x52.7
05F46:  BRA    5F84
05F48:  BCF    FD8.0
05F4A:  RLCF   x4D,F
05F4C:  RLCF   x4E,F
05F4E:  RLCF   x4F,F
05F50:  RLCF   x50,F
05F52:  MOVF   x4C,W
05F54:  SUBWF  x4D,F
05F56:  BC    5F66
05F58:  MOVLW  01
05F5A:  SUBWF  x4E,F
05F5C:  BC    5F66
05F5E:  SUBWF  x4F,F
05F60:  BC    5F66
05F62:  SUBWF  x50,F
05F64:  BNC   5F9A
05F66:  MOVF   x4B,W
05F68:  SUBWF  x4E,F
05F6A:  BC    5F76
05F6C:  MOVLW  01
05F6E:  SUBWF  x4F,F
05F70:  BC    5F76
05F72:  SUBWF  x50,F
05F74:  BNC   5F9A
05F76:  MOVF   x4A,W
05F78:  IORLW  80
05F7A:  SUBWF  x4F,F
05F7C:  BC    5F84
05F7E:  MOVLW  01
05F80:  SUBWF  x50,F
05F82:  BNC   5F9A
05F84:  INCF   03,F
05F86:  BNZ   5F9A
05F88:  INCF   02,F
05F8A:  BNZ   5F9A
05F8C:  INCF   01,F
05F8E:  BNZ   5F9A
05F90:  INCF   00,F
05F92:  BZ    5FAE
05F94:  RRCF   01,F
05F96:  RRCF   02,F
05F98:  RRCF   03,F
05F9A:  MOVFF  346,351
05F9E:  MOVF   x4A,W
05FA0:  XORWF  x51,F
05FA2:  BTFSS  x51.7
05FA4:  BRA    5FAA
05FA6:  BSF    01.7
05FA8:  BRA    5FB6
05FAA:  BCF    01.7
05FAC:  BRA    5FB6
05FAE:  CLRF   00
05FB0:  CLRF   01
05FB2:  CLRF   02
05FB4:  CLRF   03
05FB6:  MOVLB  0
05FB8:  GOTO   6372 (RETURN)
05FBC:  MOVLB  3
05FBE:  MOVF   x4E,W
05FC0:  SUBLW  B6
05FC2:  MOVWF  x4E
05FC4:  CLRF   03
05FC6:  MOVFF  34F,352
05FCA:  BSF    x4F.7
05FCC:  BCF    FD8.0
05FCE:  RRCF   x4F,F
05FD0:  RRCF   x50,F
05FD2:  RRCF   x51,F
05FD4:  RRCF   03,F
05FD6:  RRCF   02,F
05FD8:  RRCF   01,F
05FDA:  RRCF   00,F
05FDC:  DECFSZ x4E,F
05FDE:  BRA    5FCC
05FE0:  BTFSS  x52.7
05FE2:  BRA    5FFA
05FE4:  COMF   00,F
05FE6:  COMF   01,F
05FE8:  COMF   02,F
05FEA:  COMF   03,F
05FEC:  INCF   00,F
05FEE:  BTFSC  FD8.2
05FF0:  INCF   01,F
05FF2:  BTFSC  FD8.2
05FF4:  INCF   02,F
05FF6:  BTFSC  FD8.2
05FF8:  INCF   03,F
05FFA:  MOVLB  0
05FFC:  GOTO   60EC (RETURN)
06000:  BTFSC  FD8.1
06002:  BRA    600C
06004:  MOVLW  03
06006:  MOVWF  FEA
06008:  MOVLW  56
0600A:  MOVWF  FE9
0600C:  CLRF   00
0600E:  CLRF   01
06010:  CLRF   02
06012:  CLRF   03
06014:  MOVLB  3
06016:  CLRF   x56
06018:  CLRF   x57
0601A:  CLRF   x58
0601C:  CLRF   x59
0601E:  MOVF   x55,W
06020:  IORWF  x54,W
06022:  IORWF  x53,W
06024:  IORWF  x52,W
06026:  BZ    6080
06028:  MOVLW  20
0602A:  MOVWF  x5A
0602C:  BCF    FD8.0
0602E:  RLCF   x4E,F
06030:  RLCF   x4F,F
06032:  RLCF   x50,F
06034:  RLCF   x51,F
06036:  RLCF   x56,F
06038:  RLCF   x57,F
0603A:  RLCF   x58,F
0603C:  RLCF   x59,F
0603E:  MOVF   x55,W
06040:  SUBWF  x59,W
06042:  BNZ   6054
06044:  MOVF   x54,W
06046:  SUBWF  x58,W
06048:  BNZ   6054
0604A:  MOVF   x53,W
0604C:  SUBWF  x57,W
0604E:  BNZ   6054
06050:  MOVF   x52,W
06052:  SUBWF  x56,W
06054:  BNC   6074
06056:  MOVF   x52,W
06058:  SUBWF  x56,F
0605A:  MOVF   x53,W
0605C:  BTFSS  FD8.0
0605E:  INCFSZ x53,W
06060:  SUBWF  x57,F
06062:  MOVF   x54,W
06064:  BTFSS  FD8.0
06066:  INCFSZ x54,W
06068:  SUBWF  x58,F
0606A:  MOVF   x55,W
0606C:  BTFSS  FD8.0
0606E:  INCFSZ x55,W
06070:  SUBWF  x59,F
06072:  BSF    FD8.0
06074:  RLCF   00,F
06076:  RLCF   01,F
06078:  RLCF   02,F
0607A:  RLCF   03,F
0607C:  DECFSZ x5A,F
0607E:  BRA    602C
06080:  MOVFF  356,FEF
06084:  MOVFF  357,FEC
06088:  MOVFF  358,FEC
0608C:  MOVFF  359,FEC
06090:  MOVLB  0
06092:  RETURN 0
06094:  MOVF   FE9,W
06096:  MOVLB  3
06098:  MOVWF  x46
0609A:  MOVF   x45,W
0609C:  MOVWF  x48
0609E:  BZ    60D8
060A0:  MOVFF  344,351
060A4:  MOVFF  343,350
060A8:  MOVFF  342,34F
060AC:  MOVFF  341,34E
060B0:  CLRF   x55
060B2:  CLRF   x54
060B4:  MOVLW  20
060B6:  MOVWF  x53
060B8:  MOVLW  82
060BA:  MOVWF  x52
060BC:  MOVLB  0
060BE:  CALL   4A6E
060C2:  MOVFF  03,344
060C6:  MOVFF  02,343
060CA:  MOVFF  01,342
060CE:  MOVFF  00,341
060D2:  MOVLB  3
060D4:  DECFSZ x48,F
060D6:  BRA    60A0
060D8:  MOVFF  344,351
060DC:  MOVFF  343,350
060E0:  MOVFF  342,34F
060E4:  MOVFF  341,34E
060E8:  MOVLB  0
060EA:  BRA    5FBC
060EC:  MOVFF  03,344
060F0:  MOVFF  02,343
060F4:  MOVFF  01,342
060F8:  MOVFF  00,341
060FC:  MOVLB  3
060FE:  BTFSS  x44.7
06100:  BRA    611C
06102:  DECF   x46,F
06104:  BSF    x46.5
06106:  COMF   x41,F
06108:  COMF   x42,F
0610A:  COMF   x43,F
0610C:  COMF   x44,F
0610E:  INCF   x41,F
06110:  BTFSC  FD8.2
06112:  INCF   x42,F
06114:  BTFSC  FD8.2
06116:  INCF   x43,F
06118:  BTFSC  FD8.2
0611A:  INCF   x44,F
0611C:  MOVLW  3B
0611E:  MOVWF  x4D
06120:  MOVLW  9A
06122:  MOVWF  x4C
06124:  MOVLW  CA
06126:  MOVWF  x4B
06128:  CLRF   x4A
0612A:  MOVLW  0A
0612C:  MOVWF  x48
0612E:  MOVF   x45,W
06130:  BTFSC  FD8.2
06132:  INCF   x46,F
06134:  BSF    FD8.1
06136:  MOVLW  03
06138:  MOVWF  FEA
0613A:  MOVLW  41
0613C:  MOVWF  FE9
0613E:  MOVFF  344,351
06142:  MOVFF  343,350
06146:  MOVFF  342,34F
0614A:  MOVFF  341,34E
0614E:  MOVFF  34D,355
06152:  MOVFF  34C,354
06156:  MOVFF  34B,353
0615A:  MOVFF  34A,352
0615E:  MOVLB  0
06160:  RCALL  6000
06162:  MOVF   01,W
06164:  MOVF   00,F
06166:  BNZ   618E
06168:  MOVLB  3
0616A:  INCF   x45,W
0616C:  SUBWF  x48,W
0616E:  BTFSS  FD8.2
06170:  BRA    6176
06172:  MOVLB  0
06174:  BRA    618E
06176:  MOVF   x46,W
06178:  BZ    6194
0617A:  ANDLW  0F
0617C:  SUBWF  x48,W
0617E:  BZ    6182
06180:  BC    61FA
06182:  BTFSC  x46.7
06184:  BRA    61FA
06186:  BTFSC  x46.6
06188:  BRA    6194
0618A:  MOVLW  20
0618C:  BRA    61F0
0618E:  MOVLW  20
06190:  MOVLB  3
06192:  ANDWF  x46,F
06194:  BTFSS  x46.5
06196:  BRA    61B2
06198:  BCF    x46.5
0619A:  MOVF   x45,W
0619C:  BTFSS  FD8.2
0619E:  DECF   x46,F
061A0:  MOVF   00,W
061A2:  MOVWF  x46
061A4:  MOVLW  2D
061A6:  BTFSS  F9E.4
061A8:  BRA    61A6
061AA:  MOVWF  FAD
061AC:  MOVF   x46,W
061AE:  MOVWF  00
061B0:  CLRF   x46
061B2:  MOVF   x45,W
061B4:  SUBWF  x48,W
061B6:  BNZ   61CE
061B8:  MOVF   00,W
061BA:  MOVWF  x46
061BC:  MOVLW  2E
061BE:  BTFSS  F9E.4
061C0:  BRA    61BE
061C2:  MOVWF  FAD
061C4:  MOVF   x46,W
061C6:  MOVWF  00
061C8:  MOVLW  20
061CA:  ANDWF  x46,F
061CC:  MOVLW  00
061CE:  MOVLW  30
061D0:  BTFSS  x46.5
061D2:  BRA    61F0
061D4:  BCF    x46.5
061D6:  MOVF   x45,W
061D8:  BTFSS  FD8.2
061DA:  DECF   x46,F
061DC:  MOVF   00,W
061DE:  MOVWF  x46
061E0:  MOVLW  2D
061E2:  BTFSS  F9E.4
061E4:  BRA    61E2
061E6:  MOVWF  FAD
061E8:  MOVF   x46,W
061EA:  MOVWF  00
061EC:  CLRF   x46
061EE:  MOVLW  30
061F0:  ADDWF  00,F
061F2:  MOVF   00,W
061F4:  BTFSS  F9E.4
061F6:  BRA    61F4
061F8:  MOVWF  FAD
061FA:  BCF    FD8.1
061FC:  MOVFF  34D,351
06200:  MOVFF  34C,350
06204:  MOVFF  34B,34F
06208:  MOVFF  34A,34E
0620C:  CLRF   x55
0620E:  CLRF   x54
06210:  CLRF   x53
06212:  MOVLW  0A
06214:  MOVWF  x52
06216:  MOVLB  0
06218:  RCALL  6000
0621A:  MOVFF  03,34D
0621E:  MOVFF  02,34C
06222:  MOVFF  01,34B
06226:  MOVFF  00,34A
0622A:  MOVLB  3
0622C:  DECFSZ x48,F
0622E:  BRA    6134
06230:  MOVLB  0
06232:  RETURN 0
06234:  MOVFF  346,34D
06238:  MOVLB  3
0623A:  MOVF   x4A,W
0623C:  XORWF  x4D,F
0623E:  BTFSS  x4D.7
06240:  BRA    624C
06242:  BCF    FD8.2
06244:  BCF    FD8.0
06246:  BTFSC  x46.7
06248:  BSF    FD8.0
0624A:  BRA    62AA
0624C:  MOVFF  346,34D
06250:  MOVFF  349,34E
06254:  MOVF   x45,W
06256:  SUBWF  x4E,F
06258:  BZ    6266
0625A:  BTFSS  x4D.7
0625C:  BRA    62AA
0625E:  MOVF   FD8,W
06260:  XORLW  01
06262:  MOVWF  FD8
06264:  BRA    62AA
06266:  MOVFF  34A,34E
0626A:  MOVF   x46,W
0626C:  SUBWF  x4E,F
0626E:  BZ    627C
06270:  BTFSS  x4D.7
06272:  BRA    62AA
06274:  MOVF   FD8,W
06276:  XORLW  01
06278:  MOVWF  FD8
0627A:  BRA    62AA
0627C:  MOVFF  34B,34E
06280:  MOVF   x47,W
06282:  SUBWF  x4E,F
06284:  BZ    6292
06286:  BTFSS  x4D.7
06288:  BRA    62AA
0628A:  MOVF   FD8,W
0628C:  XORLW  01
0628E:  MOVWF  FD8
06290:  BRA    62AA
06292:  MOVFF  34C,34E
06296:  MOVF   x48,W
06298:  SUBWF  x4E,F
0629A:  BZ    62A8
0629C:  BTFSS  x4D.7
0629E:  BRA    62AA
062A0:  MOVF   FD8,W
062A2:  XORLW  01
062A4:  MOVWF  FD8
062A6:  BRA    62AA
062A8:  BCF    FD8.0
062AA:  MOVLB  0
062AC:  RETURN 0
*
06A2E:  MOVLW  20
06A30:  MOVLB  3
06A32:  BTFSS  x3F.4
06A34:  MOVLW  30
06A36:  MOVWF  x40
06A38:  MOVFF  33E,00
06A3C:  BTFSS  x3E.7
06A3E:  BRA    6A50
06A40:  COMF   00,F
06A42:  INCF   00,F
06A44:  MOVFF  00,33E
06A48:  MOVLW  2D
06A4A:  MOVWF  x40
06A4C:  BSF    x3F.7
06A4E:  BSF    x3F.0
06A50:  MOVF   01,W
06A52:  CLRF   1B
06A54:  BTFSC  FF2.7
06A56:  BSF    1B.7
06A58:  BCF    FF2.7
06A5A:  MOVFF  33E,379
06A5E:  MOVLW  64
06A60:  MOVWF  x7A
06A62:  MOVLB  0
06A64:  CALL   11FE
06A68:  BTFSC  1B.7
06A6A:  BSF    FF2.7
06A6C:  MOVFF  00,33E
06A70:  MOVLW  30
06A72:  ADDWF  01,W
06A74:  MOVLB  3
06A76:  MOVWF  x41
06A78:  CLRF   1B
06A7A:  BTFSC  FF2.7
06A7C:  BSF    1B.7
06A7E:  BCF    FF2.7
06A80:  MOVFF  33E,379
06A84:  MOVLW  0A
06A86:  MOVWF  x7A
06A88:  MOVLB  0
06A8A:  CALL   11FE
06A8E:  BTFSC  1B.7
06A90:  BSF    FF2.7
06A92:  MOVLW  30
06A94:  ADDWF  00,W
06A96:  MOVLB  3
06A98:  MOVWF  x43
06A9A:  MOVLW  30
06A9C:  ADDWF  01,W
06A9E:  MOVWF  x42
06AA0:  MOVFF  340,00
06AA4:  MOVLW  30
06AA6:  SUBWF  x41,W
06AA8:  BZ    6AB2
06AAA:  BSF    x3F.1
06AAC:  BTFSC  x3F.7
06AAE:  BSF    x3F.2
06AB0:  BRA    6AD6
06AB2:  MOVFF  340,341
06AB6:  MOVLW  20
06AB8:  MOVWF  x40
06ABA:  MOVLW  30
06ABC:  SUBWF  x42,W
06ABE:  BZ    6AC8
06AC0:  BSF    x3F.0
06AC2:  BTFSC  x3F.7
06AC4:  BSF    x3F.1
06AC6:  BRA    6AD6
06AC8:  BTFSS  FD8.2
06ACA:  BSF    x3F.0
06ACC:  BNZ   6AD6
06ACE:  MOVFF  341,342
06AD2:  MOVLW  20
06AD4:  MOVWF  x41
06AD6:  BTFSC  x3F.2
06AD8:  BRA    6AE4
06ADA:  BTFSC  x3F.1
06ADC:  BRA    6AEC
06ADE:  BTFSC  x3F.0
06AE0:  BRA    6AF4
06AE2:  BRA    6AFC
06AE4:  MOVF   x40,W
06AE6:  BTFSS  F9E.4
06AE8:  BRA    6AE6
06AEA:  MOVWF  FAD
06AEC:  MOVF   x41,W
06AEE:  BTFSS  F9E.4
06AF0:  BRA    6AEE
06AF2:  MOVWF  FAD
06AF4:  MOVF   x42,W
06AF6:  BTFSS  F9E.4
06AF8:  BRA    6AF6
06AFA:  MOVWF  FAD
06AFC:  MOVF   x43,W
06AFE:  BTFSS  F9E.4
06B00:  BRA    6AFE
06B02:  MOVWF  FAD
06B04:  MOVLB  0
06B06:  RETURN 0
*
06C8A:  CLRF   01
06C8C:  CLRF   02
06C8E:  CLRF   00
06C90:  CLRF   03
06C92:  MOVLB  3
06C94:  MOVF   x40,W
06C96:  BNZ   6C9C
06C98:  MOVF   x3F,W
06C9A:  BZ    6CCC
06C9C:  MOVLW  10
06C9E:  MOVWF  x41
06CA0:  BCF    FD8.0
06CA2:  RLCF   x3D,F
06CA4:  RLCF   x3E,F
06CA6:  RLCF   00,F
06CA8:  RLCF   03,F
06CAA:  MOVF   x40,W
06CAC:  SUBWF  03,W
06CAE:  BNZ   6CB4
06CB0:  MOVF   x3F,W
06CB2:  SUBWF  00,W
06CB4:  BNC   6CC4
06CB6:  MOVF   x3F,W
06CB8:  SUBWF  00,F
06CBA:  BTFSS  FD8.0
06CBC:  DECF   03,F
06CBE:  MOVF   x40,W
06CC0:  SUBWF  03,F
06CC2:  BSF    FD8.0
06CC4:  RLCF   01,F
06CC6:  RLCF   02,F
06CC8:  DECFSZ x41,F
06CCA:  BRA    6CA0
06CCC:  MOVLB  0
06CCE:  RETURN 0
06CD0:  MOVLB  3
06CD2:  CLRF   x3C
06CD4:  CLRF   x3D
06CD6:  MOVLW  01
06CD8:  MOVWF  x3E
06CDA:  CLRF   FDA
06CDC:  CLRF   FD9
06CDE:  MOVLW  03
06CE0:  MOVWF  x41
06CE2:  MOVLW  34
06CE4:  MOVWF  x40
06CE6:  MOVLW  03
06CE8:  MOVWF  FEA
06CEA:  MOVLW  38
06CEC:  MOVWF  FE9
06CEE:  MOVFF  341,FE2
06CF2:  MOVFF  340,FE1
06CF6:  MOVFF  33E,33F
06CFA:  BCF    FD8.0
06CFC:  MOVF   FE5,W
06CFE:  MULWF  FEE
06D00:  MOVF   FF3,W
06D02:  ADDWFC x3C,F
06D04:  MOVF   FF4,W
06D06:  ADDWFC x3D,F
06D08:  DECFSZ x3F,F
06D0A:  BRA    6CFA
06D0C:  MOVFF  33C,FDE
06D10:  MOVFF  33D,33C
06D14:  CLRF   x3D
06D16:  BTFSC  FD8.0
06D18:  INCF   x3D,F
06D1A:  INCF   x40,F
06D1C:  BTFSC  FD8.2
06D1E:  INCF   x41,F
06D20:  INCF   x3E,F
06D22:  MOVF   x3E,W
06D24:  SUBLW  05
06D26:  BNZ   6CE6
06D28:  MOVLB  0
06D2A:  RETURN 0
*
07E50:  MOVLB  3
07E52:  MOVF   x48,W
07E54:  MULWF  x4A
07E56:  MOVFF  FF3,01
07E5A:  MOVFF  FF4,00
07E5E:  MULWF  x4B
07E60:  MOVF   FF3,W
07E62:  ADDWF  00,F
07E64:  MOVF   x49,W
07E66:  MULWF  x4A
07E68:  MOVF   FF3,W
07E6A:  ADDWFC 00,W
07E6C:  MOVWF  02
07E6E:  MOVLB  0
07E70:  RETURN 0
*
0A8DE:  ADDWF  FE8,W
0A8E0:  CLRF   FF7
0A8E2:  RLCF   FF7,F
0A8E4:  ADDLW  FF
0A8E6:  MOVWF  FF6
0A8E8:  MOVLW  A8
0A8EA:  ADDWFC FF7,F
0A8EC:  MOVLW  00
0A8EE:  MOVWF  FF8
0A8F0:  MOVWF  FFB
0A8F2:  TBLRD*-
0A8F4:  MOVF   FF5,W
0A8F6:  MOVWF  FFA
0A8F8:  TBLRD*
0A8FA:  MOVF   FF5,W
0A8FC:  MOVWF  FF9
0A8FE:  DATA FA,A5
0A900:  DATA 02,A6
0A902:  DATA 0A,A6
0A904:  DATA 12,A6
0A906:  DATA 1A,A6
0A908:  DATA 22,A6
0A90A:  DATA 2A,A6
0A90C:  DATA 32,A6
0A90E:  DATA 3A,A6
0A910:  DATA 42,A6
0A912:  DATA 4A,A6
0A914:  DATA 52,A6
0A916:  DATA 5A,A6
0A918:  DATA 62,A6
0A91A:  DATA 6A,A6
*
0AA4E:  MOVFF  FEA,359
0AA52:  MOVFF  FE9,358
0AA56:  MOVLB  3
0AA58:  BTFSS  x52.7
0AA5A:  BRA    AA6C
0AA5C:  BSF    x58.7
0AA5E:  BTFSS  x58.4
0AA60:  INCF   x58,F
0AA62:  COMF   x51,F
0AA64:  COMF   x52,F
0AA66:  INCF   x51,F
0AA68:  BTFSC  FD8.2
0AA6A:  INCF   x52,F
0AA6C:  SWAPF  x52,W
0AA6E:  IORLW  F0
0AA70:  MOVWF  x54
0AA72:  ADDWF  x54,F
0AA74:  ADDLW  E2
0AA76:  MOVWF  x55
0AA78:  ADDLW  32
0AA7A:  MOVWF  x57
0AA7C:  MOVF   x52,W
0AA7E:  ANDLW  0F
0AA80:  ADDWF  x55,F
0AA82:  ADDWF  x55,F
0AA84:  ADDWF  x57,F
0AA86:  ADDLW  E9
0AA88:  MOVWF  x56
0AA8A:  ADDWF  x56,F
0AA8C:  ADDWF  x56,F
0AA8E:  SWAPF  x51,W
0AA90:  ANDLW  0F
0AA92:  ADDWF  x56,F
0AA94:  ADDWF  x57,F
0AA96:  RLCF   x56,F
0AA98:  RLCF   x57,F
0AA9A:  COMF   x57,F
0AA9C:  RLCF   x57,F
0AA9E:  MOVF   x51,W
0AAA0:  ANDLW  0F
0AAA2:  ADDWF  x57,F
0AAA4:  RLCF   x54,F
0AAA6:  MOVLW  07
0AAA8:  MOVWF  x53
0AAAA:  MOVLW  0A
0AAAC:  DECF   x56,F
0AAAE:  ADDWF  x57,F
0AAB0:  BNC   AAAC
0AAB2:  DECF   x55,F
0AAB4:  ADDWF  x56,F
0AAB6:  BNC   AAB2
0AAB8:  DECF   x54,F
0AABA:  ADDWF  x55,F
0AABC:  BNC   AAB8
0AABE:  DECF   x53,F
0AAC0:  ADDWF  x54,F
0AAC2:  BNC   AABE
0AAC4:  MOVLW  03
0AAC6:  MOVWF  FEA
0AAC8:  MOVLW  53
0AACA:  MOVWF  FE9
0AACC:  MOVLW  07
0AACE:  ANDWF  x58,W
0AAD0:  BCF    x58.6
0AAD2:  MOVF   FED,F
0AAD4:  ANDWF  x58,W
0AAD6:  BNZ   AAE6
0AAD8:  BTFSC  x58.4
0AADA:  MOVF   FEE,F
0AADC:  BTFSC  x58.4
0AADE:  BRA    AAE6
0AAE0:  MOVLW  20
0AAE2:  MOVWF  00
0AAE4:  BRA    AB28
0AAE6:  ADDWF  FE9,F
0AAE8:  MOVLW  00
0AAEA:  ADDWFC FEA,F
0AAEC:  MOVF   FE9,W
0AAEE:  SUBLW  57
0AAF0:  BNZ   AAFA
0AAF2:  MOVF   FEA,W
0AAF4:  SUBLW  03
0AAF6:  BNZ   AAFA
0AAF8:  BSF    x58.6
0AAFA:  MOVF   FEF,W
0AAFC:  MOVWF  00
0AAFE:  BNZ   AB10
0AB00:  BTFSC  x58.6
0AB02:  BRA    AB10
0AB04:  BTFSC  x58.4
0AB06:  BRA    AB30
0AB08:  BTFSC  x58.3
0AB0A:  BRA    AB10
0AB0C:  MOVLW  20
0AB0E:  BRA    AB26
0AB10:  BTFSS  x58.7
0AB12:  BRA    AB20
0AB14:  MOVLW  2D
0AB16:  MOVWF  00
0AB18:  MOVF   FED,W
0AB1A:  BCF    x58.6
0AB1C:  BCF    x58.7
0AB1E:  BRA    AB28
0AB20:  BSF    x58.3
0AB22:  BCF    x58.4
0AB24:  MOVLW  30
0AB26:  ADDWF  00,F
0AB28:  MOVF   00,W
0AB2A:  BTFSS  F9E.4
0AB2C:  BRA    AB2A
0AB2E:  MOVWF  FAD
0AB30:  MOVF   FEE,W
0AB32:  BTFSS  x58.6
0AB34:  BRA    AAEC
0AB36:  MOVLB  0
0AB38:  GOTO   AC24 (RETURN)
....................  
.................... #list 
....................  
.................... #FUSES NOWDT, NOBROWNOUT, NOPROTECT 
.................... #use delay(crystal=16Mhz, clock=16Mhz) 
*
01AFC:  MOVLW  03
01AFE:  MOVWF  FEA
01B00:  MOVLW  6B
01B02:  MOVWF  FE9
01B04:  MOVF   FEF,W
01B06:  BZ    1B24
01B08:  MOVLW  05
01B0A:  MOVWF  01
01B0C:  CLRF   00
01B0E:  DECFSZ 00,F
01B10:  BRA    1B0E
01B12:  DECFSZ 01,F
01B14:  BRA    1B0C
01B16:  MOVLW  2E
01B18:  MOVWF  00
01B1A:  DECFSZ 00,F
01B1C:  BRA    1B1A
01B1E:  BRA    1B20
01B20:  DECFSZ FEF,F
01B22:  BRA    1B08
01B24:  RETURN 0
.................... #include<PIC18F67J94_registers.h> 
.................... #byte ADCBUF0H = 0xFC3 
.................... #byte ADCBUF0L = 0xFC2 
.................... #byte ADCON1H = 0xFC1 
.................... #bit    FORM0 = ADCON1H.0 
.................... #bit    FORM1 = ADCON1H.1 
.................... #bit    MODE12 = ADCON1H.2 
.................... #bit    DMAEN = ADCON1H.3 
.................... #bit    DMABM = ADCON1H.4 
.................... #bit    ADSIDL = ADCON1H.5 
.................... #bit    ADFRZ = ADCON1H.6 
.................... #bit    ADON = ADCON1H.7 
.................... #byte ADCON1L = 0xFC0 
.................... #bit    DONE = ADCON1L.0 
.................... #bit    SAMP = ADCON1L.1 
.................... #bit    ASAM = ADCON1L.2 
.................... #bit    SIMSAM = ADCON1L.3 
.................... #bit    SSRC0 = ADCON1L.4 
.................... #bit    SSRC1 = ADCON1L.5 
.................... #bit    SSRC2 = ADCON1L.6 
.................... #bit    SSRC3 = ADCON1L.7 
.................... #byte TRISG = 0xF98 
.................... #byte TRISF = 0xF97 
.................... #byte TRISE = 0xF96 
.................... #byte TRISD = 0xF95 
.................... #byte TRISC = 0xF94 
.................... #byte TRISB = 0xF93 
....................  
.................... #byte TRISA = 0xF92 
.................... #bit    TRISA0 = TRISA.0 
.................... #bit    TRISA1 = TRISA.1 
.................... #bit    TRISA2 = TRISA.2 
....................  
....................  
.................... #byte LATG = 0xF8F 
.................... #byte LATF = 0xF8E 
.................... #byte LATE = 0xF8D 
.................... #byte LATD = 0xF8C 
.................... #byte LATC = 0xF8B 
.................... #byte LATB = 0xF8A 
....................  
.................... #byte LATA = 0xF89 
.................... #bit    LATA0 = LATA.0 
.................... #bit    LATA1 = LATA.1 
.................... #bit    LATA2 = LATA.2 
.................... #bit    LATA3 = LATA.3 
....................  
.................... #byte PORTG = 0xF86 
.................... #bit    RG0 = PORTG.0 
.................... #bit    RG1 = PORTG.1 
.................... #bit    RG2 = PORTG.2 
.................... #bit    RG3 = PORTG.3 
.................... #bit    RG4 = PORTG.4 
.................... #bit    RG6 = PORTG.6 
.................... #bit    RG7 = PORTG.7 
.................... #byte PORTF = 0xF85 
.................... #bit    RF2 = PORTF.2 
.................... #bit    RF3 = PORTF.3 
.................... #bit    RF4 = PORTF.4 
.................... #bit    RF5 = PORTF.5 
.................... #bit    RF6 = PORTF.6 
.................... #bit    RF7 = PORTF.7 
.................... #byte PORTE = 0xF84 
.................... #byte PORTD = 0xF83 
.................... #byte PORTC = 0xF82 
.................... #bit    RC0 = PORTC.0 
.................... #bit    RC1 = PORTC.1 
.................... #bit    RC2 = PORTC.2 
.................... #bit    RC3 = PORTC.3 
.................... #bit    RC4 = PORTC.4 
.................... #bit    RC5 = PORTC.5 
.................... #bit    RC6 = PORTC.6 
.................... #bit    RC7 = PORTC.7 
.................... #byte PORTB = 0xF81 
.................... #byte PORTA = 0xF80 
.................... #bit    RA0 = PORTA.0 
.................... #bit    RA1 = PORTA.1 
.................... #bit    RA2 = PORTA.2 
.................... #bit    RA3 = PORTA.3 
.................... #bit    RA4 = PORTA.4 
.................... #bit    RA5 = PORTA.5 
.................... #bit    RA6 = PORTA.6 
.................... #bit    RA7 = PORTA.7 
.................... #byte TRISVP = 0xF73 
.................... #byte LATVP = 0xF72 
.................... #byte PORTVP = 0xF71 
.................... #byte WPUB = 0xF62 
.................... #byte ALRMVALH = 0xF59 
.................... #byte ALRMVALL = 0xF58 
.................... #byte ANCFG = 0xF01 
.................... #bit    VBGEN = ANCFG.0 
.................... #bit    VBG2EN = ANCFG.1 
.................... #bit    VBG6EN = ANCFG.2 
.................... #byte ODCON1 = 0xEEB 
.................... #bit    SSP1OD = ODCON1.0 
.................... #bit    SSP2OD = ODCON1.1 
.................... #bit    USART1OD = ODCON1.2 
.................... #bit    USART2OD = ODCON1.3 
.................... #bit    USART3OD = ODCON1.4 
.................... #bit    USART4OD = ODCON1.5 
.................... #bit    ECCP1OD = ODCON1.6 
.................... #bit    ECCP2OD = ODCON1.7 
.................... #byte ODCON2 = 0xEEA 
.................... #bit    ECCP3OD = ODCON2.0 
.................... #bit    CCP4OD = ODCON2.1 
.................... #bit    CCP5OD = ODCON2.2 
.................... #bit    CCP6OD = ODCON2.3 
.................... #bit    CCP7OD = ODCON2.4 
.................... #bit    CCP8OD = ODCON2.5 
.................... #bit    CCP9OD = ODCON2.6 
.................... #bit    CCP10OD = ODCON2.7 
.................... #byte ADCON2H = 0xE8D 
.................... #bit    CHPS0 = ADCON2H.0 
.................... #bit    CHPS1 = ADCON2H.1 
.................... #bit    CSCNA = ADCON2H.2 
.................... #bit    BUFREGEN = ADCON2H.3 
.................... #bit    OFFCAL = ADCON2H.4 
.................... #bit    NVCFG0 = ADCON2H.5 
.................... #bit    PVCFG0 = ADCON2H.6 
.................... #bit    PVCFG1 = ADCON2H.7 
.................... #byte ADCON2L = 0xE8C 
.................... #bit    ALTS = ADCON2L.0 
.................... #bit    BUFM = ADCON2L.1 
.................... #bit    SMPI0 = ADCON2L.2 
.................... #bit    SMPI1 = ADCON2L.3 
.................... #bit    SMPI2 = ADCON2L.4 
.................... #bit    SMPI3 = ADCON2L.5 
.................... #bit    SMPI4 = ADCON2L.6 
.................... #bit    BUFS = ADCON2L.7 
.................... #byte ADCON3H = 0xE8B 
.................... #bit    SAMC0 = ADCON3H.0 
.................... #bit    SAMC1 = ADCON3H.1 
.................... #bit    SAMC2 = ADCON3H.2 
.................... #bit    SAMC3 = ADCON3H.3 
.................... #bit    SAMC4 = ADCON3H.4 
.................... #bit    PUMPEN = ADCON3H.5 
.................... #bit    EXTSAM = ADCON3H.6 
.................... #bit    ADRC = ADCON3H.7 
.................... #byte ADCON3L = 0xE8A 
.................... #byte ADCON5H = 0xE89 
.................... #bit    ASINTMD0 = ADCON5H.0 
.................... #bit    ASINTMD1 = ADCON5H.1 
.................... #bit    VREGSREQ = ADCON5H.3 
.................... #bit    BGREQ = ADCON5H.4 
.................... #bit    CTMUREQ = ADCON5H.5 
.................... #bit    LPENA = ADCON5H.6 
.................... #bit    ASENA = ADCON5H.7 
.................... #byte ADCON5L = 0xE88 
.................... #bit    CM0 = ADCON5L.0 
.................... #bit    CM1 = ADCON5L.1 
.................... #bit    WM0 = ADCON5L.2 
.................... #bit    WM1 = ADCON5L.3 
.................... #byte ADCHS0H = 0xE87 
.................... #bit    CH0SB0 = ADCHS0H.0 
.................... #bit    CH0SB1 = ADCHS0H.1 
.................... #bit    CH0SB2 = ADCHS0H.2 
.................... #bit    CH0SB3 = ADCHS0H.3 
.................... #bit    CH0SB4 = ADCHS0H.4 
.................... #bit    CH0NB0 = ADCHS0H.5 
.................... #bit    CH0NB1 = ADCHS0H.6 
.................... #bit    CH0NB2 = ADCHS0H.7 
.................... #byte ADCHS0L = 0xE86 
.................... #bit    CH0SA0 = ADCHS0L.0 
.................... #bit    CH0SA1 = ADCHS0L.1 
.................... #bit    CH0SA2 = ADCHS0L.2 
.................... #bit    CH0SA3 = ADCHS0L.3 
.................... #bit    CH0SA4 = ADCHS0L.4 
.................... #bit    CH0NA0 = ADCHS0L.5 
.................... #bit    CH0NA1 = ADCHS0L.6 
.................... #bit    CH0NA2 = ADCHS0L.7 
.................... #byte ADCSS1H = 0xE85 
.................... #bit    CSS24 = ADCSS1H.0 
.................... #bit    CSS25 = ADCSS1H.1 
.................... #bit    CSS26 = ADCSS1H.2 
.................... #bit    CSS27 = ADCSS1H.3 
.................... #bit    CSS28 = ADCSS1H.4 
.................... #bit    CSS29 = ADCSS1H.5 
.................... #bit    CSS30 = ADCSS1H.6 
.................... #bit    CSS31 = ADCSS1H.7 
.................... #byte ADCSS1L = 0xE84 
.................... #bit    CSS16 = ADCSS1L.0 
.................... #bit    CSS17 = ADCSS1L.1 
.................... #bit    CSS18 = ADCSS1L.2 
.................... #bit    CSS19 = ADCSS1L.3 
.................... #bit    CSS20 = ADCSS1L.4 
.................... #bit    CSS21 = ADCSS1L.5 
.................... #bit    CSS22 = ADCSS1L.6 
.................... #bit    CSS23 = ADCSS1L.7 
.................... #byte ADCSS0H = 0xE83 
.................... #bit    CSS8 = ADCSS0H.0 
.................... #bit    CSS9 = ADCSS0H.1 
.................... #bit    CSS10 = ADCSS0H.2 
.................... #bit    CSS11 = ADCSS0H.3 
.................... #bit    CSS12 = ADCSS0H.4 
.................... #bit    CSS13 = ADCSS0H.5 
.................... #bit    CSS14 = ADCSS0H.6 
.................... #bit    CSS15 = ADCSS0H.7 
.................... #byte ADCSS0L = 0xE82 
.................... #byte ADCHIT1H = 0xE81 
.................... #bit    CHH24 = ADCHIT1H.0 
.................... #bit    CHH25 = ADCHIT1H.1 
.................... #bit    CHH26 = ADCHIT1H.2 
.................... #bit    CHH27 = ADCHIT1H.3 
.................... #bit    CHH28 = ADCHIT1H.4 
.................... #bit    CHH29 = ADCHIT1H.5 
.................... #bit    CHH30 = ADCHIT1H.6 
.................... #bit    CHH31 = ADCHIT1H.7 
.................... #byte ADCHIT1L = 0xE80 
.................... #bit    CHH16 = ADCHIT1L.0 
.................... #bit    CHH17 = ADCHIT1L.1 
.................... #bit    CHH18 = ADCHIT1L.2 
.................... #bit    CHH19 = ADCHIT1L.3 
.................... #bit    CHH20 = ADCHIT1L.4 
.................... #bit    CHH21 = ADCHIT1L.5 
.................... #bit    CHH22 = ADCHIT1L.6 
.................... #bit    CHH23 = ADCHIT1L.7 
.................... #byte ADCHIT0H = 0xE7F 
.................... #bit    CHH8 = ADCHIT0H.0 
.................... #bit    CHH9 = ADCHIT0H.1 
.................... #bit    CHH10 = ADCHIT0H.2 
.................... #bit    CHH11 = ADCHIT0H.3 
.................... #bit    CHH12 = ADCHIT0H.4 
.................... #bit    CHH13 = ADCHIT0H.5 
.................... #bit    CHH14 = ADCHIT0H.6 
.................... #bit    CHH15 = ADCHIT0H.7 
.................... #byte ADCHIT0L = 0xE7E 
.................... #byte ADCTMUEN1H = 0xE7D 
.................... #bit    CTUMEN24 = ADCTMUEN1H.0 
.................... #bit    CTUMEN25 = ADCTMUEN1H.1 
.................... #bit    CTUMEN26 = ADCTMUEN1H.2 
.................... #bit    CTUMEN27 = ADCTMUEN1H.3 
.................... #bit    CTUMEN28 = ADCTMUEN1H.4 
.................... #bit    CTUMEN29 = ADCTMUEN1H.5 
.................... #bit    CTMUEN30 = ADCTMUEN1H.6 
.................... #bit    CTMUEN31 = ADCTMUEN1H.7 
.................... #byte ADCTMUEN1L = 0xE7C 
.................... #bit    CTUMEN16 = ADCTMUEN1L.0 
.................... #bit    CTUMEN17 = ADCTMUEN1L.1 
.................... #bit    CTUMEN18 = ADCTMUEN1L.2 
.................... #bit    CTUMEN19 = ADCTMUEN1L.3 
.................... #bit    CTMUEN20 = ADCTMUEN1L.4 
.................... #bit    CTMUEN21 = ADCTMUEN1L.5 
.................... #bit    CTMUEN22 = ADCTMUEN1L.6 
.................... #bit    CTMUEN23 = ADCTMUEN1L.7 
.................... #byte ADCTMUEN0H = 0xE7B 
.................... #bit    CTMUEN8 = ADCTMUEN0H.0 
.................... #bit    CTMUEN9 = ADCTMUEN0H.1 
.................... #bit    CTMUEN10 = ADCTMUEN0H.2 
.................... #bit    CTMUEN11 = ADCTMUEN0H.3 
.................... #bit    CTMUEN12 = ADCTMUEN0H.4 
.................... #bit    CTMUEN13 = ADCTMUEN0H.5 
.................... #bit    CTMUEN14 = ADCTMUEN0H.6 
.................... #bit    CTMUEN15 = ADCTMUEN0H.7 
.................... #byte ADCTMUEN0L = 0xE7A 
.................... #byte ADCBUF25H = 0xE79 
.................... #byte ADCBUF25L = 0xE78 
.................... #byte ADCBUF24H = 0xE77 
.................... #byte ADCBUF24L = 0xE76 
.................... #byte ADCBUF23H = 0xE75 
.................... #byte ADCBUF23L = 0xE74 
.................... #byte ADCBUF22H = 0xE73 
.................... #byte ADCBUF22L = 0xE72 
.................... #byte ADCBUF21H = 0xE71 
.................... #byte ADCBUF21L = 0xE70 
.................... #byte ADCBUF20H = 0xE6F 
.................... #byte ADCBUF20L = 0xE6E 
.................... #byte ADCBUF19H = 0xE6D 
.................... #byte ADCBUF19L = 0xE6C 
.................... #byte ADCBUF18H = 0xE6B 
.................... #byte ADCBUF18L = 0xE6A 
.................... #byte ADCBUF17H = 0xE69 
.................... #byte ADCBUF17L = 0xE68 
.................... #byte ADCBUF16H = 0xE67 
.................... #byte ADCBUF16L = 0xE66 
.................... #byte ADCBUF15H = 0xE65 
.................... #byte ADCBUF15L = 0xE64 
.................... #byte ADCBUF14H = 0xE63 
.................... #byte ADCBUF14L = 0xE62 
.................... #byte ADCBUF13H = 0xE61 
.................... #byte ADCBUF13L = 0xE60 
.................... #byte ADCBUF12H = 0xE5F 
.................... #byte ADCBUF12L = 0xE5E 
.................... #byte ADCBUF11H = 0xE5D 
.................... #byte ADCBUF11L = 0xE5C 
.................... #byte ADCBUF10H = 0xE5B 
.................... #byte ADCBUF10L = 0xE5A 
.................... #byte ADCBUF9H = 0xE59 
.................... #byte ADCBUF9L = 0xE58 
.................... #byte ADCBUF8H = 0xE57 
.................... #byte ADCBUF8L = 0xE56 
.................... #byte ADCBUF7H = 0xE55 
.................... #byte ADCBUF7L = 0xE54 
.................... #byte ADCBUF6H = 0xE53 
.................... #byte ADCBUF6L = 0xE52 
.................... #byte ADCBUF5H = 0xE51 
.................... #byte ADCBUF5L = 0xE50 
.................... #byte ADCBUF4H = 0xE4F 
.................... #byte ADCBUF4L = 0xE4E 
.................... #byte ADCBUF3H = 0xE4D 
.................... #byte ADCBUF3L = 0xE4C 
.................... #byte ADCBUF2H = 0xE4B 
.................... #byte ADCBUF2L = 0xE4A 
.................... #byte ADCBUF1H = 0xE49 
.................... #byte ADCBUF1L = 0xE48 
.................... #byte ANCON1 = 0xE47 
.................... #byte ANCON2 = 0xE46 
.................... #bit    ANSEL8 = ANCON2.0 
.................... #bit    ANSEL9 = ANCON2.1 
.................... #bit    ANSEL10 = ANCON2.2 
.................... #bit    ANSEL11 = ANCON2.3 
.................... #bit    ANSEL12 = ANCON2.4 
.................... #bit    ANSEL13 = ANCON2.5 
.................... #bit    ANSEL14 = ANCON2.6 
.................... #bit    ANSEL15 = ANCON2.7 
.................... #byte ANCON3 = 0xE45 
.................... #bit    ANSEL16 = ANCON3.0 
.................... #bit    ANSEL17 = ANCON3.1 
.................... #bit    ANSEL18 = ANCON3.2 
.................... #bit    ANSEL19 = ANCON3.3 
.................... #bit    ANSEL20 = ANCON3.4 
.................... #bit    ANSEL21 = ANCON3.5 
.................... #bit    ANSEL22 = ANCON3.6 
.................... #bit    ANSEL23 = ANCON3.7 
....................  
....................  
.................... //#include<HAMING_CORRECT.h> 
.................... //#org 0x100, 0x11000 DEFAULT  
.................... //#org DEFAULT 
....................      
.................... #device HIGH_INTS=TRUE 
....................  
.................... //-------------UART and SPI Setting-------------------------------------------- 
....................  
.................... #pin_select TX1=PIN_C6                                                           //TX PIN EXT +/- 6v 
.................... #pin_select RX1=PIN_C7                                                           //RX PIN EXT +/- 6V 
.................... #use rs232(baud=115200,parity=N,UART1,bits=8,stream=pc)                          // MAIN to Ext +/- 6v 
*
05376:  BTFSS  F9E.4
05378:  BRA    5376
0537A:  MOVWF  FAD
0537C:  RETURN 0
....................  
.................... //#use rs232(baud=9600,parity=N,xmit=PIN_B6,rcv=PIN_B7,bits=8,stream=pc)           //UART MAIN to ICSP, PGC and PGD pins 
....................  
.................... #pin_select TX2=PIN_D3 
.................... #pin_select RX2=PIN_D2 
.................... #use rs232(baud=9600,parity=N,UART2,bits=8,stream=com)                           //UART Main to COM PIC 
*
03F52:  BTFSS  FA4.4
03F54:  BRA    3F52
03F56:  MOVLB  F
03F58:  MOVWF  x1D
03F5A:  MOVLB  0
03F5C:  RETURN 0
....................  
.................... #pin_select TX3=PIN_E5   
.................... #pin_select RX3=PIN_E4 
.................... #use rs232(baud=9600,parity=N,UART3,bits=8,stream=fab)                           //UART MAIN to FAB PIC 
*
042CA:  BTFSS  FA6.4
042CC:  BRA    42CA
042CE:  MOVLB  F
042D0:  MOVWF  x29
042D2:  MOVLB  0
042D4:  RETURN 0
....................  
.................... #pin_select TX4=PIN_E3   
.................... #pin_select RX4=PIN_F2 
.................... #use rs232(baud=9600,parity=N,UART4,bits=8,stream=reset)                         //UART MAIN to RESET PIC 
*
01AF0:  BTFSS  FA6.6
01AF2:  BRA    1AF0
01AF4:  MOVLB  E
01AF6:  MOVWF  xF9
01AF8:  MOVLB  0
01AFA:  RETURN 0
....................  
.................... #use rs232(baud=9600,parity=N,xmit=pin_F7,rcv=pin_F6,bits=8,stream=ADCS)         //UART MAIN to ADCS 
*
046AC:  BCF    F97.7
046AE:  BCF    F8E.7
046B0:  MOVLW  08
046B2:  MOVWF  01
046B4:  BRA    46B6
046B6:  NOP   
046B8:  BSF    01.7
046BA:  BRA    46DC
046BC:  BCF    01.7
046BE:  MOVLB  3
046C0:  RRCF   x49,F
046C2:  MOVLB  0
046C4:  BTFSC  FD8.0
046C6:  BSF    F8E.7
046C8:  BTFSS  FD8.0
046CA:  BCF    F8E.7
046CC:  BSF    01.6
046CE:  BRA    46DC
046D0:  BCF    01.6
046D2:  DECFSZ 01,F
046D4:  BRA    46BE
046D6:  BRA    46D8
046D8:  NOP   
046DA:  BSF    F8E.7
046DC:  MOVLW  84
046DE:  MOVWF  FE9
046E0:  DECFSZ FE9,F
046E2:  BRA    46E0
046E4:  BRA    46E6
046E6:  NOP   
046E8:  BTFSC  01.7
046EA:  BRA    46BC
046EC:  BTFSC  01.6
046EE:  BRA    46D0
046F0:  RETURN 0
046F2:  BSF    F97.6
046F4:  BTFSC  F85.6
046F6:  BRA    46F4
046F8:  MOVLW  08
046FA:  MOVWF  00
046FC:  MOVLB  3
046FE:  CLRF   x4D
04700:  BSF    00.7
04702:  BRA    4720
04704:  BCF    00.7
04706:  BRA    4720
04708:  BCF    FD8.0
0470A:  BTFSC  F85.6
0470C:  BSF    FD8.0
0470E:  RRCF   x4D,F
04710:  BSF    00.6
04712:  BRA    4720
04714:  BCF    00.6
04716:  DECFSZ 00,F
04718:  BRA    4708
0471A:  MOVFF  34D,01
0471E:  BRA    4738
04720:  MOVLW  84
04722:  BTFSC  00.7
04724:  MOVLW  24
04726:  MOVWF  01
04728:  DECFSZ 01,F
0472A:  BRA    4728
0472C:  BRA    472E
0472E:  BTFSC  00.7
04730:  BRA    4704
04732:  BTFSC  00.6
04734:  BRA    4714
04736:  BRA    4708
04738:  MOVLB  0
0473A:  RETURN 0
.................... #use rs232(baud=9600,parity=N,xmit=pin_G2,rcv=pin_G3,bits=8,stream=CAM)          //UART MAIN to CAM 
*
06872:  BCF    F98.2
06874:  BCF    F8F.2
06876:  MOVLW  08
06878:  MOVWF  01
0687A:  BRA    687C
0687C:  NOP   
0687E:  BSF    01.7
06880:  BRA    68A2
06882:  BCF    01.7
06884:  MOVLB  3
06886:  RRCF   x39,F
06888:  MOVLB  0
0688A:  BTFSC  FD8.0
0688C:  BSF    F8F.2
0688E:  BTFSS  FD8.0
06890:  BCF    F8F.2
06892:  BSF    01.6
06894:  BRA    68A2
06896:  BCF    01.6
06898:  DECFSZ 01,F
0689A:  BRA    6884
0689C:  BRA    689E
0689E:  NOP   
068A0:  BSF    F8F.2
068A2:  MOVLW  84
068A4:  MOVWF  FE9
068A6:  DECFSZ FE9,F
068A8:  BRA    68A6
068AA:  BRA    68AC
068AC:  NOP   
068AE:  BTFSC  01.7
068B0:  BRA    6882
068B2:  BTFSC  01.6
068B4:  BRA    6896
068B6:  RETURN 0
*
068F8:  BSF    F98.3
068FA:  BTFSC  F86.3
068FC:  BRA    68FA
068FE:  MOVLW  08
06900:  MOVWF  00
06902:  MOVLB  3
06904:  CLRF   x3C
06906:  BSF    00.7
06908:  BRA    6926
0690A:  BCF    00.7
0690C:  BRA    6926
0690E:  BCF    FD8.0
06910:  BTFSC  F86.3
06912:  BSF    FD8.0
06914:  RRCF   x3C,F
06916:  BSF    00.6
06918:  BRA    6926
0691A:  BCF    00.6
0691C:  DECFSZ 00,F
0691E:  BRA    690E
06920:  MOVFF  33C,01
06924:  BRA    693E
06926:  MOVLW  84
06928:  BTFSC  00.7
0692A:  MOVLW  24
0692C:  MOVWF  01
0692E:  DECFSZ 01,F
06930:  BRA    692E
06932:  BRA    6934
06934:  BTFSC  00.7
06936:  BRA    690A
06938:  BTFSC  00.6
0693A:  BRA    691A
0693C:  BRA    690E
0693E:  MOVLB  0
06940:  RETURN 0
.................... #use rs232(baud=9600,parity=N,xmit=pin_G0,rcv=pin_G1,bits=8,stream=DC)          //UART MAIN to MB DCM 
*
03F5E:  BCF    F98.0
03F60:  BCF    F8F.0
03F62:  MOVLW  08
03F64:  MOVWF  01
03F66:  BRA    3F68
03F68:  NOP   
03F6A:  BSF    01.7
03F6C:  BRA    3F8E
03F6E:  BCF    01.7
03F70:  MOVLB  3
03F72:  RRCF   x4F,F
03F74:  MOVLB  0
03F76:  BTFSC  FD8.0
03F78:  BSF    F8F.0
03F7A:  BTFSS  FD8.0
03F7C:  BCF    F8F.0
03F7E:  BSF    01.6
03F80:  BRA    3F8E
03F82:  BCF    01.6
03F84:  DECFSZ 01,F
03F86:  BRA    3F70
03F88:  BRA    3F8A
03F8A:  NOP   
03F8C:  BSF    F8F.0
03F8E:  MOVLW  84
03F90:  MOVWF  FE9
03F92:  DECFSZ FE9,F
03F94:  BRA    3F92
03F96:  BRA    3F98
03F98:  NOP   
03F9A:  BTFSC  01.7
03F9C:  BRA    3F6E
03F9E:  BTFSC  01.6
03FA0:  BRA    3F82
03FA2:  RETURN 0
03FA4:  BSF    F98.1
03FA6:  BTFSC  F86.1
03FA8:  BRA    3FA6
03FAA:  MOVLW  08
03FAC:  MOVWF  00
03FAE:  MOVLB  3
03FB0:  CLRF   x53
03FB2:  BSF    00.7
03FB4:  BRA    3FD2
03FB6:  BCF    00.7
03FB8:  BRA    3FD2
03FBA:  BCF    FD8.0
03FBC:  BTFSC  F86.1
03FBE:  BSF    FD8.0
03FC0:  RRCF   x53,F
03FC2:  BSF    00.6
03FC4:  BRA    3FD2
03FC6:  BCF    00.6
03FC8:  DECFSZ 00,F
03FCA:  BRA    3FBA
03FCC:  MOVFF  353,01
03FD0:  BRA    3FEA
03FD2:  MOVLW  84
03FD4:  BTFSC  00.7
03FD6:  MOVLW  24
03FD8:  MOVWF  01
03FDA:  DECFSZ 01,F
03FDC:  BRA    3FDA
03FDE:  BRA    3FE0
03FE0:  BTFSC  00.7
03FE2:  BRA    3FB6
03FE4:  BTFSC  00.6
03FE6:  BRA    3FC6
03FE8:  BRA    3FBA
03FEA:  MOVLB  0
03FEC:  RETURN 0
....................  
.................... #use spi(MASTER, CLK=PIN_E1, DI=PIN_E0, DO=PIN_E6,  BAUD=1000000, BITS=8, STREAM=MAIN_FM, MODE=0)        //MAIN flash memory port 
*
01320:  MOVLB  3
01322:  MOVF   x73,W
01324:  SUBLW  08
01326:  BZ    1330
01328:  MOVWF  x74
0132A:  RLCF   x72,F
0132C:  DECFSZ x74,F
0132E:  BRA    132A
01330:  BSF    F96.0
01332:  BCF    F96.6
01334:  BCF    F96.1
01336:  BCF    F8D.1
01338:  MOVFF  373,374
0133C:  BTFSS  x72.7
0133E:  BCF    F8D.6
01340:  BTFSC  x72.7
01342:  BSF    F8D.6
01344:  RLCF   x72,F
01346:  BSF    F8D.1
01348:  RLCF   01,F
0134A:  BTFSS  F84.0
0134C:  BCF    01.0
0134E:  BTFSC  F84.0
01350:  BSF    01.0
01352:  BCF    F8D.1
01354:  DECFSZ x74,F
01356:  BRA    133C
01358:  MOVLB  0
0135A:  RETURN 0
.................... #use spi(MASTER, CLK=PIN_B2, DI=PIN_B5, DO=PIN_B4,  BAUD=1000000, BITS=8, STREAM=COM_FM, MODE=0)         //COM flash memory port 
*
013D8:  MOVLB  3
013DA:  MOVF   x6D,W
013DC:  SUBLW  08
013DE:  BZ    13E8
013E0:  MOVWF  x6E
013E2:  RLCF   x6C,F
013E4:  DECFSZ x6E,F
013E6:  BRA    13E2
013E8:  BSF    F93.5
013EA:  BCF    F93.4
013EC:  BCF    F93.2
013EE:  BCF    F8A.2
013F0:  MOVFF  36D,36E
013F4:  BTFSS  x6C.7
013F6:  BCF    F8A.4
013F8:  BTFSC  x6C.7
013FA:  BSF    F8A.4
013FC:  RLCF   x6C,F
013FE:  BSF    F8A.2
01400:  RLCF   01,F
01402:  BTFSS  F81.5
01404:  BCF    01.0
01406:  BTFSC  F81.5
01408:  BSF    01.0
0140A:  BCF    F8A.2
0140C:  DECFSZ x6E,F
0140E:  BRA    13F4
01410:  MOVLB  0
01412:  RETURN 0
.................... #use spi(MASTER, CLK=PIN_A3, DI=PIN_A0, DO=PIN_A1,  BAUD=1000000, BITS=8, STREAM=MISSION_FM, MODE=0)     //MISSION flash memory port 
*
01490:  MOVLB  3
01492:  MOVF   x6D,W
01494:  SUBLW  08
01496:  BZ    14A0
01498:  MOVWF  x6E
0149A:  RLCF   x6C,F
0149C:  DECFSZ x6E,F
0149E:  BRA    149A
014A0:  BSF    F92.0
014A2:  BCF    F92.1
014A4:  BCF    F92.3
014A6:  BCF    F89.3
014A8:  MOVFF  36D,36E
014AC:  BTFSS  x6C.7
014AE:  BCF    F89.1
014B0:  BTFSC  x6C.7
014B2:  BSF    F89.1
014B4:  RLCF   x6C,F
014B6:  BSF    F89.3
014B8:  RLCF   01,F
014BA:  BTFSS  F80.0
014BC:  BCF    01.0
014BE:  BTFSC  F80.0
014C0:  BSF    01.0
014C2:  BCF    F89.3
014C4:  DECFSZ x6E,F
014C6:  BRA    14AC
014C8:  MOVLB  0
014CA:  RETURN 0
....................  
.................... //-------------mainpic_function.c---------------------------------------------- 
....................  
....................  
....................  
.................... void Check_UART(); 
.................... void waiting(int32 counterval); 
.................... //void Turn_On_PWM(int a) 
.................... //void Turn_OFF_PWM() 
....................  
....................  
.................... /////////////MAIN PIC Buffer///////////// 
.................... void SerialDataReceive();                                                        //get buffer data one by one 
.................... void Delete_Buffer();                                                            //get buffer data one by one 
.................... void Transfer_Buffer(int PORT_NUM);                                              //get buffer data one by one 
....................  
.................... SerialDataReceive(); 
.................... Transfer_Buffer(int PORT_NUM); //1:PC 2:COMPIC 3:RESETPIC 4:ADCS 5:S&F 6:CAM 
....................  
.................... /////////////RESET SENSOR collection///////////// 
....................  
.................... void DELETE_RESET(); 
.................... void COLLECT_RESET_DATA(); 
....................  
.................... /////////////FAB SENSOR collection///////////// 
.................... void Delete_in_HK(); 
.................... void Delete_HKDATA(); 
.................... void Delete_CWFORMAT(); 
.................... void MAKE_CW_FORMAT(); 
.................... void SAVE_HKDATA_TO_OF(unsigned int32 Memory_Adress); 
.................... void SAVE_HKDATA_TO_SCF(unsigned int32 Memory_Adress); 
.................... void SAVE_CWFORMAT_TO_OF(unsigned int32 Memory_Adress); 
.................... void SAVE_CWFORMAT_TO_SCF(unsigned int32 Memory_Adress); 
.................... void Send_COMMAND_TO_FAB(int8 cmd); 
.................... int8 ACK_FROM_FAB(); 
.................... void Send_HKDATA_to_SCF(int32 adress); 
.................... void Send_HKDATA_to_OF(int32 adress); 
.................... void SEND_CWFORMAT_TO_SCF(int32 adress); 
.................... void SEND_CWFORMAT_TO_OF(int32 adress); 
.................... void Send_HKDATA_to_PC(int32 adress); 
.................... void CHECK_HKDATA(int8 in); 
.................... void VERIFY_FABDATA(int32 delaytime1,int32 delaytime2); 
.................... void FAB_TEST_OPERATION(); 
.................... void GET_RESET_DATA(); 
....................  
.................... ///////////////HIGH SAMPLING HK collection////////////// 
.................... void SAVE_HIGH_HKDATA_TO_SCF(unsigned int32 Memory_Adress); 
.................... void Send_HIGH_HKDATA_to_SCF(int32 adress); 
.................... void SAVE_HIGH_HKDATA_TO_OF(unsigned int32 Memory_Adress); 
.................... void Send_HIGH_HKDATA_to_OF(int32 adress); 
.................... void CHECK_HIGH_SAMP_FABDATA(int8 in); 
.................... void VERIFY_HIGH_SAMP_FABDATA(int32 delaytime); 
.................... void GET_HIGH_SAMP_RESET_DATA(); 
.................... void HIGH_SAMP_FAB_OPERATION(); 
.................... void HIGHSAMP_SENSOR_COLLECTION(int16 second); 
....................  
.................... /////////////ANTENNA DEPLOYMENT///////////// 
.................... void BC_SETUP(); 
.................... void BC_READ_TO_PC(); 
.................... void CHECK_BC_TEMP(); 
.................... void Turn_ON_BC(); 
.................... void Turn_OFF_BC(); 
.................... void CHECK_POWER(); 
.................... void BC_OPERATION(); 
.................... void CLEAR_BC_FLAG(); 
.................... void MAKE_BC_FLAG_1(); 
.................... void MAKE_BC_FLAG_2(); 
.................... void MAKE_BC_FLAG_3(); 
.................... void MAKE_BC_FLAG_4(); 
....................  
....................  
.................... /////////////CAM MISSION///////////// 
.................... void Turn_On_CAM(); 
.................... void Turn_Off_CAM(); 
.................... void Send_Command_to_CAM(int8 data); 
.................... int8 ACK_from_CAM(); 
.................... void Transfer_Photo(); 
.................... void CAM_TEST_OPERATION(int8 mode); 
.................... void CAM_DEPLOYMENT_OPERATION(int8 mode); 
....................  
....................  
.................... /////////////ADCS MISSION///////////// 
....................  
.................... void Turn_On_ADCS(); 
.................... void Turn_Off_ADCS(); 
.................... void Send_Command_to_ADCS(int8 data); 
.................... void DELETE_ADCS_SENSOR(); 
.................... void ADCS_SETTINGS();                                                            //initiallize 
.................... void DISPLAY_ADCS_SENSOR_TO_PC();                                                //for testing 
.................... void Get_ADCS_Data(); 
.................... void SAVE_SENSOR_TO_SMF(); 
.................... void TRANSFER_SENSOR_FROM_SMF_TO_SCF(); 
.................... void ADCS_TEST_OPERATION(); 
.................... void ADCS_TLE_JOIN(); 
.................... void ADCS_TLE_TRANSFER(); 
....................  
.................... /////////////MBP Data Collection MISSION///////////// 
.................... void Turn_On_MBP(); 
.................... void Turn_Off_MBP(); 
.................... void DATACOLLECTION_TEST_OPERATION(); 
.................... void MISSION_TEST_OPERATION(); 
.................... void MBP_SYNC(); 
....................  
.................... /////////////KILL FUNCTION/////////////////////// 
.................... void Count_Kill_Flag(); 
....................  
.................... /////////////OTHER FUNCTION////////////////////// 
.................... void COLLECT_RESET_DATA(); 
.................... void CURRENT_ADDRESS_OF_COM_FLASH(); 
.................... void STORE_ADRESS_DATA_TO_FLASH(); 
.................... void TAKE_ADDRESS_DATA_FROM_OF(); 
.................... void MAKE_ADDRESS_DATA(); 
.................... void CHECK_ADDRESS_DATA(); 
.................... void MEMORY_ERASE(); 
....................  
....................  
.................... ////////////////////////////////RESERVATION FUNCTION (reserve_function.c)///////////////////////////////// 
.................... void initialize_table(); 
.................... void sort_table();                                                               //(command info, time info, mission mode)~10compare the time and sort 
.................... void Save_RSV(); 
.................... void table_refresh(); 
.................... void Get_RSV(); 
.................... void Disp_RSV();                                                                 //show the reserve status (reserve command and reserve table) 
.................... void input_reservation_COM();                                                    //put the command into the table and sort 
.................... void input_reservation_PC();                                                     //put the command into the table and sort 
.................... void Remove_1_Reservation();                                                     //after executing the mission, it should be finished 
.................... void Reserve_command_COM();                                                      //reservation from COM 
.................... void Reserve_command_PC();                                                       //reservation from PC 
.................... void Reserve_next();                                                             //after finishing executing the reservation command, this function should be execute 
.................... void RSV_DATA_DOWNLOAD();                                                        //send cmd to COM for data download reservation function 
.................... #include<mainpic_function.h> 
.................... #include<flash_ memory_ MT25QL01GBBB_OF.c>                                       //all flash memory 
.................... #define SPIPORT MAIN_FM 
.................... #define SPIPORT_2 COM_FM 
.................... #define SPIPORT_3 MISSION_FM 
....................  
.................... #define CS_PIN PIN_E2 
.................... #define CS_PIN_2 PIN_B3 
.................... #define CS_PIN_3 PIN_A2 
....................  
.................... #define READ_ID              0x9F 
.................... #define READ_STATUS_REG      0x05  
.................... #define READ_DATA_BYTES      0x13  //0x03 for byte 
.................... #define ENABLE_WRITE         0x06 
.................... #define WRITE_PAGE           0x12  //0x02 for 3byte 
.................... #define ERASE_SECTOR         0xDC  //0xD8 for 3byte 
.................... #define ERASE_4KB_SUBSECTOR  0x21 
.................... #define ERASE_32KB_SUBSECTOR 0x5C 
.................... #define DIE_ERASE            0xC4 
....................  
....................  
....................  
.................... void WRITE_ENABLE_OF(){ 
....................  output_low(CS_PIN); 
*
0160A:  BCF    F96.2
0160C:  BCF    F8D.2
....................   
....................  ///////////////////////////////////////////////////////////// 
....................  //delay_ms(2); 
....................  spi_xfer(SPIPORT,ENABLE_WRITE);                //Send 0x06 
0160E:  MOVLW  06
01610:  MOVLB  3
01612:  MOVWF  x72
01614:  MOVLW  08
01616:  MOVWF  x73
01618:  MOVLB  0
0161A:  RCALL  1320
....................  ///////////////////////////////////////////////////////////// 
....................   
....................  output_high(CS_PIN);   
0161C:  BCF    F96.2
0161E:  BSF    F8D.2
....................  return; 
01620:  RETURN 0
.................... } 
.................... void WRITE_ENABLE_SCF(){ 
....................  output_low(CS_PIN_2); 
*
01696:  BCF    F93.3
01698:  BCF    F8A.3
....................   
....................  ///////////////////////////////////////////////////////////// 
....................  //delay_ms(2); 
....................  spi_xfer(SPIPORT_2,ENABLE_WRITE);                //Send 0x06 
0169A:  MOVLW  06
0169C:  MOVLB  3
0169E:  MOVWF  x6C
016A0:  MOVLW  08
016A2:  MOVWF  x6D
016A4:  MOVLB  0
016A6:  RCALL  13D8
....................  ///////////////////////////////////////////////////////////// 
....................   
....................  output_high(CS_PIN_2);   
016A8:  BCF    F93.3
016AA:  BSF    F8A.3
....................  return; 
016AC:  RETURN 0
.................... } 
.................... void WRITE_ENABLE_SMF(){ 
....................  output_low(CS_PIN_3); 
*
01722:  BCF    F92.2
01724:  BCF    F89.2
....................   
....................  ///////////////////////////////////////////////////////////// 
....................  //delay_ms(2); 
....................  spi_xfer(SPIPORT_3,ENABLE_WRITE);                //Send 0x06 
01726:  MOVLW  06
01728:  MOVLB  3
0172A:  MOVWF  x6C
0172C:  MOVLW  08
0172E:  MOVWF  x6D
01730:  MOVLB  0
01732:  RCALL  1490
....................  ///////////////////////////////////////////////////////////// 
....................   
....................  output_high(CS_PIN_3);   
01734:  BCF    F92.2
01736:  BSF    F89.2
....................  return; 
01738:  RETURN 0
.................... } 
....................  
.................... void sector_erase_OF(unsigned int32 sector_address)                              //borra un sector de la flash 
.................... { 
....................    unsigned int8 adsress[4]; 
....................     
....................    adsress[0]  = (unsigned int8)((sector_address>>24) & 0xFF);                   // 0x _ _ 00 00 00 
*
0359C:  MOVLB  3
0359E:  MOVFF  35B,35C
....................    adsress[1]  = (unsigned int8)((sector_address>>16) & 0xFF);                   // 0x 00 _ _ 00 00 
035A2:  MOVFF  35A,35D
....................    adsress[2]  = (unsigned int8)((sector_address>>8) & 0xFF);                    // 0x 00 00 _ _ 00 
035A6:  MOVFF  359,35E
....................    adsress[3]  = (unsigned int8)((sector_address) & 0xFF);                       // 0x 00 00 00 _ _ 
035AA:  MOVFF  358,35F
....................     
....................     
....................    WRITE_ENABLE_OF(); 
035AE:  MOVLB  0
035B0:  CALL   160A
....................    output_low(CS_PIN);                                                           //lower the CS PIN 
035B4:  BCF    F96.2
035B6:  BCF    F8D.2
....................    delay_us(2); 
035B8:  MOVLW  02
035BA:  MOVWF  00
035BC:  DECFSZ 00,F
035BE:  BRA    35BC
035C0:  NOP   
....................     
....................    /////////////////////////////////////////////////////////////////// 
....................    spi_xfer(SPIPORT,ERASE_SECTOR);                                               //SECTOR ERASE COMAND   (0xDC) 
035C2:  MOVLW  DC
035C4:  MOVLB  3
035C6:  MOVWF  x72
035C8:  MOVLW  08
035CA:  MOVWF  x73
035CC:  MOVLB  0
035CE:  CALL   1320
....................     
....................    spi_xfer(SPIPORT,adsress[0]);    
035D2:  MOVFF  35C,372
035D6:  MOVLW  08
035D8:  MOVLB  3
035DA:  MOVWF  x73
035DC:  MOVLB  0
035DE:  CALL   1320
....................    spi_xfer(SPIPORT,adsress[1]);     
035E2:  MOVFF  35D,372
035E6:  MOVLW  08
035E8:  MOVLB  3
035EA:  MOVWF  x73
035EC:  MOVLB  0
035EE:  CALL   1320
....................    spi_xfer(SPIPORT,adsress[2]);     
035F2:  MOVFF  35E,372
035F6:  MOVLW  08
035F8:  MOVLB  3
035FA:  MOVWF  x73
035FC:  MOVLB  0
035FE:  CALL   1320
....................    spi_xfer(SPIPORT,adsress[3]); 
03602:  MOVFF  35F,372
03606:  MOVLW  08
03608:  MOVLB  3
0360A:  MOVWF  x73
0360C:  MOVLB  0
0360E:  CALL   1320
....................    ////////////////////////////////////////////////////////////////// 
....................     
....................    delay_us(2); 
03612:  MOVLW  02
03614:  MOVWF  00
03616:  DECFSZ 00,F
03618:  BRA    3616
0361A:  NOP   
....................    output_high(CS_PIN);                                                          //take CS PIN higher back 
0361C:  BCF    F96.2
0361E:  BSF    F8D.2
....................    //delay_ms(1000); 
....................    delay_ms(750); 
03620:  MOVLW  03
03622:  MOVLB  3
03624:  MOVWF  x60
03626:  MOVLW  FA
03628:  MOVWF  x6B
0362A:  MOVLB  0
0362C:  CALL   1AFC
03630:  MOVLB  3
03632:  DECFSZ x60,F
03634:  BRA    3626
....................     
....................    return; 
03636:  MOVLB  0
03638:  RETURN 0
.................... } 
.................... void sector_erase_SCF(unsigned int32 sector_address) 
.................... { 
....................    unsigned int8 adsress[4]; 
....................     
....................    adsress[0]  = (unsigned int8)((sector_address>>24) & 0xFF);                   // 0x _ _ 00 00 00 
0363A:  MOVLB  3
0363C:  MOVFF  35B,35C
....................    adsress[1]  = (unsigned int8)((sector_address>>16) & 0xFF);                   // 0x 00 _ _ 00 00 
03640:  MOVFF  35A,35D
....................    adsress[2]  = (unsigned int8)((sector_address>>8) & 0xFF);                    // 0x 00 00 _ _ 00 
03644:  MOVFF  359,35E
....................    adsress[3]  = (unsigned int8)((sector_address) & 0xFF);                       // 0x 00 00 00 _ _ 
03648:  MOVFF  358,35F
....................     
....................     
....................    WRITE_ENABLE_SCF(); 
0364C:  MOVLB  0
0364E:  CALL   1696
....................    output_low(CS_PIN_2);                                                         //lower the CS PIN 
03652:  BCF    F93.3
03654:  BCF    F8A.3
....................    delay_us(2); 
03656:  MOVLW  02
03658:  MOVWF  00
0365A:  DECFSZ 00,F
0365C:  BRA    365A
0365E:  NOP   
....................     
....................    /////////////////////////////////////////////////////////////////// 
....................    spi_xfer(SPIPORT_2,ERASE_SECTOR);                                             //SECTOR ERASE COMAND   (0xDC) 
03660:  MOVLW  DC
03662:  MOVLB  3
03664:  MOVWF  x6C
03666:  MOVLW  08
03668:  MOVWF  x6D
0366A:  MOVLB  0
0366C:  CALL   13D8
....................     
....................    spi_xfer(SPIPORT_2,adsress[0]);    
03670:  MOVFF  35C,36C
03674:  MOVLW  08
03676:  MOVLB  3
03678:  MOVWF  x6D
0367A:  MOVLB  0
0367C:  CALL   13D8
....................    spi_xfer(SPIPORT_2,adsress[1]);     
03680:  MOVFF  35D,36C
03684:  MOVLW  08
03686:  MOVLB  3
03688:  MOVWF  x6D
0368A:  MOVLB  0
0368C:  CALL   13D8
....................    spi_xfer(SPIPORT_2,adsress[2]);     
03690:  MOVFF  35E,36C
03694:  MOVLW  08
03696:  MOVLB  3
03698:  MOVWF  x6D
0369A:  MOVLB  0
0369C:  CALL   13D8
....................    spi_xfer(SPIPORT_2,adsress[3]); 
036A0:  MOVFF  35F,36C
036A4:  MOVLW  08
036A6:  MOVLB  3
036A8:  MOVWF  x6D
036AA:  MOVLB  0
036AC:  CALL   13D8
....................    ////////////////////////////////////////////////////////////////// 
....................     
....................    delay_us(2); 
036B0:  MOVLW  02
036B2:  MOVWF  00
036B4:  DECFSZ 00,F
036B6:  BRA    36B4
036B8:  NOP   
....................    output_high(CS_PIN_2);                                                        //take CS PIN higher back 
036BA:  BCF    F93.3
036BC:  BSF    F8A.3
....................    //delay_ms(1000); 
....................    delay_ms(750); 
036BE:  MOVLW  03
036C0:  MOVLB  3
036C2:  MOVWF  x60
036C4:  MOVLW  FA
036C6:  MOVWF  x6B
036C8:  MOVLB  0
036CA:  CALL   1AFC
036CE:  MOVLB  3
036D0:  DECFSZ x60,F
036D2:  BRA    36C4
....................     
....................    return; 
036D4:  MOVLB  0
036D6:  RETURN 0
.................... } 
.................... void sector_erase_SMF(unsigned int32 sector_address) 
.................... { 
....................    unsigned int8 adsress[4]; 
....................     
....................    adsress[0]  = (unsigned int8)((sector_address>>24) & 0xFF);   // 0x _ _ 00 00 00 
036D8:  MOVLB  3
036DA:  MOVFF  35B,35C
....................    adsress[1]  = (unsigned int8)((sector_address>>16) & 0xFF);   // 0x 00 _ _ 00 00 
036DE:  MOVFF  35A,35D
....................    adsress[2]  = (unsigned int8)((sector_address>>8) & 0xFF);    // 0x 00 00 _ _ 00 
036E2:  MOVFF  359,35E
....................    adsress[3]  = (unsigned int8)((sector_address) & 0xFF);       // 0x 00 00 00 _ _ 
036E6:  MOVFF  358,35F
....................     
....................     
....................    WRITE_ENABLE_SMF(); 
036EA:  MOVLB  0
036EC:  CALL   1722
....................    output_low(CS_PIN_3);             //lower the CS PIN 
036F0:  BCF    F92.2
036F2:  BCF    F89.2
....................    delay_us(2); 
036F4:  MOVLW  02
036F6:  MOVWF  00
036F8:  DECFSZ 00,F
036FA:  BRA    36F8
036FC:  NOP   
....................     
....................    /////////////////////////////////////////////////////////////////// 
....................    spi_xfer(SPIPORT_3,ERASE_SECTOR); //SECTOR ERASE COMAND   (0xDC) 
036FE:  MOVLW  DC
03700:  MOVLB  3
03702:  MOVWF  x6C
03704:  MOVLW  08
03706:  MOVWF  x6D
03708:  MOVLB  0
0370A:  CALL   1490
....................     
....................    spi_xfer(SPIPORT_3,adsress[0]);    
0370E:  MOVFF  35C,36C
03712:  MOVLW  08
03714:  MOVLB  3
03716:  MOVWF  x6D
03718:  MOVLB  0
0371A:  CALL   1490
....................    spi_xfer(SPIPORT_3,adsress[1]);     
0371E:  MOVFF  35D,36C
03722:  MOVLW  08
03724:  MOVLB  3
03726:  MOVWF  x6D
03728:  MOVLB  0
0372A:  CALL   1490
....................    spi_xfer(SPIPORT_3,adsress[2]);     
0372E:  MOVFF  35E,36C
03732:  MOVLW  08
03734:  MOVLB  3
03736:  MOVWF  x6D
03738:  MOVLB  0
0373A:  CALL   1490
....................    spi_xfer(SPIPORT_3,adsress[3]); 
0373E:  MOVFF  35F,36C
03742:  MOVLW  08
03744:  MOVLB  3
03746:  MOVWF  x6D
03748:  MOVLB  0
0374A:  CALL   1490
....................    ////////////////////////////////////////////////////////////////// 
....................     
....................    delay_us(2); 
0374E:  MOVLW  02
03750:  MOVWF  00
03752:  DECFSZ 00,F
03754:  BRA    3752
03756:  NOP   
....................    output_high(CS_PIN_3);           //take CS PIN higher back 
03758:  BCF    F92.2
0375A:  BSF    F89.2
....................    //delay_ms(1000);   
....................    delay_ms(750); 
0375C:  MOVLW  03
0375E:  MOVLB  3
03760:  MOVWF  x60
03762:  MOVLW  FA
03764:  MOVWF  x6B
03766:  MOVLB  0
03768:  CALL   1AFC
0376C:  MOVLB  3
0376E:  DECFSZ x60,F
03770:  BRA    3762
....................    return; 
03772:  MOVLB  0
03774:  RETURN 0
.................... } 
....................  
.................... void SUBSECTOR_4KB_ERASE_OF(unsigned int32 sector_address)                       //Funcion que borra un sector de 4KB de la Main Flash 
.................... {                                                                                //Recibe la direccion del sector que se quiere borrar 
....................    unsigned int8 adsress[4]; 
....................     
....................    adsress[0]  = (unsigned int8)((sector_address>>24) & 0xFF);                   // 0x _ _ 00 00 00 
*
02FCA:  MOVLB  3
02FCC:  MOVFF  365,366
....................    adsress[1]  = (unsigned int8)((sector_address>>16) & 0xFF);                   // 0x 00 _ _ 00 00 
02FD0:  MOVFF  364,367
....................    adsress[2]  = (unsigned int8)((sector_address>>8) & 0xFF);                    // 0x 00 00 _ _ 00 
02FD4:  MOVFF  363,368
....................    adsress[3]  = (unsigned int8)((sector_address) & 0xFF);                       // 0x 00 00 00 _ _ 
02FD8:  MOVFF  362,369
....................     
....................     
....................    WRITE_ENABLE_OF();                                                            //Funcion que habilita escritura en Own Flash 
02FDC:  MOVLB  0
02FDE:  CALL   160A
....................    output_low(CS_PIN);                                                           //lower the CS PIN 
02FE2:  BCF    F96.2
02FE4:  BCF    F8D.2
....................    delay_us(2); 
02FE6:  MOVLW  02
02FE8:  MOVWF  00
02FEA:  DECFSZ 00,F
02FEC:  BRA    2FEA
02FEE:  NOP   
....................     
....................    /////////////////////////////////////////////////////////////////// 
....................    spi_xfer(SPIPORT,ERASE_4KB_SUBSECTOR);                                        //SECTOR ERASE COMAND   (0xDC) 
02FF0:  MOVLW  21
02FF2:  MOVLB  3
02FF4:  MOVWF  x72
02FF6:  MOVLW  08
02FF8:  MOVWF  x73
02FFA:  MOVLB  0
02FFC:  CALL   1320
....................     
....................    spi_xfer(SPIPORT,adsress[0]);                                                 //Se le pasa la direccion del sector a borrar 
03000:  MOVFF  366,372
03004:  MOVLW  08
03006:  MOVLB  3
03008:  MOVWF  x73
0300A:  MOVLB  0
0300C:  CALL   1320
....................    spi_xfer(SPIPORT,adsress[1]);     
03010:  MOVFF  367,372
03014:  MOVLW  08
03016:  MOVLB  3
03018:  MOVWF  x73
0301A:  MOVLB  0
0301C:  CALL   1320
....................    spi_xfer(SPIPORT,adsress[2]);     
03020:  MOVFF  368,372
03024:  MOVLW  08
03026:  MOVLB  3
03028:  MOVWF  x73
0302A:  MOVLB  0
0302C:  CALL   1320
....................    spi_xfer(SPIPORT,adsress[3]); 
03030:  MOVFF  369,372
03034:  MOVLW  08
03036:  MOVLB  3
03038:  MOVWF  x73
0303A:  MOVLB  0
0303C:  CALL   1320
....................    ////////////////////////////////////////////////////////////////// 
....................     
....................    delay_us(2); 
03040:  MOVLW  02
03042:  MOVWF  00
03044:  DECFSZ 00,F
03046:  BRA    3044
03048:  NOP   
....................    output_high(CS_PIN);                                                          //take CS PIN higher back 
0304A:  BCF    F96.2
0304C:  BSF    F8D.2
....................    delay_ms(100);   
0304E:  MOVLW  64
03050:  MOVLB  3
03052:  MOVWF  x6B
03054:  MOVLB  0
03056:  CALL   1AFC
....................     
....................    return; 
0305A:  RETURN 0
.................... } 
.................... void SUBSECTOR_4KB_ERASE_SCF(unsigned int32 sector_address)                      //Funcion que borra un sector de 4KB de la COM Flash 
.................... { 
....................    unsigned int8 adsress[4]; 
....................     
....................    adsress[0]  = (unsigned int8)((sector_address>>24) & 0xFF);                   // 0x _ _ 00 00 00 
0305C:  MOVLB  3
0305E:  MOVFF  365,366
....................    adsress[1]  = (unsigned int8)((sector_address>>16) & 0xFF);                   // 0x 00 _ _ 00 00 
03062:  MOVFF  364,367
....................    adsress[2]  = (unsigned int8)((sector_address>>8) & 0xFF);                    // 0x 00 00 _ _ 00 
03066:  MOVFF  363,368
....................    adsress[3]  = (unsigned int8)((sector_address) & 0xFF);                       // 0x 00 00 00 _ _ 
0306A:  MOVFF  362,369
....................     
....................     
....................    WRITE_ENABLE_SCF();                                                           //Funcion que habilita escritura en COM Flash 
0306E:  MOVLB  0
03070:  CALL   1696
....................    output_low(CS_PIN_2);                                                         //lower the CS PIN 
03074:  BCF    F93.3
03076:  BCF    F8A.3
....................    delay_us(2); 
03078:  MOVLW  02
0307A:  MOVWF  00
0307C:  DECFSZ 00,F
0307E:  BRA    307C
03080:  NOP   
....................     
....................    /////////////////////////////////////////////////////////////////// 
....................    spi_xfer(SPIPORT_2,ERASE_4KB_SUBSECTOR); //SECTOR ERASE COMAND   (0xDC) 
03082:  MOVLW  21
03084:  MOVLB  3
03086:  MOVWF  x6C
03088:  MOVLW  08
0308A:  MOVWF  x6D
0308C:  MOVLB  0
0308E:  CALL   13D8
....................     
....................    spi_xfer(SPIPORT_2,adsress[0]);    
03092:  MOVFF  366,36C
03096:  MOVLW  08
03098:  MOVLB  3
0309A:  MOVWF  x6D
0309C:  MOVLB  0
0309E:  CALL   13D8
....................    spi_xfer(SPIPORT_2,adsress[1]);     
030A2:  MOVFF  367,36C
030A6:  MOVLW  08
030A8:  MOVLB  3
030AA:  MOVWF  x6D
030AC:  MOVLB  0
030AE:  CALL   13D8
....................    spi_xfer(SPIPORT_2,adsress[2]);     
030B2:  MOVFF  368,36C
030B6:  MOVLW  08
030B8:  MOVLB  3
030BA:  MOVWF  x6D
030BC:  MOVLB  0
030BE:  CALL   13D8
....................    spi_xfer(SPIPORT_2,adsress[3]); 
030C2:  MOVFF  369,36C
030C6:  MOVLW  08
030C8:  MOVLB  3
030CA:  MOVWF  x6D
030CC:  MOVLB  0
030CE:  CALL   13D8
....................    ////////////////////////////////////////////////////////////////// 
....................     
....................    delay_us(2); 
030D2:  MOVLW  02
030D4:  MOVWF  00
030D6:  DECFSZ 00,F
030D8:  BRA    30D6
030DA:  NOP   
....................    output_high(CS_PIN_2);                                                        //take CS PIN higher back 
030DC:  BCF    F93.3
030DE:  BSF    F8A.3
....................    delay_ms(10);   
030E0:  MOVLW  0A
030E2:  MOVLB  3
030E4:  MOVWF  x6B
030E6:  MOVLB  0
030E8:  CALL   1AFC
....................     
....................    return; 
030EC:  RETURN 0
.................... } 
.................... void SUBSECTOR_4KB_ERASE_SMF(unsigned int32 sector_address)                      //Funcion que borra un sector de 4KB de la Mission Flash 
.................... { 
....................    unsigned int8 adsress[4]; 
....................     
....................    adsress[0]  = (unsigned int8)((sector_address>>24) & 0xFF);                   // 0x _ _ 00 00 00 
030EE:  MOVLB  3
030F0:  MOVFF  365,366
....................    adsress[1]  = (unsigned int8)((sector_address>>16) & 0xFF);                   // 0x 00 _ _ 00 00 
030F4:  MOVFF  364,367
....................    adsress[2]  = (unsigned int8)((sector_address>>8) & 0xFF);                    // 0x 00 00 _ _ 00 
030F8:  MOVFF  363,368
....................    adsress[3]  = (unsigned int8)((sector_address) & 0xFF);                       // 0x 00 00 00 _ _ 
030FC:  MOVFF  362,369
....................     
....................     
....................    WRITE_ENABLE_SMF();                                                           //Funcion que habilita escritura en Mission Flash 
03100:  MOVLB  0
03102:  CALL   1722
....................    output_low(CS_PIN_3);                                                         //lower the CS PIN 
03106:  BCF    F92.2
03108:  BCF    F89.2
....................    delay_us(2); 
0310A:  MOVLW  02
0310C:  MOVWF  00
0310E:  DECFSZ 00,F
03110:  BRA    310E
03112:  NOP   
....................     
....................    /////////////////////////////////////////////////////////////////// 
....................    spi_xfer(SPIPORT_3,ERASE_4KB_SUBSECTOR);                                      //SECTOR ERASE COMAND   (0xDC) 
03114:  MOVLW  21
03116:  MOVLB  3
03118:  MOVWF  x6C
0311A:  MOVLW  08
0311C:  MOVWF  x6D
0311E:  MOVLB  0
03120:  CALL   1490
....................     
....................    spi_xfer(SPIPORT_3,adsress[0]);    
03124:  MOVFF  366,36C
03128:  MOVLW  08
0312A:  MOVLB  3
0312C:  MOVWF  x6D
0312E:  MOVLB  0
03130:  CALL   1490
....................    spi_xfer(SPIPORT_3,adsress[1]);     
03134:  MOVFF  367,36C
03138:  MOVLW  08
0313A:  MOVLB  3
0313C:  MOVWF  x6D
0313E:  MOVLB  0
03140:  CALL   1490
....................    spi_xfer(SPIPORT_3,adsress[2]);     
03144:  MOVFF  368,36C
03148:  MOVLW  08
0314A:  MOVLB  3
0314C:  MOVWF  x6D
0314E:  MOVLB  0
03150:  CALL   1490
....................    spi_xfer(SPIPORT_3,adsress[3]); 
03154:  MOVFF  369,36C
03158:  MOVLW  08
0315A:  MOVLB  3
0315C:  MOVWF  x6D
0315E:  MOVLB  0
03160:  CALL   1490
....................    ////////////////////////////////////////////////////////////////// 
....................     
....................    delay_us(2); 
03164:  MOVLW  02
03166:  MOVWF  00
03168:  DECFSZ 00,F
0316A:  BRA    3168
0316C:  NOP   
....................    output_high(CS_PIN_3);                                                        //take CS PIN higher back 
0316E:  BCF    F92.2
03170:  BSF    F89.2
....................    delay_ms(1000);   
03172:  MOVLW  04
03174:  MOVLB  3
03176:  MOVWF  x6A
03178:  MOVLW  FA
0317A:  MOVWF  x6B
0317C:  MOVLB  0
0317E:  CALL   1AFC
03182:  MOVLB  3
03184:  DECFSZ x6A,F
03186:  BRA    3178
....................     
....................    return; 
03188:  MOVLB  0
0318A:  RETURN 0
.................... } 
.................... /* 
.................... void SUBSECTOR_32KB_ERASE_OF(unsigned int32 sector_address) 
.................... { 
....................    unsigned int8 adsress[4]; 
....................     
....................    adsress[0]  = (unsigned int8)((sector_address>>24) & 0xFF);   // 0x _ _ 00 00 00 
....................    adsress[1]  = (unsigned int8)((sector_address>>16) & 0xFF);   // 0x 00 _ _ 00 00 
....................    adsress[2]  = (unsigned int8)((sector_address>>8) & 0xFF);    // 0x 00 00 _ _ 00 
....................    adsress[3]  = (unsigned int8)((sector_address) & 0xFF);       // 0x 00 00 00 _ _ 
....................     
....................     
....................    WRITE_ENABLE_OF(); 
....................    output_low(CS_PIN);             //lower the CS PIN 
....................    delay_us(2); 
....................     
....................    /////////////////////////////////////////////////////////////////// 
....................    spi_xfer(SPIPORT,ERASE_32KB_SUBSECTOR); //SECTOR ERASE COMAND   (0xDC) 
....................     
....................    spi_xfer(SPIPORT,adsress[0]);    
....................    spi_xfer(SPIPORT,adsress[1]);     
....................    spi_xfer(SPIPORT,adsress[2]);     
....................    spi_xfer(SPIPORT,adsress[3]); 
....................    ////////////////////////////////////////////////////////////////// 
....................     
....................    delay_us(2); 
....................    output_high(CS_PIN);           //take CS PIN higher back 
....................    delay_ms(1000);   
....................     
....................    return; 
.................... } 
.................... void SUBSECTOR_32KB_ERASE_SCF(unsigned int32 sector_address) 
.................... { 
....................    unsigned int8 adsress[4]; 
....................     
....................    adsress[0]  = (unsigned int8)((sector_address>>24) & 0xFF);   // 0x _ _ 00 00 00 
....................    adsress[1]  = (unsigned int8)((sector_address>>16) & 0xFF);   // 0x 00 _ _ 00 00 
....................    adsress[2]  = (unsigned int8)((sector_address>>8) & 0xFF);    // 0x 00 00 _ _ 00 
....................    adsress[3]  = (unsigned int8)((sector_address) & 0xFF);       // 0x 00 00 00 _ _ 
....................     
....................     
....................    WRITE_ENABLE_SCF(); 
....................    output_low(CS_PIN_2);             //lower the CS PIN 
....................    delay_us(2); 
....................     
....................    /////////////////////////////////////////////////////////////////// 
....................    spi_xfer(SPIPORT_2,ERASE_32KB_SUBSECTOR); //SECTOR ERASE COMAND   (0xDC) 
....................     
....................    spi_xfer(SPIPORT_2,adsress[0]);    
....................    spi_xfer(SPIPORT_2,adsress[1]);     
....................    spi_xfer(SPIPORT_2,adsress[2]);     
....................    spi_xfer(SPIPORT_2,adsress[3]); 
....................    ////////////////////////////////////////////////////////////////// 
....................     
....................    delay_us(2); 
....................    output_high(CS_PIN_2);           //take CS PIN higher back 
....................    delay_ms(1000);   
....................     
....................    return; 
.................... } 
.................... void SUBSECTOR_32KB_ERASE_SMF(unsigned int32 sector_address) 
.................... { 
....................    unsigned int8 adsress[4]; 
....................     
....................    adsress[0]  = (unsigned int8)((sector_address>>24) & 0xFF);   // 0x _ _ 00 00 00 
....................    adsress[1]  = (unsigned int8)((sector_address>>16) & 0xFF);   // 0x 00 _ _ 00 00 
....................    adsress[2]  = (unsigned int8)((sector_address>>8) & 0xFF);    // 0x 00 00 _ _ 00 
....................    adsress[3]  = (unsigned int8)((sector_address) & 0xFF);       // 0x 00 00 00 _ _ 
....................     
....................     
....................    WRITE_ENABLE_SMF(); 
....................    output_low(CS_PIN_3);             //lower the CS PIN 
....................    delay_us(2); 
....................     
....................    /////////////////////////////////////////////////////////////////// 
....................    spi_xfer(SPIPORT_3,ERASE_32KB_SUBSECTOR); //SECTOR ERASE COMAND   (0xDC) 
....................     
....................    spi_xfer(SPIPORT_3,adsress[0]);    
....................    spi_xfer(SPIPORT_3,adsress[1]);     
....................    spi_xfer(SPIPORT_3,adsress[2]);     
....................    spi_xfer(SPIPORT_3,adsress[3]); 
....................    ////////////////////////////////////////////////////////////////// 
....................     
....................    delay_us(2); 
....................    output_high(CS_PIN_3);           //take CS PIN higher back 
....................    delay_ms(1000);   
....................     
....................    return; 
.................... } 
....................  
.................... void ALL_SECTOR_ERASE_OF() 
.................... { 
....................    int32 ADRESS = 0; 
....................    for(int16 i = 0; i < 2048; i++) 
....................    { 
....................       sector_erase_OF(ADRESS); 
....................       ADRESS = ADRESS + 65536; 
....................    } 
.................... } 
.................... void ALL_SECTOR_ERASE_SCF() 
.................... { 
....................    int32 ADRESS = 0; 
....................    for(int16 i = 0; i < 2048; i++) 
....................    { 
....................       sector_erase_SCF(ADRESS); 
....................       ADRESS = ADRESS + 65536; 
....................    } 
.................... } 
.................... void ALL_SECTOR_ERASE_SMF() 
.................... { 
....................    int32 ADRESS = 0; 
....................    for(int16 i = 0; i < 2048; i++) 
....................    { 
....................       sector_erase_SMF(ADRESS); 
....................       ADRESS = ADRESS + 65536; 
....................    } 
.................... } 
.................... */ 
.................... void WRITE_DATA_BYTE_OF(unsigned int32 page_address, int8 data)                  //Funcion que escribe un Byte en la Main Flash 
.................... { 
....................    unsigned int8 adsress[4]; 
....................     
....................    //Byte extraction 
....................    adsress[0]  = (unsigned int8)((page_address>>24) & 0xFF);                     // 0x _ _ 00 00 00 
*
01622:  MOVLB  3
01624:  MOVFF  366,368
....................    adsress[1]  = (unsigned int8)((page_address>>16) & 0xFF);                     // 0x 00 _ _ 00 00 
01628:  MOVFF  365,369
....................    adsress[2]  = (unsigned int8)((page_address>>8) & 0xFF);                      // 0x 00 00 _ _ 00 
0162C:  MOVFF  364,36A
....................    adsress[3]  = (unsigned int8)((page_address) & 0xFF);                         // 0x 00 00 00 _ _ 
01630:  MOVFF  363,36B
....................     
....................    WRITE_ENABLE_OF(); 
01634:  MOVLB  0
01636:  RCALL  160A
....................    output_low(CS_PIN);                                                           //lower the CS PIN 
01638:  BCF    F96.2
0163A:  BCF    F8D.2
....................    //delay_us(2); 
....................     
....................    //////////////////////////////////////////////////////////////// 
....................    spi_xfer(SPIPORT,WRITE_PAGE);                                                 //PAGE WRITE COMAND  (0x12) 
0163C:  MOVLW  12
0163E:  MOVLB  3
01640:  MOVWF  x72
01642:  MOVLW  08
01644:  MOVWF  x73
01646:  MOVLB  0
01648:  RCALL  1320
....................    
....................    spi_xfer(SPIPORT,adsress[0]);     
0164A:  MOVFF  368,372
0164E:  MOVLW  08
01650:  MOVLB  3
01652:  MOVWF  x73
01654:  MOVLB  0
01656:  RCALL  1320
....................    spi_xfer(SPIPORT,adsress[1]);     
01658:  MOVFF  369,372
0165C:  MOVLW  08
0165E:  MOVLB  3
01660:  MOVWF  x73
01662:  MOVLB  0
01664:  RCALL  1320
....................    spi_xfer(SPIPORT,adsress[2]);     
01666:  MOVFF  36A,372
0166A:  MOVLW  08
0166C:  MOVLB  3
0166E:  MOVWF  x73
01670:  MOVLB  0
01672:  RCALL  1320
....................    spi_xfer(SPIPORT,adsress[3]); 
01674:  MOVFF  36B,372
01678:  MOVLW  08
0167A:  MOVLB  3
0167C:  MOVWF  x73
0167E:  MOVLB  0
01680:  RCALL  1320
....................     
....................    spi_xfer(SPIPORT,data);  
01682:  MOVFF  367,372
01686:  MOVLW  08
01688:  MOVLB  3
0168A:  MOVWF  x73
0168C:  MOVLB  0
0168E:  RCALL  1320
....................    //////////////////////////////////////////////////////////////// 
....................     
....................    output_high(CS_PIN);                                                          //take CS PIN higher back 
01690:  BCF    F96.2
01692:  BSF    F8D.2
....................  
....................    //delay_us(5);   
....................     
....................    return; 
01694:  RETURN 0
.................... } 
.................... void WRITE_DATA_BYTE_SCF(unsigned int32 page_address, int8 data)                 //Funcion que escribe un Byte en la COM Flash 
.................... { 
....................    unsigned int8 adsress[4]; 
....................     
....................    //Byte extraction 
....................    adsress[0]  = (unsigned int8)((page_address>>24) & 0xFF);                     // 0x _ _ 00 00 00 
*
016AE:  MOVLB  3
016B0:  MOVFF  366,368
....................    adsress[1]  = (unsigned int8)((page_address>>16) & 0xFF);                     // 0x 00 _ _ 00 00 
016B4:  MOVFF  365,369
....................    adsress[2]  = (unsigned int8)((page_address>>8) & 0xFF);                      // 0x 00 00 _ _ 00 
016B8:  MOVFF  364,36A
....................    adsress[3]  = (unsigned int8)((page_address) & 0xFF);                         // 0x 00 00 00 _ _ 
016BC:  MOVFF  363,36B
....................     
....................    WRITE_ENABLE_SCF(); 
016C0:  MOVLB  0
016C2:  RCALL  1696
....................    output_low(CS_PIN_2);                                                         //lower the CS PIN 
016C4:  BCF    F93.3
016C6:  BCF    F8A.3
....................    //delay_us(2); 
....................     
....................    //////////////////////////////////////////////////////////////// 
....................    spi_xfer(SPIPORT_2,WRITE_PAGE);                                               //PAGE WRITE COMAND  (0x12) 
016C8:  MOVLW  12
016CA:  MOVLB  3
016CC:  MOVWF  x6C
016CE:  MOVLW  08
016D0:  MOVWF  x6D
016D2:  MOVLB  0
016D4:  RCALL  13D8
....................    
....................    spi_xfer(SPIPORT_2,adsress[0]);     
016D6:  MOVFF  368,36C
016DA:  MOVLW  08
016DC:  MOVLB  3
016DE:  MOVWF  x6D
016E0:  MOVLB  0
016E2:  RCALL  13D8
....................    spi_xfer(SPIPORT_2,adsress[1]);     
016E4:  MOVFF  369,36C
016E8:  MOVLW  08
016EA:  MOVLB  3
016EC:  MOVWF  x6D
016EE:  MOVLB  0
016F0:  RCALL  13D8
....................    spi_xfer(SPIPORT_2,adsress[2]);     
016F2:  MOVFF  36A,36C
016F6:  MOVLW  08
016F8:  MOVLB  3
016FA:  MOVWF  x6D
016FC:  MOVLB  0
016FE:  RCALL  13D8
....................    spi_xfer(SPIPORT_2,adsress[3]); 
01700:  MOVFF  36B,36C
01704:  MOVLW  08
01706:  MOVLB  3
01708:  MOVWF  x6D
0170A:  MOVLB  0
0170C:  RCALL  13D8
....................     
....................    spi_xfer(SPIPORT_2,data);  
0170E:  MOVFF  367,36C
01712:  MOVLW  08
01714:  MOVLB  3
01716:  MOVWF  x6D
01718:  MOVLB  0
0171A:  RCALL  13D8
....................    //////////////////////////////////////////////////////////////// 
....................     
....................    output_high(CS_PIN_2);                                                        //take CS PIN higher back 
0171C:  BCF    F93.3
0171E:  BSF    F8A.3
....................  
....................    //delay_us(5);   
....................     
....................    return; 
01720:  RETURN 0
.................... } 
.................... void WRITE_DATA_BYTE_SMF(unsigned int32 page_address, int8 data)                 //Funcion que escribe un Byte en la Mission Flash 
.................... { 
....................    unsigned int8 adsress[4]; 
....................     
....................    //Byte extraction 
....................    adsress[0]  = (unsigned int8)((page_address>>24) & 0xFF);                     // 0x _ _ 00 00 00 
*
0173A:  MOVLB  3
0173C:  MOVFF  366,368
....................    adsress[1]  = (unsigned int8)((page_address>>16) & 0xFF);                     // 0x 00 _ _ 00 00 
01740:  MOVFF  365,369
....................    adsress[2]  = (unsigned int8)((page_address>>8) & 0xFF);                      // 0x 00 00 _ _ 00 
01744:  MOVFF  364,36A
....................    adsress[3]  = (unsigned int8)((page_address) & 0xFF);                         // 0x 00 00 00 _ _ 
01748:  MOVFF  363,36B
....................     
....................    WRITE_ENABLE_SMF(); 
0174C:  MOVLB  0
0174E:  RCALL  1722
....................    output_low(CS_PIN_3);                                                         //lower the CS PIN 
01750:  BCF    F92.2
01752:  BCF    F89.2
....................    //delay_us(2); 
....................     
....................    //////////////////////////////////////////////////////////////// 
....................    spi_xfer(SPIPORT_3,WRITE_PAGE);                                               //PAGE WRITE COMAND  (0x12) 
01754:  MOVLW  12
01756:  MOVLB  3
01758:  MOVWF  x6C
0175A:  MOVLW  08
0175C:  MOVWF  x6D
0175E:  MOVLB  0
01760:  RCALL  1490
....................    
....................    spi_xfer(SPIPORT_3,adsress[0]);     
01762:  MOVFF  368,36C
01766:  MOVLW  08
01768:  MOVLB  3
0176A:  MOVWF  x6D
0176C:  MOVLB  0
0176E:  RCALL  1490
....................    spi_xfer(SPIPORT_3,adsress[1]);     
01770:  MOVFF  369,36C
01774:  MOVLW  08
01776:  MOVLB  3
01778:  MOVWF  x6D
0177A:  MOVLB  0
0177C:  RCALL  1490
....................    spi_xfer(SPIPORT_3,adsress[2]);     
0177E:  MOVFF  36A,36C
01782:  MOVLW  08
01784:  MOVLB  3
01786:  MOVWF  x6D
01788:  MOVLB  0
0178A:  RCALL  1490
....................    spi_xfer(SPIPORT_3,adsress[3]); 
0178C:  MOVFF  36B,36C
01790:  MOVLW  08
01792:  MOVLB  3
01794:  MOVWF  x6D
01796:  MOVLB  0
01798:  RCALL  1490
....................     
....................    spi_xfer(SPIPORT_3,data);  
0179A:  MOVFF  367,36C
0179E:  MOVLW  08
017A0:  MOVLB  3
017A2:  MOVWF  x6D
017A4:  MOVLB  0
017A6:  RCALL  1490
....................    //////////////////////////////////////////////////////////////// 
....................     
....................    output_high(CS_PIN_3);                                                        //take CS PIN higher back 
017A8:  BCF    F92.2
017AA:  BSF    F89.2
....................  
....................    //delay_us(10);   
....................     
....................    return; 
017AC:  RETURN 0
.................... } 
.................... /* 
.................... int8 READ_CHIP_ID_OF() 
.................... { 
....................  output_low(CS_PIN);           //lower the CS PIN 
....................   
....................  //////////////////////////////////////////////////////////////// 
....................  int8 chip_id; 
....................  spi_xfer(SPIPORT,READ_ID);    //READ ID COMAND   (0x9F) 
....................  chip_id = spi_xfer(SPIPORT); 
....................  //////////////////////////////////////////////////////////////// 
....................   
....................  output_high(CS_PIN);         //take CS PIN higher back 
....................  return chip_id; 
.................... } 
.................... int8 READ_CHIP_ID_SCF() 
.................... { 
....................  output_low(CS_PIN_2);           //lower the CS PIN 
....................   
....................  //////////////////////////////////////////////////////////////// 
....................  int8 chip_id; 
....................  spi_xfer(SPIPORT_2,READ_ID);    //READ ID COMAND   (0x9F) 
....................  chip_id = spi_xfer(SPIPORT_2); 
....................  //////////////////////////////////////////////////////////////// 
....................   
....................  output_high(CS_PIN_2);         //take CS PIN higher back 
....................  return chip_id; 
.................... } 
.................... int8 READ_CHIP_ID_SMF() 
.................... { 
....................  output_low(CS_PIN_3);           //lower the CS PIN 
....................   
....................  //////////////////////////////////////////////////////////////// 
....................  int8 chip_id; 
....................  spi_xfer(SPIPORT_3,READ_ID);    //READ ID COMAND   (0x9F) 
....................  chip_id = spi_xfer(SPIPORT_3); 
....................  //////////////////////////////////////////////////////////////// 
....................   
....................  output_high(CS_PIN_3);         //take CS PIN higher back 
....................  return chip_id; 
.................... } 
....................  
.................... int8 READ_STATUS_REGISTER_OF() 
.................... { 
....................  output_low(CS_PIN);           //lower the CS PIN 
....................   
....................  ///////////////////////////////////////////////////////////////// 
....................  int8 status_reg; 
....................  spi_xfer(SPIPORT,READ_STATUS_REG); //READ STATUS REGISTER COMAND  (0x05) 
....................  status_reg = spi_xfer(SPIPORT); 
....................  ///////////////////////////////////////////////////////////////// 
....................   
....................  output_high(CS_PIN);         //take CS PIN higher back 
....................  return status_reg; 
.................... } 
.................... int8 READ_STATUS_REGISTER_SCF() 
.................... { 
....................  output_low(CS_PIN_2);           //lower the CS PIN 
....................   
....................  ///////////////////////////////////////////////////////////////// 
....................  int8 status_reg; 
....................  spi_xfer(SPIPORT_2,READ_STATUS_REG); //READ STATUS REGISTER COMAND  (0x05) 
....................  status_reg = spi_xfer(SPIPORT_2); 
....................  ///////////////////////////////////////////////////////////////// 
....................   
....................  output_high(CS_PIN_2);         //take CS PIN higher back 
....................  return status_reg; 
.................... } 
.................... int8 READ_STATUS_REGISTER_SMF() 
.................... { 
....................  output_low(CS_PIN_3);           //lower the CS PIN 
....................   
....................  ///////////////////////////////////////////////////////////////// 
....................  int8 status_reg; 
....................  spi_xfer(SPIPORT_3,READ_STATUS_REG); //READ STATUS REGISTER COMAND  (0x05) 
....................  status_reg = spi_xfer(SPIPORT_3); 
....................  ///////////////////////////////////////////////////////////////// 
....................   
....................  output_high(CS_PIN_3);         //take CS PIN higher back 
....................  return status_reg; 
.................... } 
.................... */ 
.................... int8 READ_DATA_BYTE_OF(unsigned INT32 ADDRESS) 
.................... { 
....................  
....................  unsigned int8 adsress[4]; 
....................    //Byte extraction 
....................    adsress[0]  = (unsigned int8)((ADDRESS>>24) & 0xFF);                          // 0x _ _ 00 00 00 
*
0135C:  MOVLB  3
0135E:  MOVFF  36C,36D
....................    adsress[1]  = (unsigned int8)((ADDRESS>>16) & 0xFF);                          // 0x 00 _ _ 00 00 
01362:  MOVFF  36B,36E
....................    adsress[2]  = (unsigned int8)((ADDRESS>>8) & 0xFF);                           // 0x 00 00 _ _ 00 
01366:  MOVFF  36A,36F
....................    adsress[3]  = (unsigned int8)((ADDRESS) & 0xFF);                              // 0x 00 00 00 _ _ 
0136A:  MOVFF  369,370
....................     
....................  output_low(CS_PIN);                                                             //lower the CS PIN 
0136E:  BCF    F96.2
01370:  BCF    F8D.2
....................   
....................  ////////////////////////////////////////////////////////////////// 
....................  int8 data; 
....................  spi_xfer(SPIPORT,READ_DATA_BYTES);                                              //READ DATA COMAND   (0x13) 
01372:  MOVLW  13
01374:  MOVWF  x72
01376:  MOVLW  08
01378:  MOVWF  x73
0137A:  MOVLB  0
0137C:  RCALL  1320
....................   
....................  spi_xfer(SPIPORT,adsress[0]); 
0137E:  MOVFF  36D,372
01382:  MOVLW  08
01384:  MOVLB  3
01386:  MOVWF  x73
01388:  MOVLB  0
0138A:  RCALL  1320
....................  spi_xfer(SPIPORT,adsress[1]); 
0138C:  MOVFF  36E,372
01390:  MOVLW  08
01392:  MOVLB  3
01394:  MOVWF  x73
01396:  MOVLB  0
01398:  RCALL  1320
....................  spi_xfer(SPIPORT,adsress[2]); 
0139A:  MOVFF  36F,372
0139E:  MOVLW  08
013A0:  MOVLB  3
013A2:  MOVWF  x73
013A4:  MOVLB  0
013A6:  RCALL  1320
....................  spi_xfer(SPIPORT,adsress[3]); 
013A8:  MOVFF  370,372
013AC:  MOVLW  08
013AE:  MOVLB  3
013B0:  MOVWF  x73
013B2:  MOVLB  0
013B4:  RCALL  1320
....................  data = spi_xfer(SPIPORT); 
013B6:  MOVLW  01
013B8:  MOVLB  3
013BA:  MOVWF  x72
013BC:  MOVLW  08
013BE:  MOVWF  x73
013C0:  MOVLB  0
013C2:  RCALL  1320
013C4:  MOVF   01,W
013C6:  MOVFF  01,371
....................  ////////////////////////////////////////////////////////////////// 
....................   
....................  output_high(CS_PIN);                                                            //take CS PIN higher back 
013CA:  BCF    F96.2
013CC:  BSF    F8D.2
....................  return data; 
013CE:  MOVLB  3
013D0:  MOVFF  371,01
013D4:  MOVLB  0
013D6:  RETURN 0
....................   
.................... } 
.................... int8 READ_DATA_BYTE_SCF(unsigned INT32 ADDRESS) 
.................... { 
....................  
....................  unsigned int8 adsress[4]; 
....................    //Byte extraction 
....................    adsress[0]  = (unsigned int8)((ADDRESS>>24) & 0xFF);                          // 0x _ _ 00 00 00 
*
01414:  MOVLB  3
01416:  MOVFF  352,353
....................    adsress[1]  = (unsigned int8)((ADDRESS>>16) & 0xFF);                          // 0x 00 _ _ 00 00 
0141A:  MOVFF  351,354
....................    adsress[2]  = (unsigned int8)((ADDRESS>>8) & 0xFF);                           // 0x 00 00 _ _ 00 
0141E:  MOVFF  350,355
....................    adsress[3]  = (unsigned int8)((ADDRESS) & 0xFF);                              // 0x 00 00 00 _ _ 
01422:  MOVFF  34F,356
....................     
....................  output_low(CS_PIN_2);                                                           //lower the CS PIN 
01426:  BCF    F93.3
01428:  BCF    F8A.3
....................   
....................  ////////////////////////////////////////////////////////////////// 
....................  int8 data; 
....................  spi_xfer(SPIPORT_2,READ_DATA_BYTES);                                            //READ DATA COMAND   (0x13) 
0142A:  MOVLW  13
0142C:  MOVWF  x6C
0142E:  MOVLW  08
01430:  MOVWF  x6D
01432:  MOVLB  0
01434:  RCALL  13D8
....................   
....................  spi_xfer(SPIPORT_2,adsress[0]); 
01436:  MOVFF  353,36C
0143A:  MOVLW  08
0143C:  MOVLB  3
0143E:  MOVWF  x6D
01440:  MOVLB  0
01442:  RCALL  13D8
....................  spi_xfer(SPIPORT_2,adsress[1]); 
01444:  MOVFF  354,36C
01448:  MOVLW  08
0144A:  MOVLB  3
0144C:  MOVWF  x6D
0144E:  MOVLB  0
01450:  RCALL  13D8
....................  spi_xfer(SPIPORT_2,adsress[2]); 
01452:  MOVFF  355,36C
01456:  MOVLW  08
01458:  MOVLB  3
0145A:  MOVWF  x6D
0145C:  MOVLB  0
0145E:  RCALL  13D8
....................  spi_xfer(SPIPORT_2,adsress[3]); 
01460:  MOVFF  356,36C
01464:  MOVLW  08
01466:  MOVLB  3
01468:  MOVWF  x6D
0146A:  MOVLB  0
0146C:  RCALL  13D8
....................  data = spi_xfer(SPIPORT_2); 
0146E:  MOVLW  02
01470:  MOVLB  3
01472:  MOVWF  x6C
01474:  MOVLW  08
01476:  MOVWF  x6D
01478:  MOVLB  0
0147A:  RCALL  13D8
0147C:  MOVF   01,W
0147E:  MOVFF  01,357
....................  ////////////////////////////////////////////////////////////////// 
....................   
....................  output_high(CS_PIN_2);                                                          //take CS PIN higher back 
01482:  BCF    F93.3
01484:  BSF    F8A.3
....................  return data; 
01486:  MOVLB  3
01488:  MOVFF  357,01
0148C:  MOVLB  0
0148E:  RETURN 0
....................   
.................... } 
.................... int8 READ_DATA_BYTE_SMF(unsigned INT32 ADDRESS) 
.................... { 
....................  
....................  unsigned int8 adsress[4]; 
....................    //Byte extraction 
....................    adsress[0]  = (unsigned int8)((ADDRESS>>24) & 0xFF);                          // 0x _ _ 00 00 00 
*
014CC:  MOVLB  3
014CE:  MOVFF  352,353
....................    adsress[1]  = (unsigned int8)((ADDRESS>>16) & 0xFF);                          // 0x 00 _ _ 00 00 
014D2:  MOVFF  351,354
....................    adsress[2]  = (unsigned int8)((ADDRESS>>8) & 0xFF);                           // 0x 00 00 _ _ 00 
014D6:  MOVFF  350,355
....................    adsress[3]  = (unsigned int8)((ADDRESS) & 0xFF);                              // 0x 00 00 00 _ _ 
014DA:  MOVFF  34F,356
....................     
....................  output_low(CS_PIN_3);                                                           //lower the CS PIN 
014DE:  BCF    F92.2
014E0:  BCF    F89.2
....................   
....................  ////////////////////////////////////////////////////////////////// 
....................  int8 data; 
....................  spi_xfer(SPIPORT_3,READ_DATA_BYTES);                                            //READ DATA COMAND   (0x13) 
014E2:  MOVLW  13
014E4:  MOVWF  x6C
014E6:  MOVLW  08
014E8:  MOVWF  x6D
014EA:  MOVLB  0
014EC:  RCALL  1490
....................   
....................  spi_xfer(SPIPORT_3,adsress[0]); 
014EE:  MOVFF  353,36C
014F2:  MOVLW  08
014F4:  MOVLB  3
014F6:  MOVWF  x6D
014F8:  MOVLB  0
014FA:  RCALL  1490
....................  spi_xfer(SPIPORT_3,adsress[1]); 
014FC:  MOVFF  354,36C
01500:  MOVLW  08
01502:  MOVLB  3
01504:  MOVWF  x6D
01506:  MOVLB  0
01508:  RCALL  1490
....................  spi_xfer(SPIPORT_3,adsress[2]); 
0150A:  MOVFF  355,36C
0150E:  MOVLW  08
01510:  MOVLB  3
01512:  MOVWF  x6D
01514:  MOVLB  0
01516:  RCALL  1490
....................  spi_xfer(SPIPORT_3,adsress[3]); 
01518:  MOVFF  356,36C
0151C:  MOVLW  08
0151E:  MOVLB  3
01520:  MOVWF  x6D
01522:  MOVLB  0
01524:  RCALL  1490
....................  data = spi_xfer(SPIPORT_3); 
01526:  MOVLW  03
01528:  MOVLB  3
0152A:  MOVWF  x6C
0152C:  MOVLW  08
0152E:  MOVWF  x6D
01530:  MOVLB  0
01532:  RCALL  1490
01534:  MOVF   01,W
01536:  MOVFF  01,357
....................  ////////////////////////////////////////////////////////////////// 
....................   
....................  output_high(CS_PIN_3);                                                          //take CS PIN higher back 
0153A:  BCF    F92.2
0153C:  BSF    F89.2
....................  return data; 
0153E:  MOVLB  3
01540:  MOVFF  357,01
01544:  MOVLB  0
01546:  RETURN 0
....................   
.................... } 
.................... /* 
.................... void TRANSFER_DATA_256byte_OF(unsigned INT32 ADRESS, int PORT_NUM) //read and send the specified data 
.................... { 
....................    unsigned long int i; 
....................     
....................    switch(PORT_NUM) 
....................    { 
....................       case 1: 
....................          for (i=0 ; i < 256 ; i++) 
....................          { 
....................             fputc(READ_DATA_BYTE_OF(ADRESS),PC); 
....................             ADRESS++; 
....................          } 
....................          break; 
....................       case 2: 
....................          for (i=0 ; i < 256 ; i++) 
....................          { 
....................             fputc(READ_DATA_BYTE_OF(ADRESS),reset); 
....................             ADRESS++; 
....................          } 
....................          break; 
....................       case 3: 
....................          for (i=0 ; i < 256 ; i++) 
....................          { 
....................             fputc(READ_DATA_BYTE_OF(ADRESS),com); 
....................             ADRESS++; 
....................          } 
....................          break; 
....................    } 
....................    return;  
.................... } 
.................... void TRANSFER_DATA_256byte_SCF(unsigned INT32 ADRESS, int PORT_NUM) //read and send the specified data 
.................... { 
....................    unsigned long int i; 
....................     
....................    switch(PORT_NUM) 
....................    { 
....................       case 1: 
....................          for (i=0 ; i < 256 ; i++) 
....................          { 
....................             fputc(READ_DATA_BYTE_SCF(ADRESS),PC); 
....................             ADRESS++; 
....................          } 
....................          break; 
....................       case 2: 
....................          for (i=0 ; i < 256 ; i++) 
....................          { 
....................             fputc(READ_DATA_BYTE_SCF(ADRESS),reset); 
....................             ADRESS++; 
....................          } 
....................          break; 
....................       case 3: 
....................          for (i=0 ; i < 256 ; i++) 
....................          { 
....................             fputc(READ_DATA_BYTE_SCF(ADRESS),com); 
....................             ADRESS++; 
....................          } 
....................          break; 
....................    } 
....................     return;   
.................... } 
.................... void TRANSFER_DATA_256byte_SMF(unsigned INT32 ADRESS, int PORT_NUM) //read and send the specified data 
.................... { 
....................    unsigned long int i; 
....................     
....................    switch(PORT_NUM) 
....................    { 
....................       case 1: 
....................          for (i=0 ; i < 256 ; i++) 
....................          { 
....................             fputc(READ_DATA_BYTE_SMF(ADRESS),PC); 
....................             ADRESS++; 
....................          } 
....................          break; 
....................       case 2: 
....................          for (i=0 ; i < 256 ; i++) 
....................          { 
....................             fputc(READ_DATA_BYTE_SMF(ADRESS),reset); 
....................             ADRESS++; 
....................          } 
....................          break; 
....................       case 3: 
....................          for (i=0 ; i < 256 ; i++) 
....................          { 
....................             fputc(READ_DATA_BYTE_SMF(ADRESS),com); 
....................             ADRESS++; 
....................          } 
....................          break; 
....................    } 
....................     return;   
.................... } 
....................  
.................... void WRITE_DATA_NBYTE_OF(unsigned INT32 ADDRES,int32 data_byte) //read and send the specified data 
.................... { 
....................    for (int32 i=0 ; i < data_byte ; i++) 
....................    { 
....................       WRITE_DATA_BYTE_OF(ADDRES,0x77); 
....................       ADDRES++; 
....................    } 
....................    return; 
.................... } 
.................... void WRITE_DATA_NBYTE_SCF(unsigned INT32 ADDRES,int32 data_byte) //read and send the specified data 
.................... { 
....................    for (int32 i=0 ; i < data_byte ; i++) 
....................    { 
....................       WRITE_DATA_BYTE_SCF(ADDRES,0x69); 
....................       ADDRES++; 
....................    } 
....................    return; 
.................... } 
.................... void WRITE_DATA_NBYTE_SMF(unsigned INT32 ADDRES,int32 data_byte) //read and send the specified data 
.................... { 
....................    for (int32 i=0 ; i < data_byte ; i++) 
....................    { 
....................       WRITE_DATA_BYTE_SMF(ADDRES,0x55); 
....................       ADDRES++; 
....................    } 
....................    return; 
.................... } 
.................... */ 
.................... void TRANSFER_DATA_NBYTE_TOPC_OF(unsigned INT32 ADRESS,int32 data_byte)          //read and send the specified data 
.................... { 
....................    for (int32 i=0 ; i < data_byte ; i++) 
*
0537E:  MOVLB  3
05380:  CLRF   x4D
05382:  CLRF   x4C
05384:  CLRF   x4B
05386:  CLRF   x4A
05388:  MOVF   x4D,W
0538A:  SUBWF  x49,W
0538C:  BNC   53EC
0538E:  BNZ   53A6
05390:  MOVF   x4C,W
05392:  SUBWF  x48,W
05394:  BNC   53EC
05396:  BNZ   53A6
05398:  MOVF   x4B,W
0539A:  SUBWF  x47,W
0539C:  BNC   53EC
0539E:  BNZ   53A6
053A0:  MOVF   x46,W
053A2:  SUBWF  x4A,W
053A4:  BC    53EC
....................    { 
....................       fputc(READ_DATA_BYTE_OF(ADRESS),PC); 
053A6:  MOVFF  345,36C
053AA:  MOVFF  344,36B
053AE:  MOVFF  343,36A
053B2:  MOVFF  342,369
053B6:  MOVLB  0
053B8:  CALL   135C
053BC:  MOVFF  01,34E
053C0:  MOVLB  3
053C2:  MOVF   x4E,W
053C4:  MOVLB  0
053C6:  RCALL  5376
....................       ADRESS++; 
053C8:  MOVLW  01
053CA:  MOVLB  3
053CC:  ADDWF  x42,F
053CE:  BTFSC  FD8.0
053D0:  INCF   x43,F
053D2:  BTFSC  FD8.2
053D4:  INCF   x44,F
053D6:  BTFSC  FD8.2
053D8:  INCF   x45,F
053DA:  MOVLW  01
053DC:  ADDWF  x4A,F
053DE:  BTFSC  FD8.0
053E0:  INCF   x4B,F
053E2:  BTFSC  FD8.2
053E4:  INCF   x4C,F
053E6:  BTFSC  FD8.2
053E8:  INCF   x4D,F
053EA:  BRA    5388
....................    } 
....................    return; 
053EC:  MOVLB  0
053EE:  GOTO   5424 (RETURN)
.................... } 
.................... void TRANSFER_DATA_NBYTE_TOPC_SCF(unsigned INT32 ADRESS,int32 data_byte)         //read and send the specified data 
.................... { 
....................    for (int32 i=0 ; i < data_byte ; i++) 
*
0807A:  MOVLB  3
0807C:  CLRF   x43
0807E:  CLRF   x42
08080:  CLRF   x41
08082:  CLRF   x40
08084:  MOVF   x43,W
08086:  SUBWF  x3F,W
08088:  BNC   80F0
0808A:  BNZ   80A2
0808C:  MOVF   x42,W
0808E:  SUBWF  x3E,W
08090:  BNC   80F0
08092:  BNZ   80A2
08094:  MOVF   x41,W
08096:  SUBWF  x3D,W
08098:  BNC   80F0
0809A:  BNZ   80A2
0809C:  MOVF   x3C,W
0809E:  SUBWF  x40,W
080A0:  BC    80F0
....................    { 
....................       fprintf(PC,"%x",READ_DATA_BYTE_SCF(ADRESS)); 
080A2:  MOVFF  33B,352
080A6:  MOVFF  33A,351
080AA:  MOVFF  339,350
080AE:  MOVFF  338,34F
080B2:  MOVLB  0
080B4:  CALL   1414
080B8:  MOVFF  01,344
080BC:  MOVFF  01,363
080C0:  MOVLW  57
080C2:  MOVLB  3
080C4:  MOVWF  x64
080C6:  MOVLB  0
080C8:  CALL   17E0
....................       ADRESS++; 
080CC:  MOVLW  01
080CE:  MOVLB  3
080D0:  ADDWF  x38,F
080D2:  BTFSC  FD8.0
080D4:  INCF   x39,F
080D6:  BTFSC  FD8.2
080D8:  INCF   x3A,F
080DA:  BTFSC  FD8.2
080DC:  INCF   x3B,F
080DE:  MOVLW  01
080E0:  ADDWF  x40,F
080E2:  BTFSC  FD8.0
080E4:  INCF   x41,F
080E6:  BTFSC  FD8.2
080E8:  INCF   x42,F
080EA:  BTFSC  FD8.2
080EC:  INCF   x43,F
080EE:  BRA    8084
....................    } 
....................    return; 
080F0:  MOVLB  0
080F2:  RETURN 0
.................... } 
.................... void TRANSFER_DATA_NBYTE_TOPC_SMF(unsigned INT32 ADRESS,int32 data_byte)         //read and send the specified data 
.................... { 
....................    for (int32 i=0 ; i < data_byte ; i++) 
....................    { 
....................       fputc(READ_DATA_BYTE_SMF(ADRESS),PC); 
....................       ADRESS++; 
....................    } 
....................    return; 
.................... } 
.................... /* 
.................... void TRANSFER_DATA_NBYTE_OFtoSCF(unsigned INT32 FROM_ADRESS,unsigned INT32 TO_ADRESS,int32 data_byte) //transfer data from MAIN FLASH to COM FLASH 
.................... { 
....................    for (int32 i=0 ; i < data_byte ; i++) 
....................    { 
....................       WRITE_DATA_BYTE_SCF(TO_ADRESS,READ_DATA_BYTE_OF(FROM_ADRESS)); 
....................       FROM_ADRESS++; 
....................       TO_ADRESS++; 
....................    } 
....................    return; 
.................... } 
.................... void TRANSFER_DATA_NBYTE_SCFtoOF(unsigned INT32 FROM_ADRESS,unsigned INT32 TO_ADRESS,int32 data_byte) //transfer data from COM FLASH to MAIN FLASH 
.................... { 
....................    for (int32 i=0 ; i < data_byte ; i++) 
....................    { 
....................       WRITE_DATA_BYTE_OF(TO_ADRESS,READ_DATA_BYTE_SCF(FROM_ADRESS)); 
....................       FROM_ADRESS++; 
....................       TO_ADRESS++; 
....................    } 
....................    return; 
.................... } 
.................... void TRANSFER_DATA_NBYTE_OFtoSMF(unsigned INT32 FROM_ADRESS,unsigned INT32 TO_ADRESS,int32 data_byte) //transfer data from MAIN FLASH to MISSION FLASH 
.................... { 
....................    for (int32 i=0 ; i < data_byte ; i++) 
....................    { 
....................       WRITE_DATA_BYTE_SMF(TO_ADRESS,READ_DATA_BYTE_OF(FROM_ADRESS)); 
....................       FROM_ADRESS++; 
....................       TO_ADRESS++; 
....................    } 
....................    return; 
.................... }*/ 
.................... void TRANSFER_DATA_NBYTE_SMFtoOF(unsigned INT32 FROM_ADRESS,unsigned INT32 TO_ADRESS,int32 data_byte) //transfer data from MISSION FLASH to MAIN FLASH 
.................... { 
....................    for (int32 i=0 ; i < data_byte ; i++) 
*
07FE8:  MOVLB  3
07FEA:  CLRF   x47
07FEC:  CLRF   x46
07FEE:  CLRF   x45
07FF0:  CLRF   x44
07FF2:  MOVF   x47,W
07FF4:  SUBWF  x43,W
07FF6:  BNC   8076
07FF8:  BNZ   8010
07FFA:  MOVF   x46,W
07FFC:  SUBWF  x42,W
07FFE:  BNC   8076
08000:  BNZ   8010
08002:  MOVF   x45,W
08004:  SUBWF  x41,W
08006:  BNC   8076
08008:  BNZ   8010
0800A:  MOVF   x40,W
0800C:  SUBWF  x44,W
0800E:  BC    8076
....................    { 
....................       WRITE_DATA_BYTE_OF(TO_ADRESS,READ_DATA_BYTE_SMF(FROM_ADRESS)); 
08010:  MOVFF  33B,352
08014:  MOVFF  33A,351
08018:  MOVFF  339,350
0801C:  MOVFF  338,34F
08020:  MOVLB  0
08022:  CALL   14CC
08026:  MOVFF  01,348
0802A:  MOVFF  33F,366
0802E:  MOVFF  33E,365
08032:  MOVFF  33D,364
08036:  MOVFF  33C,363
0803A:  MOVFF  01,367
0803E:  CALL   1622
....................       FROM_ADRESS++; 
08042:  MOVLW  01
08044:  MOVLB  3
08046:  ADDWF  x38,F
08048:  BTFSC  FD8.0
0804A:  INCF   x39,F
0804C:  BTFSC  FD8.2
0804E:  INCF   x3A,F
08050:  BTFSC  FD8.2
08052:  INCF   x3B,F
....................       TO_ADRESS++; 
08054:  MOVLW  01
08056:  ADDWF  x3C,F
08058:  BTFSC  FD8.0
0805A:  INCF   x3D,F
0805C:  BTFSC  FD8.2
0805E:  INCF   x3E,F
08060:  BTFSC  FD8.2
08062:  INCF   x3F,F
08064:  MOVLW  01
08066:  ADDWF  x44,F
08068:  BTFSC  FD8.0
0806A:  INCF   x45,F
0806C:  BTFSC  FD8.2
0806E:  INCF   x46,F
08070:  BTFSC  FD8.2
08072:  INCF   x47,F
08074:  BRA    7FF2
....................    } 
....................    return; 
08076:  MOVLB  0
08078:  RETURN 0
.................... } 
.................... void TRANSFER_DATA_NBYTE_SMFtoSCF(unsigned INT32 FROM_ADRESS,unsigned INT32 TO_ADRESS,int32 data_byte) //transfer data from MISSION FLASH to COM FLASH 
.................... { 
....................    for (int32 i=0 ; i < data_byte ; i++) 
*
07F56:  MOVLB  3
07F58:  CLRF   x47
07F5A:  CLRF   x46
07F5C:  CLRF   x45
07F5E:  CLRF   x44
07F60:  MOVF   x47,W
07F62:  SUBWF  x43,W
07F64:  BNC   7FE4
07F66:  BNZ   7F7E
07F68:  MOVF   x46,W
07F6A:  SUBWF  x42,W
07F6C:  BNC   7FE4
07F6E:  BNZ   7F7E
07F70:  MOVF   x45,W
07F72:  SUBWF  x41,W
07F74:  BNC   7FE4
07F76:  BNZ   7F7E
07F78:  MOVF   x40,W
07F7A:  SUBWF  x44,W
07F7C:  BC    7FE4
....................    { 
....................       WRITE_DATA_BYTE_SCF(TO_ADRESS,READ_DATA_BYTE_SMF(FROM_ADRESS)); 
07F7E:  MOVFF  33B,352
07F82:  MOVFF  33A,351
07F86:  MOVFF  339,350
07F8A:  MOVFF  338,34F
07F8E:  MOVLB  0
07F90:  CALL   14CC
07F94:  MOVFF  01,348
07F98:  MOVFF  33F,366
07F9C:  MOVFF  33E,365
07FA0:  MOVFF  33D,364
07FA4:  MOVFF  33C,363
07FA8:  MOVFF  01,367
07FAC:  CALL   16AE
....................       FROM_ADRESS++; 
07FB0:  MOVLW  01
07FB2:  MOVLB  3
07FB4:  ADDWF  x38,F
07FB6:  BTFSC  FD8.0
07FB8:  INCF   x39,F
07FBA:  BTFSC  FD8.2
07FBC:  INCF   x3A,F
07FBE:  BTFSC  FD8.2
07FC0:  INCF   x3B,F
....................       TO_ADRESS++; 
07FC2:  MOVLW  01
07FC4:  ADDWF  x3C,F
07FC6:  BTFSC  FD8.0
07FC8:  INCF   x3D,F
07FCA:  BTFSC  FD8.2
07FCC:  INCF   x3E,F
07FCE:  BTFSC  FD8.2
07FD0:  INCF   x3F,F
07FD2:  MOVLW  01
07FD4:  ADDWF  x44,F
07FD6:  BTFSC  FD8.0
07FD8:  INCF   x45,F
07FDA:  BTFSC  FD8.2
07FDC:  INCF   x46,F
07FDE:  BTFSC  FD8.2
07FE0:  INCF   x47,F
07FE2:  BRA    7F60
....................    } 
....................    return; 
07FE4:  MOVLB  0
07FE6:  RETURN 0
.................... }/* 
.................... void TRANSFER_DATA_NBYTE_SCFtoSMF(unsigned INT32 FROM_ADRESS,unsigned INT32 TO_ADRESS,int32 data_byte) //transfer data from COM FLASH to MISSION FLASH 
.................... { 
....................    for (int32 i=0 ; i < data_byte ; i++) 
....................    { 
....................       WRITE_DATA_BYTE_SMF(TO_ADRESS,READ_DATA_BYTE_SCF(FROM_ADRESS)); 
....................       FROM_ADRESS++; 
....................       TO_ADRESS++; 
....................    } 
....................    return; 
.................... } 
.................... void TRANSFER_DATA_NBYTE_SCF(unsigned INT32 FROM_ADRESS,unsigned INT32 TO_ADRESS,int32 data_byte) //read and send the specified data 
.................... { 
....................    for (int32 i=0 ; i < data_byte ; i++) 
....................    { 
....................       WRITE_DATA_BYTE_SMF(TO_ADRESS,READ_DATA_BYTE_SCF(FROM_ADRESS)); 
....................       FROM_ADRESS++; 
....................       TO_ADRESS++; 
....................    } 
....................    return; 
.................... } 
.................... */ 
....................  
....................  
....................  
.................... #include<MEMORY_OPERATION.c> 
.................... //-------------------------ADDRESS (PREVIOUS)---------------------------------- 
.................... //!/////////////////previous////////////////////////////// 
.................... //!Static int32 ADCS_SENSOR_ADDRESS = 65536*500; 
.................... //!Static int32 FAB_HK_ADDRESS = 65536 * 200; 
.................... //!Static int32 FAB_CW_ADDRESS = 65536 * 50; 
.................... //!Static int32 FAB_CW_ADDRESS_FOR_MF = 65536; //sector1 
.................... //!Static int32 HIGH_SAMP_HK_ADDRESS = 65536 * 1800; 
.................... //!Static int32 CAM_ADDRESS = 65536; 
.................... //!Static int32 DC_STATUS_ADDRESS = 65536*300; 
.................... //!/////////////////////////////////////////////////////// 
.................... #define SECT 65536                                                               //1 Sector = 65536 Bytes 
....................  
.................... Static int32 ADD_INFO_ADDRESS = 4096;                                            //for keeping the address data to flash memory 
.................... Static int32 ADDRESS_WRITING_COUNTER = 0;                                        //if address writing more than 30000 times, change the store address 
....................  
.................... Static int32 FLAG_DATA_ADDRESS = SECT*4;                                         //1sector 
.................... Static int32 RSV_DATA_ADDRESS=SECT*5;                                            //1sector 
.................... Static int32 SAT_LOG = SECT*6;                                                   //2sector 
.................... Static int32 CAM_ADDRESS = SECT*8;                                               //90sector 
.................... Static int32 FAB_HK_ADDRESS = SECT*98;                                           //1000sector 
.................... Static int32 FAB_CW_ADDRESS = SECT*1098;                                         //40sector 
.................... Static int32 ADCS_SENSOR_ADDRESS = SECT*1138;                                    //500sector 
.................... Static int32 ADCS_TLE_ADDRESS = SECT*1637;                                       //1sector (el ultimo no utilizado por ADCS data) 
.................... Static int32 DC_STATUS_ADDRESS = SECT*1638;                                      //1sector 
.................... Static int32 HIGH_SAMP_HK_ADDRESS = SECT*1639;                                   //409sector 
.................... Static int32 FLAG_ADDRESS_EEPROM = 0x18000;                                      //from 75 percent of the programming memory 
.................... Static int32 FLASH_AD_ADDRESS_EEPROM = 0x18000 + 28;                             //after flag info 
....................                                                                                  //Definicion de direcciones de espacio de memoria (fin) 
.................... #define FLAG_DATA_ADDRESS_END  SECT*5-26                                         //considera la longitud de cada dato para determinar la direccion de finalizacion 
.................... #define RSV_DATA_ADDRESS_END  SECT*6-160 
.................... #define SAT_LOG_END  SECT*8-22 
.................... #define CAM_ADDRESS_END  SECT*98-SECT*2 
.................... #define FAB_HK_ADDRESS_END  SECT*1098-SECT-248 
.................... #define FAB_CW_ADDRESS_END  SECT*1138-10 
.................... #define FAB_CW_ADDRESS_FOR_MF_END FAB_CW_ADDRESS_END 
.................... #define ADCS_SENSOR_ADDRESS_END  SECT*1638-408000                                //408000 is for 2 hour data(85*3600*2/1.5) 
.................... #define ADCS_TLE_ADDRESS_END  SECT*1638-TLE_size 
.................... #define DC_STATUS_ADDRESS_END SECT*1639-415 
.................... #define HIGH_SAMP_HK_ADDRESS_END  SECT*2047-178560                               //178560 is for 2 hour data(124*3600*2/5) 
....................                                                                                  //Flags definition 
.................... int8 BC_ATTEMPT_FLAG = 0; 
.................... int16 PASSED_DAYS = 0; 
.................... int8 RESERVE_CHECK = 0; 
.................... int8 RESERVE_MIN_FLAG = 0; 
.................... int8 RESERVE_TARGET_FLAG = 0; 
.................... int8 MISSION_CONTENTS = 0; 
.................... int8 MISSION_DETAIL = 0; 
.................... int8 RESERVE_ADDRESS_1 = 0; 
.................... int8 RESERVE_ADDRESS_2 = 0; 
.................... int8 RESERVE_ADDRESS_3 = 0; 
.................... int8 RESERVE_ADDRESS_4 = 0; 
.................... int8 RESERVE_PACKET_NUM = 0; 
.................... int8 Kill_FLAG_MAIN = 0; 
.................... int8 Kill_FLAG_FAB = 0; 
.................... int8 FIRST_HSSC_DONE = 0; 
.................... int8 AUTO_CAM_DONE = 0; 
.................... int8 AUTO_MBP_DONE = 0; 
.................... int8 AUTO_ADCS_DONE = 0; 
.................... int8 ANT_DEP_STATUS = 0; 
.................... int8 UPLINK_SUCCESS = 0; 
....................  
.................... int8 RESERVE_SEC_FLAG = 0; 
....................  
.................... //--------MAIN PIC Buffer------------------------------------------------------ 
.................... int8 CMD_FROM_PC[8] = {}; 
.................... unsigned int8 in_bffr_main[16] = {}; 
.................... int8 COM_DATA= 0; 
.................... static int8 CW_IDENTIFIER = 0; 
.................... int8 OPERATION_MODE = 0x00; 
.................... int8 PC_DATA = 0;                                   
.................... int8 COM_ONEBYTE_COMMAND = 0;                                                    //for GS testing 
....................  
.................... #define buffer_from_com  (in_bffr_main[0]==0xAA) && (in_bffr_main[15]==0xBB) 
.................... #define buffer_flash  (in_bffr_main[7]==0x73) 
.................... #define START_ADCS_MISSION  (in_bffr_main[1]==0x73) 
.................... #define ADCS_SENSOR_SIZE 78                                                      //for testing additional 6byte for checking duty 
....................  
.................... int8 ADCS_SENSOR_DATA[ADCS_SENSOR_SIZE] = {}; 
.................... int8 ADCS_ACK = 0; 
.................... int8 ADCS_ACK_COMMING = 0;                                                       //for Checking ACK from ADCS 
.................... #define ATTEMPT_TIME 8 
....................  
....................  
.................... #define EX_PANEL_THRESHHOLD 0x14 
.................... #define HIGH_SAMP_TIMES 12                                                       //for 2 hours 
....................  
.................... //----------RESET-------------------------------------------------------------- 
.................... #define Reset_size 11                                                            //1byte ack, 4byte time, 10byte sensor 
.................... int8 RESET_DATA = 0; 
.................... int8 reset_bffr[Reset_size] = {}; 
.................... int8 reset_flag = 0; 
....................  
.................... //---------OTHER FUNCTION------------------------------------------------------ 
.................... #define FLASH_ADD_SIZE 41                                                        //10 kinds of address(40byte), 1 flag(1byte), 1 WRITING COUNTER(2byte) 
.................... #define FLAG_INFO_SIZE 16 
.................... unsigned int8 sec_add_bfr[FLASH_ADD_SIZE] = {};                                  //vector utilizado para almacenar las direcciones leidas de la flash 
.................... unsigned int8 flag_info_bffr[FLAG_INFO_SIZE] = {}; 
....................  
.................... void CURRENT_FLAG_STATUS()                                                      //Print on PC port current flag status 
.................... { 
....................    fprintf(PC,"\r\nPASSED DAYS:%x\r\n",PASSED_DAYS); 
*
026FE:  MOVLW  94
02700:  MOVWF  FF6
02702:  MOVLW  01
02704:  MOVWF  FF7
02706:  MOVLW  00
02708:  MOVWF  FF8
0270A:  MOVLW  0E
0270C:  MOVLB  3
0270E:  MOVWF  x62
02710:  MOVLB  0
02712:  CALL   17AE
02716:  MOVFF  69,363
0271A:  MOVLW  57
0271C:  MOVLB  3
0271E:  MOVWF  x64
02720:  MOVLB  0
02722:  CALL   17E0
02726:  MOVLW  0D
02728:  BTFSS  F9E.4
0272A:  BRA    2728
0272C:  MOVWF  FAD
0272E:  MOVLW  0A
02730:  BTFSS  F9E.4
02732:  BRA    2730
02734:  MOVWF  FAD
....................    fprintf(PC,"RESERVE CHECK:%x\r\n",RESERVE_CHECK); 
02736:  MOVLW  A8
02738:  MOVWF  FF6
0273A:  MOVLW  01
0273C:  MOVWF  FF7
0273E:  MOVLW  00
02740:  MOVWF  FF8
02742:  MOVLW  0E
02744:  MOVLB  3
02746:  MOVWF  x62
02748:  MOVLB  0
0274A:  CALL   17AE
0274E:  MOVFF  6B,363
02752:  MOVLW  57
02754:  MOVLB  3
02756:  MOVWF  x64
02758:  MOVLB  0
0275A:  CALL   17E0
0275E:  MOVLW  0D
02760:  BTFSS  F9E.4
02762:  BRA    2760
02764:  MOVWF  FAD
02766:  MOVLW  0A
02768:  BTFSS  F9E.4
0276A:  BRA    2768
0276C:  MOVWF  FAD
....................    fprintf(PC,"Kill FLAG MAIN:%x\r\n",Kill_FLAG_MAIN); 
0276E:  MOVLW  BC
02770:  MOVWF  FF6
02772:  MOVLW  01
02774:  MOVWF  FF7
02776:  MOVLW  00
02778:  MOVWF  FF8
0277A:  MOVLW  0F
0277C:  MOVLB  3
0277E:  MOVWF  x62
02780:  MOVLB  0
02782:  CALL   17AE
02786:  MOVFF  75,363
0278A:  MOVLW  57
0278C:  MOVLB  3
0278E:  MOVWF  x64
02790:  MOVLB  0
02792:  CALL   17E0
02796:  MOVLW  0D
02798:  BTFSS  F9E.4
0279A:  BRA    2798
0279C:  MOVWF  FAD
0279E:  MOVLW  0A
027A0:  BTFSS  F9E.4
027A2:  BRA    27A0
027A4:  MOVWF  FAD
....................    fprintf(PC,"Kill FLAG FAB:%x\r\n",Kill_FLAG_FAB); 
027A6:  MOVLW  D0
027A8:  MOVWF  FF6
027AA:  MOVLW  01
027AC:  MOVWF  FF7
027AE:  MOVLW  00
027B0:  MOVWF  FF8
027B2:  MOVLW  0E
027B4:  MOVLB  3
027B6:  MOVWF  x62
027B8:  MOVLB  0
027BA:  CALL   17AE
027BE:  MOVFF  76,363
027C2:  MOVLW  57
027C4:  MOVLB  3
027C6:  MOVWF  x64
027C8:  MOVLB  0
027CA:  CALL   17E0
027CE:  MOVLW  0D
027D0:  BTFSS  F9E.4
027D2:  BRA    27D0
027D4:  MOVWF  FAD
027D6:  MOVLW  0A
027D8:  BTFSS  F9E.4
027DA:  BRA    27D8
027DC:  MOVWF  FAD
....................    fprintf(PC,"AUTO HIGH SAMPLING:%x\r\n",FIRST_HSSC_DONE); 
027DE:  MOVLW  E4
027E0:  MOVWF  FF6
027E2:  MOVLW  01
027E4:  MOVWF  FF7
027E6:  MOVLW  00
027E8:  MOVWF  FF8
027EA:  MOVLW  13
027EC:  MOVLB  3
027EE:  MOVWF  x62
027F0:  MOVLB  0
027F2:  CALL   17AE
027F6:  MOVFF  77,363
027FA:  MOVLW  57
027FC:  MOVLB  3
027FE:  MOVWF  x64
02800:  MOVLB  0
02802:  CALL   17E0
02806:  MOVLW  0D
02808:  BTFSS  F9E.4
0280A:  BRA    2808
0280C:  MOVWF  FAD
0280E:  MOVLW  0A
02810:  BTFSS  F9E.4
02812:  BRA    2810
02814:  MOVWF  FAD
....................    fprintf(PC,"AUTO CAM:%x\r\n",AUTO_CAM_DONE); 
02816:  MOVLW  FC
02818:  MOVWF  FF6
0281A:  MOVLW  01
0281C:  MOVWF  FF7
0281E:  MOVLW  00
02820:  MOVWF  FF8
02822:  MOVLW  09
02824:  MOVLB  3
02826:  MOVWF  x62
02828:  MOVLB  0
0282A:  CALL   17AE
0282E:  MOVFF  78,363
02832:  MOVLW  57
02834:  MOVLB  3
02836:  MOVWF  x64
02838:  MOVLB  0
0283A:  CALL   17E0
0283E:  MOVLW  0D
02840:  BTFSS  F9E.4
02842:  BRA    2840
02844:  MOVWF  FAD
02846:  MOVLW  0A
02848:  BTFSS  F9E.4
0284A:  BRA    2848
0284C:  MOVWF  FAD
....................    fprintf(PC,"AUTO MBP:%x\r\n",AUTO_MBP_DONE); 
0284E:  MOVLW  0A
02850:  MOVWF  FF6
02852:  MOVLW  02
02854:  MOVWF  FF7
02856:  MOVLW  00
02858:  MOVWF  FF8
0285A:  MOVLW  09
0285C:  MOVLB  3
0285E:  MOVWF  x62
02860:  MOVLB  0
02862:  CALL   17AE
02866:  MOVFF  79,363
0286A:  MOVLW  57
0286C:  MOVLB  3
0286E:  MOVWF  x64
02870:  MOVLB  0
02872:  CALL   17E0
02876:  MOVLW  0D
02878:  BTFSS  F9E.4
0287A:  BRA    2878
0287C:  MOVWF  FAD
0287E:  MOVLW  0A
02880:  BTFSS  F9E.4
02882:  BRA    2880
02884:  MOVWF  FAD
....................    fprintf(PC,"AUTO ADCS:%x\r\n",AUTO_ADCS_DONE); 
02886:  MOVLW  18
02888:  MOVWF  FF6
0288A:  MOVLW  02
0288C:  MOVWF  FF7
0288E:  MOVLW  00
02890:  MOVWF  FF8
02892:  MOVLW  0A
02894:  MOVLB  3
02896:  MOVWF  x62
02898:  MOVLB  0
0289A:  CALL   17AE
0289E:  MOVFF  7A,363
028A2:  MOVLW  57
028A4:  MOVLB  3
028A6:  MOVWF  x64
028A8:  MOVLB  0
028AA:  CALL   17E0
028AE:  MOVLW  0D
028B0:  BTFSS  F9E.4
028B2:  BRA    28B0
028B4:  MOVWF  FAD
028B6:  MOVLW  0A
028B8:  BTFSS  F9E.4
028BA:  BRA    28B8
028BC:  MOVWF  FAD
....................    fprintf(PC,"ANTENNA DEPLOY:%x\r\n",ANT_DEP_STATUS); 
028BE:  MOVLW  28
028C0:  MOVWF  FF6
028C2:  MOVLW  02
028C4:  MOVWF  FF7
028C6:  MOVLW  00
028C8:  MOVWF  FF8
028CA:  MOVLW  0F
028CC:  MOVLB  3
028CE:  MOVWF  x62
028D0:  MOVLB  0
028D2:  CALL   17AE
028D6:  MOVFF  7B,363
028DA:  MOVLW  57
028DC:  MOVLB  3
028DE:  MOVWF  x64
028E0:  MOVLB  0
028E2:  CALL   17E0
028E6:  MOVLW  0D
028E8:  BTFSS  F9E.4
028EA:  BRA    28E8
028EC:  MOVWF  FAD
028EE:  MOVLW  0A
028F0:  BTFSS  F9E.4
028F2:  BRA    28F0
028F4:  MOVWF  FAD
....................    fprintf(PC,"ANTENNA DEPLOY ATTEMPT:%x\r\n",BC_ATTEMPT_FLAG); 
028F6:  MOVLW  3C
028F8:  MOVWF  FF6
028FA:  MOVLW  02
028FC:  MOVWF  FF7
028FE:  MOVLW  00
02900:  MOVWF  FF8
02902:  MOVLW  17
02904:  MOVLB  3
02906:  MOVWF  x62
02908:  MOVLB  0
0290A:  CALL   17AE
0290E:  MOVFF  68,363
02912:  MOVLW  57
02914:  MOVLB  3
02916:  MOVWF  x64
02918:  MOVLB  0
0291A:  CALL   17E0
0291E:  MOVLW  0D
02920:  BTFSS  F9E.4
02922:  BRA    2920
02924:  MOVWF  FAD
02926:  MOVLW  0A
02928:  BTFSS  F9E.4
0292A:  BRA    2928
0292C:  MOVWF  FAD
....................    fprintf(PC,"UPLINK SUCCESS:%x\r\n\r\n",UPLINK_SUCCESS); 
0292E:  MOVLW  58
02930:  MOVWF  FF6
02932:  MOVLW  02
02934:  MOVWF  FF7
02936:  MOVLW  00
02938:  MOVWF  FF8
0293A:  MOVLW  0F
0293C:  MOVLB  3
0293E:  MOVWF  x62
02940:  MOVLB  0
02942:  CALL   17AE
02946:  MOVFF  7C,363
0294A:  MOVLW  57
0294C:  MOVLB  3
0294E:  MOVWF  x64
02950:  MOVLB  0
02952:  CALL   17E0
02956:  MOVLW  69
02958:  MOVWF  FF6
0295A:  MOVLW  02
0295C:  MOVWF  FF7
0295E:  MOVLW  00
02960:  MOVWF  FF8
02962:  MOVLW  04
02964:  MOVLB  3
02966:  MOVWF  x62
02968:  MOVLB  0
0296A:  CALL   17AE
....................    return; 
0296E:  RETURN 0
.................... } 
....................  
....................  
.................... void CURRENT_ADDRESS_OF_FLASH()                                                  //imprime la asignacion de direcciones de la Flash memory 
.................... {   
....................    fprintf(PC,"\r\nADD INFO ADDRESS:%lx\r\n\r\n",ADD_INFO_ADDRESS); 
02970:  MOVLW  6E
02972:  MOVWF  FF6
02974:  MOVLW  02
02976:  MOVWF  FF7
02978:  MOVLW  00
0297A:  MOVWF  FF8
0297C:  MOVLW  13
0297E:  MOVLB  3
02980:  MOVWF  x62
02982:  MOVLB  0
02984:  CALL   17AE
02988:  MOVFF  33,363
0298C:  MOVLW  57
0298E:  MOVLB  3
02990:  MOVWF  x64
02992:  MOVLB  0
02994:  CALL   17E0
02998:  MOVFF  32,363
0299C:  MOVLW  57
0299E:  MOVLB  3
029A0:  MOVWF  x64
029A2:  MOVLB  0
029A4:  CALL   17E0
029A8:  MOVFF  31,363
029AC:  MOVLW  57
029AE:  MOVLB  3
029B0:  MOVWF  x64
029B2:  MOVLB  0
029B4:  CALL   17E0
029B8:  MOVFF  30,363
029BC:  MOVLW  57
029BE:  MOVLB  3
029C0:  MOVWF  x64
029C2:  MOVLB  0
029C4:  CALL   17E0
029C8:  MOVLW  84
029CA:  MOVWF  FF6
029CC:  MOVLW  02
029CE:  MOVWF  FF7
029D0:  MOVLW  00
029D2:  MOVWF  FF8
029D4:  MOVLW  04
029D6:  MOVLB  3
029D8:  MOVWF  x62
029DA:  MOVLB  0
029DC:  CALL   17AE
....................    fprintf(PC,"FLAG DATA ADDRESS:%x%x%x%x\r\n",FLAG_DATA_ADDRESS>>24,FLAG_DATA_ADDRESS>>16,FLAG_DATA_ADDRESS>>8,FLAG_DATA_ADDRESS); 
029E0:  MOVFF  3B,338
029E4:  MOVLB  3
029E6:  CLRF   x39
029E8:  CLRF   x3A
029EA:  CLRF   x3B
029EC:  MOVFF  3A,33D
029F0:  MOVFF  3B,33E
029F4:  CLRF   x3F
029F6:  CLRF   x40
029F8:  MOVFF  39,342
029FC:  MOVFF  3A,343
02A00:  MOVFF  3B,344
02A04:  CLRF   x45
02A06:  MOVLW  8A
02A08:  MOVWF  FF6
02A0A:  MOVLW  02
02A0C:  MOVWF  FF7
02A0E:  MOVLW  00
02A10:  MOVWF  FF8
02A12:  MOVLW  12
02A14:  MOVWF  x62
02A16:  MOVLB  0
02A18:  CALL   17AE
02A1C:  MOVFF  338,363
02A20:  MOVLW  57
02A22:  MOVLB  3
02A24:  MOVWF  x64
02A26:  MOVLB  0
02A28:  CALL   17E0
02A2C:  MOVFF  33D,363
02A30:  MOVLW  57
02A32:  MOVLB  3
02A34:  MOVWF  x64
02A36:  MOVLB  0
02A38:  CALL   17E0
02A3C:  MOVFF  342,363
02A40:  MOVLW  57
02A42:  MOVLB  3
02A44:  MOVWF  x64
02A46:  MOVLB  0
02A48:  CALL   17E0
02A4C:  MOVFF  38,363
02A50:  MOVLW  57
02A52:  MOVLB  3
02A54:  MOVWF  x64
02A56:  MOVLB  0
02A58:  CALL   17E0
02A5C:  MOVLW  0D
02A5E:  BTFSS  F9E.4
02A60:  BRA    2A5E
02A62:  MOVWF  FAD
02A64:  MOVLW  0A
02A66:  BTFSS  F9E.4
02A68:  BRA    2A66
02A6A:  MOVWF  FAD
....................    fprintf(PC,"RESERVATION TABLE ADDRESS:%x%x%x%x\r\n",RSV_DATA_ADDRESS>>24,RSV_DATA_ADDRESS>>16,RSV_DATA_ADDRESS>>8,RSV_DATA_ADDRESS); 
02A6C:  MOVFF  3F,338
02A70:  MOVLB  3
02A72:  CLRF   x39
02A74:  CLRF   x3A
02A76:  CLRF   x3B
02A78:  MOVFF  3E,33D
02A7C:  MOVFF  3F,33E
02A80:  CLRF   x3F
02A82:  CLRF   x40
02A84:  MOVFF  3D,342
02A88:  MOVFF  3E,343
02A8C:  MOVFF  3F,344
02A90:  CLRF   x45
02A92:  MOVLW  A8
02A94:  MOVWF  FF6
02A96:  MOVLW  02
02A98:  MOVWF  FF7
02A9A:  MOVLW  00
02A9C:  MOVWF  FF8
02A9E:  MOVLW  1A
02AA0:  MOVWF  x62
02AA2:  MOVLB  0
02AA4:  CALL   17AE
02AA8:  MOVFF  338,363
02AAC:  MOVLW  57
02AAE:  MOVLB  3
02AB0:  MOVWF  x64
02AB2:  MOVLB  0
02AB4:  CALL   17E0
02AB8:  MOVFF  33D,363
02ABC:  MOVLW  57
02ABE:  MOVLB  3
02AC0:  MOVWF  x64
02AC2:  MOVLB  0
02AC4:  CALL   17E0
02AC8:  MOVFF  342,363
02ACC:  MOVLW  57
02ACE:  MOVLB  3
02AD0:  MOVWF  x64
02AD2:  MOVLB  0
02AD4:  CALL   17E0
02AD8:  MOVFF  3C,363
02ADC:  MOVLW  57
02ADE:  MOVLB  3
02AE0:  MOVWF  x64
02AE2:  MOVLB  0
02AE4:  CALL   17E0
02AE8:  MOVLW  0D
02AEA:  BTFSS  F9E.4
02AEC:  BRA    2AEA
02AEE:  MOVWF  FAD
02AF0:  MOVLW  0A
02AF2:  BTFSS  F9E.4
02AF4:  BRA    2AF2
02AF6:  MOVWF  FAD
....................    fprintf(PC,"SATELLITE LOG ADDRESS:%x%x%x%x\r\n",SAT_LOG>>24,SAT_LOG>>16,SAT_LOG>>8,SAT_LOG); 
02AF8:  MOVFF  43,338
02AFC:  MOVLB  3
02AFE:  CLRF   x39
02B00:  CLRF   x3A
02B02:  CLRF   x3B
02B04:  MOVFF  42,33D
02B08:  MOVFF  43,33E
02B0C:  CLRF   x3F
02B0E:  CLRF   x40
02B10:  MOVFF  41,342
02B14:  MOVFF  42,343
02B18:  MOVFF  43,344
02B1C:  CLRF   x45
02B1E:  MOVLW  CE
02B20:  MOVWF  FF6
02B22:  MOVLW  02
02B24:  MOVWF  FF7
02B26:  MOVLW  00
02B28:  MOVWF  FF8
02B2A:  MOVLW  16
02B2C:  MOVWF  x62
02B2E:  MOVLB  0
02B30:  CALL   17AE
02B34:  MOVFF  338,363
02B38:  MOVLW  57
02B3A:  MOVLB  3
02B3C:  MOVWF  x64
02B3E:  MOVLB  0
02B40:  CALL   17E0
02B44:  MOVFF  33D,363
02B48:  MOVLW  57
02B4A:  MOVLB  3
02B4C:  MOVWF  x64
02B4E:  MOVLB  0
02B50:  CALL   17E0
02B54:  MOVFF  342,363
02B58:  MOVLW  57
02B5A:  MOVLB  3
02B5C:  MOVWF  x64
02B5E:  MOVLB  0
02B60:  CALL   17E0
02B64:  MOVFF  40,363
02B68:  MOVLW  57
02B6A:  MOVLB  3
02B6C:  MOVWF  x64
02B6E:  MOVLB  0
02B70:  CALL   17E0
02B74:  MOVLW  0D
02B76:  BTFSS  F9E.4
02B78:  BRA    2B76
02B7A:  MOVWF  FAD
02B7C:  MOVLW  0A
02B7E:  BTFSS  F9E.4
02B80:  BRA    2B7E
02B82:  MOVWF  FAD
....................    fprintf(PC,"CAM ADDRESS:%x%x%x%x\r\n",CAM_ADDRESS>>24,CAM_ADDRESS>>16,CAM_ADDRESS>>8,CAM_ADDRESS); 
02B84:  MOVFF  47,338
02B88:  MOVLB  3
02B8A:  CLRF   x39
02B8C:  CLRF   x3A
02B8E:  CLRF   x3B
02B90:  MOVFF  46,33D
02B94:  MOVFF  47,33E
02B98:  CLRF   x3F
02B9A:  CLRF   x40
02B9C:  MOVFF  45,342
02BA0:  MOVFF  46,343
02BA4:  MOVFF  47,344
02BA8:  CLRF   x45
02BAA:  MOVLW  F0
02BAC:  MOVWF  FF6
02BAE:  MOVLW  02
02BB0:  MOVWF  FF7
02BB2:  MOVLW  00
02BB4:  MOVWF  FF8
02BB6:  MOVLW  0C
02BB8:  MOVWF  x62
02BBA:  MOVLB  0
02BBC:  CALL   17AE
02BC0:  MOVFF  338,363
02BC4:  MOVLW  57
02BC6:  MOVLB  3
02BC8:  MOVWF  x64
02BCA:  MOVLB  0
02BCC:  CALL   17E0
02BD0:  MOVFF  33D,363
02BD4:  MOVLW  57
02BD6:  MOVLB  3
02BD8:  MOVWF  x64
02BDA:  MOVLB  0
02BDC:  CALL   17E0
02BE0:  MOVFF  342,363
02BE4:  MOVLW  57
02BE6:  MOVLB  3
02BE8:  MOVWF  x64
02BEA:  MOVLB  0
02BEC:  CALL   17E0
02BF0:  MOVFF  44,363
02BF4:  MOVLW  57
02BF6:  MOVLB  3
02BF8:  MOVWF  x64
02BFA:  MOVLB  0
02BFC:  CALL   17E0
02C00:  MOVLW  0D
02C02:  BTFSS  F9E.4
02C04:  BRA    2C02
02C06:  MOVWF  FAD
02C08:  MOVLW  0A
02C0A:  BTFSS  F9E.4
02C0C:  BRA    2C0A
02C0E:  MOVWF  FAD
....................    fprintf(PC,"FAB HK ADDRESS:%x%x%x%x\r\n",FAB_HK_ADDRESS>>24,FAB_HK_ADDRESS>>16,FAB_HK_ADDRESS>>8,FAB_HK_ADDRESS); 
02C10:  MOVFF  4B,338
02C14:  MOVLB  3
02C16:  CLRF   x39
02C18:  CLRF   x3A
02C1A:  CLRF   x3B
02C1C:  MOVFF  4A,33D
02C20:  MOVFF  4B,33E
02C24:  CLRF   x3F
02C26:  CLRF   x40
02C28:  MOVFF  49,342
02C2C:  MOVFF  4A,343
02C30:  MOVFF  4B,344
02C34:  CLRF   x45
02C36:  MOVLW  08
02C38:  MOVWF  FF6
02C3A:  MOVLW  03
02C3C:  MOVWF  FF7
02C3E:  MOVLW  00
02C40:  MOVWF  FF8
02C42:  MOVLW  0F
02C44:  MOVWF  x62
02C46:  MOVLB  0
02C48:  CALL   17AE
02C4C:  MOVFF  338,363
02C50:  MOVLW  57
02C52:  MOVLB  3
02C54:  MOVWF  x64
02C56:  MOVLB  0
02C58:  CALL   17E0
02C5C:  MOVFF  33D,363
02C60:  MOVLW  57
02C62:  MOVLB  3
02C64:  MOVWF  x64
02C66:  MOVLB  0
02C68:  CALL   17E0
02C6C:  MOVFF  342,363
02C70:  MOVLW  57
02C72:  MOVLB  3
02C74:  MOVWF  x64
02C76:  MOVLB  0
02C78:  CALL   17E0
02C7C:  MOVFF  48,363
02C80:  MOVLW  57
02C82:  MOVLB  3
02C84:  MOVWF  x64
02C86:  MOVLB  0
02C88:  CALL   17E0
02C8C:  MOVLW  0D
02C8E:  BTFSS  F9E.4
02C90:  BRA    2C8E
02C92:  MOVWF  FAD
02C94:  MOVLW  0A
02C96:  BTFSS  F9E.4
02C98:  BRA    2C96
02C9A:  MOVWF  FAD
....................    fprintf(PC,"FAB CW ADDRESS:%x%x%x%x\r\n",FAB_CW_ADDRESS>>24,FAB_CW_ADDRESS>>16,FAB_CW_ADDRESS>>8,FAB_CW_ADDRESS); 
02C9C:  MOVFF  4F,338
02CA0:  MOVLB  3
02CA2:  CLRF   x39
02CA4:  CLRF   x3A
02CA6:  CLRF   x3B
02CA8:  MOVFF  4E,33D
02CAC:  MOVFF  4F,33E
02CB0:  CLRF   x3F
02CB2:  CLRF   x40
02CB4:  MOVFF  4D,342
02CB8:  MOVFF  4E,343
02CBC:  MOVFF  4F,344
02CC0:  CLRF   x45
02CC2:  MOVLW  22
02CC4:  MOVWF  FF6
02CC6:  MOVLW  03
02CC8:  MOVWF  FF7
02CCA:  MOVLW  00
02CCC:  MOVWF  FF8
02CCE:  MOVLW  0F
02CD0:  MOVWF  x62
02CD2:  MOVLB  0
02CD4:  CALL   17AE
02CD8:  MOVFF  338,363
02CDC:  MOVLW  57
02CDE:  MOVLB  3
02CE0:  MOVWF  x64
02CE2:  MOVLB  0
02CE4:  CALL   17E0
02CE8:  MOVFF  33D,363
02CEC:  MOVLW  57
02CEE:  MOVLB  3
02CF0:  MOVWF  x64
02CF2:  MOVLB  0
02CF4:  CALL   17E0
02CF8:  MOVFF  342,363
02CFC:  MOVLW  57
02CFE:  MOVLB  3
02D00:  MOVWF  x64
02D02:  MOVLB  0
02D04:  CALL   17E0
02D08:  MOVFF  4C,363
02D0C:  MOVLW  57
02D0E:  MOVLB  3
02D10:  MOVWF  x64
02D12:  MOVLB  0
02D14:  CALL   17E0
02D18:  MOVLW  0D
02D1A:  BTFSS  F9E.4
02D1C:  BRA    2D1A
02D1E:  MOVWF  FAD
02D20:  MOVLW  0A
02D22:  BTFSS  F9E.4
02D24:  BRA    2D22
02D26:  MOVWF  FAD
....................    fprintf(PC,"ADCS SENSOR ADDRESS:%x%x%x%x\r\n",ADCS_SENSOR_ADDRESS>>24,ADCS_SENSOR_ADDRESS>>16,ADCS_SENSOR_ADDRESS>>8,ADCS_SENSOR_ADDRESS); 
02D28:  MOVFF  53,338
02D2C:  MOVLB  3
02D2E:  CLRF   x39
02D30:  CLRF   x3A
02D32:  CLRF   x3B
02D34:  MOVFF  52,33D
02D38:  MOVFF  53,33E
02D3C:  CLRF   x3F
02D3E:  CLRF   x40
02D40:  MOVFF  51,342
02D44:  MOVFF  52,343
02D48:  MOVFF  53,344
02D4C:  CLRF   x45
02D4E:  MOVLW  3C
02D50:  MOVWF  FF6
02D52:  MOVLW  03
02D54:  MOVWF  FF7
02D56:  MOVLW  00
02D58:  MOVWF  FF8
02D5A:  MOVLW  14
02D5C:  MOVWF  x62
02D5E:  MOVLB  0
02D60:  CALL   17AE
02D64:  MOVFF  338,363
02D68:  MOVLW  57
02D6A:  MOVLB  3
02D6C:  MOVWF  x64
02D6E:  MOVLB  0
02D70:  CALL   17E0
02D74:  MOVFF  33D,363
02D78:  MOVLW  57
02D7A:  MOVLB  3
02D7C:  MOVWF  x64
02D7E:  MOVLB  0
02D80:  CALL   17E0
02D84:  MOVFF  342,363
02D88:  MOVLW  57
02D8A:  MOVLB  3
02D8C:  MOVWF  x64
02D8E:  MOVLB  0
02D90:  CALL   17E0
02D94:  MOVFF  50,363
02D98:  MOVLW  57
02D9A:  MOVLB  3
02D9C:  MOVWF  x64
02D9E:  MOVLB  0
02DA0:  CALL   17E0
02DA4:  MOVLW  0D
02DA6:  BTFSS  F9E.4
02DA8:  BRA    2DA6
02DAA:  MOVWF  FAD
02DAC:  MOVLW  0A
02DAE:  BTFSS  F9E.4
02DB0:  BRA    2DAE
02DB2:  MOVWF  FAD
....................    fprintf(PC,"ADCS TLE ADDRESS:%x%x%x%x\r\n",ADCS_TLE_ADDRESS>>24,ADCS_TLE_ADDRESS>>16,ADCS_TLE_ADDRESS>>8,ADCS_TLE_ADDRESS); 
02DB4:  MOVFF  57,338
02DB8:  MOVLB  3
02DBA:  CLRF   x39
02DBC:  CLRF   x3A
02DBE:  CLRF   x3B
02DC0:  MOVFF  56,33D
02DC4:  MOVFF  57,33E
02DC8:  CLRF   x3F
02DCA:  CLRF   x40
02DCC:  MOVFF  55,342
02DD0:  MOVFF  56,343
02DD4:  MOVFF  57,344
02DD8:  CLRF   x45
02DDA:  MOVLW  5C
02DDC:  MOVWF  FF6
02DDE:  MOVLW  03
02DE0:  MOVWF  FF7
02DE2:  MOVLW  00
02DE4:  MOVWF  FF8
02DE6:  MOVLW  11
02DE8:  MOVWF  x62
02DEA:  MOVLB  0
02DEC:  CALL   17AE
02DF0:  MOVFF  338,363
02DF4:  MOVLW  57
02DF6:  MOVLB  3
02DF8:  MOVWF  x64
02DFA:  MOVLB  0
02DFC:  CALL   17E0
02E00:  MOVFF  33D,363
02E04:  MOVLW  57
02E06:  MOVLB  3
02E08:  MOVWF  x64
02E0A:  MOVLB  0
02E0C:  CALL   17E0
02E10:  MOVFF  342,363
02E14:  MOVLW  57
02E16:  MOVLB  3
02E18:  MOVWF  x64
02E1A:  MOVLB  0
02E1C:  CALL   17E0
02E20:  MOVFF  54,363
02E24:  MOVLW  57
02E26:  MOVLB  3
02E28:  MOVWF  x64
02E2A:  MOVLB  0
02E2C:  CALL   17E0
02E30:  MOVLW  0D
02E32:  BTFSS  F9E.4
02E34:  BRA    2E32
02E36:  MOVWF  FAD
02E38:  MOVLW  0A
02E3A:  BTFSS  F9E.4
02E3C:  BRA    2E3A
02E3E:  MOVWF  FAD
....................    fprintf(PC,"MISSION BOSS ADDRESS:%x%x%x%x\r\n",DC_STATUS_ADDRESS>>24,DC_STATUS_ADDRESS>>16,DC_STATUS_ADDRESS>>8,DC_STATUS_ADDRESS); 
02E40:  MOVFF  5B,338
02E44:  MOVLB  3
02E46:  CLRF   x39
02E48:  CLRF   x3A
02E4A:  CLRF   x3B
02E4C:  MOVFF  5A,33D
02E50:  MOVFF  5B,33E
02E54:  CLRF   x3F
02E56:  CLRF   x40
02E58:  MOVFF  59,342
02E5C:  MOVFF  5A,343
02E60:  MOVFF  5B,344
02E64:  CLRF   x45
02E66:  MOVLW  78
02E68:  MOVWF  FF6
02E6A:  MOVLW  03
02E6C:  MOVWF  FF7
02E6E:  MOVLW  00
02E70:  MOVWF  FF8
02E72:  MOVLW  15
02E74:  MOVWF  x62
02E76:  MOVLB  0
02E78:  CALL   17AE
02E7C:  MOVFF  338,363
02E80:  MOVLW  57
02E82:  MOVLB  3
02E84:  MOVWF  x64
02E86:  MOVLB  0
02E88:  CALL   17E0
02E8C:  MOVFF  33D,363
02E90:  MOVLW  57
02E92:  MOVLB  3
02E94:  MOVWF  x64
02E96:  MOVLB  0
02E98:  CALL   17E0
02E9C:  MOVFF  342,363
02EA0:  MOVLW  57
02EA2:  MOVLB  3
02EA4:  MOVWF  x64
02EA6:  MOVLB  0
02EA8:  CALL   17E0
02EAC:  MOVFF  58,363
02EB0:  MOVLW  57
02EB2:  MOVLB  3
02EB4:  MOVWF  x64
02EB6:  MOVLB  0
02EB8:  CALL   17E0
02EBC:  MOVLW  0D
02EBE:  BTFSS  F9E.4
02EC0:  BRA    2EBE
02EC2:  MOVWF  FAD
02EC4:  MOVLW  0A
02EC6:  BTFSS  F9E.4
02EC8:  BRA    2EC6
02ECA:  MOVWF  FAD
....................    fprintf(PC,"HIGH SAMP HK ADDERSS:%x%x%x%x\r\n",HIGH_SAMP_HK_ADDRESS>>24,HIGH_SAMP_HK_ADDRESS>>16,HIGH_SAMP_HK_ADDRESS>>8,HIGH_SAMP_HK_ADDRESS); 
02ECC:  MOVFF  5F,338
02ED0:  MOVLB  3
02ED2:  CLRF   x39
02ED4:  CLRF   x3A
02ED6:  CLRF   x3B
02ED8:  MOVFF  5E,33D
02EDC:  MOVFF  5F,33E
02EE0:  CLRF   x3F
02EE2:  CLRF   x40
02EE4:  MOVFF  5D,342
02EE8:  MOVFF  5E,343
02EEC:  MOVFF  5F,344
02EF0:  CLRF   x45
02EF2:  MOVLW  98
02EF4:  MOVWF  FF6
02EF6:  MOVLW  03
02EF8:  MOVWF  FF7
02EFA:  MOVLW  00
02EFC:  MOVWF  FF8
02EFE:  MOVLW  15
02F00:  MOVWF  x62
02F02:  MOVLB  0
02F04:  CALL   17AE
02F08:  MOVFF  338,363
02F0C:  MOVLW  57
02F0E:  MOVLB  3
02F10:  MOVWF  x64
02F12:  MOVLB  0
02F14:  CALL   17E0
02F18:  MOVFF  33D,363
02F1C:  MOVLW  57
02F1E:  MOVLB  3
02F20:  MOVWF  x64
02F22:  MOVLB  0
02F24:  CALL   17E0
02F28:  MOVFF  342,363
02F2C:  MOVLW  57
02F2E:  MOVLB  3
02F30:  MOVWF  x64
02F32:  MOVLB  0
02F34:  CALL   17E0
02F38:  MOVFF  5C,363
02F3C:  MOVLW  57
02F3E:  MOVLB  3
02F40:  MOVWF  x64
02F42:  MOVLB  0
02F44:  CALL   17E0
02F48:  MOVLW  0D
02F4A:  BTFSS  F9E.4
02F4C:  BRA    2F4A
02F4E:  MOVWF  FAD
02F50:  MOVLW  0A
02F52:  BTFSS  F9E.4
02F54:  BRA    2F52
02F56:  MOVWF  FAD
....................    fprintf(PC,"WRITE %lx TIMES\r\n",ADDRESS_WRITING_COUNTER); 
02F58:  MOVLW  B8
02F5A:  MOVWF  FF6
02F5C:  MOVLW  03
02F5E:  MOVWF  FF7
02F60:  MOVLW  00
02F62:  MOVWF  FF8
02F64:  MOVLW  06
02F66:  MOVLB  3
02F68:  MOVWF  x62
02F6A:  MOVLB  0
02F6C:  CALL   17AE
02F70:  MOVFF  37,363
02F74:  MOVLW  57
02F76:  MOVLB  3
02F78:  MOVWF  x64
02F7A:  MOVLB  0
02F7C:  CALL   17E0
02F80:  MOVFF  36,363
02F84:  MOVLW  57
02F86:  MOVLB  3
02F88:  MOVWF  x64
02F8A:  MOVLB  0
02F8C:  CALL   17E0
02F90:  MOVFF  35,363
02F94:  MOVLW  57
02F96:  MOVLB  3
02F98:  MOVWF  x64
02F9A:  MOVLB  0
02F9C:  CALL   17E0
02FA0:  MOVFF  34,363
02FA4:  MOVLW  57
02FA6:  MOVLB  3
02FA8:  MOVWF  x64
02FAA:  MOVLB  0
02FAC:  CALL   17E0
02FB0:  MOVLW  C1
02FB2:  MOVWF  FF6
02FB4:  MOVLW  03
02FB6:  MOVWF  FF7
02FB8:  MOVLW  00
02FBA:  MOVWF  FF8
02FBC:  MOVLW  08
02FBE:  MOVLB  3
02FC0:  MOVWF  x62
02FC2:  MOVLB  0
02FC4:  CALL   17AE
....................    return; 
02FC8:  RETURN 0
.................... } 
....................  
.................... void ERASE_EEPROM_INFO() 
.................... { 
....................    erase_program_eeprom(FLAG_ADDRESS_EEPROM);//erase 512byte(from 0x18000 to 0x181ff) 
*
0B192:  BSF    FD0.6
0B194:  MOVFF  62,FF8
0B198:  MOVFF  61,FF7
0B19C:  MOVFF  60,FF6
0B1A0:  BSF    F7F.4
0B1A2:  CALL   5906
0B1A6:  CLRF   FF8
....................    return; 
0B1A8:  RETURN 0
.................... } 
....................  
.................... void WRITE_FLAG_to_EEPROM()                                                      //saves the flags in the EEPROM from the address 0x18000 (75%) 
.................... { 
.................... //total programming memory size is 128KB 
.................... //start writing the important flag from 75 percent of the programming memory(from the address of 96KB --> 0x18000) 
....................    int16 DATA; 
....................    DATA = (int16)BC_ATTEMPT_FLAG; 
*
05924:  MOVLB  3
05926:  CLRF   x40
05928:  MOVFF  68,33F
....................    WRITE_PROGRAM_EEPROM(FLAG_ADDRESS_EEPROM, DATA); 
0592C:  BSF    FD0.6
0592E:  MOVFF  62,FF8
05932:  MOVFF  61,FF7
05936:  MOVFF  60,FF6
0593A:  MOVLB  0
0593C:  RCALL  58F0
0593E:  MOVFF  60,FF6
05942:  MOVFF  33F,FF5
05946:  TBLWT*+
05948:  MOVFF  340,FF5
0594C:  TBLWT*
0594E:  RCALL  5906
05950:  CLRF   FF8
05952:  CLRF   FF8
....................    DATA = (int16)PASSED_DAYS; 
05954:  MOVFF  6A,340
05958:  MOVFF  69,33F
....................    WRITE_PROGRAM_EEPROM(FLAG_ADDRESS_EEPROM+2, DATA); 
0595C:  MOVLW  02
0595E:  ADDWF  x60,W
05960:  MOVLB  3
05962:  MOVWF  x41
05964:  MOVLW  00
05966:  MOVLB  0
05968:  ADDWFC x61,W
0596A:  MOVLB  3
0596C:  MOVWF  x42
0596E:  MOVLW  00
05970:  MOVLB  0
05972:  ADDWFC x62,W
05974:  MOVLB  3
05976:  MOVWF  x43
05978:  MOVLW  00
0597A:  MOVLB  0
0597C:  ADDWFC x63,W
0597E:  MOVLB  3
05980:  MOVWF  x44
05982:  BSF    FD0.6
05984:  MOVFF  343,FF8
05988:  MOVFF  342,FF7
0598C:  MOVFF  341,FF6
05990:  MOVLB  0
05992:  RCALL  58F0
05994:  MOVFF  341,FF6
05998:  MOVFF  33F,FF5
0599C:  TBLWT*+
0599E:  MOVFF  340,FF5
059A2:  TBLWT*
059A4:  RCALL  5906
059A6:  CLRF   FF8
059A8:  CLRF   FF8
....................    DATA = (int16)RESERVE_CHECK; 
059AA:  MOVLB  3
059AC:  CLRF   x40
059AE:  MOVFF  6B,33F
....................    WRITE_PROGRAM_EEPROM(FLAG_ADDRESS_EEPROM+4, DATA); 
059B2:  MOVLW  04
059B4:  MOVLB  0
059B6:  ADDWF  x60,W
059B8:  MOVLB  3
059BA:  MOVWF  x41
059BC:  MOVLW  00
059BE:  MOVLB  0
059C0:  ADDWFC x61,W
059C2:  MOVLB  3
059C4:  MOVWF  x42
059C6:  MOVLW  00
059C8:  MOVLB  0
059CA:  ADDWFC x62,W
059CC:  MOVLB  3
059CE:  MOVWF  x43
059D0:  MOVLW  00
059D2:  MOVLB  0
059D4:  ADDWFC x63,W
059D6:  MOVLB  3
059D8:  MOVWF  x44
059DA:  BSF    FD0.6
059DC:  MOVFF  343,FF8
059E0:  MOVFF  342,FF7
059E4:  MOVFF  341,FF6
059E8:  MOVLB  0
059EA:  RCALL  58F0
059EC:  MOVFF  341,FF6
059F0:  MOVFF  33F,FF5
059F4:  TBLWT*+
059F6:  MOVFF  340,FF5
059FA:  TBLWT*
059FC:  RCALL  5906
059FE:  CLRF   FF8
05A00:  CLRF   FF8
....................    DATA = (int16)RESERVE_MIN_FLAG; 
05A02:  MOVLB  3
05A04:  CLRF   x40
05A06:  MOVFF  6C,33F
....................    WRITE_PROGRAM_EEPROM(FLAG_ADDRESS_EEPROM+6, DATA); 
05A0A:  MOVLW  06
05A0C:  MOVLB  0
05A0E:  ADDWF  x60,W
05A10:  MOVLB  3
05A12:  MOVWF  x41
05A14:  MOVLW  00
05A16:  MOVLB  0
05A18:  ADDWFC x61,W
05A1A:  MOVLB  3
05A1C:  MOVWF  x42
05A1E:  MOVLW  00
05A20:  MOVLB  0
05A22:  ADDWFC x62,W
05A24:  MOVLB  3
05A26:  MOVWF  x43
05A28:  MOVLW  00
05A2A:  MOVLB  0
05A2C:  ADDWFC x63,W
05A2E:  MOVLB  3
05A30:  MOVWF  x44
05A32:  BSF    FD0.6
05A34:  MOVFF  343,FF8
05A38:  MOVFF  342,FF7
05A3C:  MOVFF  341,FF6
05A40:  MOVLB  0
05A42:  RCALL  58F0
05A44:  MOVFF  341,FF6
05A48:  MOVFF  33F,FF5
05A4C:  TBLWT*+
05A4E:  MOVFF  340,FF5
05A52:  TBLWT*
05A54:  RCALL  5906
05A56:  CLRF   FF8
05A58:  CLRF   FF8
....................    DATA = (int16)RESERVE_TARGET_FLAG; 
05A5A:  MOVLB  3
05A5C:  CLRF   x40
05A5E:  MOVFF  6D,33F
....................    WRITE_PROGRAM_EEPROM(FLAG_ADDRESS_EEPROM+8, DATA); 
05A62:  MOVLW  08
05A64:  MOVLB  0
05A66:  ADDWF  x60,W
05A68:  MOVLB  3
05A6A:  MOVWF  x41
05A6C:  MOVLW  00
05A6E:  MOVLB  0
05A70:  ADDWFC x61,W
05A72:  MOVLB  3
05A74:  MOVWF  x42
05A76:  MOVLW  00
05A78:  MOVLB  0
05A7A:  ADDWFC x62,W
05A7C:  MOVLB  3
05A7E:  MOVWF  x43
05A80:  MOVLW  00
05A82:  MOVLB  0
05A84:  ADDWFC x63,W
05A86:  MOVLB  3
05A88:  MOVWF  x44
05A8A:  BSF    FD0.6
05A8C:  MOVFF  343,FF8
05A90:  MOVFF  342,FF7
05A94:  MOVFF  341,FF6
05A98:  MOVLB  0
05A9A:  RCALL  58F0
05A9C:  MOVFF  341,FF6
05AA0:  MOVFF  33F,FF5
05AA4:  TBLWT*+
05AA6:  MOVFF  340,FF5
05AAA:  TBLWT*
05AAC:  RCALL  5906
05AAE:  CLRF   FF8
05AB0:  CLRF   FF8
....................    DATA = (int16)MISSION_CONTENTS; 
05AB2:  MOVLB  3
05AB4:  CLRF   x40
05AB6:  MOVFF  6E,33F
....................    WRITE_PROGRAM_EEPROM(FLAG_ADDRESS_EEPROM+10, DATA); 
05ABA:  MOVLW  0A
05ABC:  MOVLB  0
05ABE:  ADDWF  x60,W
05AC0:  MOVLB  3
05AC2:  MOVWF  x41
05AC4:  MOVLW  00
05AC6:  MOVLB  0
05AC8:  ADDWFC x61,W
05ACA:  MOVLB  3
05ACC:  MOVWF  x42
05ACE:  MOVLW  00
05AD0:  MOVLB  0
05AD2:  ADDWFC x62,W
05AD4:  MOVLB  3
05AD6:  MOVWF  x43
05AD8:  MOVLW  00
05ADA:  MOVLB  0
05ADC:  ADDWFC x63,W
05ADE:  MOVLB  3
05AE0:  MOVWF  x44
05AE2:  BSF    FD0.6
05AE4:  MOVFF  343,FF8
05AE8:  MOVFF  342,FF7
05AEC:  MOVFF  341,FF6
05AF0:  MOVLB  0
05AF2:  RCALL  58F0
05AF4:  MOVFF  341,FF6
05AF8:  MOVFF  33F,FF5
05AFC:  TBLWT*+
05AFE:  MOVFF  340,FF5
05B02:  TBLWT*
05B04:  RCALL  5906
05B06:  CLRF   FF8
05B08:  CLRF   FF8
....................    DATA = (int16)MISSION_DETAIL; 
05B0A:  MOVLB  3
05B0C:  CLRF   x40
05B0E:  MOVFF  6F,33F
....................    WRITE_PROGRAM_EEPROM(FLAG_ADDRESS_EEPROM+12, DATA); 
05B12:  MOVLW  0C
05B14:  MOVLB  0
05B16:  ADDWF  x60,W
05B18:  MOVLB  3
05B1A:  MOVWF  x41
05B1C:  MOVLW  00
05B1E:  MOVLB  0
05B20:  ADDWFC x61,W
05B22:  MOVLB  3
05B24:  MOVWF  x42
05B26:  MOVLW  00
05B28:  MOVLB  0
05B2A:  ADDWFC x62,W
05B2C:  MOVLB  3
05B2E:  MOVWF  x43
05B30:  MOVLW  00
05B32:  MOVLB  0
05B34:  ADDWFC x63,W
05B36:  MOVLB  3
05B38:  MOVWF  x44
05B3A:  BSF    FD0.6
05B3C:  MOVFF  343,FF8
05B40:  MOVFF  342,FF7
05B44:  MOVFF  341,FF6
05B48:  MOVLB  0
05B4A:  RCALL  58F0
05B4C:  MOVFF  341,FF6
05B50:  MOVFF  33F,FF5
05B54:  TBLWT*+
05B56:  MOVFF  340,FF5
05B5A:  TBLWT*
05B5C:  RCALL  5906
05B5E:  CLRF   FF8
05B60:  CLRF   FF8
....................    DATA = (int16)Kill_FLAG_MAIN; 
05B62:  MOVLB  3
05B64:  CLRF   x40
05B66:  MOVFF  75,33F
....................    WRITE_PROGRAM_EEPROM(FLAG_ADDRESS_EEPROM+14, DATA); 
05B6A:  MOVLW  0E
05B6C:  MOVLB  0
05B6E:  ADDWF  x60,W
05B70:  MOVLB  3
05B72:  MOVWF  x41
05B74:  MOVLW  00
05B76:  MOVLB  0
05B78:  ADDWFC x61,W
05B7A:  MOVLB  3
05B7C:  MOVWF  x42
05B7E:  MOVLW  00
05B80:  MOVLB  0
05B82:  ADDWFC x62,W
05B84:  MOVLB  3
05B86:  MOVWF  x43
05B88:  MOVLW  00
05B8A:  MOVLB  0
05B8C:  ADDWFC x63,W
05B8E:  MOVLB  3
05B90:  MOVWF  x44
05B92:  BSF    FD0.6
05B94:  MOVFF  343,FF8
05B98:  MOVFF  342,FF7
05B9C:  MOVFF  341,FF6
05BA0:  MOVLB  0
05BA2:  RCALL  58F0
05BA4:  MOVFF  341,FF6
05BA8:  MOVFF  33F,FF5
05BAC:  TBLWT*+
05BAE:  MOVFF  340,FF5
05BB2:  TBLWT*
05BB4:  RCALL  5906
05BB6:  CLRF   FF8
05BB8:  CLRF   FF8
....................    DATA = (int16)Kill_FLAG_FAB; 
05BBA:  MOVLB  3
05BBC:  CLRF   x40
05BBE:  MOVFF  76,33F
....................    WRITE_PROGRAM_EEPROM(FLAG_ADDRESS_EEPROM+16, DATA); 
05BC2:  MOVLW  10
05BC4:  MOVLB  0
05BC6:  ADDWF  x60,W
05BC8:  MOVLB  3
05BCA:  MOVWF  x41
05BCC:  MOVLW  00
05BCE:  MOVLB  0
05BD0:  ADDWFC x61,W
05BD2:  MOVLB  3
05BD4:  MOVWF  x42
05BD6:  MOVLW  00
05BD8:  MOVLB  0
05BDA:  ADDWFC x62,W
05BDC:  MOVLB  3
05BDE:  MOVWF  x43
05BE0:  MOVLW  00
05BE2:  MOVLB  0
05BE4:  ADDWFC x63,W
05BE6:  MOVLB  3
05BE8:  MOVWF  x44
05BEA:  BSF    FD0.6
05BEC:  MOVFF  343,FF8
05BF0:  MOVFF  342,FF7
05BF4:  MOVFF  341,FF6
05BF8:  MOVLB  0
05BFA:  RCALL  58F0
05BFC:  MOVFF  341,FF6
05C00:  MOVFF  33F,FF5
05C04:  TBLWT*+
05C06:  MOVFF  340,FF5
05C0A:  TBLWT*
05C0C:  RCALL  5906
05C0E:  CLRF   FF8
05C10:  CLRF   FF8
....................    DATA = (int16)FIRST_HSSC_DONE; 
05C12:  MOVLB  3
05C14:  CLRF   x40
05C16:  MOVFF  77,33F
....................    WRITE_PROGRAM_EEPROM(FLAG_ADDRESS_EEPROM+18, DATA); 
05C1A:  MOVLW  12
05C1C:  MOVLB  0
05C1E:  ADDWF  x60,W
05C20:  MOVLB  3
05C22:  MOVWF  x41
05C24:  MOVLW  00
05C26:  MOVLB  0
05C28:  ADDWFC x61,W
05C2A:  MOVLB  3
05C2C:  MOVWF  x42
05C2E:  MOVLW  00
05C30:  MOVLB  0
05C32:  ADDWFC x62,W
05C34:  MOVLB  3
05C36:  MOVWF  x43
05C38:  MOVLW  00
05C3A:  MOVLB  0
05C3C:  ADDWFC x63,W
05C3E:  MOVLB  3
05C40:  MOVWF  x44
05C42:  BSF    FD0.6
05C44:  MOVFF  343,FF8
05C48:  MOVFF  342,FF7
05C4C:  MOVFF  341,FF6
05C50:  MOVLB  0
05C52:  RCALL  58F0
05C54:  MOVFF  341,FF6
05C58:  MOVFF  33F,FF5
05C5C:  TBLWT*+
05C5E:  MOVFF  340,FF5
05C62:  TBLWT*
05C64:  RCALL  5906
05C66:  CLRF   FF8
05C68:  CLRF   FF8
....................    DATA = (int16)AUTO_CAM_DONE; 
05C6A:  MOVLB  3
05C6C:  CLRF   x40
05C6E:  MOVFF  78,33F
....................    WRITE_PROGRAM_EEPROM(FLAG_ADDRESS_EEPROM+20, DATA); 
05C72:  MOVLW  14
05C74:  MOVLB  0
05C76:  ADDWF  x60,W
05C78:  MOVLB  3
05C7A:  MOVWF  x41
05C7C:  MOVLW  00
05C7E:  MOVLB  0
05C80:  ADDWFC x61,W
05C82:  MOVLB  3
05C84:  MOVWF  x42
05C86:  MOVLW  00
05C88:  MOVLB  0
05C8A:  ADDWFC x62,W
05C8C:  MOVLB  3
05C8E:  MOVWF  x43
05C90:  MOVLW  00
05C92:  MOVLB  0
05C94:  ADDWFC x63,W
05C96:  MOVLB  3
05C98:  MOVWF  x44
05C9A:  BSF    FD0.6
05C9C:  MOVFF  343,FF8
05CA0:  MOVFF  342,FF7
05CA4:  MOVFF  341,FF6
05CA8:  MOVLB  0
05CAA:  RCALL  58F0
05CAC:  MOVFF  341,FF6
05CB0:  MOVFF  33F,FF5
05CB4:  TBLWT*+
05CB6:  MOVFF  340,FF5
05CBA:  TBLWT*
05CBC:  RCALL  5906
05CBE:  CLRF   FF8
05CC0:  CLRF   FF8
....................    DATA = (int16)AUTO_MBP_DONE; 
05CC2:  MOVLB  3
05CC4:  CLRF   x40
05CC6:  MOVFF  79,33F
....................    WRITE_PROGRAM_EEPROM(FLAG_ADDRESS_EEPROM+22, DATA); 
05CCA:  MOVLW  16
05CCC:  MOVLB  0
05CCE:  ADDWF  x60,W
05CD0:  MOVLB  3
05CD2:  MOVWF  x41
05CD4:  MOVLW  00
05CD6:  MOVLB  0
05CD8:  ADDWFC x61,W
05CDA:  MOVLB  3
05CDC:  MOVWF  x42
05CDE:  MOVLW  00
05CE0:  MOVLB  0
05CE2:  ADDWFC x62,W
05CE4:  MOVLB  3
05CE6:  MOVWF  x43
05CE8:  MOVLW  00
05CEA:  MOVLB  0
05CEC:  ADDWFC x63,W
05CEE:  MOVLB  3
05CF0:  MOVWF  x44
05CF2:  BSF    FD0.6
05CF4:  MOVFF  343,FF8
05CF8:  MOVFF  342,FF7
05CFC:  MOVFF  341,FF6
05D00:  MOVLB  0
05D02:  RCALL  58F0
05D04:  MOVFF  341,FF6
05D08:  MOVFF  33F,FF5
05D0C:  TBLWT*+
05D0E:  MOVFF  340,FF5
05D12:  TBLWT*
05D14:  RCALL  5906
05D16:  CLRF   FF8
05D18:  CLRF   FF8
....................    DATA = (int16)AUTO_ADCS_DONE; 
05D1A:  MOVLB  3
05D1C:  CLRF   x40
05D1E:  MOVFF  7A,33F
....................    WRITE_PROGRAM_EEPROM(FLAG_ADDRESS_EEPROM+24, DATA); 
05D22:  MOVLW  18
05D24:  MOVLB  0
05D26:  ADDWF  x60,W
05D28:  MOVLB  3
05D2A:  MOVWF  x41
05D2C:  MOVLW  00
05D2E:  MOVLB  0
05D30:  ADDWFC x61,W
05D32:  MOVLB  3
05D34:  MOVWF  x42
05D36:  MOVLW  00
05D38:  MOVLB  0
05D3A:  ADDWFC x62,W
05D3C:  MOVLB  3
05D3E:  MOVWF  x43
05D40:  MOVLW  00
05D42:  MOVLB  0
05D44:  ADDWFC x63,W
05D46:  MOVLB  3
05D48:  MOVWF  x44
05D4A:  BSF    FD0.6
05D4C:  MOVFF  343,FF8
05D50:  MOVFF  342,FF7
05D54:  MOVFF  341,FF6
05D58:  MOVLB  0
05D5A:  RCALL  58F0
05D5C:  MOVFF  341,FF6
05D60:  MOVFF  33F,FF5
05D64:  TBLWT*+
05D66:  MOVFF  340,FF5
05D6A:  TBLWT*
05D6C:  RCALL  5906
05D6E:  CLRF   FF8
05D70:  CLRF   FF8
....................    DATA = (int16)ANT_DEP_STATUS; 
05D72:  MOVLB  3
05D74:  CLRF   x40
05D76:  MOVFF  7B,33F
....................    WRITE_PROGRAM_EEPROM(FLAG_ADDRESS_EEPROM+26, DATA); 
05D7A:  MOVLW  1A
05D7C:  MOVLB  0
05D7E:  ADDWF  x60,W
05D80:  MOVLB  3
05D82:  MOVWF  x41
05D84:  MOVLW  00
05D86:  MOVLB  0
05D88:  ADDWFC x61,W
05D8A:  MOVLB  3
05D8C:  MOVWF  x42
05D8E:  MOVLW  00
05D90:  MOVLB  0
05D92:  ADDWFC x62,W
05D94:  MOVLB  3
05D96:  MOVWF  x43
05D98:  MOVLW  00
05D9A:  MOVLB  0
05D9C:  ADDWFC x63,W
05D9E:  MOVLB  3
05DA0:  MOVWF  x44
05DA2:  BSF    FD0.6
05DA4:  MOVFF  343,FF8
05DA8:  MOVFF  342,FF7
05DAC:  MOVFF  341,FF6
05DB0:  MOVLB  0
05DB2:  RCALL  58F0
05DB4:  MOVFF  341,FF6
05DB8:  MOVFF  33F,FF5
05DBC:  TBLWT*+
05DBE:  MOVFF  340,FF5
05DC2:  TBLWT*
05DC4:  RCALL  5906
05DC6:  CLRF   FF8
05DC8:  CLRF   FF8
....................    DATA = (int16)UPLINK_SUCCESS; 
05DCA:  MOVLB  3
05DCC:  CLRF   x40
05DCE:  MOVFF  7C,33F
....................    WRITE_PROGRAM_EEPROM(FLAG_ADDRESS_EEPROM+28, DATA); 
05DD2:  MOVLW  1C
05DD4:  MOVLB  0
05DD6:  ADDWF  x60,W
05DD8:  MOVLB  3
05DDA:  MOVWF  x41
05DDC:  MOVLW  00
05DDE:  MOVLB  0
05DE0:  ADDWFC x61,W
05DE2:  MOVLB  3
05DE4:  MOVWF  x42
05DE6:  MOVLW  00
05DE8:  MOVLB  0
05DEA:  ADDWFC x62,W
05DEC:  MOVLB  3
05DEE:  MOVWF  x43
05DF0:  MOVLW  00
05DF2:  MOVLB  0
05DF4:  ADDWFC x63,W
05DF6:  MOVLB  3
05DF8:  MOVWF  x44
05DFA:  BSF    FD0.6
05DFC:  MOVFF  343,FF8
05E00:  MOVFF  342,FF7
05E04:  MOVFF  341,FF6
05E08:  MOVLB  0
05E0A:  RCALL  58F0
05E0C:  MOVFF  341,FF6
05E10:  MOVFF  33F,FF5
05E14:  TBLWT*+
05E16:  MOVFF  340,FF5
05E1A:  TBLWT*
05E1C:  RCALL  5906
05E1E:  CLRF   FF8
05E20:  CLRF   FF8
....................    return; 
05E22:  RETURN 0
.................... } 
.................... /* 
.................... void WRITE_AD_INFO_to_EEPROM() 
.................... { 
....................    int16 DATA; 
....................    DATA = BC_ATTEMPT_FLAG >> 16; 
....................    WRITE_PROGRAM_EEPROM(FLASH_AD_ADDRESS_EEPROM, DATA); 
....................    DATA = BC_ATTEMPT_FLAG; 
....................    WRITE_PROGRAM_EEPROM(FLASH_AD_ADDRESS_EEPROM+2, DATA); 
....................    return; 
.................... } 
.................... */ 
.................... void MAKE_FLAG_from_EEPROM()                                                     //toma de la eeprom la info de los flags y los carga en sus variables respectivas 
.................... { 
....................    if((READ_PROGRAM_EEPROM(FLAG_ADDRESS_EEPROM)!=0xffff)&&(READ_PROGRAM_EEPROM(FLAG_ADDRESS_EEPROM+26)!=0xffff)) 
*
01C00:  MOVFF  FF2,32E
01C04:  BCF    FF2.7
01C06:  MOVFF  62,FF8
01C0A:  MOVFF  61,FF7
01C0E:  MOVFF  60,FF6
01C12:  TBLRD*+
01C14:  MOVF   FF5,W
01C16:  TBLRD*
01C18:  MOVFF  FF5,03
01C1C:  CLRF   FF8
01C1E:  MOVLB  3
01C20:  BTFSC  x2E.7
01C22:  BSF    FF2.7
01C24:  MOVWF  x2E
01C26:  MOVFF  03,32F
01C2A:  INCFSZ x2E,W
01C2C:  BRA    1C34
01C2E:  INCFSZ x2F,W
01C30:  BRA    1C34
01C32:  BRA    20C6
01C34:  MOVLW  1A
01C36:  MOVLB  0
01C38:  ADDWF  x60,W
01C3A:  MOVLB  3
01C3C:  MOVWF  x2E
01C3E:  MOVLW  00
01C40:  MOVLB  0
01C42:  ADDWFC x61,W
01C44:  MOVLB  3
01C46:  MOVWF  x2F
01C48:  MOVLW  00
01C4A:  MOVLB  0
01C4C:  ADDWFC x62,W
01C4E:  MOVLB  3
01C50:  MOVWF  x30
01C52:  MOVLW  00
01C54:  MOVLB  0
01C56:  ADDWFC x63,W
01C58:  MOVLB  3
01C5A:  MOVWF  x31
01C5C:  MOVFF  FF2,332
01C60:  BCF    FF2.7
01C62:  MOVFF  330,FF8
01C66:  MOVFF  32F,FF7
01C6A:  MOVFF  32E,FF6
01C6E:  TBLRD*+
01C70:  MOVF   FF5,W
01C72:  TBLRD*
01C74:  MOVFF  FF5,03
01C78:  CLRF   FF8
01C7A:  BTFSC  x32.7
01C7C:  BSF    FF2.7
01C7E:  MOVWF  x2E
01C80:  MOVFF  03,32F
01C84:  INCFSZ x2E,W
01C86:  BRA    1C8E
01C88:  INCFSZ x2F,W
01C8A:  BRA    1C8E
01C8C:  BRA    20C6
....................    { 
....................       BC_ATTEMPT_FLAG = (int8)READ_PROGRAM_EEPROM(FLAG_ADDRESS_EEPROM); 
01C8E:  MOVFF  FF2,32E
01C92:  BCF    FF2.7
01C94:  MOVFF  62,FF8
01C98:  MOVFF  61,FF7
01C9C:  MOVFF  60,FF6
01CA0:  TBLRD*+
01CA2:  MOVF   FF5,W
01CA4:  TBLRD*
01CA6:  MOVFF  FF5,03
01CAA:  CLRF   FF8
01CAC:  BTFSC  x2E.7
01CAE:  BSF    FF2.7
01CB0:  MOVLB  0
01CB2:  MOVWF  x68
....................       PASSED_DAYS = (int16)READ_PROGRAM_EEPROM(FLAG_ADDRESS_EEPROM+2); 
01CB4:  MOVLW  02
01CB6:  ADDWF  x60,W
01CB8:  MOVLB  3
01CBA:  MOVWF  x2E
01CBC:  MOVLW  00
01CBE:  MOVLB  0
01CC0:  ADDWFC x61,W
01CC2:  MOVLB  3
01CC4:  MOVWF  x2F
01CC6:  MOVLW  00
01CC8:  MOVLB  0
01CCA:  ADDWFC x62,W
01CCC:  MOVLB  3
01CCE:  MOVWF  x30
01CD0:  MOVLW  00
01CD2:  MOVLB  0
01CD4:  ADDWFC x63,W
01CD6:  MOVLB  3
01CD8:  MOVFF  FF2,332
01CDC:  BCF    FF2.7
01CDE:  MOVFF  330,FF8
01CE2:  MOVFF  32F,FF7
01CE6:  MOVFF  32E,FF6
01CEA:  TBLRD*+
01CEC:  MOVF   FF5,W
01CEE:  TBLRD*
01CF0:  MOVFF  FF5,03
01CF4:  CLRF   FF8
01CF6:  BTFSC  x32.7
01CF8:  BSF    FF2.7
01CFA:  MOVLB  0
01CFC:  MOVWF  x69
01CFE:  MOVFF  03,6A
....................       RESERVE_CHECK = (int8)READ_PROGRAM_EEPROM(FLAG_ADDRESS_EEPROM+4); 
01D02:  MOVLW  04
01D04:  ADDWF  x60,W
01D06:  MOVLB  3
01D08:  MOVWF  x2E
01D0A:  MOVLW  00
01D0C:  MOVLB  0
01D0E:  ADDWFC x61,W
01D10:  MOVLB  3
01D12:  MOVWF  x2F
01D14:  MOVLW  00
01D16:  MOVLB  0
01D18:  ADDWFC x62,W
01D1A:  MOVLB  3
01D1C:  MOVWF  x30
01D1E:  MOVLW  00
01D20:  MOVLB  0
01D22:  ADDWFC x63,W
01D24:  MOVLB  3
01D26:  MOVFF  FF2,332
01D2A:  BCF    FF2.7
01D2C:  MOVFF  330,FF8
01D30:  MOVFF  32F,FF7
01D34:  MOVFF  32E,FF6
01D38:  TBLRD*+
01D3A:  MOVF   FF5,W
01D3C:  TBLRD*
01D3E:  MOVFF  FF5,03
01D42:  CLRF   FF8
01D44:  BTFSC  x32.7
01D46:  BSF    FF2.7
01D48:  MOVLB  0
01D4A:  MOVWF  x6B
....................       RESERVE_MIN_FLAG = (int8)READ_PROGRAM_EEPROM(FLAG_ADDRESS_EEPROM+6); 
01D4C:  MOVLW  06
01D4E:  ADDWF  x60,W
01D50:  MOVLB  3
01D52:  MOVWF  x2E
01D54:  MOVLW  00
01D56:  MOVLB  0
01D58:  ADDWFC x61,W
01D5A:  MOVLB  3
01D5C:  MOVWF  x2F
01D5E:  MOVLW  00
01D60:  MOVLB  0
01D62:  ADDWFC x62,W
01D64:  MOVLB  3
01D66:  MOVWF  x30
01D68:  MOVLW  00
01D6A:  MOVLB  0
01D6C:  ADDWFC x63,W
01D6E:  MOVLB  3
01D70:  MOVFF  FF2,332
01D74:  BCF    FF2.7
01D76:  MOVFF  330,FF8
01D7A:  MOVFF  32F,FF7
01D7E:  MOVFF  32E,FF6
01D82:  TBLRD*+
01D84:  MOVF   FF5,W
01D86:  TBLRD*
01D88:  MOVFF  FF5,03
01D8C:  CLRF   FF8
01D8E:  BTFSC  x32.7
01D90:  BSF    FF2.7
01D92:  MOVLB  0
01D94:  MOVWF  x6C
....................       RESERVE_TARGET_FLAG = (int8)READ_PROGRAM_EEPROM(FLAG_ADDRESS_EEPROM+8); 
01D96:  MOVLW  08
01D98:  ADDWF  x60,W
01D9A:  MOVLB  3
01D9C:  MOVWF  x2E
01D9E:  MOVLW  00
01DA0:  MOVLB  0
01DA2:  ADDWFC x61,W
01DA4:  MOVLB  3
01DA6:  MOVWF  x2F
01DA8:  MOVLW  00
01DAA:  MOVLB  0
01DAC:  ADDWFC x62,W
01DAE:  MOVLB  3
01DB0:  MOVWF  x30
01DB2:  MOVLW  00
01DB4:  MOVLB  0
01DB6:  ADDWFC x63,W
01DB8:  MOVLB  3
01DBA:  MOVFF  FF2,332
01DBE:  BCF    FF2.7
01DC0:  MOVFF  330,FF8
01DC4:  MOVFF  32F,FF7
01DC8:  MOVFF  32E,FF6
01DCC:  TBLRD*+
01DCE:  MOVF   FF5,W
01DD0:  TBLRD*
01DD2:  MOVFF  FF5,03
01DD6:  CLRF   FF8
01DD8:  BTFSC  x32.7
01DDA:  BSF    FF2.7
01DDC:  MOVLB  0
01DDE:  MOVWF  x6D
....................       MISSION_CONTENTS = (int8)READ_PROGRAM_EEPROM(FLAG_ADDRESS_EEPROM+10); 
01DE0:  MOVLW  0A
01DE2:  ADDWF  x60,W
01DE4:  MOVLB  3
01DE6:  MOVWF  x2E
01DE8:  MOVLW  00
01DEA:  MOVLB  0
01DEC:  ADDWFC x61,W
01DEE:  MOVLB  3
01DF0:  MOVWF  x2F
01DF2:  MOVLW  00
01DF4:  MOVLB  0
01DF6:  ADDWFC x62,W
01DF8:  MOVLB  3
01DFA:  MOVWF  x30
01DFC:  MOVLW  00
01DFE:  MOVLB  0
01E00:  ADDWFC x63,W
01E02:  MOVLB  3
01E04:  MOVFF  FF2,332
01E08:  BCF    FF2.7
01E0A:  MOVFF  330,FF8
01E0E:  MOVFF  32F,FF7
01E12:  MOVFF  32E,FF6
01E16:  TBLRD*+
01E18:  MOVF   FF5,W
01E1A:  TBLRD*
01E1C:  MOVFF  FF5,03
01E20:  CLRF   FF8
01E22:  BTFSC  x32.7
01E24:  BSF    FF2.7
01E26:  MOVLB  0
01E28:  MOVWF  x6E
....................       MISSION_DETAIL = (int8)READ_PROGRAM_EEPROM(FLAG_ADDRESS_EEPROM+12); 
01E2A:  MOVLW  0C
01E2C:  ADDWF  x60,W
01E2E:  MOVLB  3
01E30:  MOVWF  x2E
01E32:  MOVLW  00
01E34:  MOVLB  0
01E36:  ADDWFC x61,W
01E38:  MOVLB  3
01E3A:  MOVWF  x2F
01E3C:  MOVLW  00
01E3E:  MOVLB  0
01E40:  ADDWFC x62,W
01E42:  MOVLB  3
01E44:  MOVWF  x30
01E46:  MOVLW  00
01E48:  MOVLB  0
01E4A:  ADDWFC x63,W
01E4C:  MOVLB  3
01E4E:  MOVFF  FF2,332
01E52:  BCF    FF2.7
01E54:  MOVFF  330,FF8
01E58:  MOVFF  32F,FF7
01E5C:  MOVFF  32E,FF6
01E60:  TBLRD*+
01E62:  MOVF   FF5,W
01E64:  TBLRD*
01E66:  MOVFF  FF5,03
01E6A:  CLRF   FF8
01E6C:  BTFSC  x32.7
01E6E:  BSF    FF2.7
01E70:  MOVLB  0
01E72:  MOVWF  x6F
....................       Kill_FLAG_MAIN = (int8)READ_PROGRAM_EEPROM(FLAG_ADDRESS_EEPROM+14); 
01E74:  MOVLW  0E
01E76:  ADDWF  x60,W
01E78:  MOVLB  3
01E7A:  MOVWF  x2E
01E7C:  MOVLW  00
01E7E:  MOVLB  0
01E80:  ADDWFC x61,W
01E82:  MOVLB  3
01E84:  MOVWF  x2F
01E86:  MOVLW  00
01E88:  MOVLB  0
01E8A:  ADDWFC x62,W
01E8C:  MOVLB  3
01E8E:  MOVWF  x30
01E90:  MOVLW  00
01E92:  MOVLB  0
01E94:  ADDWFC x63,W
01E96:  MOVLB  3
01E98:  MOVFF  FF2,332
01E9C:  BCF    FF2.7
01E9E:  MOVFF  330,FF8
01EA2:  MOVFF  32F,FF7
01EA6:  MOVFF  32E,FF6
01EAA:  TBLRD*+
01EAC:  MOVF   FF5,W
01EAE:  TBLRD*
01EB0:  MOVFF  FF5,03
01EB4:  CLRF   FF8
01EB6:  BTFSC  x32.7
01EB8:  BSF    FF2.7
01EBA:  MOVLB  0
01EBC:  MOVWF  x75
....................       Kill_FLAG_FAB = (int8)READ_PROGRAM_EEPROM(FLAG_ADDRESS_EEPROM+16); 
01EBE:  MOVLW  10
01EC0:  ADDWF  x60,W
01EC2:  MOVLB  3
01EC4:  MOVWF  x2E
01EC6:  MOVLW  00
01EC8:  MOVLB  0
01ECA:  ADDWFC x61,W
01ECC:  MOVLB  3
01ECE:  MOVWF  x2F
01ED0:  MOVLW  00
01ED2:  MOVLB  0
01ED4:  ADDWFC x62,W
01ED6:  MOVLB  3
01ED8:  MOVWF  x30
01EDA:  MOVLW  00
01EDC:  MOVLB  0
01EDE:  ADDWFC x63,W
01EE0:  MOVLB  3
01EE2:  MOVFF  FF2,332
01EE6:  BCF    FF2.7
01EE8:  MOVFF  330,FF8
01EEC:  MOVFF  32F,FF7
01EF0:  MOVFF  32E,FF6
01EF4:  TBLRD*+
01EF6:  MOVF   FF5,W
01EF8:  TBLRD*
01EFA:  MOVFF  FF5,03
01EFE:  CLRF   FF8
01F00:  BTFSC  x32.7
01F02:  BSF    FF2.7
01F04:  MOVLB  0
01F06:  MOVWF  x76
....................       FIRST_HSSC_DONE = (int8)READ_PROGRAM_EEPROM(FLAG_ADDRESS_EEPROM+18); 
01F08:  MOVLW  12
01F0A:  ADDWF  x60,W
01F0C:  MOVLB  3
01F0E:  MOVWF  x2E
01F10:  MOVLW  00
01F12:  MOVLB  0
01F14:  ADDWFC x61,W
01F16:  MOVLB  3
01F18:  MOVWF  x2F
01F1A:  MOVLW  00
01F1C:  MOVLB  0
01F1E:  ADDWFC x62,W
01F20:  MOVLB  3
01F22:  MOVWF  x30
01F24:  MOVLW  00
01F26:  MOVLB  0
01F28:  ADDWFC x63,W
01F2A:  MOVLB  3
01F2C:  MOVFF  FF2,332
01F30:  BCF    FF2.7
01F32:  MOVFF  330,FF8
01F36:  MOVFF  32F,FF7
01F3A:  MOVFF  32E,FF6
01F3E:  TBLRD*+
01F40:  MOVF   FF5,W
01F42:  TBLRD*
01F44:  MOVFF  FF5,03
01F48:  CLRF   FF8
01F4A:  BTFSC  x32.7
01F4C:  BSF    FF2.7
01F4E:  MOVLB  0
01F50:  MOVWF  x77
....................       AUTO_CAM_DONE = (int8)READ_PROGRAM_EEPROM(FLAG_ADDRESS_EEPROM+20); 
01F52:  MOVLW  14
01F54:  ADDWF  x60,W
01F56:  MOVLB  3
01F58:  MOVWF  x2E
01F5A:  MOVLW  00
01F5C:  MOVLB  0
01F5E:  ADDWFC x61,W
01F60:  MOVLB  3
01F62:  MOVWF  x2F
01F64:  MOVLW  00
01F66:  MOVLB  0
01F68:  ADDWFC x62,W
01F6A:  MOVLB  3
01F6C:  MOVWF  x30
01F6E:  MOVLW  00
01F70:  MOVLB  0
01F72:  ADDWFC x63,W
01F74:  MOVLB  3
01F76:  MOVFF  FF2,332
01F7A:  BCF    FF2.7
01F7C:  MOVFF  330,FF8
01F80:  MOVFF  32F,FF7
01F84:  MOVFF  32E,FF6
01F88:  TBLRD*+
01F8A:  MOVF   FF5,W
01F8C:  TBLRD*
01F8E:  MOVFF  FF5,03
01F92:  CLRF   FF8
01F94:  BTFSC  x32.7
01F96:  BSF    FF2.7
01F98:  MOVLB  0
01F9A:  MOVWF  x78
....................       AUTO_MBP_DONE = (int8)READ_PROGRAM_EEPROM(FLAG_ADDRESS_EEPROM+22); 
01F9C:  MOVLW  16
01F9E:  ADDWF  x60,W
01FA0:  MOVLB  3
01FA2:  MOVWF  x2E
01FA4:  MOVLW  00
01FA6:  MOVLB  0
01FA8:  ADDWFC x61,W
01FAA:  MOVLB  3
01FAC:  MOVWF  x2F
01FAE:  MOVLW  00
01FB0:  MOVLB  0
01FB2:  ADDWFC x62,W
01FB4:  MOVLB  3
01FB6:  MOVWF  x30
01FB8:  MOVLW  00
01FBA:  MOVLB  0
01FBC:  ADDWFC x63,W
01FBE:  MOVLB  3
01FC0:  MOVFF  FF2,332
01FC4:  BCF    FF2.7
01FC6:  MOVFF  330,FF8
01FCA:  MOVFF  32F,FF7
01FCE:  MOVFF  32E,FF6
01FD2:  TBLRD*+
01FD4:  MOVF   FF5,W
01FD6:  TBLRD*
01FD8:  MOVFF  FF5,03
01FDC:  CLRF   FF8
01FDE:  BTFSC  x32.7
01FE0:  BSF    FF2.7
01FE2:  MOVLB  0
01FE4:  MOVWF  x79
....................       AUTO_ADCS_DONE = (int8)READ_PROGRAM_EEPROM(FLAG_ADDRESS_EEPROM+24); 
01FE6:  MOVLW  18
01FE8:  ADDWF  x60,W
01FEA:  MOVLB  3
01FEC:  MOVWF  x2E
01FEE:  MOVLW  00
01FF0:  MOVLB  0
01FF2:  ADDWFC x61,W
01FF4:  MOVLB  3
01FF6:  MOVWF  x2F
01FF8:  MOVLW  00
01FFA:  MOVLB  0
01FFC:  ADDWFC x62,W
01FFE:  MOVLB  3
02000:  MOVWF  x30
02002:  MOVLW  00
02004:  MOVLB  0
02006:  ADDWFC x63,W
02008:  MOVLB  3
0200A:  MOVFF  FF2,332
0200E:  BCF    FF2.7
02010:  MOVFF  330,FF8
02014:  MOVFF  32F,FF7
02018:  MOVFF  32E,FF6
0201C:  TBLRD*+
0201E:  MOVF   FF5,W
02020:  TBLRD*
02022:  MOVFF  FF5,03
02026:  CLRF   FF8
02028:  BTFSC  x32.7
0202A:  BSF    FF2.7
0202C:  MOVLB  0
0202E:  MOVWF  x7A
....................       ANT_DEP_STATUS = (int8)READ_PROGRAM_EEPROM(FLAG_ADDRESS_EEPROM+26); 
02030:  MOVLW  1A
02032:  ADDWF  x60,W
02034:  MOVLB  3
02036:  MOVWF  x2E
02038:  MOVLW  00
0203A:  MOVLB  0
0203C:  ADDWFC x61,W
0203E:  MOVLB  3
02040:  MOVWF  x2F
02042:  MOVLW  00
02044:  MOVLB  0
02046:  ADDWFC x62,W
02048:  MOVLB  3
0204A:  MOVWF  x30
0204C:  MOVLW  00
0204E:  MOVLB  0
02050:  ADDWFC x63,W
02052:  MOVLB  3
02054:  MOVFF  FF2,332
02058:  BCF    FF2.7
0205A:  MOVFF  330,FF8
0205E:  MOVFF  32F,FF7
02062:  MOVFF  32E,FF6
02066:  TBLRD*+
02068:  MOVF   FF5,W
0206A:  TBLRD*
0206C:  MOVFF  FF5,03
02070:  CLRF   FF8
02072:  BTFSC  x32.7
02074:  BSF    FF2.7
02076:  MOVLB  0
02078:  MOVWF  x7B
....................       UPLINK_SUCCESS = (int8)READ_PROGRAM_EEPROM(FLAG_ADDRESS_EEPROM+28); 
0207A:  MOVLW  1C
0207C:  ADDWF  x60,W
0207E:  MOVLB  3
02080:  MOVWF  x2E
02082:  MOVLW  00
02084:  MOVLB  0
02086:  ADDWFC x61,W
02088:  MOVLB  3
0208A:  MOVWF  x2F
0208C:  MOVLW  00
0208E:  MOVLB  0
02090:  ADDWFC x62,W
02092:  MOVLB  3
02094:  MOVWF  x30
02096:  MOVLW  00
02098:  MOVLB  0
0209A:  ADDWFC x63,W
0209C:  MOVLB  3
0209E:  MOVFF  FF2,332
020A2:  BCF    FF2.7
020A4:  MOVFF  330,FF8
020A8:  MOVFF  32F,FF7
020AC:  MOVFF  32E,FF6
020B0:  TBLRD*+
020B2:  MOVF   FF5,W
020B4:  TBLRD*
020B6:  MOVFF  FF5,03
020BA:  CLRF   FF8
020BC:  BTFSC  x32.7
020BE:  BSF    FF2.7
020C0:  MOVLB  0
020C2:  MOVWF  x7C
020C4:  MOVLB  3
....................    } 
....................     
....................    fprintf(PC,"\r\nPASSED DAYS:%lx\r\n",PASSED_DAYS); 
020C6:  MOVLW  CA
020C8:  MOVWF  FF6
020CA:  MOVLW  03
020CC:  MOVWF  FF7
020CE:  MOVLW  00
020D0:  MOVWF  FF8
020D2:  MOVLW  0E
020D4:  MOVWF  x62
020D6:  MOVLB  0
020D8:  CALL   17AE
020DC:  MOVFF  6A,363
020E0:  MOVLW  57
020E2:  MOVLB  3
020E4:  MOVWF  x64
020E6:  MOVLB  0
020E8:  CALL   17E0
020EC:  MOVFF  69,363
020F0:  MOVLW  57
020F2:  MOVLB  3
020F4:  MOVWF  x64
020F6:  MOVLB  0
020F8:  CALL   17E0
020FC:  MOVLW  0D
020FE:  BTFSS  F9E.4
02100:  BRA    20FE
02102:  MOVWF  FAD
02104:  MOVLW  0A
02106:  BTFSS  F9E.4
02108:  BRA    2106
0210A:  MOVWF  FAD
....................    fprintf(PC,"RESERVE CHECK:%x\r\n",RESERVE_CHECK); 
0210C:  MOVLW  DE
0210E:  MOVWF  FF6
02110:  MOVLW  03
02112:  MOVWF  FF7
02114:  MOVLW  00
02116:  MOVWF  FF8
02118:  MOVLW  0E
0211A:  MOVLB  3
0211C:  MOVWF  x62
0211E:  MOVLB  0
02120:  CALL   17AE
02124:  MOVFF  6B,363
02128:  MOVLW  57
0212A:  MOVLB  3
0212C:  MOVWF  x64
0212E:  MOVLB  0
02130:  CALL   17E0
02134:  MOVLW  0D
02136:  BTFSS  F9E.4
02138:  BRA    2136
0213A:  MOVWF  FAD
0213C:  MOVLW  0A
0213E:  BTFSS  F9E.4
02140:  BRA    213E
02142:  MOVWF  FAD
....................    fprintf(PC,"Kill FLAG MAIN:%x\r\n",Kill_FLAG_MAIN); 
02144:  MOVLW  F2
02146:  MOVWF  FF6
02148:  MOVLW  03
0214A:  MOVWF  FF7
0214C:  MOVLW  00
0214E:  MOVWF  FF8
02150:  MOVLW  0F
02152:  MOVLB  3
02154:  MOVWF  x62
02156:  MOVLB  0
02158:  CALL   17AE
0215C:  MOVFF  75,363
02160:  MOVLW  57
02162:  MOVLB  3
02164:  MOVWF  x64
02166:  MOVLB  0
02168:  CALL   17E0
0216C:  MOVLW  0D
0216E:  BTFSS  F9E.4
02170:  BRA    216E
02172:  MOVWF  FAD
02174:  MOVLW  0A
02176:  BTFSS  F9E.4
02178:  BRA    2176
0217A:  MOVWF  FAD
....................    fprintf(PC,"Kill FLAG FAB:%x\r\n",Kill_FLAG_FAB); 
0217C:  MOVLW  06
0217E:  MOVWF  FF6
02180:  MOVLW  04
02182:  MOVWF  FF7
02184:  MOVLW  00
02186:  MOVWF  FF8
02188:  MOVLW  0E
0218A:  MOVLB  3
0218C:  MOVWF  x62
0218E:  MOVLB  0
02190:  CALL   17AE
02194:  MOVFF  76,363
02198:  MOVLW  57
0219A:  MOVLB  3
0219C:  MOVWF  x64
0219E:  MOVLB  0
021A0:  CALL   17E0
021A4:  MOVLW  0D
021A6:  BTFSS  F9E.4
021A8:  BRA    21A6
021AA:  MOVWF  FAD
021AC:  MOVLW  0A
021AE:  BTFSS  F9E.4
021B0:  BRA    21AE
021B2:  MOVWF  FAD
....................    fprintf(PC,"AUTO HIGH SAMPLING:%x\r\n",FIRST_HSSC_DONE); 
021B4:  MOVLW  1A
021B6:  MOVWF  FF6
021B8:  MOVLW  04
021BA:  MOVWF  FF7
021BC:  MOVLW  00
021BE:  MOVWF  FF8
021C0:  MOVLW  13
021C2:  MOVLB  3
021C4:  MOVWF  x62
021C6:  MOVLB  0
021C8:  CALL   17AE
021CC:  MOVFF  77,363
021D0:  MOVLW  57
021D2:  MOVLB  3
021D4:  MOVWF  x64
021D6:  MOVLB  0
021D8:  CALL   17E0
021DC:  MOVLW  0D
021DE:  BTFSS  F9E.4
021E0:  BRA    21DE
021E2:  MOVWF  FAD
021E4:  MOVLW  0A
021E6:  BTFSS  F9E.4
021E8:  BRA    21E6
021EA:  MOVWF  FAD
....................    fprintf(PC,"AUTO CAM:%x\r\n",AUTO_CAM_DONE); 
021EC:  MOVLW  32
021EE:  MOVWF  FF6
021F0:  MOVLW  04
021F2:  MOVWF  FF7
021F4:  MOVLW  00
021F6:  MOVWF  FF8
021F8:  MOVLW  09
021FA:  MOVLB  3
021FC:  MOVWF  x62
021FE:  MOVLB  0
02200:  CALL   17AE
02204:  MOVFF  78,363
02208:  MOVLW  57
0220A:  MOVLB  3
0220C:  MOVWF  x64
0220E:  MOVLB  0
02210:  CALL   17E0
02214:  MOVLW  0D
02216:  BTFSS  F9E.4
02218:  BRA    2216
0221A:  MOVWF  FAD
0221C:  MOVLW  0A
0221E:  BTFSS  F9E.4
02220:  BRA    221E
02222:  MOVWF  FAD
....................    fprintf(PC,"AUTO MBP:%x\r\n",AUTO_MBP_DONE); 
02224:  MOVLW  40
02226:  MOVWF  FF6
02228:  MOVLW  04
0222A:  MOVWF  FF7
0222C:  MOVLW  00
0222E:  MOVWF  FF8
02230:  MOVLW  09
02232:  MOVLB  3
02234:  MOVWF  x62
02236:  MOVLB  0
02238:  CALL   17AE
0223C:  MOVFF  79,363
02240:  MOVLW  57
02242:  MOVLB  3
02244:  MOVWF  x64
02246:  MOVLB  0
02248:  CALL   17E0
0224C:  MOVLW  0D
0224E:  BTFSS  F9E.4
02250:  BRA    224E
02252:  MOVWF  FAD
02254:  MOVLW  0A
02256:  BTFSS  F9E.4
02258:  BRA    2256
0225A:  MOVWF  FAD
....................    fprintf(PC,"AUTO ADCS:%x\r\n",AUTO_ADCS_DONE); 
0225C:  MOVLW  4E
0225E:  MOVWF  FF6
02260:  MOVLW  04
02262:  MOVWF  FF7
02264:  MOVLW  00
02266:  MOVWF  FF8
02268:  MOVLW  0A
0226A:  MOVLB  3
0226C:  MOVWF  x62
0226E:  MOVLB  0
02270:  CALL   17AE
02274:  MOVFF  7A,363
02278:  MOVLW  57
0227A:  MOVLB  3
0227C:  MOVWF  x64
0227E:  MOVLB  0
02280:  CALL   17E0
02284:  MOVLW  0D
02286:  BTFSS  F9E.4
02288:  BRA    2286
0228A:  MOVWF  FAD
0228C:  MOVLW  0A
0228E:  BTFSS  F9E.4
02290:  BRA    228E
02292:  MOVWF  FAD
....................    fprintf(PC,"ANTENNA DEPLOY:%x\r\n",ANT_DEP_STATUS); 
02294:  MOVLW  5E
02296:  MOVWF  FF6
02298:  MOVLW  04
0229A:  MOVWF  FF7
0229C:  MOVLW  00
0229E:  MOVWF  FF8
022A0:  MOVLW  0F
022A2:  MOVLB  3
022A4:  MOVWF  x62
022A6:  MOVLB  0
022A8:  CALL   17AE
022AC:  MOVFF  7B,363
022B0:  MOVLW  57
022B2:  MOVLB  3
022B4:  MOVWF  x64
022B6:  MOVLB  0
022B8:  CALL   17E0
022BC:  MOVLW  0D
022BE:  BTFSS  F9E.4
022C0:  BRA    22BE
022C2:  MOVWF  FAD
022C4:  MOVLW  0A
022C6:  BTFSS  F9E.4
022C8:  BRA    22C6
022CA:  MOVWF  FAD
....................    fprintf(PC,"UPLINK SUCCESS:%x\r\n\r\n",UPLINK_SUCCESS); 
022CC:  MOVLW  72
022CE:  MOVWF  FF6
022D0:  MOVLW  04
022D2:  MOVWF  FF7
022D4:  MOVLW  00
022D6:  MOVWF  FF8
022D8:  MOVLW  0F
022DA:  MOVLB  3
022DC:  MOVWF  x62
022DE:  MOVLB  0
022E0:  CALL   17AE
022E4:  MOVFF  7C,363
022E8:  MOVLW  57
022EA:  MOVLB  3
022EC:  MOVWF  x64
022EE:  MOVLB  0
022F0:  CALL   17E0
022F4:  MOVLW  83
022F6:  MOVWF  FF6
022F8:  MOVLW  04
022FA:  MOVWF  FF7
022FC:  MOVLW  00
022FE:  MOVWF  FF8
02300:  MOVLW  04
02302:  MOVLB  3
02304:  MOVWF  x62
02306:  MOVLB  0
02308:  CALL   17AE
....................     
....................    return; 
0230C:  GOTO   2382 (RETURN)
.................... } 
....................  
.................... void TAKE_AD_INFO_from_EEPROM()                                                  //Reads address data from de program memory 
*
01548:  MOVFF  FF2,339
0154C:  BCF    FF2.7
0154E:  MOVFF  66,FF8
01552:  MOVFF  65,FF7
01556:  MOVFF  64,FF6
0155A:  TBLRD*+
0155C:  MOVF   FF5,W
0155E:  TBLRD*
01560:  MOVFF  FF5,03
01564:  CLRF   FF8
01566:  MOVLB  3
01568:  BTFSC  x39.7
0156A:  BSF    FF2.7
0156C:  MOVWF  x31
0156E:  MOVFF  03,332
01572:  MOVLW  02
01574:  MOVLB  0
01576:  ADDWF  x64,W
01578:  MOVLB  3
0157A:  MOVWF  x39
0157C:  MOVLW  00
0157E:  MOVLB  0
01580:  ADDWFC x65,W
01582:  MOVLB  3
01584:  MOVWF  x3A
01586:  MOVLW  00
01588:  MOVLB  0
0158A:  ADDWFC x66,W
0158C:  MOVLB  3
0158E:  MOVWF  x3B
01590:  MOVLW  00
01592:  MOVLB  0
01594:  ADDWFC x67,W
01596:  MOVLB  3
01598:  MOVWF  x3C
0159A:  MOVFF  FF2,33D
0159E:  BCF    FF2.7
015A0:  MOVFF  33B,FF8
015A4:  MOVFF  33A,FF7
015A8:  MOVFF  339,FF6
015AC:  TBLRD*+
015AE:  MOVF   FF5,W
015B0:  TBLRD*
015B2:  MOVFF  FF5,03
015B6:  CLRF   FF8
015B8:  BTFSC  x3D.7
015BA:  BSF    FF2.7
015BC:  MOVWF  x33
015BE:  MOVFF  03,334
015C2:  CLRF   x39
015C4:  CLRF   x3A
015C6:  CLRF   02
015C8:  CLRF   03
015CA:  MOVF   x33,W
015CC:  IORWF  x39,W
015CE:  MOVWF  x35
015D0:  MOVF   x34,W
015D2:  IORWF  x3A,W
015D4:  MOVWF  x36
015D6:  MOVF   02,W
015D8:  IORWF  x31,W
015DA:  MOVWF  x37
015DC:  MOVF   03,W
015DE:  IORWF  x32,W
015E0:  MOVWF  x38
.................... { 
....................    int16 DATA_high = READ_PROGRAM_EEPROM(FLASH_AD_ADDRESS_EEPROM);                
....................    int16 DATA_low = READ_PROGRAM_EEPROM(FLASH_AD_ADDRESS_EEPROM+2); 
....................    int32 DATA = (((int32)DATA_high<<16) | (int32)DATA_low); 
....................    if(DATA != 0xffffffff) 
015E2:  INCFSZ x35,W
015E4:  BRA    15F4
015E6:  INCFSZ x36,W
015E8:  BRA    15F4
015EA:  INCFSZ x37,W
015EC:  BRA    15F4
015EE:  INCFSZ x38,W
015F0:  BRA    15F4
015F2:  BRA    1604
....................    { 
....................       ADD_INFO_ADDRESS = DATA;                                                    
015F4:  MOVFF  338,33
015F8:  MOVFF  337,32
015FC:  MOVFF  336,31
01600:  MOVFF  335,30
....................    } 
....................    return; 
01604:  MOVLB  0
01606:  GOTO   1866 (RETURN)
.................... } 
....................  
.................... void STORE_FLAG_INFO()                                                           //save flag data to flash memory 
.................... { 
....................    flag_info_bffr[0] = BC_ATTEMPT_FLAG; 
*
05714:  MOVFF  68,121
....................    flag_info_bffr[1] = PASSED_DAYS >> 8; 
05718:  MOVFF  6A,122
....................    flag_info_bffr[2] = PASSED_DAYS; 
0571C:  MOVFF  69,123
....................    flag_info_bffr[3] = RESERVE_CHECK; 
05720:  MOVFF  6B,124
....................    flag_info_bffr[4] = RESERVE_TARGET_FLAG; 
05724:  MOVFF  6D,125
....................    flag_info_bffr[5] = RESERVE_MIN_FLAG; 
05728:  MOVFF  6C,126
....................    flag_info_bffr[6] = MISSION_CONTENTS; 
0572C:  MOVFF  6E,127
....................    flag_info_bffr[7] = MISSION_DETAIL; 
05730:  MOVFF  6F,128
....................    flag_info_bffr[8] = Kill_FLAG_MAIN; 
05734:  MOVFF  75,129
....................    flag_info_bffr[9] = Kill_FLAG_FAB; 
05738:  MOVFF  76,12A
....................    flag_info_bffr[10] = FIRST_HSSC_DONE; 
0573C:  MOVFF  77,12B
....................    flag_info_bffr[11] = AUTO_CAM_DONE; 
05740:  MOVFF  78,12C
....................    flag_info_bffr[12] = AUTO_MBP_DONE; 
05744:  MOVFF  79,12D
....................    flag_info_bffr[13] = AUTO_ADCS_DONE; 
05748:  MOVFF  7A,12E
....................    flag_info_bffr[14] = ANT_DEP_STATUS; 
0574C:  MOVFF  7B,12F
....................    flag_info_bffr[15] = UPLINK_SUCCESS; 
05750:  MOVFF  7C,130
....................     
....................    output_low(PIN_A5);                                                           //CAM_MUX MAINSIDE 
05754:  BCF    F92.5
05756:  BCF    F89.5
....................    output_low(PIN_C4);                                                           //COM_MUX MAINSIDE 
05758:  BCF    F94.4
0575A:  BCF    F8B.4
....................    SUBSECTOR_4KB_ERASE_OF(FLAG_DATA_ADDRESS); 
0575C:  MOVFF  3B,365
05760:  MOVFF  3A,364
05764:  MOVFF  39,363
05768:  MOVFF  38,362
0576C:  CALL   2FCA
....................    delay_ms(200); 
05770:  MOVLW  C8
05772:  MOVLB  3
05774:  MOVWF  x6B
05776:  MOVLB  0
05778:  CALL   1AFC
....................    for(int8 num = 0; num < FLAG_INFO_SIZE; num++) 
0577C:  MOVLB  3
0577E:  CLRF   x3F
05780:  MOVF   x3F,W
05782:  SUBLW  0F
05784:  BNC   57D4
....................    { 
....................       WRITE_DATA_BYTE_OF(FLAG_DATA_ADDRESS + num,flag_info_bffr[num]); 
05786:  MOVF   x3F,W
05788:  ADDWF  38,W
0578A:  MOVWF  x40
0578C:  MOVLW  00
0578E:  ADDWFC 39,W
05790:  MOVWF  x41
05792:  MOVLW  00
05794:  ADDWFC 3A,W
05796:  MOVWF  x42
05798:  MOVLW  00
0579A:  ADDWFC 3B,W
0579C:  MOVWF  x43
0579E:  CLRF   03
057A0:  MOVF   x3F,W
057A2:  ADDLW  21
057A4:  MOVWF  FE9
057A6:  MOVLW  01
057A8:  ADDWFC 03,W
057AA:  MOVWF  FEA
057AC:  MOVFF  FEF,367
057B0:  MOVFF  343,366
057B4:  MOVFF  342,365
057B8:  MOVFF  341,364
057BC:  MOVFF  340,363
057C0:  MOVLB  0
057C2:  CALL   1622
....................       delay_us(10); 
057C6:  MOVLW  0D
057C8:  MOVWF  00
057CA:  DECFSZ 00,F
057CC:  BRA    57CA
057CE:  MOVLB  3
057D0:  INCF   x3F,F
057D2:  BRA    5780
....................    } 
....................    delay_ms(10); 
057D4:  MOVLW  0A
057D6:  MOVWF  x6B
057D8:  MOVLB  0
057DA:  CALL   1AFC
....................    SUBSECTOR_4KB_ERASE_SCF(FLAG_DATA_ADDRESS); 
057DE:  MOVFF  3B,365
057E2:  MOVFF  3A,364
057E6:  MOVFF  39,363
057EA:  MOVFF  38,362
057EE:  CALL   305C
....................    delay_ms(200); 
057F2:  MOVLW  C8
057F4:  MOVLB  3
057F6:  MOVWF  x6B
057F8:  MOVLB  0
057FA:  CALL   1AFC
....................    for(num = 0; num < FLAG_INFO_SIZE; num++) 
057FE:  MOVLB  3
05800:  CLRF   x3F
05802:  MOVF   x3F,W
05804:  SUBLW  0F
05806:  BNC   5856
....................    { 
....................       WRITE_DATA_BYTE_SCF(FLAG_DATA_ADDRESS + num,flag_info_bffr[num]); 
05808:  MOVF   x3F,W
0580A:  ADDWF  38,W
0580C:  MOVWF  x40
0580E:  MOVLW  00
05810:  ADDWFC 39,W
05812:  MOVWF  x41
05814:  MOVLW  00
05816:  ADDWFC 3A,W
05818:  MOVWF  x42
0581A:  MOVLW  00
0581C:  ADDWFC 3B,W
0581E:  MOVWF  x43
05820:  CLRF   03
05822:  MOVF   x3F,W
05824:  ADDLW  21
05826:  MOVWF  FE9
05828:  MOVLW  01
0582A:  ADDWFC 03,W
0582C:  MOVWF  FEA
0582E:  MOVFF  FEF,367
05832:  MOVFF  343,366
05836:  MOVFF  342,365
0583A:  MOVFF  341,364
0583E:  MOVFF  340,363
05842:  MOVLB  0
05844:  CALL   16AE
....................       delay_us(10); 
05848:  MOVLW  0D
0584A:  MOVWF  00
0584C:  DECFSZ 00,F
0584E:  BRA    584C
05850:  MOVLB  3
05852:  INCF   x3F,F
05854:  BRA    5802
....................    } 
....................    delay_ms(10); 
05856:  MOVLW  0A
05858:  MOVWF  x6B
0585A:  MOVLB  0
0585C:  CALL   1AFC
....................    SUBSECTOR_4KB_ERASE_SMF(FLAG_DATA_ADDRESS); 
05860:  MOVFF  3B,365
05864:  MOVFF  3A,364
05868:  MOVFF  39,363
0586C:  MOVFF  38,362
05870:  CALL   30EE
....................    delay_ms(200); 
05874:  MOVLW  C8
05876:  MOVLB  3
05878:  MOVWF  x6B
0587A:  MOVLB  0
0587C:  CALL   1AFC
....................    for(num = 0; num < FLAG_INFO_SIZE; num++) 
05880:  MOVLB  3
05882:  CLRF   x3F
05884:  MOVF   x3F,W
05886:  SUBLW  0F
05888:  BNC   58D8
....................    { 
....................       WRITE_DATA_BYTE_SMF(FLAG_DATA_ADDRESS + num,flag_info_bffr[num]); 
0588A:  MOVF   x3F,W
0588C:  ADDWF  38,W
0588E:  MOVWF  x40
05890:  MOVLW  00
05892:  ADDWFC 39,W
05894:  MOVWF  x41
05896:  MOVLW  00
05898:  ADDWFC 3A,W
0589A:  MOVWF  x42
0589C:  MOVLW  00
0589E:  ADDWFC 3B,W
058A0:  MOVWF  x43
058A2:  CLRF   03
058A4:  MOVF   x3F,W
058A6:  ADDLW  21
058A8:  MOVWF  FE9
058AA:  MOVLW  01
058AC:  ADDWFC 03,W
058AE:  MOVWF  FEA
058B0:  MOVFF  FEF,367
058B4:  MOVFF  343,366
058B8:  MOVFF  342,365
058BC:  MOVFF  341,364
058C0:  MOVFF  340,363
058C4:  MOVLB  0
058C6:  CALL   173A
....................       delay_us(10); 
058CA:  MOVLW  0D
058CC:  MOVWF  00
058CE:  DECFSZ 00,F
058D0:  BRA    58CE
058D2:  MOVLB  3
058D4:  INCF   x3F,F
058D6:  BRA    5884
....................    } 
....................     
....................    output_high(PIN_C4);                                                          //COM_MUX COMSIDE 
058D8:  BCF    F94.4
058DA:  BSF    F8B.4
....................     
....................    fprintf(PC,"FLAG INFO STORED IN FLASH\r\n"); 
058DC:  MOVLW  88
058DE:  MOVWF  FF6
058E0:  MOVLW  04
058E2:  MOVWF  FF7
058E4:  MOVLW  00
058E6:  MOVWF  FF8
058E8:  MOVLB  0
058EA:  CALL   318C
....................    return; 
058EE:  RETURN 0
....................     
.................... } 
....................  
.................... void RESET_FLAG_DATA() 
.................... { 
....................    //BC_ATTEMPT_FLAG = 0; 
....................    PASSED_DAYS = 0; 
*
0D5DE:  CLRF   x6A
0D5E0:  CLRF   x69
....................    //RESERVE_CHECK = 0; 
....................    //RESERVE_MIN_FLAG = 0; 
....................    //RESERVE_TARGET_FLAG = 0; 
....................    //MISSION_CONTENTS = 0; 
....................    //MISSION_DETAIL = 0; 
....................    Kill_FLAG_MAIN = 0; 
0D5E2:  CLRF   x75
....................    Kill_FLAG_FAB = 0; 
0D5E4:  CLRF   x76
....................    FIRST_HSSC_DONE = 0; 
0D5E6:  CLRF   x77
....................    AUTO_CAM_DONE = 0; 
0D5E8:  CLRF   x78
....................    AUTO_MBP_DONE = 0; 
0D5EA:  CLRF   x79
....................    AUTO_ADCS_DONE = 0; 
0D5EC:  CLRF   x7A
....................    ANT_DEP_STATUS = 0; 
0D5EE:  CLRF   x7B
....................    UPLINK_SUCCESS = 0; 
0D5F0:  CLRF   x7C
....................    STORE_FLAG_INFO(); 
0D5F2:  CALL   5714
....................    WRITE_FLAG_to_EEPROM(); 
0D5F6:  CALL   5924
....................    return; 
0D5FA:  GOTO   DDE2 (RETURN)
.................... } 
....................  
.................... void READ_WRTITING_ADDRESS_LOCATION()                                            //carga la variable ADD_INFO_ADDRESS, busca el dato en OF, SCF, SMF y EEPROM 
.................... {                                                                                //si no lo encuentra usa el valor inicial 
....................    int i; 
....................    int8 ad_location_bfr[4]; 
....................    output_low(PIN_C4);                                                           //Main side 
*
01826:  BCF    F94.4
01828:  BCF    F8B.4
....................    output_low(PIN_A5);                                                           //Main side 
0182A:  BCF    F92.5
0182C:  BCF    F89.5
....................    if(READ_DATA_BYTE_OF(0) == 0xff)                                              //this means there is no address data in OBC Flash 
0182E:  MOVLB  3
01830:  CLRF   x6C
01832:  CLRF   x6B
01834:  CLRF   x6A
01836:  CLRF   x69
01838:  MOVLB  0
0183A:  RCALL  135C
0183C:  INCFSZ 01,W
0183E:  BRA    1938
....................    { 
....................       if(READ_DATA_BYTE_SCF(0) == 0xff)                                          //this means there is no address data in Shared COM Flash 
01840:  MOVLB  3
01842:  CLRF   x52
01844:  CLRF   x51
01846:  CLRF   x50
01848:  CLRF   x4F
0184A:  MOVLB  0
0184C:  RCALL  1414
0184E:  INCFSZ 01,W
01850:  BRA    18D8
....................       { 
....................          if(READ_DATA_BYTE_SMF(0) == 0xff)                                       //if all memory was empty, location should be initial value 
01852:  MOVLB  3
01854:  CLRF   x52
01856:  CLRF   x51
01858:  CLRF   x50
0185A:  CLRF   x4F
0185C:  MOVLB  0
0185E:  RCALL  14CC
01860:  INCFSZ 01,W
01862:  BRA    1878
....................          { 
....................             TAKE_AD_INFO_from_EEPROM();                                          //if inside of eeprom is also empty, use the initial value 
01864:  BRA    1548
....................             ad_location_bfr[0] = ADD_INFO_ADDRESS >> 24; 
01866:  MOVFF  33,32D
....................             ad_location_bfr[1] = ADD_INFO_ADDRESS >> 16; 
0186A:  MOVFF  32,32E
....................             ad_location_bfr[2] = ADD_INFO_ADDRESS >> 8; 
0186E:  MOVFF  31,32F
....................             ad_location_bfr[3] = ADD_INFO_ADDRESS; 
01872:  MOVFF  30,330
....................          }else{ 
01876:  BRA    18D6
....................             ad_location_bfr[0] = READ_DATA_BYTE_SMF(0); 
01878:  MOVLB  3
0187A:  CLRF   x52
0187C:  CLRF   x51
0187E:  CLRF   x50
01880:  CLRF   x4F
01882:  MOVLB  0
01884:  RCALL  14CC
01886:  MOVFF  01,32D
....................             ad_location_bfr[1] = READ_DATA_BYTE_SMF(1); 
0188A:  MOVLB  3
0188C:  CLRF   x52
0188E:  CLRF   x51
01890:  CLRF   x50
01892:  MOVLW  01
01894:  MOVWF  x4F
01896:  MOVLB  0
01898:  RCALL  14CC
0189A:  MOVFF  01,32E
....................             ad_location_bfr[2] = READ_DATA_BYTE_SMF(2); 
0189E:  MOVLB  3
018A0:  CLRF   x52
018A2:  CLRF   x51
018A4:  CLRF   x50
018A6:  MOVLW  02
018A8:  MOVWF  x4F
018AA:  MOVLB  0
018AC:  RCALL  14CC
018AE:  MOVFF  01,32F
....................             ad_location_bfr[3] = READ_DATA_BYTE_SMF(3); 
018B2:  MOVLB  3
018B4:  CLRF   x52
018B6:  CLRF   x51
018B8:  CLRF   x50
018BA:  MOVLW  03
018BC:  MOVWF  x4F
018BE:  MOVLB  0
018C0:  RCALL  14CC
018C2:  MOVFF  01,330
....................             ADD_INFO_ADDRESS = make32(ad_location_bfr[0],ad_location_bfr[1],ad_location_bfr[2],ad_location_bfr[3]); 
018C6:  MOVFF  32D,33
018CA:  MOVFF  32E,32
018CE:  MOVFF  32F,31
018D2:  MOVFF  330,30
....................          } 
....................       }else{ 
018D6:  BRA    1936
....................          ad_location_bfr[0] = READ_DATA_BYTE_SCF(0); 
018D8:  MOVLB  3
018DA:  CLRF   x52
018DC:  CLRF   x51
018DE:  CLRF   x50
018E0:  CLRF   x4F
018E2:  MOVLB  0
018E4:  RCALL  1414
018E6:  MOVFF  01,32D
....................          ad_location_bfr[1] = READ_DATA_BYTE_SCF(1); 
018EA:  MOVLB  3
018EC:  CLRF   x52
018EE:  CLRF   x51
018F0:  CLRF   x50
018F2:  MOVLW  01
018F4:  MOVWF  x4F
018F6:  MOVLB  0
018F8:  RCALL  1414
018FA:  MOVFF  01,32E
....................          ad_location_bfr[2] = READ_DATA_BYTE_SCF(2); 
018FE:  MOVLB  3
01900:  CLRF   x52
01902:  CLRF   x51
01904:  CLRF   x50
01906:  MOVLW  02
01908:  MOVWF  x4F
0190A:  MOVLB  0
0190C:  RCALL  1414
0190E:  MOVFF  01,32F
....................          ad_location_bfr[3] = READ_DATA_BYTE_SCF(3); 
01912:  MOVLB  3
01914:  CLRF   x52
01916:  CLRF   x51
01918:  CLRF   x50
0191A:  MOVLW  03
0191C:  MOVWF  x4F
0191E:  MOVLB  0
01920:  RCALL  1414
01922:  MOVFF  01,330
....................          ADD_INFO_ADDRESS = make32(ad_location_bfr[0],ad_location_bfr[1],ad_location_bfr[2],ad_location_bfr[3]); 
01926:  MOVFF  32D,33
0192A:  MOVFF  32E,32
0192E:  MOVFF  32F,31
01932:  MOVFF  330,30
....................       } 
....................    }else{ 
01936:  BRA    1996
....................       ad_location_bfr[0] = READ_DATA_BYTE_OF(0); 
01938:  MOVLB  3
0193A:  CLRF   x6C
0193C:  CLRF   x6B
0193E:  CLRF   x6A
01940:  CLRF   x69
01942:  MOVLB  0
01944:  RCALL  135C
01946:  MOVFF  01,32D
....................       ad_location_bfr[1] = READ_DATA_BYTE_OF(1); 
0194A:  MOVLB  3
0194C:  CLRF   x6C
0194E:  CLRF   x6B
01950:  CLRF   x6A
01952:  MOVLW  01
01954:  MOVWF  x69
01956:  MOVLB  0
01958:  RCALL  135C
0195A:  MOVFF  01,32E
....................       ad_location_bfr[2] = READ_DATA_BYTE_OF(2); 
0195E:  MOVLB  3
01960:  CLRF   x6C
01962:  CLRF   x6B
01964:  CLRF   x6A
01966:  MOVLW  02
01968:  MOVWF  x69
0196A:  MOVLB  0
0196C:  RCALL  135C
0196E:  MOVFF  01,32F
....................       ad_location_bfr[3] = READ_DATA_BYTE_OF(3); 
01972:  MOVLB  3
01974:  CLRF   x6C
01976:  CLRF   x6B
01978:  CLRF   x6A
0197A:  MOVLW  03
0197C:  MOVWF  x69
0197E:  MOVLB  0
01980:  RCALL  135C
01982:  MOVFF  01,330
....................       ADD_INFO_ADDRESS = make32(ad_location_bfr[0],ad_location_bfr[1],ad_location_bfr[2],ad_location_bfr[3]); 
01986:  MOVFF  32D,33
0198A:  MOVFF  32E,32
0198E:  MOVFF  32F,31
01992:  MOVFF  330,30
....................    } 
....................     
....................    for(i = 0; i < 4; i++)                                                        //store the subsector(location) information 
01996:  MOVLB  3
01998:  CLRF   x2C
0199A:  MOVF   x2C,W
0199C:  SUBLW  03
0199E:  BNC   1A0A
....................    { 
....................       WRITE_DATA_BYTE_OF(i,ad_location_bfr[i]); 
019A0:  CLRF   03
019A2:  MOVF   x2C,W
019A4:  ADDLW  2D
019A6:  MOVWF  FE9
019A8:  MOVLW  03
019AA:  ADDWFC 03,W
019AC:  MOVWF  FEA
019AE:  MOVFF  FEF,367
019B2:  CLRF   x66
019B4:  CLRF   x65
019B6:  CLRF   x64
019B8:  MOVFF  32C,363
019BC:  MOVLB  0
019BE:  RCALL  1622
....................       WRITE_DATA_BYTE_SCF(i,ad_location_bfr[i]); 
019C0:  CLRF   03
019C2:  MOVLB  3
019C4:  MOVF   x2C,W
019C6:  ADDLW  2D
019C8:  MOVWF  FE9
019CA:  MOVLW  03
019CC:  ADDWFC 03,W
019CE:  MOVWF  FEA
019D0:  MOVFF  FEF,367
019D4:  CLRF   x66
019D6:  CLRF   x65
019D8:  CLRF   x64
019DA:  MOVFF  32C,363
019DE:  MOVLB  0
019E0:  RCALL  16AE
....................       WRITE_DATA_BYTE_SMF(i,ad_location_bfr[i]); 
019E2:  CLRF   03
019E4:  MOVLB  3
019E6:  MOVF   x2C,W
019E8:  ADDLW  2D
019EA:  MOVWF  FE9
019EC:  MOVLW  03
019EE:  ADDWFC 03,W
019F0:  MOVWF  FEA
019F2:  MOVFF  FEF,367
019F6:  CLRF   x66
019F8:  CLRF   x65
019FA:  CLRF   x64
019FC:  MOVFF  32C,363
01A00:  MOVLB  0
01A02:  RCALL  173A
01A04:  MOVLB  3
01A06:  INCF   x2C,F
01A08:  BRA    199A
....................    } 
....................    output_high(PIN_C4); 
01A0A:  BCF    F94.4
01A0C:  BSF    F8B.4
....................    fprintf(PC,"\r\naddress info location:%lx\r\n",ADD_INFO_ADDRESS); 
01A0E:  MOVLW  A4
01A10:  MOVWF  FF6
01A12:  MOVLW  04
01A14:  MOVWF  FF7
01A16:  MOVLW  00
01A18:  MOVWF  FF8
01A1A:  MOVLW  18
01A1C:  MOVWF  x62
01A1E:  MOVLB  0
01A20:  RCALL  17AE
01A22:  MOVFF  33,363
01A26:  MOVLW  57
01A28:  MOVLB  3
01A2A:  MOVWF  x64
01A2C:  MOVLB  0
01A2E:  RCALL  17E0
01A30:  MOVFF  32,363
01A34:  MOVLW  57
01A36:  MOVLB  3
01A38:  MOVWF  x64
01A3A:  MOVLB  0
01A3C:  RCALL  17E0
01A3E:  MOVFF  31,363
01A42:  MOVLW  57
01A44:  MOVLB  3
01A46:  MOVWF  x64
01A48:  MOVLB  0
01A4A:  RCALL  17E0
01A4C:  MOVFF  30,363
01A50:  MOVLW  57
01A52:  MOVLB  3
01A54:  MOVWF  x64
01A56:  MOVLB  0
01A58:  RCALL  17E0
01A5A:  MOVLW  0D
01A5C:  BTFSS  F9E.4
01A5E:  BRA    1A5C
01A60:  MOVWF  FAD
01A62:  MOVLW  0A
01A64:  BTFSS  F9E.4
01A66:  BRA    1A64
01A68:  MOVWF  FAD
....................    return; 
01A6A:  GOTO   3BE2 (RETURN)
.................... } 
....................  
.................... void CHANGE_ADDRESS_WRITING_LOCATION()                                           //cambia la direccion de escritura de address locations cuando se superan los 95.000 ciclos 
*
031B6:  MOVLW  25
031B8:  ADDWF  30,W
031BA:  MOVLB  3
031BC:  MOVWF  x62
031BE:  MOVLW  00
031C0:  ADDWFC 31,W
031C2:  MOVWF  x63
031C4:  MOVLW  00
031C6:  ADDWFC 32,W
031C8:  MOVWF  x64
031CA:  MOVLW  00
031CC:  ADDWFC 33,W
031CE:  MOVWF  x65
031D0:  MOVWF  x6C
031D2:  MOVFF  364,36B
031D6:  MOVFF  363,36A
031DA:  MOVFF  362,369
031DE:  MOVLB  0
031E0:  CALL   135C
031E4:  MOVFF  01,362
031E8:  MOVLW  26
031EA:  ADDWF  30,W
031EC:  MOVLB  3
031EE:  MOVWF  x63
031F0:  MOVLW  00
031F2:  ADDWFC 31,W
031F4:  MOVWF  x64
031F6:  MOVLW  00
031F8:  ADDWFC 32,W
031FA:  MOVWF  x65
031FC:  MOVLW  00
031FE:  ADDWFC 33,W
03200:  MOVWF  x66
03202:  MOVWF  x6C
03204:  MOVFF  365,36B
03208:  MOVFF  364,36A
0320C:  MOVFF  363,369
03210:  MOVLB  0
03212:  CALL   135C
03216:  MOVFF  01,363
0321A:  MOVLW  27
0321C:  ADDWF  30,W
0321E:  MOVLB  3
03220:  MOVWF  x64
03222:  MOVLW  00
03224:  ADDWFC 31,W
03226:  MOVWF  x65
03228:  MOVLW  00
0322A:  ADDWFC 32,W
0322C:  MOVWF  x66
0322E:  MOVLW  00
03230:  ADDWFC 33,W
03232:  MOVWF  x67
03234:  MOVWF  x6C
03236:  MOVFF  366,36B
0323A:  MOVFF  365,36A
0323E:  MOVFF  364,369
03242:  MOVLB  0
03244:  CALL   135C
03248:  MOVFF  01,364
0324C:  MOVLW  28
0324E:  ADDWF  30,W
03250:  MOVLB  3
03252:  MOVWF  x65
03254:  MOVLW  00
03256:  ADDWFC 31,W
03258:  MOVWF  x66
0325A:  MOVLW  00
0325C:  ADDWFC 32,W
0325E:  MOVWF  x67
03260:  MOVLW  00
03262:  ADDWFC 33,W
03264:  MOVWF  x68
03266:  MOVWF  x6C
03268:  MOVFF  367,36B
0326C:  MOVFF  366,36A
03270:  MOVFF  365,369
03274:  MOVLB  0
03276:  CALL   135C
0327A:  MOVFF  362,35C
0327E:  MOVFF  363,35B
03282:  MOVFF  364,35A
03286:  MOVFF  01,359
.................... { 
....................    int32 AD_COUNTER = make32(READ_DATA_BYTE_OF(ADD_INFO_ADDRESS+37),READ_DATA_BYTE_OF(ADD_INFO_ADDRESS+38),READ_DATA_BYTE_OF(ADD_INFO_ADDRESS+39),READ_DATA_BYTE_OF(ADD_INFO_ADDRESS+40));//check counter value 
....................    fprintf(PC,"AD COUNTER:%lx\r\n",AD_COUNTER); 
0328A:  MOVLW  C2
0328C:  MOVWF  FF6
0328E:  MOVLW  04
03290:  MOVWF  FF7
03292:  MOVLW  00
03294:  MOVWF  FF8
03296:  MOVLW  0B
03298:  MOVLB  3
0329A:  MOVWF  x62
0329C:  MOVLB  0
0329E:  CALL   17AE
032A2:  MOVFF  35C,363
032A6:  MOVLW  57
032A8:  MOVLB  3
032AA:  MOVWF  x64
032AC:  MOVLB  0
032AE:  CALL   17E0
032B2:  MOVFF  35B,363
032B6:  MOVLW  57
032B8:  MOVLB  3
032BA:  MOVWF  x64
032BC:  MOVLB  0
032BE:  CALL   17E0
032C2:  MOVFF  35A,363
032C6:  MOVLW  57
032C8:  MOVLB  3
032CA:  MOVWF  x64
032CC:  MOVLB  0
032CE:  CALL   17E0
032D2:  MOVFF  359,363
032D6:  MOVLW  57
032D8:  MOVLB  3
032DA:  MOVWF  x64
032DC:  MOVLB  0
032DE:  CALL   17E0
032E2:  MOVLW  0D
032E4:  BTFSS  F9E.4
032E6:  BRA    32E4
032E8:  MOVWF  FAD
032EA:  MOVLW  0A
032EC:  BTFSS  F9E.4
032EE:  BRA    32EC
032F0:  MOVWF  FAD
....................    if((AD_COUNTER > 95000) && (AD_COUNTER != 0xffffffff)) 
032F2:  MOVLB  3
032F4:  MOVF   x5C,F
032F6:  BNZ   3318
032F8:  MOVF   x5B,W
032FA:  SUBLW  00
032FC:  BTFSC  FD8.0
032FE:  BRA    347A
03300:  XORLW  FF
03302:  BNZ   3318
03304:  MOVF   x5A,W
03306:  SUBLW  72
03308:  BTFSC  FD8.0
0330A:  BRA    347A
0330C:  XORLW  FF
0330E:  BNZ   3318
03310:  MOVF   x59,W
03312:  SUBLW  18
03314:  BTFSC  FD8.0
03316:  BRA    347A
03318:  INCFSZ x59,W
0331A:  BRA    332A
0331C:  INCFSZ x5A,W
0331E:  BRA    332A
03320:  INCFSZ x5B,W
03322:  BRA    332A
03324:  INCFSZ x5C,W
03326:  BRA    332A
03328:  BRA    347A
....................    { 
....................       output_low(PIN_A5);                                                        //CAM_MUX MAINSIDE 
0332A:  BCF    F92.5
0332C:  BCF    F89.5
....................       output_low(PIN_C4);                                                        //COM_MUX MAINSIDE 
0332E:  BCF    F94.4
03330:  BCF    F8B.4
....................       SUBSECTOR_4KB_ERASE_OF(0); 
03332:  CLRF   x65
03334:  CLRF   x64
03336:  CLRF   x63
03338:  CLRF   x62
0333A:  MOVLB  0
0333C:  RCALL  2FCA
....................       SUBSECTOR_4KB_ERASE_SCF(0); 
0333E:  MOVLB  3
03340:  CLRF   x65
03342:  CLRF   x64
03344:  CLRF   x63
03346:  CLRF   x62
03348:  MOVLB  0
0334A:  RCALL  305C
....................       SUBSECTOR_4KB_ERASE_SMF(0); 
0334C:  MOVLB  3
0334E:  CLRF   x65
03350:  CLRF   x64
03352:  CLRF   x63
03354:  CLRF   x62
03356:  MOVLB  0
03358:  RCALL  30EE
....................       ADDRESS_WRITING_COUNTER = 0;                                               //reset counter 
0335A:  CLRF   37
0335C:  CLRF   36
0335E:  CLRF   35
03360:  CLRF   34
....................       ADD_INFO_ADDRESS = ADD_INFO_ADDRESS + 0x00001000;                          //use next subsector 
03362:  MOVLW  10
03364:  ADDWF  31,F
03366:  MOVLW  00
03368:  ADDWFC 32,F
0336A:  ADDWFC 33,F
....................       output_high(PIN_C4);                                                       //COM_MUX COMSIDE 
0336C:  BCF    F94.4
0336E:  BSF    F8B.4
....................        
....................       unsigned int8 address_place[4] = {}; 
03370:  MOVLB  3
03372:  CLRF   x5D
03374:  CLRF   x5E
03376:  CLRF   x5F
03378:  CLRF   x60
....................       address_place[0] = ADD_INFO_ADDRESS >> 24; 
0337A:  MOVFF  33,35D
....................       address_place[1] = ADD_INFO_ADDRESS >> 16; 
0337E:  MOVFF  32,35E
....................       address_place[2] = ADD_INFO_ADDRESS >> 8; 
03382:  MOVFF  31,35F
....................       address_place[3] = ADD_INFO_ADDRESS; 
03386:  MOVFF  30,360
....................        
....................       output_low(PIN_A5);                                                        //CAM_MUX MAINSIDE 
0338A:  BCF    F92.5
0338C:  BCF    F89.5
....................       output_low(PIN_C4);                                                        //COM_MUX MAINSIDE 
0338E:  BCF    F94.4
03390:  BCF    F8B.4
....................       for(int i = 0; i < 4; i++)                                                 //store the new subsector(location) information 
03392:  CLRF   x61
03394:  MOVF   x61,W
03396:  SUBLW  03
03398:  BNC   3422
....................       { 
....................          WRITE_DATA_BYTE_OF(i,address_place[i]);                                 //se le pasa direccion y dato 
0339A:  CLRF   03
0339C:  MOVF   x61,W
0339E:  ADDLW  5D
033A0:  MOVWF  FE9
033A2:  MOVLW  03
033A4:  ADDWFC 03,W
033A6:  MOVWF  FEA
033A8:  MOVFF  FEF,367
033AC:  CLRF   x66
033AE:  CLRF   x65
033B0:  CLRF   x64
033B2:  MOVFF  361,363
033B6:  MOVLB  0
033B8:  CALL   1622
....................          delay_us(10); 
033BC:  MOVLW  0D
033BE:  MOVWF  00
033C0:  DECFSZ 00,F
033C2:  BRA    33C0
....................          WRITE_DATA_BYTE_SCF(i,address_place[i]); 
033C4:  CLRF   03
033C6:  MOVLB  3
033C8:  MOVF   x61,W
033CA:  ADDLW  5D
033CC:  MOVWF  FE9
033CE:  MOVLW  03
033D0:  ADDWFC 03,W
033D2:  MOVWF  FEA
033D4:  MOVFF  FEF,367
033D8:  CLRF   x66
033DA:  CLRF   x65
033DC:  CLRF   x64
033DE:  MOVFF  361,363
033E2:  MOVLB  0
033E4:  CALL   16AE
....................          delay_us(10); 
033E8:  MOVLW  0D
033EA:  MOVWF  00
033EC:  DECFSZ 00,F
033EE:  BRA    33EC
....................          WRITE_DATA_BYTE_SMF(i,address_place[i]); 
033F0:  CLRF   03
033F2:  MOVLB  3
033F4:  MOVF   x61,W
033F6:  ADDLW  5D
033F8:  MOVWF  FE9
033FA:  MOVLW  03
033FC:  ADDWFC 03,W
033FE:  MOVWF  FEA
03400:  MOVFF  FEF,367
03404:  CLRF   x66
03406:  CLRF   x65
03408:  CLRF   x64
0340A:  MOVFF  361,363
0340E:  MOVLB  0
03410:  CALL   173A
....................          delay_us(10); 
03414:  MOVLW  0D
03416:  MOVWF  00
03418:  DECFSZ 00,F
0341A:  BRA    3418
0341C:  MOVLB  3
0341E:  INCF   x61,F
03420:  BRA    3394
....................       } 
....................       output_high(PIN_C4);                                                       //COM_MUX COMSIDE 
03422:  BCF    F94.4
03424:  BSF    F8B.4
....................        
....................       fprintf(PC,"CHANGED MEMORY ADDRESS:"); 
03426:  MOVLW  D4
03428:  MOVWF  FF6
0342A:  MOVLW  04
0342C:  MOVWF  FF7
0342E:  MOVLW  00
03430:  MOVWF  FF8
03432:  MOVLB  0
03434:  RCALL  318C
....................       for(i = 0; i < 4; i++)                                                     //store the subsector(location) information 
03436:  MOVLB  3
03438:  CLRF   x61
0343A:  MOVF   x61,W
0343C:  SUBLW  03
0343E:  BNC   346A
....................       { 
....................          fprintf(PC,"%x",READ_DATA_BYTE_OF(i)); 
03440:  CLRF   x6C
03442:  CLRF   x6B
03444:  CLRF   x6A
03446:  MOVFF  361,369
0344A:  MOVLB  0
0344C:  CALL   135C
03450:  MOVFF  01,362
03454:  MOVFF  01,363
03458:  MOVLW  57
0345A:  MOVLB  3
0345C:  MOVWF  x64
0345E:  MOVLB  0
03460:  CALL   17E0
03464:  MOVLB  3
03466:  INCF   x61,F
03468:  BRA    343A
....................       } 
....................       fprintf(PC,"\r\n"); 
0346A:  MOVLW  0D
0346C:  BTFSS  F9E.4
0346E:  BRA    346C
03470:  MOVWF  FAD
03472:  MOVLW  0A
03474:  BTFSS  F9E.4
03476:  BRA    3474
03478:  MOVWF  FAD
....................    } 
....................     
....................    return; 
0347A:  MOVLB  0
0347C:  RETURN 0
.................... } 
....................  
.................... void TAKE_FLAG_INFO_FROM_OF()                                                    //Funcion que lee de memoria el dato de los FLAGS 
.................... { 
....................    for(int8 num = 0; num < FLAG_INFO_SIZE; num++) 
*
01A6E:  MOVLB  3
01A70:  CLRF   x2E
01A72:  MOVF   x2E,W
01A74:  SUBLW  0F
01A76:  BNC   1AC8
....................    { 
....................       flag_info_bffr[num] = READ_DATA_BYTE_OF(FLAG_DATA_ADDRESS + num);          //guarda los datos en el vector flag_info_bffr[] 
01A78:  CLRF   03
01A7A:  MOVF   x2E,W
01A7C:  ADDLW  21
01A7E:  MOVWF  01
01A80:  MOVLW  01
01A82:  ADDWFC 03,F
01A84:  MOVFF  01,32F
01A88:  MOVFF  03,330
01A8C:  MOVF   x2E,W
01A8E:  ADDWF  38,W
01A90:  MOVWF  x31
01A92:  MOVLW  00
01A94:  ADDWFC 39,W
01A96:  MOVWF  x32
01A98:  MOVLW  00
01A9A:  ADDWFC 3A,W
01A9C:  MOVWF  x33
01A9E:  MOVLW  00
01AA0:  ADDWFC 3B,W
01AA2:  MOVWF  x34
01AA4:  MOVWF  x6C
01AA6:  MOVFF  333,36B
01AAA:  MOVFF  332,36A
01AAE:  MOVFF  331,369
01AB2:  MOVLB  0
01AB4:  RCALL  135C
01AB6:  MOVFF  330,FEA
01ABA:  MOVFF  32F,FE9
01ABE:  MOVFF  01,FEF
01AC2:  MOVLB  3
01AC4:  INCF   x2E,F
01AC6:  BRA    1A72
....................       //delay_ms(1); 
....................    } 
....................    return; 
01AC8:  MOVLB  0
01ACA:  GOTO   231A (RETURN)
.................... } 
....................  
.................... void STORE_ADRESS_DATA_TO_FLASH()                                                //save the address data in a new sector if the R / W cycle is reached 
.................... { 
....................    fprintf(PC,"\r\nStoreing Address Data in Flash\r\n"); 
*
03776:  MOVLW  EC
03778:  MOVWF  FF6
0377A:  MOVLW  04
0377C:  MOVWF  FF7
0377E:  MOVLW  00
03780:  MOVWF  FF8
03782:  RCALL  318C
....................    ADDRESS_WRITING_COUNTER++;                                                    //contador de escrituras en una direccion 
03784:  MOVLW  01
03786:  ADDWF  34,F
03788:  BTFSC  FD8.0
0378A:  INCF   35,F
0378C:  BTFSC  FD8.2
0378E:  INCF   36,F
03790:  BTFSC  FD8.2
03792:  INCF   37,F
....................    CHANGE_ADDRESS_WRITING_LOCATION();                                            //cambia la direccion del lugar de escritura si se superan 95000 ciclos 
03794:  RCALL  31B6
....................    sec_add_bfr[0] = FLAG_DATA_ADDRESS >> 24;                                     //se carga el array sec_add_bfr[] con los datos de las direcciones 
03796:  MOVFF  3B,F8
....................    sec_add_bfr[1] = FLAG_DATA_ADDRESS >> 16; 
0379A:  MOVFF  3A,F9
....................    sec_add_bfr[2] = FLAG_DATA_ADDRESS >> 8; 
0379E:  MOVFF  39,FA
....................    sec_add_bfr[3] = FLAG_DATA_ADDRESS; 
037A2:  MOVFF  38,FB
....................        
....................    sec_add_bfr[4] = RSV_DATA_ADDRESS >> 24; 
037A6:  MOVFF  3F,FC
....................    sec_add_bfr[5] = RSV_DATA_ADDRESS >> 16; 
037AA:  MOVFF  3E,FD
....................    sec_add_bfr[6] = RSV_DATA_ADDRESS >> 8; 
037AE:  MOVFF  3D,FE
....................    sec_add_bfr[7] = RSV_DATA_ADDRESS; 
037B2:  MOVFF  3C,FF
....................     
....................    sec_add_bfr[8] = SAT_LOG >> 24; 
037B6:  MOVFF  43,100
....................    sec_add_bfr[9] = SAT_LOG >> 16; 
037BA:  MOVFF  42,101
....................    sec_add_bfr[10] = SAT_LOG >> 8; 
037BE:  MOVFF  41,102
....................    sec_add_bfr[11] = SAT_LOG; 
037C2:  MOVFF  40,103
....................     
....................    sec_add_bfr[12] = CAM_ADDRESS >> 24; 
037C6:  MOVFF  47,104
....................    sec_add_bfr[13] = CAM_ADDRESS >> 16; 
037CA:  MOVFF  46,105
....................    sec_add_bfr[14] = CAM_ADDRESS >> 8; 
037CE:  MOVFF  45,106
....................    sec_add_bfr[15] = CAM_ADDRESS; 
037D2:  MOVFF  44,107
....................     
....................    sec_add_bfr[16] = FAB_HK_ADDRESS >> 24; 
037D6:  MOVFF  4B,108
....................    sec_add_bfr[17] = FAB_HK_ADDRESS >> 16; 
037DA:  MOVFF  4A,109
....................    sec_add_bfr[18] = FAB_HK_ADDRESS >> 8; 
037DE:  MOVFF  49,10A
....................    sec_add_bfr[19] = FAB_HK_ADDRESS; 
037E2:  MOVFF  48,10B
....................     
....................    sec_add_bfr[20] = FAB_CW_ADDRESS >> 24; 
037E6:  MOVFF  4F,10C
....................    sec_add_bfr[21] = FAB_CW_ADDRESS >> 16; 
037EA:  MOVFF  4E,10D
....................    sec_add_bfr[22] = FAB_CW_ADDRESS >> 8; 
037EE:  MOVFF  4D,10E
....................    sec_add_bfr[23] = FAB_CW_ADDRESS; 
037F2:  MOVFF  4C,10F
....................     
....................    sec_add_bfr[24] = ADCS_SENSOR_ADDRESS >> 24; 
037F6:  MOVFF  53,110
....................    sec_add_bfr[25] = ADCS_SENSOR_ADDRESS >> 16; 
037FA:  MOVFF  52,111
....................    sec_add_bfr[26] = ADCS_SENSOR_ADDRESS >> 8; 
037FE:  MOVFF  51,112
....................    sec_add_bfr[27] = ADCS_SENSOR_ADDRESS; 
03802:  MOVFF  50,113
....................     
....................    sec_add_bfr[28] = DC_STATUS_ADDRESS >> 24; 
03806:  MOVFF  5B,114
....................    sec_add_bfr[29] = DC_STATUS_ADDRESS >> 16; 
0380A:  MOVFF  5A,115
....................    sec_add_bfr[30] = DC_STATUS_ADDRESS >> 8; 
0380E:  MOVFF  59,116
....................    sec_add_bfr[31] = DC_STATUS_ADDRESS; 
03812:  MOVFF  58,117
....................     
....................    sec_add_bfr[32] = HIGH_SAMP_HK_ADDRESS >> 24; 
03816:  MOVFF  5F,118
....................    sec_add_bfr[33] = HIGH_SAMP_HK_ADDRESS >> 16; 
0381A:  MOVFF  5E,119
....................    sec_add_bfr[34] = HIGH_SAMP_HK_ADDRESS >> 8; 
0381E:  MOVFF  5D,11A
....................    sec_add_bfr[35] = HIGH_SAMP_HK_ADDRESS; 
03822:  MOVFF  5C,11B
....................     
....................    sec_add_bfr[36] = BC_ATTEMPT_FLAG; 
03826:  MOVFF  68,11C
....................     
....................     
....................    sec_add_bfr[37] = ADDRESS_WRITING_COUNTER >> 24; 
0382A:  MOVFF  37,11D
....................    sec_add_bfr[38] = ADDRESS_WRITING_COUNTER >> 16; 
0382E:  MOVFF  36,11E
....................    sec_add_bfr[39] = ADDRESS_WRITING_COUNTER >> 8; 
03832:  MOVFF  35,11F
....................    sec_add_bfr[40] = ADDRESS_WRITING_COUNTER; 
03836:  MOVFF  34,120
....................     
....................    output_low(PIN_A5);                                                           //CAM_MUX MAINSIDE 
0383A:  BCF    F92.5
0383C:  BCF    F89.5
....................    output_low(PIN_C4);                                                           //COM_MUX MAINSIDE 
0383E:  BCF    F94.4
03840:  BCF    F8B.4
....................    int8 num = 0; 
03842:  MOVLB  3
03844:  CLRF   x58
....................    SUBSECTOR_4KB_ERASE_OF(ADD_INFO_ADDRESS); 
03846:  MOVFF  33,365
0384A:  MOVFF  32,364
0384E:  MOVFF  31,363
03852:  MOVFF  30,362
03856:  MOVLB  0
03858:  CALL   2FCA
....................    delay_ms(200); 
0385C:  MOVLW  C8
0385E:  MOVLB  3
03860:  MOVWF  x6B
03862:  MOVLB  0
03864:  CALL   1AFC
....................    for(num = 0; num < FLASH_ADD_SIZE; num++)                                     //guarda todos los datos de direcciones en OBC FLASH 
03868:  MOVLB  3
0386A:  CLRF   x58
0386C:  MOVF   x58,W
0386E:  SUBLW  28
03870:  BNC   38C0
....................    { 
....................       WRITE_DATA_BYTE_OF(ADD_INFO_ADDRESS + num,sec_add_bfr[num]); 
03872:  MOVF   x58,W
03874:  ADDWF  30,W
03876:  MOVWF  x59
03878:  MOVLW  00
0387A:  ADDWFC 31,W
0387C:  MOVWF  x5A
0387E:  MOVLW  00
03880:  ADDWFC 32,W
03882:  MOVWF  x5B
03884:  MOVLW  00
03886:  ADDWFC 33,W
03888:  MOVWF  x5C
0388A:  CLRF   03
0388C:  MOVF   x58,W
0388E:  ADDLW  F8
03890:  MOVWF  FE9
03892:  MOVLW  00
03894:  ADDWFC 03,W
03896:  MOVWF  FEA
03898:  MOVFF  FEF,367
0389C:  MOVFF  35C,366
038A0:  MOVFF  35B,365
038A4:  MOVFF  35A,364
038A8:  MOVFF  359,363
038AC:  MOVLB  0
038AE:  CALL   1622
....................       delay_us(10); 
038B2:  MOVLW  0D
038B4:  MOVWF  00
038B6:  DECFSZ 00,F
038B8:  BRA    38B6
038BA:  MOVLB  3
038BC:  INCF   x58,F
038BE:  BRA    386C
....................    } 
....................    SUBSECTOR_4KB_ERASE_SCF(ADD_INFO_ADDRESS); 
038C0:  MOVFF  33,365
038C4:  MOVFF  32,364
038C8:  MOVFF  31,363
038CC:  MOVFF  30,362
038D0:  MOVLB  0
038D2:  CALL   305C
....................    delay_ms(200); 
038D6:  MOVLW  C8
038D8:  MOVLB  3
038DA:  MOVWF  x6B
038DC:  MOVLB  0
038DE:  CALL   1AFC
....................    for(num = 0; num < FLASH_ADD_SIZE; num++)                                     //guarda todos los datos de direcciones en COM FLASH 
038E2:  MOVLB  3
038E4:  CLRF   x58
038E6:  MOVF   x58,W
038E8:  SUBLW  28
038EA:  BNC   393A
....................    { 
....................       WRITE_DATA_BYTE_SCF(ADD_INFO_ADDRESS + num,sec_add_bfr[num]); 
038EC:  MOVF   x58,W
038EE:  ADDWF  30,W
038F0:  MOVWF  x59
038F2:  MOVLW  00
038F4:  ADDWFC 31,W
038F6:  MOVWF  x5A
038F8:  MOVLW  00
038FA:  ADDWFC 32,W
038FC:  MOVWF  x5B
038FE:  MOVLW  00
03900:  ADDWFC 33,W
03902:  MOVWF  x5C
03904:  CLRF   03
03906:  MOVF   x58,W
03908:  ADDLW  F8
0390A:  MOVWF  FE9
0390C:  MOVLW  00
0390E:  ADDWFC 03,W
03910:  MOVWF  FEA
03912:  MOVFF  FEF,367
03916:  MOVFF  35C,366
0391A:  MOVFF  35B,365
0391E:  MOVFF  35A,364
03922:  MOVFF  359,363
03926:  MOVLB  0
03928:  CALL   16AE
....................       delay_us(10); 
0392C:  MOVLW  0D
0392E:  MOVWF  00
03930:  DECFSZ 00,F
03932:  BRA    3930
03934:  MOVLB  3
03936:  INCF   x58,F
03938:  BRA    38E6
....................    } 
....................    SUBSECTOR_4KB_ERASE_SMF(ADD_INFO_ADDRESS); 
0393A:  MOVFF  33,365
0393E:  MOVFF  32,364
03942:  MOVFF  31,363
03946:  MOVFF  30,362
0394A:  MOVLB  0
0394C:  CALL   30EE
....................    delay_ms(200); 
03950:  MOVLW  C8
03952:  MOVLB  3
03954:  MOVWF  x6B
03956:  MOVLB  0
03958:  CALL   1AFC
....................    for(num = 0; num < FLASH_ADD_SIZE; num++)                                     //guarda todos los datos de direcciones en MISSION FLASH 
0395C:  MOVLB  3
0395E:  CLRF   x58
03960:  MOVF   x58,W
03962:  SUBLW  28
03964:  BNC   39B4
....................    { 
....................       WRITE_DATA_BYTE_SMF(ADD_INFO_ADDRESS + num,sec_add_bfr[num]); 
03966:  MOVF   x58,W
03968:  ADDWF  30,W
0396A:  MOVWF  x59
0396C:  MOVLW  00
0396E:  ADDWFC 31,W
03970:  MOVWF  x5A
03972:  MOVLW  00
03974:  ADDWFC 32,W
03976:  MOVWF  x5B
03978:  MOVLW  00
0397A:  ADDWFC 33,W
0397C:  MOVWF  x5C
0397E:  CLRF   03
03980:  MOVF   x58,W
03982:  ADDLW  F8
03984:  MOVWF  FE9
03986:  MOVLW  00
03988:  ADDWFC 03,W
0398A:  MOVWF  FEA
0398C:  MOVFF  FEF,367
03990:  MOVFF  35C,366
03994:  MOVFF  35B,365
03998:  MOVFF  35A,364
0399C:  MOVFF  359,363
039A0:  MOVLB  0
039A2:  CALL   173A
....................       delay_us(10); 
039A6:  MOVLW  0D
039A8:  MOVWF  00
039AA:  DECFSZ 00,F
039AC:  BRA    39AA
039AE:  MOVLB  3
039B0:  INCF   x58,F
039B2:  BRA    3960
....................    } 
....................    output_high(PIN_C4);                                                          //COM_MUX COMSIDE 
039B4:  BCF    F94.4
039B6:  BSF    F8B.4
....................    
....................    fprintf(PC,"ADDRESS DATA STORE DONE:%lx\r\n",ADD_INFO_ADDRESS); 
039B8:  MOVLW  10
039BA:  MOVWF  FF6
039BC:  MOVLW  05
039BE:  MOVWF  FF7
039C0:  MOVLW  00
039C2:  MOVWF  FF8
039C4:  MOVLW  18
039C6:  MOVWF  x62
039C8:  MOVLB  0
039CA:  CALL   17AE
039CE:  MOVFF  33,363
039D2:  MOVLW  57
039D4:  MOVLB  3
039D6:  MOVWF  x64
039D8:  MOVLB  0
039DA:  CALL   17E0
039DE:  MOVFF  32,363
039E2:  MOVLW  57
039E4:  MOVLB  3
039E6:  MOVWF  x64
039E8:  MOVLB  0
039EA:  CALL   17E0
039EE:  MOVFF  31,363
039F2:  MOVLW  57
039F4:  MOVLB  3
039F6:  MOVWF  x64
039F8:  MOVLB  0
039FA:  CALL   17E0
039FE:  MOVFF  30,363
03A02:  MOVLW  57
03A04:  MOVLB  3
03A06:  MOVWF  x64
03A08:  MOVLB  0
03A0A:  CALL   17E0
03A0E:  MOVLW  0D
03A10:  BTFSS  F9E.4
03A12:  BRA    3A10
03A14:  MOVWF  FAD
03A16:  MOVLW  0A
03A18:  BTFSS  F9E.4
03A1A:  BRA    3A18
03A1C:  MOVWF  FAD
....................    return; 
03A1E:  RETURN 0
.................... } 
....................  
.................... void TAKE_ADDRESS_DATA_FROM_OF()                                                 //Funcion que toma de la memoria las direcciones almacenadas en los primeros lugares 
.................... {   
....................     
....................    for(int8 num = 0; num < FLASH_ADD_SIZE; num++) 
*
0238C:  MOVLB  3
0238E:  CLRF   x2E
02390:  MOVF   x2E,W
02392:  SUBLW  28
02394:  BNC   23E8
....................    { 
....................       sec_add_bfr[num] = READ_DATA_BYTE_OF(ADD_INFO_ADDRESS + num); 
02396:  CLRF   03
02398:  MOVF   x2E,W
0239A:  ADDLW  F8
0239C:  MOVWF  01
0239E:  MOVLW  00
023A0:  ADDWFC 03,F
023A2:  MOVFF  01,32F
023A6:  MOVFF  03,330
023AA:  MOVF   x2E,W
023AC:  ADDWF  30,W
023AE:  MOVWF  x31
023B0:  MOVLW  00
023B2:  ADDWFC 31,W
023B4:  MOVWF  x32
023B6:  MOVLW  00
023B8:  ADDWFC 32,W
023BA:  MOVWF  x33
023BC:  MOVLW  00
023BE:  ADDWFC 33,W
023C0:  MOVWF  x34
023C2:  MOVWF  x6C
023C4:  MOVFF  333,36B
023C8:  MOVFF  332,36A
023CC:  MOVFF  331,369
023D0:  MOVLB  0
023D2:  CALL   135C
023D6:  MOVFF  330,FEA
023DA:  MOVFF  32F,FE9
023DE:  MOVFF  01,FEF
023E2:  MOVLB  3
023E4:  INCF   x2E,F
023E6:  BRA    2390
....................    } 
....................    return; 
023E8:  MOVLB  0
023EA:  GOTO   2568 (RETURN)
.................... } 
....................  
.................... void TAKE_ADDRESS_DATA_FROM_SCF() 
.................... {   
....................    output_low(PIN_C4);   
*
02490:  BCF    F94.4
02492:  BCF    F8B.4
....................    for(int8 num = 0; num < FLASH_ADD_SIZE; num++) 
02494:  MOVLB  3
02496:  CLRF   x2E
02498:  MOVF   x2E,W
0249A:  SUBLW  28
0249C:  BNC   24F0
....................    { 
....................       sec_add_bfr[num] = READ_DATA_BYTE_SCF(ADD_INFO_ADDRESS + num); 
0249E:  CLRF   03
024A0:  MOVF   x2E,W
024A2:  ADDLW  F8
024A4:  MOVWF  01
024A6:  MOVLW  00
024A8:  ADDWFC 03,F
024AA:  MOVFF  01,32F
024AE:  MOVFF  03,330
024B2:  MOVF   x2E,W
024B4:  ADDWF  30,W
024B6:  MOVWF  x31
024B8:  MOVLW  00
024BA:  ADDWFC 31,W
024BC:  MOVWF  x32
024BE:  MOVLW  00
024C0:  ADDWFC 32,W
024C2:  MOVWF  x33
024C4:  MOVLW  00
024C6:  ADDWFC 33,W
024C8:  MOVWF  x34
024CA:  MOVWF  x52
024CC:  MOVFF  333,351
024D0:  MOVFF  332,350
024D4:  MOVFF  331,34F
024D8:  MOVLB  0
024DA:  CALL   1414
024DE:  MOVFF  330,FEA
024E2:  MOVFF  32F,FE9
024E6:  MOVFF  01,FEF
024EA:  MOVLB  3
024EC:  INCF   x2E,F
024EE:  BRA    2498
....................    } 
....................    output_high(PIN_C4); 
024F0:  BCF    F94.4
024F2:  BSF    F8B.4
....................    return; 
024F4:  MOVLB  0
024F6:  GOTO   25DC (RETURN)
.................... } 
....................  
.................... void TAKE_ADDRESS_DATA_FROM_SMF() 
.................... {   
....................    output_low(PIN_A5);   
024FA:  BCF    F92.5
024FC:  BCF    F89.5
....................    for(int8 num = 0; num < FLASH_ADD_SIZE; num++) 
024FE:  MOVLB  3
02500:  CLRF   x2E
02502:  MOVF   x2E,W
02504:  SUBLW  28
02506:  BNC   255A
....................    { 
....................       sec_add_bfr[num] = READ_DATA_BYTE_SMF(ADD_INFO_ADDRESS + num); 
02508:  CLRF   03
0250A:  MOVF   x2E,W
0250C:  ADDLW  F8
0250E:  MOVWF  01
02510:  MOVLW  00
02512:  ADDWFC 03,F
02514:  MOVFF  01,32F
02518:  MOVFF  03,330
0251C:  MOVF   x2E,W
0251E:  ADDWF  30,W
02520:  MOVWF  x31
02522:  MOVLW  00
02524:  ADDWFC 31,W
02526:  MOVWF  x32
02528:  MOVLW  00
0252A:  ADDWFC 32,W
0252C:  MOVWF  x33
0252E:  MOVLW  00
02530:  ADDWFC 33,W
02532:  MOVWF  x34
02534:  MOVWF  x52
02536:  MOVFF  333,351
0253A:  MOVFF  332,350
0253E:  MOVFF  331,34F
02542:  MOVLB  0
02544:  CALL   14CC
02548:  MOVFF  330,FEA
0254C:  MOVFF  32F,FE9
02550:  MOVFF  01,FEF
02554:  MOVLB  3
02556:  INCF   x2E,F
02558:  BRA    2502
....................    } 
....................    return; 
0255A:  MOVLB  0
0255C:  GOTO   2656 (RETURN)
.................... } 
....................  
.................... void MAKE_FLAG_INFO()                                                            //Guarda en cada variable la informacion de flags recuperadas de memoria 
.................... { 
....................    BC_ATTEMPT_FLAG     = flag_info_bffr[0]; 
*
01BAA:  MOVFF  121,68
....................    PASSED_DAYS         = make16(flag_info_bffr[1],flag_info_bffr[2]); 
01BAE:  MOVFF  122,6A
01BB2:  MOVFF  123,69
....................    RESERVE_CHECK       = flag_info_bffr[3]; 
01BB6:  MOVFF  124,6B
....................    RESERVE_TARGET_FLAG = flag_info_bffr[4]; 
01BBA:  MOVFF  125,6D
....................    RESERVE_MIN_FLAG    = flag_info_bffr[5]; 
01BBE:  MOVFF  126,6C
....................    MISSION_CONTENTS    = flag_info_bffr[6]; 
01BC2:  MOVFF  127,6E
....................    MISSION_DETAIL      = flag_info_bffr[7]; 
01BC6:  MOVFF  128,6F
....................    Kill_FLAG_MAIN      = flag_info_bffr[8]; 
01BCA:  MOVFF  129,75
....................    Kill_FLAG_FAB       = flag_info_bffr[9]; 
01BCE:  MOVFF  12A,76
....................    FIRST_HSSC_DONE     = flag_info_bffr[10]; 
01BD2:  MOVFF  12B,77
....................    AUTO_CAM_DONE       = flag_info_bffr[11]; 
01BD6:  MOVFF  12C,78
....................    AUTO_MBP_DONE       = flag_info_bffr[12]; 
01BDA:  MOVFF  12D,79
....................    AUTO_ADCS_DONE      = flag_info_bffr[13]; 
01BDE:  MOVFF  12E,7A
....................    ANT_DEP_STATUS      = flag_info_bffr[14]; 
01BE2:  MOVFF  12F,7B
....................    UPLINK_SUCCESS      = flag_info_bffr[15]; 
01BE6:  MOVFF  130,7C
....................    if(PASSED_DAYS == 0xffff) 
01BEA:  INCFSZ x69,W
01BEC:  BRA    1BFC
01BEE:  INCFSZ x6A,W
01BF0:  BRA    1BFC
....................    { 
....................       COLLECT_RESET_DATA();                                                      //funcion que envia el comando 0x28 al reset PIC y carga reset_bffr[] 
01BF2:  RCALL  1B64
....................       PASSED_DAYS = make16(reset_bffr[4],reset_bffr[5]); 
01BF4:  MOVFF  F0,6A
01BF8:  MOVFF  F1,69
....................    } 
....................    return; 
01BFC:  GOTO   237A (RETURN)
.................... } 
....................                                                                              
.................... void MAKE_ADDRESS_DATA()                                                         //Funcion que separa los datos de direcciones en cada variable correspondiente 
.................... {                                                                                //sec_add_bfr[] vector que contiene los datos de direcciones 
....................  
....................  
....................    FLAG_DATA_ADDRESS = make32(sec_add_bfr[0],sec_add_bfr[1],sec_add_bfr[2],sec_add_bfr[3]);//FLAG_DATA_ADDRESS_1 | FLAG_DATA_ADDRESS_2 | FLAG_DATA_ADDRESS_3 | FLAG_DATA_ADDRESS_4; 
*
023EE:  MOVFF  F8,3B
023F2:  MOVFF  F9,3A
023F6:  MOVFF  FA,39
023FA:  MOVFF  FB,38
....................     
....................    RSV_DATA_ADDRESS = make32(sec_add_bfr[4],sec_add_bfr[5],sec_add_bfr[6],sec_add_bfr[7]);//RSV_DATA_ADDRESS_1| RSV_DATA_ADDRESS_2 | RSV_DATA_ADDRESS_3 | RSV_DATA_ADDRESS_4; 
023FE:  MOVFF  FC,3F
02402:  MOVFF  FD,3E
02406:  MOVFF  FE,3D
0240A:  MOVFF  FF,3C
....................     
....................    SAT_LOG = make32(sec_add_bfr[8],sec_add_bfr[9],sec_add_bfr[10],sec_add_bfr[11]);//SAT_LOG_1 | SAT_LOG_2 | SAT_LOG_3 | SAT_LOG_4; 
0240E:  MOVFF  100,43
02412:  MOVFF  101,42
02416:  MOVFF  102,41
0241A:  MOVFF  103,40
....................     
....................    CAM_ADDRESS = make32(sec_add_bfr[12],sec_add_bfr[13],sec_add_bfr[14],sec_add_bfr[15]);//CAM_ADDRESS_1 | CAM_ADDRESS_2 | CAM_ADDRESS_3 | CAM_ADDRESS_4; 
0241E:  MOVFF  104,47
02422:  MOVFF  105,46
02426:  MOVFF  106,45
0242A:  MOVFF  107,44
....................     
....................    FAB_HK_ADDRESS = make32(sec_add_bfr[16],sec_add_bfr[17],sec_add_bfr[18],sec_add_bfr[19]);//FAB_HK_ADDRESS_1 | FAB_HK_ADDRESS_2 | FAB_HK_ADDRESS_3 | FAB_HK_ADDRESS_4; 
0242E:  MOVFF  108,4B
02432:  MOVFF  109,4A
02436:  MOVFF  10A,49
0243A:  MOVFF  10B,48
....................  
....................    FAB_CW_ADDRESS = make32(sec_add_bfr[20],sec_add_bfr[21],sec_add_bfr[22],sec_add_bfr[23]);//FAB_CW_ADDRESS_1| FAB_CW_ADDRESS_2 | FAB_CW_ADDRESS_3 | FAB_CW_ADDRESS_4; 
0243E:  MOVFF  10C,4F
02442:  MOVFF  10D,4E
02446:  MOVFF  10E,4D
0244A:  MOVFF  10F,4C
....................     
....................    ADCS_SENSOR_ADDRESS = make32(sec_add_bfr[24],sec_add_bfr[25],sec_add_bfr[26],sec_add_bfr[27]);//ADCS_SENSOR_ADDRESS_1 | ADCS_SENSOR_ADDRESS_2 | ADCS_SENSOR_ADDRESS_3 | ADCS_SENSOR_ADDRESS_4; 
0244E:  MOVFF  110,53
02452:  MOVFF  111,52
02456:  MOVFF  112,51
0245A:  MOVFF  113,50
....................     
....................    DC_STATUS_ADDRESS = make32(sec_add_bfr[28],sec_add_bfr[29],sec_add_bfr[30],sec_add_bfr[31]);//DC_STATUS_ADDRESS_1 | DC_STATUS_ADDRESS_2 | DC_STATUS_ADDRESS_3 | DC_STATUS_ADDRESS_4; 
0245E:  MOVFF  114,5B
02462:  MOVFF  115,5A
02466:  MOVFF  116,59
0246A:  MOVFF  117,58
....................     
....................    HIGH_SAMP_HK_ADDRESS = make32(sec_add_bfr[32],sec_add_bfr[33],sec_add_bfr[34],sec_add_bfr[35]);//HIGH_SAMP_HK_ADDRESS = HIGH_SAMP_HK_ADDRESS_1 | HIGH_SAMP_HK_ADDRESS_2 | HIGH_SAMP_HK_ADDRESS_3 | HIGH_SAMP_HK_ADDRESS_4; 
0246E:  MOVFF  118,5F
02472:  MOVFF  119,5E
02476:  MOVFF  11A,5D
0247A:  MOVFF  11B,5C
....................     
....................    ADDRESS_WRITING_COUNTER = make32(sec_add_bfr[36],sec_add_bfr[37],sec_add_bfr[38],sec_add_bfr[39]);//ADDRESS_WRITING_COUNTER_1 | ADDRESS_WRITING_COUNTER_2 
0247E:  MOVFF  11C,37
02482:  MOVFF  11D,36
02486:  MOVFF  11E,35
0248A:  MOVFF  11F,34
....................     
....................    return; 
0248E:  RETURN 0
.................... } 
....................  
.................... void CHECK_FLAG_INFO()                                                           //funcion que imprime los datos de los flags y los separa en cada variable 
*
02310:  MOVLB  3
02312:  CLRF   x2C
.................... { 
....................    int8 checksum = 0; 
....................    TAKE_FLAG_INFO_FROM_OF();                                                     //funcion que lee de la Main flash el estado de los flags y carga el array flag_info_bffr 
02314:  MOVLB  0
02316:  GOTO   1A6E
....................    for(int8 num = 0; num < FLAG_INFO_SIZE; num++) 
0231A:  MOVLB  3
0231C:  CLRF   x2D
0231E:  MOVF   x2D,W
02320:  SUBLW  0F
02322:  BNC   233C
....................    { 
....................       if(flag_info_bffr[num] == 0xff)                                            //si la informacion recuperada es 0xff (no hay informacion) incrementa el checksum 
02324:  CLRF   03
02326:  MOVF   x2D,W
02328:  ADDLW  21
0232A:  MOVWF  FE9
0232C:  MOVLW  01
0232E:  ADDWFC 03,W
02330:  MOVWF  FEA
02332:  INCFSZ FEF,W
02334:  BRA    2338
....................       { 
....................          checksum++; 
02336:  INCF   x2C,F
....................       } 
02338:  INCF   x2D,F
0233A:  BRA    231E
....................    } 
....................    //fprintf(PC,"%d",checksum); 
....................     
....................    if((flag_info_bffr[0]!=0xff)&&(flag_info_bffr[FLAG_INFO_SIZE-1]!=0xff))       //if something stored 
0233C:  MOVLB  1
0233E:  INCFSZ x21,W
02340:  BRA    2344
02342:  BRA    237E
02344:  INCFSZ x30,W
02346:  BRA    234A
02348:  BRA    237E
....................    { 
....................       for(num = 0; num < FLAG_INFO_SIZE; num++)                                  //imprime la informacion de los flags 
0234A:  MOVLB  3
0234C:  CLRF   x2D
0234E:  MOVF   x2D,W
02350:  SUBLW  0F
02352:  BNC   2376
....................       { 
....................          fprintf(PC,"%x",flag_info_bffr[num]); 
02354:  CLRF   03
02356:  MOVF   x2D,W
02358:  ADDLW  21
0235A:  MOVWF  FE9
0235C:  MOVLW  01
0235E:  ADDWFC 03,W
02360:  MOVWF  FEA
02362:  MOVFF  FEF,363
02366:  MOVLW  57
02368:  MOVWF  x64
0236A:  MOVLB  0
0236C:  CALL   17E0
02370:  MOVLB  3
02372:  INCF   x2D,F
02374:  BRA    234E
....................       } 
....................       MAKE_FLAG_INFO();                                                          //separa el estado de los flags en cada variable 
02376:  MOVLB  0
02378:  BRA    1BAA
....................    }else{                                                                        //if nothing stored 
0237A:  BRA    2382
0237C:  MOVLB  1
....................       MAKE_FLAG_from_EEPROM();                                                   //lee de la eeprom el estado de los flags 
0237E:  MOVLB  0
02380:  BRA    1C00
....................    } 
....................    checksum = 0; 
02382:  MOVLB  3
02384:  CLRF   x2C
....................    return; 
02386:  MOVLB  0
02388:  GOTO   3BEA (RETURN)
.................... } 
....................  
.................... void CHECK_ADDRESS_DATA()                                                        //imprime los datos de direcciones y los separa en cada variable correspondiente 
*
02560:  MOVLB  3
02562:  CLRF   x2C
.................... { 
....................    int8 checksum = 0; 
....................    TAKE_ADDRESS_DATA_FROM_OF();                                                  //craga el array sec_add_bfr[] con address location info y lo imprime                                                   
02564:  MOVLB  0
02566:  BRA    238C
....................    for(int8 num = 37; num < 41; num++)                                           //check the data of last 4 byte 
02568:  MOVLW  25
0256A:  MOVLB  3
0256C:  MOVWF  x2D
0256E:  MOVF   x2D,W
02570:  SUBLW  28
02572:  BNC   258C
....................    { 
....................       if(sec_add_bfr[num] == 0xff)                                               //if nothing, count checksum 
02574:  CLRF   03
02576:  MOVF   x2D,W
02578:  ADDLW  F8
0257A:  MOVWF  FE9
0257C:  MOVLW  00
0257E:  ADDWFC 03,W
02580:  MOVWF  FEA
02582:  INCFSZ FEF,W
02584:  BRA    2588
....................       { 
....................          checksum++; 
02586:  INCF   x2C,F
....................       } 
02588:  INCF   x2D,F
0258A:  BRA    256E
....................    } 
....................     
....................    if(checksum != 4)                                                             //if something stored (if last 4 byte were not 0xff) 
0258C:  MOVF   x2C,W
0258E:  SUBLW  04
02590:  BZ    25D4
....................    { 
....................       for(num = 0; num < FLASH_ADD_SIZE; num++) 
02592:  CLRF   x2D
02594:  MOVF   x2D,W
02596:  SUBLW  28
02598:  BNC   25BC
....................       { 
....................          fprintf(PC,"%x",sec_add_bfr[num]);                                      //imprime el contenido de sec_add_bfr[] que contiene las direcciones 
0259A:  CLRF   03
0259C:  MOVF   x2D,W
0259E:  ADDLW  F8
025A0:  MOVWF  FE9
025A2:  MOVLW  00
025A4:  ADDWFC 03,W
025A6:  MOVWF  FEA
025A8:  MOVFF  FEF,363
025AC:  MOVLW  57
025AE:  MOVWF  x64
025B0:  MOVLB  0
025B2:  CALL   17E0
025B6:  MOVLB  3
025B8:  INCF   x2D,F
025BA:  BRA    2594
....................       } 
....................       fprintf(PC,"\r\n"); 
025BC:  MOVLW  0D
025BE:  BTFSS  F9E.4
025C0:  BRA    25BE
025C2:  MOVWF  FAD
025C4:  MOVLW  0A
025C6:  BTFSS  F9E.4
025C8:  BRA    25C6
025CA:  MOVWF  FAD
....................       MAKE_ADDRESS_DATA();                                                       //los separa en las variables correspondientes a cada direccion 
025CC:  MOVLB  0
025CE:  RCALL  23EE
....................    }else{                                                                        //if there is nothing, check from SCF 
025D0:  BRA    26C0
025D2:  MOVLB  3
....................       output_low(PIN_C4); 
025D4:  BCF    F94.4
025D6:  BCF    F8B.4
....................       TAKE_ADDRESS_DATA_FROM_SCF(); 
025D8:  MOVLB  0
025DA:  BRA    2490
....................       output_high(PIN_C4); 
025DC:  BCF    F94.4
025DE:  BSF    F8B.4
....................       checksum = 0; 
025E0:  MOVLB  3
025E2:  CLRF   x2C
....................       for(num = 37; num < 41; num++)                                             //check the data of last 4 byte 
025E4:  MOVLW  25
025E6:  MOVWF  x2D
025E8:  MOVF   x2D,W
025EA:  SUBLW  28
025EC:  BNC   2606
....................       { 
....................          if(sec_add_bfr[num] == 0xff)                                            //if nothing, count checksum 
025EE:  CLRF   03
025F0:  MOVF   x2D,W
025F2:  ADDLW  F8
025F4:  MOVWF  FE9
025F6:  MOVLW  00
025F8:  ADDWFC 03,W
025FA:  MOVWF  FEA
025FC:  INCFSZ FEF,W
025FE:  BRA    2602
....................          { 
....................             checksum++; 
02600:  INCF   x2C,F
....................          } 
02602:  INCF   x2D,F
02604:  BRA    25E8
....................       } 
....................       if(checksum != 4) 
02606:  MOVF   x2C,W
02608:  SUBLW  04
0260A:  BZ    264E
....................       { 
....................          for(num = 0; num < FLASH_ADD_SIZE; num++) 
0260C:  CLRF   x2D
0260E:  MOVF   x2D,W
02610:  SUBLW  28
02612:  BNC   2636
....................          { 
....................             fprintf(PC,"%x",sec_add_bfr[num]); 
02614:  CLRF   03
02616:  MOVF   x2D,W
02618:  ADDLW  F8
0261A:  MOVWF  FE9
0261C:  MOVLW  00
0261E:  ADDWFC 03,W
02620:  MOVWF  FEA
02622:  MOVFF  FEF,363
02626:  MOVLW  57
02628:  MOVWF  x64
0262A:  MOVLB  0
0262C:  CALL   17E0
02630:  MOVLB  3
02632:  INCF   x2D,F
02634:  BRA    260E
....................          } 
....................          fprintf(PC,"\r\n"); 
02636:  MOVLW  0D
02638:  BTFSS  F9E.4
0263A:  BRA    2638
0263C:  MOVWF  FAD
0263E:  MOVLW  0A
02640:  BTFSS  F9E.4
02642:  BRA    2640
02644:  MOVWF  FAD
....................          MAKE_ADDRESS_DATA(); 
02646:  MOVLB  0
02648:  RCALL  23EE
....................       }else{                                                                     //if there is nothing, check from SMF 
0264A:  BRA    26C0
0264C:  MOVLB  3
....................          output_low(PIN_A5); 
0264E:  BCF    F92.5
02650:  BCF    F89.5
....................          TAKE_ADDRESS_DATA_FROM_SMF(); 
02652:  MOVLB  0
02654:  BRA    24FA
....................          checksum = 0; 
02656:  MOVLB  3
02658:  CLRF   x2C
....................          for(num = 37; num < 41; num++)                                          //check the data of last 4 byte 
0265A:  MOVLW  25
0265C:  MOVWF  x2D
0265E:  MOVF   x2D,W
02660:  SUBLW  28
02662:  BNC   267C
....................          { 
....................             if(sec_add_bfr[num] == 0xff)                                         //if nothing, count checksum 
02664:  CLRF   03
02666:  MOVF   x2D,W
02668:  ADDLW  F8
0266A:  MOVWF  FE9
0266C:  MOVLW  00
0266E:  ADDWFC 03,W
02670:  MOVWF  FEA
02672:  INCFSZ FEF,W
02674:  BRA    2678
....................             { 
....................                checksum++; 
02676:  INCF   x2C,F
....................             } 
02678:  INCF   x2D,F
0267A:  BRA    265E
....................          } 
....................          if(checksum != 4) 
0267C:  MOVF   x2C,W
0267E:  SUBLW  04
02680:  BZ    26C2
....................          { 
....................             for(num = 0; num < FLASH_ADD_SIZE; num++) 
02682:  CLRF   x2D
02684:  MOVF   x2D,W
02686:  SUBLW  28
02688:  BNC   26AC
....................             { 
....................                fprintf(PC,"%x",sec_add_bfr[num]); 
0268A:  CLRF   03
0268C:  MOVF   x2D,W
0268E:  ADDLW  F8
02690:  MOVWF  FE9
02692:  MOVLW  00
02694:  ADDWFC 03,W
02696:  MOVWF  FEA
02698:  MOVFF  FEF,363
0269C:  MOVLW  57
0269E:  MOVWF  x64
026A0:  MOVLB  0
026A2:  CALL   17E0
026A6:  MOVLB  3
026A8:  INCF   x2D,F
026AA:  BRA    2684
....................             } 
....................             fprintf(PC,"\r\n"); 
026AC:  MOVLW  0D
026AE:  BTFSS  F9E.4
026B0:  BRA    26AE
026B2:  MOVWF  FAD
026B4:  MOVLW  0A
026B6:  BTFSS  F9E.4
026B8:  BRA    26B6
026BA:  MOVWF  FAD
....................             MAKE_ADDRESS_DATA(); 
026BC:  MOVLB  0
026BE:  RCALL  23EE
026C0:  MOVLB  3
....................          } 
....................       } 
....................    }   
....................    checksum = 0;   
026C2:  CLRF   x2C
....................    return; 
026C4:  MOVLB  0
026C6:  GOTO   3BEE (RETURN)
.................... } 
....................  
.................... ////////////////////////// 
.................... //FAB_HK_ADDRESS        // 
.................... //FAB_CW_ADDRESS        // 
.................... //ADCS_SENSOR_ADDRESS   // 
.................... //CAM_ADDRESS           // 
.................... //DC_STATUS_ADDRESS     // 
.................... ////////////////////////// 
.................... void MEMORY_ERASE() 
.................... { 
....................    fprintf(PC,"FLASH MEMORY ERASE START\r\n"); 
*
0B1AA:  MOVLW  2E
0B1AC:  MOVWF  FF6
0B1AE:  MOVLW  05
0B1B0:  MOVWF  FF7
0B1B2:  MOVLW  00
0B1B4:  MOVWF  FF8
0B1B6:  CALL   318C
....................     
....................    output_low(PIN_A5);                                                           //CAM_MUX MAINSIDE 
0B1BA:  BCF    F92.5
0B1BC:  BCF    F89.5
....................    output_low(PIN_C4);                                                           //COM_MUX MAINSIDE 
0B1BE:  BCF    F94.4
0B1C0:  BCF    F8B.4
....................     
....................    sector_erase_OF(0); 
0B1C2:  MOVLB  3
0B1C4:  CLRF   x5B
0B1C6:  CLRF   x5A
0B1C8:  CLRF   x59
0B1CA:  CLRF   x58
0B1CC:  MOVLB  0
0B1CE:  CALL   359C
....................    sector_erase_SCF(0); 
0B1D2:  MOVLB  3
0B1D4:  CLRF   x5B
0B1D6:  CLRF   x5A
0B1D8:  CLRF   x59
0B1DA:  CLRF   x58
0B1DC:  MOVLB  0
0B1DE:  CALL   363A
....................    sector_erase_SMF(0); 
0B1E2:  MOVLB  3
0B1E4:  CLRF   x5B
0B1E6:  CLRF   x5A
0B1E8:  CLRF   x59
0B1EA:  CLRF   x58
0B1EC:  MOVLB  0
0B1EE:  CALL   36D8
....................     
....................    sector_erase_OF(FAB_CW_ADDRESS); 
0B1F2:  MOVFF  4F,35B
0B1F6:  MOVFF  4E,35A
0B1FA:  MOVFF  4D,359
0B1FE:  MOVFF  4C,358
0B202:  CALL   359C
....................    sector_erase_SCF(FAB_CW_ADDRESS); 
0B206:  MOVFF  4F,35B
0B20A:  MOVFF  4E,35A
0B20E:  MOVFF  4D,359
0B212:  MOVFF  4C,358
0B216:  CALL   363A
....................    sector_erase_SMF(FAB_CW_ADDRESS); 
0B21A:  MOVFF  4F,35B
0B21E:  MOVFF  4E,35A
0B222:  MOVFF  4D,359
0B226:  MOVFF  4C,358
0B22A:  CALL   36D8
....................     
....................     
....................    for(int8 num = 0; num < 5; num++) 
0B22E:  MOVLB  3
0B230:  CLRF   x37
0B232:  MOVF   x37,W
0B234:  SUBLW  04
0B236:  BTFSS  FD8.0
0B238:  BRA    B69A
....................    { 
....................       sector_erase_OF(FLAG_DATA_ADDRESS + SECT*num);                             //65536*num 
0B23A:  CLRF   01
0B23C:  CLRF   02
0B23E:  MOVFF  01,03
0B242:  MOVFF  337,02
0B246:  CLRF   00
0B248:  CLRF   01
0B24A:  MOVF   00,W
0B24C:  ADDWF  38,W
0B24E:  MOVWF  x39
0B250:  MOVF   01,W
0B252:  ADDWFC 39,W
0B254:  MOVWF  x3A
0B256:  MOVF   x37,W
0B258:  ADDWFC 3A,W
0B25A:  MOVWF  x3B
0B25C:  MOVF   03,W
0B25E:  ADDWFC 3B,W
0B260:  MOVWF  x3C
0B262:  MOVWF  x5B
0B264:  MOVFF  33B,35A
0B268:  MOVFF  33A,359
0B26C:  MOVFF  339,358
0B270:  MOVLB  0
0B272:  CALL   359C
....................       sector_erase_OF(CAM_ADDRESS + SECT*num);                                   //65536*num 
0B276:  CLRF   01
0B278:  CLRF   02
0B27A:  MOVFF  01,03
0B27E:  MOVFF  337,02
0B282:  CLRF   00
0B284:  CLRF   01
0B286:  MOVF   00,W
0B288:  ADDWF  44,W
0B28A:  MOVLB  3
0B28C:  MOVWF  x39
0B28E:  MOVF   01,W
0B290:  ADDWFC 45,W
0B292:  MOVWF  x3A
0B294:  MOVF   x37,W
0B296:  ADDWFC 46,W
0B298:  MOVWF  x3B
0B29A:  MOVF   03,W
0B29C:  ADDWFC 47,W
0B29E:  MOVWF  x3C
0B2A0:  MOVWF  x5B
0B2A2:  MOVFF  33B,35A
0B2A6:  MOVFF  33A,359
0B2AA:  MOVFF  339,358
0B2AE:  MOVLB  0
0B2B0:  CALL   359C
....................       sector_erase_OF(FAB_HK_ADDRESS + SECT*num);                                //65536*num 
0B2B4:  CLRF   01
0B2B6:  CLRF   02
0B2B8:  MOVFF  01,03
0B2BC:  MOVFF  337,02
0B2C0:  CLRF   00
0B2C2:  CLRF   01
0B2C4:  MOVF   00,W
0B2C6:  ADDWF  48,W
0B2C8:  MOVLB  3
0B2CA:  MOVWF  x39
0B2CC:  MOVF   01,W
0B2CE:  ADDWFC 49,W
0B2D0:  MOVWF  x3A
0B2D2:  MOVF   x37,W
0B2D4:  ADDWFC 4A,W
0B2D6:  MOVWF  x3B
0B2D8:  MOVF   03,W
0B2DA:  ADDWFC 4B,W
0B2DC:  MOVWF  x3C
0B2DE:  MOVWF  x5B
0B2E0:  MOVFF  33B,35A
0B2E4:  MOVFF  33A,359
0B2E8:  MOVFF  339,358
0B2EC:  MOVLB  0
0B2EE:  CALL   359C
....................       sector_erase_OF(ADCS_SENSOR_ADDRESS + SECT*num);                           //65536*num 
0B2F2:  CLRF   01
0B2F4:  CLRF   02
0B2F6:  MOVFF  01,03
0B2FA:  MOVFF  337,02
0B2FE:  CLRF   00
0B300:  CLRF   01
0B302:  MOVF   00,W
0B304:  ADDWF  50,W
0B306:  MOVLB  3
0B308:  MOVWF  x39
0B30A:  MOVF   01,W
0B30C:  ADDWFC 51,W
0B30E:  MOVWF  x3A
0B310:  MOVF   x37,W
0B312:  ADDWFC 52,W
0B314:  MOVWF  x3B
0B316:  MOVF   03,W
0B318:  ADDWFC 53,W
0B31A:  MOVWF  x3C
0B31C:  MOVWF  x5B
0B31E:  MOVFF  33B,35A
0B322:  MOVFF  33A,359
0B326:  MOVFF  339,358
0B32A:  MOVLB  0
0B32C:  CALL   359C
....................       sector_erase_OF(DC_STATUS_ADDRESS + SECT*num);                             //65536*num 
0B330:  CLRF   01
0B332:  CLRF   02
0B334:  MOVFF  01,03
0B338:  MOVFF  337,02
0B33C:  CLRF   00
0B33E:  CLRF   01
0B340:  MOVF   00,W
0B342:  ADDWF  58,W
0B344:  MOVLB  3
0B346:  MOVWF  x39
0B348:  MOVF   01,W
0B34A:  ADDWFC 59,W
0B34C:  MOVWF  x3A
0B34E:  MOVF   x37,W
0B350:  ADDWFC 5A,W
0B352:  MOVWF  x3B
0B354:  MOVF   03,W
0B356:  ADDWFC 5B,W
0B358:  MOVWF  x3C
0B35A:  MOVWF  x5B
0B35C:  MOVFF  33B,35A
0B360:  MOVFF  33A,359
0B364:  MOVFF  339,358
0B368:  MOVLB  0
0B36A:  CALL   359C
....................       sector_erase_OF(HIGH_SAMP_HK_ADDRESS + SECT*num);                          //65536*num 
0B36E:  CLRF   01
0B370:  CLRF   02
0B372:  MOVFF  01,03
0B376:  MOVFF  337,02
0B37A:  CLRF   00
0B37C:  CLRF   01
0B37E:  MOVF   00,W
0B380:  ADDWF  5C,W
0B382:  MOVLB  3
0B384:  MOVWF  x39
0B386:  MOVF   01,W
0B388:  ADDWFC 5D,W
0B38A:  MOVWF  x3A
0B38C:  MOVF   x37,W
0B38E:  ADDWFC 5E,W
0B390:  MOVWF  x3B
0B392:  MOVF   03,W
0B394:  ADDWFC 5F,W
0B396:  MOVWF  x3C
0B398:  MOVWF  x5B
0B39A:  MOVFF  33B,35A
0B39E:  MOVFF  33A,359
0B3A2:  MOVFF  339,358
0B3A6:  MOVLB  0
0B3A8:  CALL   359C
....................        
....................       sector_erase_SCF(FLAG_DATA_ADDRESS + SECT*num);                            //65536*num 
0B3AC:  CLRF   01
0B3AE:  CLRF   02
0B3B0:  MOVFF  01,03
0B3B4:  MOVFF  337,02
0B3B8:  CLRF   00
0B3BA:  CLRF   01
0B3BC:  MOVF   00,W
0B3BE:  ADDWF  38,W
0B3C0:  MOVLB  3
0B3C2:  MOVWF  x39
0B3C4:  MOVF   01,W
0B3C6:  ADDWFC 39,W
0B3C8:  MOVWF  x3A
0B3CA:  MOVF   x37,W
0B3CC:  ADDWFC 3A,W
0B3CE:  MOVWF  x3B
0B3D0:  MOVF   03,W
0B3D2:  ADDWFC 3B,W
0B3D4:  MOVWF  x3C
0B3D6:  MOVWF  x5B
0B3D8:  MOVFF  33B,35A
0B3DC:  MOVFF  33A,359
0B3E0:  MOVFF  339,358
0B3E4:  MOVLB  0
0B3E6:  CALL   363A
....................       sector_erase_SCF(CAM_ADDRESS + SECT*num);                                  //65536*num 
0B3EA:  CLRF   01
0B3EC:  CLRF   02
0B3EE:  MOVFF  01,03
0B3F2:  MOVFF  337,02
0B3F6:  CLRF   00
0B3F8:  CLRF   01
0B3FA:  MOVF   00,W
0B3FC:  ADDWF  44,W
0B3FE:  MOVLB  3
0B400:  MOVWF  x39
0B402:  MOVF   01,W
0B404:  ADDWFC 45,W
0B406:  MOVWF  x3A
0B408:  MOVF   x37,W
0B40A:  ADDWFC 46,W
0B40C:  MOVWF  x3B
0B40E:  MOVF   03,W
0B410:  ADDWFC 47,W
0B412:  MOVWF  x3C
0B414:  MOVWF  x5B
0B416:  MOVFF  33B,35A
0B41A:  MOVFF  33A,359
0B41E:  MOVFF  339,358
0B422:  MOVLB  0
0B424:  CALL   363A
....................       sector_erase_SCF(FAB_HK_ADDRESS + SECT*num);                               //65536*num 
0B428:  CLRF   01
0B42A:  CLRF   02
0B42C:  MOVFF  01,03
0B430:  MOVFF  337,02
0B434:  CLRF   00
0B436:  CLRF   01
0B438:  MOVF   00,W
0B43A:  ADDWF  48,W
0B43C:  MOVLB  3
0B43E:  MOVWF  x39
0B440:  MOVF   01,W
0B442:  ADDWFC 49,W
0B444:  MOVWF  x3A
0B446:  MOVF   x37,W
0B448:  ADDWFC 4A,W
0B44A:  MOVWF  x3B
0B44C:  MOVF   03,W
0B44E:  ADDWFC 4B,W
0B450:  MOVWF  x3C
0B452:  MOVWF  x5B
0B454:  MOVFF  33B,35A
0B458:  MOVFF  33A,359
0B45C:  MOVFF  339,358
0B460:  MOVLB  0
0B462:  CALL   363A
....................       sector_erase_SCF(ADCS_SENSOR_ADDRESS + SECT*num);                          //65536*num 
0B466:  CLRF   01
0B468:  CLRF   02
0B46A:  MOVFF  01,03
0B46E:  MOVFF  337,02
0B472:  CLRF   00
0B474:  CLRF   01
0B476:  MOVF   00,W
0B478:  ADDWF  50,W
0B47A:  MOVLB  3
0B47C:  MOVWF  x39
0B47E:  MOVF   01,W
0B480:  ADDWFC 51,W
0B482:  MOVWF  x3A
0B484:  MOVF   x37,W
0B486:  ADDWFC 52,W
0B488:  MOVWF  x3B
0B48A:  MOVF   03,W
0B48C:  ADDWFC 53,W
0B48E:  MOVWF  x3C
0B490:  MOVWF  x5B
0B492:  MOVFF  33B,35A
0B496:  MOVFF  33A,359
0B49A:  MOVFF  339,358
0B49E:  MOVLB  0
0B4A0:  CALL   363A
....................       sector_erase_SCF(DC_STATUS_ADDRESS + SECT*num);                            //65536*num 
0B4A4:  CLRF   01
0B4A6:  CLRF   02
0B4A8:  MOVFF  01,03
0B4AC:  MOVFF  337,02
0B4B0:  CLRF   00
0B4B2:  CLRF   01
0B4B4:  MOVF   00,W
0B4B6:  ADDWF  58,W
0B4B8:  MOVLB  3
0B4BA:  MOVWF  x39
0B4BC:  MOVF   01,W
0B4BE:  ADDWFC 59,W
0B4C0:  MOVWF  x3A
0B4C2:  MOVF   x37,W
0B4C4:  ADDWFC 5A,W
0B4C6:  MOVWF  x3B
0B4C8:  MOVF   03,W
0B4CA:  ADDWFC 5B,W
0B4CC:  MOVWF  x3C
0B4CE:  MOVWF  x5B
0B4D0:  MOVFF  33B,35A
0B4D4:  MOVFF  33A,359
0B4D8:  MOVFF  339,358
0B4DC:  MOVLB  0
0B4DE:  CALL   363A
....................       sector_erase_SCF(HIGH_SAMP_HK_ADDRESS + SECT*num);                         //65536*num 
0B4E2:  CLRF   01
0B4E4:  CLRF   02
0B4E6:  MOVFF  01,03
0B4EA:  MOVFF  337,02
0B4EE:  CLRF   00
0B4F0:  CLRF   01
0B4F2:  MOVF   00,W
0B4F4:  ADDWF  5C,W
0B4F6:  MOVLB  3
0B4F8:  MOVWF  x39
0B4FA:  MOVF   01,W
0B4FC:  ADDWFC 5D,W
0B4FE:  MOVWF  x3A
0B500:  MOVF   x37,W
0B502:  ADDWFC 5E,W
0B504:  MOVWF  x3B
0B506:  MOVF   03,W
0B508:  ADDWFC 5F,W
0B50A:  MOVWF  x3C
0B50C:  MOVWF  x5B
0B50E:  MOVFF  33B,35A
0B512:  MOVFF  33A,359
0B516:  MOVFF  339,358
0B51A:  MOVLB  0
0B51C:  CALL   363A
....................        
....................       sector_erase_SMF(FLAG_DATA_ADDRESS + SECT*num);                            //65536*num 
0B520:  CLRF   01
0B522:  CLRF   02
0B524:  MOVFF  01,03
0B528:  MOVFF  337,02
0B52C:  CLRF   00
0B52E:  CLRF   01
0B530:  MOVF   00,W
0B532:  ADDWF  38,W
0B534:  MOVLB  3
0B536:  MOVWF  x39
0B538:  MOVF   01,W
0B53A:  ADDWFC 39,W
0B53C:  MOVWF  x3A
0B53E:  MOVF   x37,W
0B540:  ADDWFC 3A,W
0B542:  MOVWF  x3B
0B544:  MOVF   03,W
0B546:  ADDWFC 3B,W
0B548:  MOVWF  x3C
0B54A:  MOVWF  x5B
0B54C:  MOVFF  33B,35A
0B550:  MOVFF  33A,359
0B554:  MOVFF  339,358
0B558:  MOVLB  0
0B55A:  CALL   36D8
....................       sector_erase_SMF(CAM_ADDRESS + SECT*num);                                  //65536*num 
0B55E:  CLRF   01
0B560:  CLRF   02
0B562:  MOVFF  01,03
0B566:  MOVFF  337,02
0B56A:  CLRF   00
0B56C:  CLRF   01
0B56E:  MOVF   00,W
0B570:  ADDWF  44,W
0B572:  MOVLB  3
0B574:  MOVWF  x39
0B576:  MOVF   01,W
0B578:  ADDWFC 45,W
0B57A:  MOVWF  x3A
0B57C:  MOVF   x37,W
0B57E:  ADDWFC 46,W
0B580:  MOVWF  x3B
0B582:  MOVF   03,W
0B584:  ADDWFC 47,W
0B586:  MOVWF  x3C
0B588:  MOVWF  x5B
0B58A:  MOVFF  33B,35A
0B58E:  MOVFF  33A,359
0B592:  MOVFF  339,358
0B596:  MOVLB  0
0B598:  CALL   36D8
....................       sector_erase_SMF(FAB_HK_ADDRESS + SECT*num);                               //65536*num 
0B59C:  CLRF   01
0B59E:  CLRF   02
0B5A0:  MOVFF  01,03
0B5A4:  MOVFF  337,02
0B5A8:  CLRF   00
0B5AA:  CLRF   01
0B5AC:  MOVF   00,W
0B5AE:  ADDWF  48,W
0B5B0:  MOVLB  3
0B5B2:  MOVWF  x39
0B5B4:  MOVF   01,W
0B5B6:  ADDWFC 49,W
0B5B8:  MOVWF  x3A
0B5BA:  MOVF   x37,W
0B5BC:  ADDWFC 4A,W
0B5BE:  MOVWF  x3B
0B5C0:  MOVF   03,W
0B5C2:  ADDWFC 4B,W
0B5C4:  MOVWF  x3C
0B5C6:  MOVWF  x5B
0B5C8:  MOVFF  33B,35A
0B5CC:  MOVFF  33A,359
0B5D0:  MOVFF  339,358
0B5D4:  MOVLB  0
0B5D6:  CALL   36D8
....................       sector_erase_SMF(ADCS_SENSOR_ADDRESS + SECT*num);                          //65536*num 
0B5DA:  CLRF   01
0B5DC:  CLRF   02
0B5DE:  MOVFF  01,03
0B5E2:  MOVFF  337,02
0B5E6:  CLRF   00
0B5E8:  CLRF   01
0B5EA:  MOVF   00,W
0B5EC:  ADDWF  50,W
0B5EE:  MOVLB  3
0B5F0:  MOVWF  x39
0B5F2:  MOVF   01,W
0B5F4:  ADDWFC 51,W
0B5F6:  MOVWF  x3A
0B5F8:  MOVF   x37,W
0B5FA:  ADDWFC 52,W
0B5FC:  MOVWF  x3B
0B5FE:  MOVF   03,W
0B600:  ADDWFC 53,W
0B602:  MOVWF  x3C
0B604:  MOVWF  x5B
0B606:  MOVFF  33B,35A
0B60A:  MOVFF  33A,359
0B60E:  MOVFF  339,358
0B612:  MOVLB  0
0B614:  CALL   36D8
....................       sector_erase_SMF(DC_STATUS_ADDRESS + SECT*num);                            //65536*num 
0B618:  CLRF   01
0B61A:  CLRF   02
0B61C:  MOVFF  01,03
0B620:  MOVFF  337,02
0B624:  CLRF   00
0B626:  CLRF   01
0B628:  MOVF   00,W
0B62A:  ADDWF  58,W
0B62C:  MOVLB  3
0B62E:  MOVWF  x39
0B630:  MOVF   01,W
0B632:  ADDWFC 59,W
0B634:  MOVWF  x3A
0B636:  MOVF   x37,W
0B638:  ADDWFC 5A,W
0B63A:  MOVWF  x3B
0B63C:  MOVF   03,W
0B63E:  ADDWFC 5B,W
0B640:  MOVWF  x3C
0B642:  MOVWF  x5B
0B644:  MOVFF  33B,35A
0B648:  MOVFF  33A,359
0B64C:  MOVFF  339,358
0B650:  MOVLB  0
0B652:  CALL   36D8
....................       sector_erase_SMF(HIGH_SAMP_HK_ADDRESS + SECT*num);                         //65536*num 
0B656:  CLRF   01
0B658:  CLRF   02
0B65A:  MOVFF  01,03
0B65E:  MOVFF  337,02
0B662:  CLRF   00
0B664:  CLRF   01
0B666:  MOVF   00,W
0B668:  ADDWF  5C,W
0B66A:  MOVLB  3
0B66C:  MOVWF  x39
0B66E:  MOVF   01,W
0B670:  ADDWFC 5D,W
0B672:  MOVWF  x3A
0B674:  MOVF   x37,W
0B676:  ADDWFC 5E,W
0B678:  MOVWF  x3B
0B67A:  MOVF   03,W
0B67C:  ADDWFC 5F,W
0B67E:  MOVWF  x3C
0B680:  MOVWF  x5B
0B682:  MOVFF  33B,35A
0B686:  MOVFF  33A,359
0B68A:  MOVFF  339,358
0B68E:  MOVLB  0
0B690:  CALL   36D8
0B694:  MOVLB  3
0B696:  INCF   x37,F
0B698:  BRA    B232
....................    } 
....................    for(num = 5; num < 10; num++) 
0B69A:  MOVLW  05
0B69C:  MOVWF  x37
0B69E:  MOVF   x37,W
0B6A0:  SUBLW  09
0B6A2:  BTFSS  FD8.0
0B6A4:  BRA    B8D8
....................    { 
....................       sector_erase_OF(CAM_ADDRESS + SECT*num);                                   //65536*num 
0B6A6:  CLRF   01
0B6A8:  CLRF   02
0B6AA:  MOVFF  01,03
0B6AE:  MOVFF  337,02
0B6B2:  CLRF   00
0B6B4:  CLRF   01
0B6B6:  MOVF   00,W
0B6B8:  ADDWF  44,W
0B6BA:  MOVWF  x39
0B6BC:  MOVF   01,W
0B6BE:  ADDWFC 45,W
0B6C0:  MOVWF  x3A
0B6C2:  MOVF   x37,W
0B6C4:  ADDWFC 46,W
0B6C6:  MOVWF  x3B
0B6C8:  MOVF   03,W
0B6CA:  ADDWFC 47,W
0B6CC:  MOVWF  x3C
0B6CE:  MOVWF  x5B
0B6D0:  MOVFF  33B,35A
0B6D4:  MOVFF  33A,359
0B6D8:  MOVFF  339,358
0B6DC:  MOVLB  0
0B6DE:  CALL   359C
....................       sector_erase_OF(FAB_HK_ADDRESS + SECT*num);                                //65536*num 
0B6E2:  CLRF   01
0B6E4:  CLRF   02
0B6E6:  MOVFF  01,03
0B6EA:  MOVFF  337,02
0B6EE:  CLRF   00
0B6F0:  CLRF   01
0B6F2:  MOVF   00,W
0B6F4:  ADDWF  48,W
0B6F6:  MOVLB  3
0B6F8:  MOVWF  x39
0B6FA:  MOVF   01,W
0B6FC:  ADDWFC 49,W
0B6FE:  MOVWF  x3A
0B700:  MOVF   x37,W
0B702:  ADDWFC 4A,W
0B704:  MOVWF  x3B
0B706:  MOVF   03,W
0B708:  ADDWFC 4B,W
0B70A:  MOVWF  x3C
0B70C:  MOVWF  x5B
0B70E:  MOVFF  33B,35A
0B712:  MOVFF  33A,359
0B716:  MOVFF  339,358
0B71A:  MOVLB  0
0B71C:  CALL   359C
....................       sector_erase_OF(HIGH_SAMP_HK_ADDRESS + SECT*num);                          //65536*num 
0B720:  CLRF   01
0B722:  CLRF   02
0B724:  MOVFF  01,03
0B728:  MOVFF  337,02
0B72C:  CLRF   00
0B72E:  CLRF   01
0B730:  MOVF   00,W
0B732:  ADDWF  5C,W
0B734:  MOVLB  3
0B736:  MOVWF  x39
0B738:  MOVF   01,W
0B73A:  ADDWFC 5D,W
0B73C:  MOVWF  x3A
0B73E:  MOVF   x37,W
0B740:  ADDWFC 5E,W
0B742:  MOVWF  x3B
0B744:  MOVF   03,W
0B746:  ADDWFC 5F,W
0B748:  MOVWF  x3C
0B74A:  MOVWF  x5B
0B74C:  MOVFF  33B,35A
0B750:  MOVFF  33A,359
0B754:  MOVFF  339,358
0B758:  MOVLB  0
0B75A:  CALL   359C
....................        
....................       sector_erase_SCF(CAM_ADDRESS + SECT*num);                                  //65536*num 
0B75E:  CLRF   01
0B760:  CLRF   02
0B762:  MOVFF  01,03
0B766:  MOVFF  337,02
0B76A:  CLRF   00
0B76C:  CLRF   01
0B76E:  MOVF   00,W
0B770:  ADDWF  44,W
0B772:  MOVLB  3
0B774:  MOVWF  x39
0B776:  MOVF   01,W
0B778:  ADDWFC 45,W
0B77A:  MOVWF  x3A
0B77C:  MOVF   x37,W
0B77E:  ADDWFC 46,W
0B780:  MOVWF  x3B
0B782:  MOVF   03,W
0B784:  ADDWFC 47,W
0B786:  MOVWF  x3C
0B788:  MOVWF  x5B
0B78A:  MOVFF  33B,35A
0B78E:  MOVFF  33A,359
0B792:  MOVFF  339,358
0B796:  MOVLB  0
0B798:  CALL   363A
....................       sector_erase_SCF(FAB_HK_ADDRESS + SECT*num);                               //65536*num 
0B79C:  CLRF   01
0B79E:  CLRF   02
0B7A0:  MOVFF  01,03
0B7A4:  MOVFF  337,02
0B7A8:  CLRF   00
0B7AA:  CLRF   01
0B7AC:  MOVF   00,W
0B7AE:  ADDWF  48,W
0B7B0:  MOVLB  3
0B7B2:  MOVWF  x39
0B7B4:  MOVF   01,W
0B7B6:  ADDWFC 49,W
0B7B8:  MOVWF  x3A
0B7BA:  MOVF   x37,W
0B7BC:  ADDWFC 4A,W
0B7BE:  MOVWF  x3B
0B7C0:  MOVF   03,W
0B7C2:  ADDWFC 4B,W
0B7C4:  MOVWF  x3C
0B7C6:  MOVWF  x5B
0B7C8:  MOVFF  33B,35A
0B7CC:  MOVFF  33A,359
0B7D0:  MOVFF  339,358
0B7D4:  MOVLB  0
0B7D6:  CALL   363A
....................       sector_erase_SCF(HIGH_SAMP_HK_ADDRESS + SECT*num);                         //65536*num 
0B7DA:  CLRF   01
0B7DC:  CLRF   02
0B7DE:  MOVFF  01,03
0B7E2:  MOVFF  337,02
0B7E6:  CLRF   00
0B7E8:  CLRF   01
0B7EA:  MOVF   00,W
0B7EC:  ADDWF  5C,W
0B7EE:  MOVLB  3
0B7F0:  MOVWF  x39
0B7F2:  MOVF   01,W
0B7F4:  ADDWFC 5D,W
0B7F6:  MOVWF  x3A
0B7F8:  MOVF   x37,W
0B7FA:  ADDWFC 5E,W
0B7FC:  MOVWF  x3B
0B7FE:  MOVF   03,W
0B800:  ADDWFC 5F,W
0B802:  MOVWF  x3C
0B804:  MOVWF  x5B
0B806:  MOVFF  33B,35A
0B80A:  MOVFF  33A,359
0B80E:  MOVFF  339,358
0B812:  MOVLB  0
0B814:  CALL   363A
....................        
....................       sector_erase_SMF(CAM_ADDRESS + SECT*num);                                  //65536*num 
0B818:  CLRF   01
0B81A:  CLRF   02
0B81C:  MOVFF  01,03
0B820:  MOVFF  337,02
0B824:  CLRF   00
0B826:  CLRF   01
0B828:  MOVF   00,W
0B82A:  ADDWF  44,W
0B82C:  MOVLB  3
0B82E:  MOVWF  x39
0B830:  MOVF   01,W
0B832:  ADDWFC 45,W
0B834:  MOVWF  x3A
0B836:  MOVF   x37,W
0B838:  ADDWFC 46,W
0B83A:  MOVWF  x3B
0B83C:  MOVF   03,W
0B83E:  ADDWFC 47,W
0B840:  MOVWF  x3C
0B842:  MOVWF  x5B
0B844:  MOVFF  33B,35A
0B848:  MOVFF  33A,359
0B84C:  MOVFF  339,358
0B850:  MOVLB  0
0B852:  CALL   36D8
....................       sector_erase_SMF(FAB_HK_ADDRESS + SECT*num);                               //65536*num 
0B856:  CLRF   01
0B858:  CLRF   02
0B85A:  MOVFF  01,03
0B85E:  MOVFF  337,02
0B862:  CLRF   00
0B864:  CLRF   01
0B866:  MOVF   00,W
0B868:  ADDWF  48,W
0B86A:  MOVLB  3
0B86C:  MOVWF  x39
0B86E:  MOVF   01,W
0B870:  ADDWFC 49,W
0B872:  MOVWF  x3A
0B874:  MOVF   x37,W
0B876:  ADDWFC 4A,W
0B878:  MOVWF  x3B
0B87A:  MOVF   03,W
0B87C:  ADDWFC 4B,W
0B87E:  MOVWF  x3C
0B880:  MOVWF  x5B
0B882:  MOVFF  33B,35A
0B886:  MOVFF  33A,359
0B88A:  MOVFF  339,358
0B88E:  MOVLB  0
0B890:  CALL   36D8
....................       sector_erase_SMF(HIGH_SAMP_HK_ADDRESS + SECT*num);                         //65536*num 
0B894:  CLRF   01
0B896:  CLRF   02
0B898:  MOVFF  01,03
0B89C:  MOVFF  337,02
0B8A0:  CLRF   00
0B8A2:  CLRF   01
0B8A4:  MOVF   00,W
0B8A6:  ADDWF  5C,W
0B8A8:  MOVLB  3
0B8AA:  MOVWF  x39
0B8AC:  MOVF   01,W
0B8AE:  ADDWFC 5D,W
0B8B0:  MOVWF  x3A
0B8B2:  MOVF   x37,W
0B8B4:  ADDWFC 5E,W
0B8B6:  MOVWF  x3B
0B8B8:  MOVF   03,W
0B8BA:  ADDWFC 5F,W
0B8BC:  MOVWF  x3C
0B8BE:  MOVWF  x5B
0B8C0:  MOVFF  33B,35A
0B8C4:  MOVFF  33A,359
0B8C8:  MOVFF  339,358
0B8CC:  MOVLB  0
0B8CE:  CALL   36D8
0B8D2:  MOVLB  3
0B8D4:  INCF   x37,F
0B8D6:  BRA    B69E
....................    } 
....................    output_high(PIN_C4);                                                          //COM_MUX COMSIDE 
0B8D8:  BCF    F94.4
0B8DA:  BSF    F8B.4
....................    delay_ms(10000); 
0B8DC:  MOVLW  28
0B8DE:  MOVWF  x39
0B8E0:  MOVLW  FA
0B8E2:  MOVWF  x6B
0B8E4:  MOVLB  0
0B8E6:  CALL   1AFC
0B8EA:  MOVLB  3
0B8EC:  DECFSZ x39,F
0B8EE:  BRA    B8E0
....................    fprintf(PC,"FLASH MEMORY ERASE DONE\r\n"); 
0B8F0:  MOVLW  4A
0B8F2:  MOVWF  FF6
0B8F4:  MOVLW  05
0B8F6:  MOVWF  FF7
0B8F8:  MOVLW  00
0B8FA:  MOVWF  FF8
0B8FC:  MOVLB  0
0B8FE:  CALL   318C
....................    for(int t=60; t>0; t--){ 
0B902:  MOVLW  3C
0B904:  MOVLB  3
0B906:  MOVWF  x38
0B908:  MOVF   x38,F
0B90A:  BZ    B964
....................    fprintf(PC,"Remaining time: %d  \r", t); 
0B90C:  MOVLW  64
0B90E:  MOVWF  FF6
0B910:  MOVLW  05
0B912:  MOVWF  FF7
0B914:  MOVLW  00
0B916:  MOVWF  FF8
0B918:  MOVLW  10
0B91A:  MOVWF  x62
0B91C:  MOVLB  0
0B91E:  CALL   17AE
0B922:  MOVFF  338,33E
0B926:  MOVLW  18
0B928:  MOVLB  3
0B92A:  MOVWF  x3F
0B92C:  MOVLB  0
0B92E:  CALL   6A2E
0B932:  MOVLW  76
0B934:  MOVWF  FF6
0B936:  MOVLW  05
0B938:  MOVWF  FF7
0B93A:  MOVLW  00
0B93C:  MOVWF  FF8
0B93E:  MOVLW  03
0B940:  MOVLB  3
0B942:  MOVWF  x62
0B944:  MOVLB  0
0B946:  CALL   17AE
....................    delay_ms(1000); 
0B94A:  MOVLW  04
0B94C:  MOVLB  3
0B94E:  MOVWF  x39
0B950:  MOVLW  FA
0B952:  MOVWF  x6B
0B954:  MOVLB  0
0B956:  CALL   1AFC
0B95A:  MOVLB  3
0B95C:  DECFSZ x39,F
0B95E:  BRA    B950
0B960:  DECF   x38,F
0B962:  BRA    B908
....................    } 
....................    //delay_ms(60000); 
....................    return; 
0B964:  MOVLB  0
0B966:  RETURN 0
.................... } 
.................... /* 
.................... //@@@@@@@@@@@@@@@@@@MISSION LOOP@@@@@@@@@@@@@@@@@@@@@@@@@@@@@@@@@@@@@@@@@@@@@@@ 
.................... void LOOP_FLAG_DATA_ADDRESS() 
.................... { 
....................     
....................    if(FLAG_DATA_ADDRESS > FLAG_DATA_ADDRESS_END) 
....................    { 
....................    } 
....................    return; 
.................... } 
....................  
.................... void LOOP_RSV_DATA_ADDRESS() 
.................... { 
....................    if(RSV_DATA_ADDRESS > RSV_DATA_ADDRESS_END) 
....................    { 
....................        
....................    } 
....................    return; 
.................... } 
.................... */ 
.................... void LOOP_SAT_LOG()                                                              //hace un loop en las posiciones de memoria para almacenar SAT_LOG 
.................... { 
....................    if(SAT_LOG >= SAT_LOG_END)                                                    //si la posicion de escritura de SAT_LOG alcanza a SAT_LOG_END 
*
03A20:  MOVF   43,F
03A22:  BNZ   3A3E
03A24:  MOVF   42,W
03A26:  SUBLW  06
03A28:  BC    3A86
03A2A:  XORLW  FF
03A2C:  BNZ   3A3E
03A2E:  MOVF   41,W
03A30:  SUBLW  FE
03A32:  BC    3A86
03A34:  XORLW  FF
03A36:  BNZ   3A3E
03A38:  MOVF   40,W
03A3A:  SUBLW  E9
03A3C:  BC    3A86
....................    { 
....................       sector_erase_OF(SECT*7);                                                   //borra un sector de la MAIN flash, 65536*7 
03A3E:  MOVLB  3
03A40:  CLRF   x5B
03A42:  MOVLW  07
03A44:  MOVWF  x5A
03A46:  CLRF   x59
03A48:  CLRF   x58
03A4A:  MOVLB  0
03A4C:  RCALL  359C
....................        
....................       output_low(PIN_C4);                                                        //COM_MUX MAINSIDE 
03A4E:  BCF    F94.4
03A50:  BCF    F8B.4
....................       sector_erase_SCF(SECT*7);                                                  //borra un sector de la COM flash,65536*7 
03A52:  MOVLB  3
03A54:  CLRF   x5B
03A56:  MOVLW  07
03A58:  MOVWF  x5A
03A5A:  CLRF   x59
03A5C:  CLRF   x58
03A5E:  MOVLB  0
03A60:  RCALL  363A
....................       output_high(PIN_C4);                                                       //CAM_MUX MAINSIDE 
03A62:  BCF    F94.4
03A64:  BSF    F8B.4
....................        
....................       output_low(PIN_A5);                                                        //CAM_MUX MAINSIDE 
03A66:  BCF    F92.5
03A68:  BCF    F89.5
....................       sector_erase_SMF(SECT*7);                                                  //borra un sector de la MISSION flash,65536*7 
03A6A:  MOVLB  3
03A6C:  CLRF   x5B
03A6E:  MOVLW  07
03A70:  MOVWF  x5A
03A72:  CLRF   x59
03A74:  CLRF   x58
03A76:  MOVLB  0
03A78:  RCALL  36D8
....................       SAT_LOG = SECT*7;                                                          //Cambia la direccion de SAT_LOG y mantiene el primer sector,65536*7 
03A7A:  CLRF   43
03A7C:  MOVLW  07
03A7E:  MOVWF  42
03A80:  CLRF   41
03A82:  CLRF   40
....................       STORE_ADRESS_DATA_TO_FLASH();                                              //guarda los datos de direcciones, sera en un nuevo sector si se cumple el ciclo de R/W 
03A84:  RCALL  3776
....................    } 
....................    //output_high(PIN_C4);//COM_MUX COMSIDE 
....................    return; 
03A86:  GOTO   3A8C (RETURN)
.................... } 
....................  
.................... void LOOP_CAM_ADDRESS()                                                          //hace un loop en las posiciones de memoria para almacenar CAM data 
.................... { 
....................    if(CAM_ADDRESS >= CAM_ADDRESS_END)                                            //si la posicion de escritura de CAM alcanza a CAM_ADDRESS_END 
*
0698C:  MOVF   47,F
0698E:  BNZ   6996
06990:  MOVF   46,W
06992:  SUBLW  5F
06994:  BC    69E6
....................    { 
....................       sector_erase_OF(SECT*9);                                                   //borra 1 sector de la MAIN flash, 65536*9 
06996:  MOVLB  3
06998:  CLRF   x5B
0699A:  MOVLW  09
0699C:  MOVWF  x5A
0699E:  CLRF   x59
069A0:  CLRF   x58
069A2:  MOVLB  0
069A4:  CALL   359C
....................        
....................       output_low(PIN_C4);                                                        //COM_MUX MAINSIDE 
069A8:  BCF    F94.4
069AA:  BCF    F8B.4
....................       sector_erase_SCF(SECT*9);                                                  //borra 1 sector de la COM flash, 65536*9 
069AC:  MOVLB  3
069AE:  CLRF   x5B
069B0:  MOVLW  09
069B2:  MOVWF  x5A
069B4:  CLRF   x59
069B6:  CLRF   x58
069B8:  MOVLB  0
069BA:  CALL   363A
....................       output_high(PIN_C4);                                                       //COM_MUX COMSIDE 
069BE:  BCF    F94.4
069C0:  BSF    F8B.4
....................        
....................       output_low(PIN_A5);                                                        //CAM_MUX MAINSIDE 
069C2:  BCF    F92.5
069C4:  BCF    F89.5
....................       sector_erase_SMF(SECT*9);                                                  //borra 1 sector de la MISSION flash, 65536*9 
069C6:  MOVLB  3
069C8:  CLRF   x5B
069CA:  MOVLW  09
069CC:  MOVWF  x5A
069CE:  CLRF   x59
069D0:  CLRF   x58
069D2:  MOVLB  0
069D4:  CALL   36D8
....................        
....................       CAM_ADDRESS = SECT*9;                                                      //CAM address se ubica ahora en el comienzo del espacio designado a CAM 
069D8:  CLRF   47
069DA:  MOVLW  09
069DC:  MOVWF  46
069DE:  CLRF   45
069E0:  CLRF   44
....................       STORE_ADRESS_DATA_TO_FLASH(); 
069E2:  CALL   3776
....................    } 
....................    return; 
069E6:  RETURN 0
.................... } 
....................  
.................... void LOOP_FAB_HK_ADDRESS()                                                       //Rota las posiciones de guardado de los datos si llega al final del espacio asignado                                                        
*
03C70:  MOVF   48,F
03C72:  BNZ   3C84
03C74:  MOVF   49,F
03C76:  BNZ   3C84
03C78:  MOVF   4A,F
03C7A:  BNZ   3C84
03C7C:  MOVF   4B,F
03C7E:  BNZ   3C84
03C80:  MOVLW  00
03C82:  BRA    3C86
03C84:  MOVLW  01
03C86:  MOVLB  3
03C88:  CLRF   x31
03C8A:  CLRF   x30
03C8C:  CLRF   x2F
03C8E:  MOVWF  x2E
.................... { 
....................    int32 checksum = FAB_HK_ADDRESS && 0x0000ffff; 
....................    if(FAB_HK_ADDRESS >= FAB_HK_ADDRESS_END)                                       
03C90:  MOVF   4B,W
03C92:  SUBLW  03
03C94:  BC    3CFE
03C96:  XORLW  FF
03C98:  BNZ   3CB4
03C9A:  MOVF   4A,W
03C9C:  SUBLW  47
03C9E:  BC    3CFE
03CA0:  XORLW  FF
03CA2:  BNZ   3CB4
03CA4:  MOVF   49,W
03CA6:  SUBLW  FE
03CA8:  BC    3CFE
03CAA:  XORLW  FF
03CAC:  BNZ   3CB4
03CAE:  MOVF   48,W
03CB0:  SUBLW  07
03CB2:  BC    3CFE
....................    { 
....................       sector_erase_OF(SECT*98); 
03CB4:  CLRF   x5B
03CB6:  MOVLW  62
03CB8:  MOVWF  x5A
03CBA:  CLRF   x59
03CBC:  CLRF   x58
03CBE:  MOVLB  0
03CC0:  RCALL  359C
....................        
....................       output_low(PIN_C4);                                                        //COM_MUX MAINSIDE 
03CC2:  BCF    F94.4
03CC4:  BCF    F8B.4
....................       sector_erase_SCF(SECT*98); 
03CC6:  MOVLB  3
03CC8:  CLRF   x5B
03CCA:  MOVLW  62
03CCC:  MOVWF  x5A
03CCE:  CLRF   x59
03CD0:  CLRF   x58
03CD2:  MOVLB  0
03CD4:  RCALL  363A
....................       output_high(PIN_C4);                                                       //COM_MUX COMSIDE 
03CD6:  BCF    F94.4
03CD8:  BSF    F8B.4
....................        
....................       output_low(PIN_A5);                                                        //CAM_MUX MAINSIDE 
03CDA:  BCF    F92.5
03CDC:  BCF    F89.5
....................       sector_erase_SMF(SECT*98); 
03CDE:  MOVLB  3
03CE0:  CLRF   x5B
03CE2:  MOVLW  62
03CE4:  MOVWF  x5A
03CE6:  CLRF   x59
03CE8:  CLRF   x58
03CEA:  MOVLB  0
03CEC:  RCALL  36D8
....................        
....................       FAB_HK_ADDRESS = 65536*8;                                                  //la nueva direccion vuelve a ser el comienzo del espacio asignado 
03CEE:  CLRF   4B
03CF0:  MOVLW  08
03CF2:  MOVWF  4A
03CF4:  CLRF   49
03CF6:  CLRF   48
....................       STORE_ADRESS_DATA_TO_FLASH();                                              //guarda los datos de direcciones y en un nuevo sector si se cumple el ciclo de R/W 
03CF8:  RCALL  3776
....................    }else if(65536 - checksum < 119){                                             //if value will be close to the sector 
03CFA:  BRA    3DC0
03CFC:  MOVLB  3
03CFE:  MOVLW  00
03D00:  BSF    FD8.0
03D02:  SUBFWB x2E,W
03D04:  MOVWF  x32
03D06:  MOVLW  00
03D08:  SUBFWB x2F,W
03D0A:  MOVWF  x33
03D0C:  MOVLW  01
03D0E:  SUBFWB x30,W
03D10:  MOVWF  x34
03D12:  MOVLW  00
03D14:  SUBFWB x31,W
03D16:  MOVWF  x35
03D18:  MOVF   x35,F
03D1A:  BNZ   3DC2
03D1C:  MOVF   x34,F
03D1E:  BNZ   3DC2
03D20:  MOVF   x33,F
03D22:  BNZ   3DC2
03D24:  MOVF   x32,W
03D26:  SUBLW  76
03D28:  BNC   3DC2
....................       fprintf(PC,"erasing next sector\r\n"); 
03D2A:  MOVLW  7A
03D2C:  MOVWF  FF6
03D2E:  MOVLW  05
03D30:  MOVWF  FF7
03D32:  MOVLW  00
03D34:  MOVWF  FF8
03D36:  MOVLB  0
03D38:  CALL   318C
....................        
....................       sector_erase_OF(FAB_HK_ADDRESS + SECT);                                    //erase next sector in advance 
03D3C:  MOVFF  48,332
03D40:  MOVLB  3
03D42:  MOVFF  49,333
03D46:  MOVLW  01
03D48:  ADDWF  4A,W
03D4A:  MOVWF  x34
03D4C:  MOVLW  00
03D4E:  ADDWFC 4B,W
03D50:  MOVWF  x35
03D52:  MOVWF  x5B
03D54:  MOVFF  334,35A
03D58:  MOVFF  49,359
03D5C:  MOVFF  48,358
03D60:  MOVLB  0
03D62:  RCALL  359C
....................        
....................       output_low(PIN_C4);                                                        //COM_MUX MAINSIDE 
03D64:  BCF    F94.4
03D66:  BCF    F8B.4
....................       sector_erase_SCF(FAB_HK_ADDRESS + SECT); 
03D68:  MOVFF  48,332
03D6C:  MOVLB  3
03D6E:  MOVFF  49,333
03D72:  MOVLW  01
03D74:  ADDWF  4A,W
03D76:  MOVWF  x34
03D78:  MOVLW  00
03D7A:  ADDWFC 4B,W
03D7C:  MOVWF  x35
03D7E:  MOVWF  x5B
03D80:  MOVFF  334,35A
03D84:  MOVFF  49,359
03D88:  MOVFF  48,358
03D8C:  MOVLB  0
03D8E:  RCALL  363A
....................       output_high(PIN_C4);                                                       //COM_MUX COMSIDE 
03D90:  BCF    F94.4
03D92:  BSF    F8B.4
....................        
....................       output_low(PIN_A5);                                                        //CAM_MUX MAINSIDE 
03D94:  BCF    F92.5
03D96:  BCF    F89.5
....................       sector_erase_SMF(FAB_HK_ADDRESS + SECT); 
03D98:  MOVFF  48,332
03D9C:  MOVLB  3
03D9E:  MOVFF  49,333
03DA2:  MOVLW  01
03DA4:  ADDWF  4A,W
03DA6:  MOVWF  x34
03DA8:  MOVLW  00
03DAA:  ADDWFC 4B,W
03DAC:  MOVWF  x35
03DAE:  MOVWF  x5B
03DB0:  MOVFF  334,35A
03DB4:  MOVFF  49,359
03DB8:  MOVFF  48,358
03DBC:  MOVLB  0
03DBE:  RCALL  36D8
03DC0:  MOVLB  3
....................    } 
....................    return; 
03DC2:  MOVLB  0
03DC4:  RETURN 0
.................... } 
....................  
.................... void LOOP_FAB_CW_ADDRESS()                                                       //Rota las posiciones de guardado de los datos si llega al final del espacio asignado  
03DC6:  MOVF   4C,F
03DC8:  BNZ   3DDA
03DCA:  MOVF   4D,F
03DCC:  BNZ   3DDA
03DCE:  MOVF   4E,F
03DD0:  BNZ   3DDA
03DD2:  MOVF   4F,F
03DD4:  BNZ   3DDA
03DD6:  MOVLW  00
03DD8:  BRA    3DDC
03DDA:  MOVLW  01
03DDC:  MOVLB  3
03DDE:  CLRF   x31
03DE0:  CLRF   x30
03DE2:  CLRF   x2F
03DE4:  MOVWF  x2E
.................... { 
....................    int32 checksum = FAB_CW_ADDRESS && 0x0000ffff; 
....................    if(FAB_CW_ADDRESS >= FAB_CW_ADDRESS_END) 
03DE6:  MOVF   4F,W
03DE8:  SUBLW  03
03DEA:  BC    3E5E
03DEC:  XORLW  FF
03DEE:  BNZ   3E0A
03DF0:  MOVF   4E,W
03DF2:  SUBLW  70
03DF4:  BC    3E5E
03DF6:  XORLW  FF
03DF8:  BNZ   3E0A
03DFA:  MOVF   4D,W
03DFC:  SUBLW  FE
03DFE:  BC    3E5E
03E00:  XORLW  FF
03E02:  BNZ   3E0A
03E04:  MOVF   4C,W
03E06:  SUBLW  F5
03E08:  BC    3E5E
....................    {   
....................       sector_erase_OF(SECT*1098); 
03E0A:  MOVLW  04
03E0C:  MOVWF  x5B
03E0E:  MOVLW  4A
03E10:  MOVWF  x5A
03E12:  CLRF   x59
03E14:  CLRF   x58
03E16:  MOVLB  0
03E18:  CALL   359C
....................        
....................       output_low(PIN_C4);                                                        //COM_MUX MAINSIDE 
03E1C:  BCF    F94.4
03E1E:  BCF    F8B.4
....................       sector_erase_SCF(SECT*1098); 
03E20:  MOVLW  04
03E22:  MOVLB  3
03E24:  MOVWF  x5B
03E26:  MOVLW  4A
03E28:  MOVWF  x5A
03E2A:  CLRF   x59
03E2C:  CLRF   x58
03E2E:  MOVLB  0
03E30:  RCALL  363A
....................       output_high(PIN_C4);                                                       //COM_MUX COMSIDE 
03E32:  BCF    F94.4
03E34:  BSF    F8B.4
....................        
....................       output_low(PIN_A5);                                                        //CAM_MUX MAINSIDE 
03E36:  BCF    F92.5
03E38:  BCF    F89.5
....................       sector_erase_SMF(SECT*1098); 
03E3A:  MOVLW  04
03E3C:  MOVLB  3
03E3E:  MOVWF  x5B
03E40:  MOVLW  4A
03E42:  MOVWF  x5A
03E44:  CLRF   x59
03E46:  CLRF   x58
03E48:  MOVLB  0
03E4A:  RCALL  36D8
....................        
....................       FAB_CW_ADDRESS = SECT*1098; 
03E4C:  MOVLW  04
03E4E:  MOVWF  4F
03E50:  MOVLW  4A
03E52:  MOVWF  4E
03E54:  CLRF   4D
03E56:  CLRF   4C
....................       STORE_ADRESS_DATA_TO_FLASH(); 
03E58:  RCALL  3776
....................    }else if(SECT - checksum < 5){                                                //if value will be close to the sector 
03E5A:  BRA    3F26
03E5C:  MOVLB  3
03E5E:  MOVLW  00
03E60:  BSF    FD8.0
03E62:  SUBFWB x2E,W
03E64:  MOVWF  x32
03E66:  MOVLW  00
03E68:  SUBFWB x2F,W
03E6A:  MOVWF  x33
03E6C:  MOVLW  01
03E6E:  SUBFWB x30,W
03E70:  MOVWF  x34
03E72:  MOVLW  00
03E74:  SUBFWB x31,W
03E76:  MOVWF  x35
03E78:  MOVF   x35,F
03E7A:  BNZ   3F28
03E7C:  MOVF   x34,F
03E7E:  BNZ   3F28
03E80:  MOVF   x33,F
03E82:  BNZ   3F28
03E84:  MOVF   x32,W
03E86:  SUBLW  04
03E88:  BNC   3F28
....................       fprintf(PC,"erasing next sector\r\n"); 
03E8A:  MOVLW  90
03E8C:  MOVWF  FF6
03E8E:  MOVLW  05
03E90:  MOVWF  FF7
03E92:  MOVLW  00
03E94:  MOVWF  FF8
03E96:  MOVLB  0
03E98:  CALL   318C
....................        
....................       sector_erase_OF(FAB_CW_ADDRESS + SECT);                                    //erase next sector in advance 
03E9C:  MOVFF  4C,332
03EA0:  MOVLB  3
03EA2:  MOVFF  4D,333
03EA6:  MOVLW  01
03EA8:  ADDWF  4E,W
03EAA:  MOVWF  x34
03EAC:  MOVLW  00
03EAE:  ADDWFC 4F,W
03EB0:  MOVWF  x35
03EB2:  MOVWF  x5B
03EB4:  MOVFF  334,35A
03EB8:  MOVFF  4D,359
03EBC:  MOVFF  4C,358
03EC0:  MOVLB  0
03EC2:  CALL   359C
....................        
....................       output_low(PIN_C4);                                                        //COM_MUX MAINSIDE 
03EC6:  BCF    F94.4
03EC8:  BCF    F8B.4
....................       sector_erase_SCF(FAB_CW_ADDRESS + SECT);                                   //erase next sector in advance 
03ECA:  MOVFF  4C,332
03ECE:  MOVLB  3
03ED0:  MOVFF  4D,333
03ED4:  MOVLW  01
03ED6:  ADDWF  4E,W
03ED8:  MOVWF  x34
03EDA:  MOVLW  00
03EDC:  ADDWFC 4F,W
03EDE:  MOVWF  x35
03EE0:  MOVWF  x5B
03EE2:  MOVFF  334,35A
03EE6:  MOVFF  4D,359
03EEA:  MOVFF  4C,358
03EEE:  MOVLB  0
03EF0:  CALL   363A
....................       output_high(PIN_C4);                                                       //COM_MUX COMSIDE 
03EF4:  BCF    F94.4
03EF6:  BSF    F8B.4
....................        
....................       output_low(PIN_A5);                                                        //CAM_MUX MAINSIDE 
03EF8:  BCF    F92.5
03EFA:  BCF    F89.5
....................       sector_erase_SMF(FAB_CW_ADDRESS + SECT);                                   //erase next sector in advance 
03EFC:  MOVFF  4C,332
03F00:  MOVLB  3
03F02:  MOVFF  4D,333
03F06:  MOVLW  01
03F08:  ADDWF  4E,W
03F0A:  MOVWF  x34
03F0C:  MOVLW  00
03F0E:  ADDWFC 4F,W
03F10:  MOVWF  x35
03F12:  MOVWF  x5B
03F14:  MOVFF  334,35A
03F18:  MOVFF  4D,359
03F1C:  MOVFF  4C,358
03F20:  MOVLB  0
03F22:  CALL   36D8
03F26:  MOVLB  3
....................        
....................    } 
....................    return; 
03F28:  MOVLB  0
03F2A:  RETURN 0
.................... } 
....................  
....................  
.................... void LOOP_ADCS_SENSOR_ADDRESS() 
.................... { 
....................    if(ADCS_SENSOR_ADDRESS >= ADCS_SENSOR_ADDRESS_END)                            //for 15min operation, data size will be more than 1sector 
*
0A0BE:  MOVF   53,W
0A0C0:  SUBLW  05
0A0C2:  BC    A13C
0A0C4:  XORLW  FF
0A0C6:  BNZ   A0E2
0A0C8:  MOVF   52,W
0A0CA:  SUBLW  5E
0A0CC:  BC    A13C
0A0CE:  XORLW  FF
0A0D0:  BNZ   A0E2
0A0D2:  MOVF   51,W
0A0D4:  SUBLW  C5
0A0D6:  BC    A13C
0A0D8:  XORLW  FF
0A0DA:  BNZ   A0E2
0A0DC:  MOVF   50,W
0A0DE:  SUBLW  3F
0A0E0:  BC    A13C
....................    { 
....................       sector_erase_OF(SECT*1140); 
0A0E2:  MOVLW  04
0A0E4:  MOVLB  3
0A0E6:  MOVWF  x5B
0A0E8:  MOVLW  74
0A0EA:  MOVWF  x5A
0A0EC:  CLRF   x59
0A0EE:  CLRF   x58
0A0F0:  MOVLB  0
0A0F2:  CALL   359C
....................        
....................       output_low(PIN_C4);                                                        //COM_MUX MAINSIDE 
0A0F6:  BCF    F94.4
0A0F8:  BCF    F8B.4
....................       sector_erase_SCF(SECT*1140); 
0A0FA:  MOVLW  04
0A0FC:  MOVLB  3
0A0FE:  MOVWF  x5B
0A100:  MOVLW  74
0A102:  MOVWF  x5A
0A104:  CLRF   x59
0A106:  CLRF   x58
0A108:  MOVLB  0
0A10A:  CALL   363A
....................       output_high(PIN_C4);                                                       //COM_MUX COMSIDE 
0A10E:  BCF    F94.4
0A110:  BSF    F8B.4
....................        
....................       output_low(PIN_A5);                                                        //CAM_MUX MAINSIDE 
0A112:  BCF    F92.5
0A114:  BCF    F89.5
....................       sector_erase_SMF(SECT*1140); 
0A116:  MOVLW  04
0A118:  MOVLB  3
0A11A:  MOVWF  x5B
0A11C:  MOVLW  74
0A11E:  MOVWF  x5A
0A120:  CLRF   x59
0A122:  CLRF   x58
0A124:  MOVLB  0
0A126:  CALL   36D8
....................        
....................       ADCS_SENSOR_ADDRESS = SECT*1140;                                           //keep first 2 sector forever 
0A12A:  MOVLW  04
0A12C:  MOVWF  53
0A12E:  MOVLW  74
0A130:  MOVWF  52
0A132:  CLRF   51
0A134:  CLRF   50
....................       STORE_ADRESS_DATA_TO_FLASH(); 
0A136:  CALL   3776
....................    }else{                                                                        //if value will be close to the sector 
0A13A:  BRA    A23E
....................       fprintf(PC,"erasing next sector\r\n"); 
0A13C:  MOVLW  A6
0A13E:  MOVWF  FF6
0A140:  MOVLW  05
0A142:  MOVWF  FF7
0A144:  MOVLW  00
0A146:  MOVWF  FF8
0A148:  CALL   318C
....................        
....................       int i; 
....................       for(i = 1; i < 10; i++) 
0A14C:  MOVLW  01
0A14E:  MOVLB  3
0A150:  MOVWF  x3D
0A152:  MOVF   x3D,W
0A154:  SUBLW  09
0A156:  BNC   A19A
....................       { 
....................          sector_erase_OF(ADCS_SENSOR_ADDRESS + SECT*i);                          //erase next sector in advance 
0A158:  CLRF   01
0A15A:  CLRF   02
0A15C:  MOVFF  01,03
0A160:  MOVFF  33D,02
0A164:  CLRF   00
0A166:  CLRF   01
0A168:  MOVF   00,W
0A16A:  ADDWF  50,W
0A16C:  MOVWF  x3E
0A16E:  MOVF   01,W
0A170:  ADDWFC 51,W
0A172:  MOVWF  x3F
0A174:  MOVF   x3D,W
0A176:  ADDWFC 52,W
0A178:  MOVWF  x40
0A17A:  MOVF   03,W
0A17C:  ADDWFC 53,W
0A17E:  MOVWF  x41
0A180:  MOVWF  x5B
0A182:  MOVFF  340,35A
0A186:  MOVFF  33F,359
0A18A:  MOVFF  33E,358
0A18E:  MOVLB  0
0A190:  CALL   359C
0A194:  MOVLB  3
0A196:  INCF   x3D,F
0A198:  BRA    A152
....................       } 
....................        
....................       output_low(PIN_C4);                                                        //COM_MUX MAINSIDE 
0A19A:  BCF    F94.4
0A19C:  BCF    F8B.4
....................       for(i = 1; i < 10; i++) 
0A19E:  MOVLW  01
0A1A0:  MOVWF  x3D
0A1A2:  MOVF   x3D,W
0A1A4:  SUBLW  09
0A1A6:  BNC   A1EA
....................       { 
....................          sector_erase_SCF(ADCS_SENSOR_ADDRESS + SECT*i);                         //erase next sector in advance 
0A1A8:  CLRF   01
0A1AA:  CLRF   02
0A1AC:  MOVFF  01,03
0A1B0:  MOVFF  33D,02
0A1B4:  CLRF   00
0A1B6:  CLRF   01
0A1B8:  MOVF   00,W
0A1BA:  ADDWF  50,W
0A1BC:  MOVWF  x3E
0A1BE:  MOVF   01,W
0A1C0:  ADDWFC 51,W
0A1C2:  MOVWF  x3F
0A1C4:  MOVF   x3D,W
0A1C6:  ADDWFC 52,W
0A1C8:  MOVWF  x40
0A1CA:  MOVF   03,W
0A1CC:  ADDWFC 53,W
0A1CE:  MOVWF  x41
0A1D0:  MOVWF  x5B
0A1D2:  MOVFF  340,35A
0A1D6:  MOVFF  33F,359
0A1DA:  MOVFF  33E,358
0A1DE:  MOVLB  0
0A1E0:  CALL   363A
0A1E4:  MOVLB  3
0A1E6:  INCF   x3D,F
0A1E8:  BRA    A1A2
....................       } 
....................       output_high(PIN_C4);                                                       //COM_MUX COMSIDE 
0A1EA:  BCF    F94.4
0A1EC:  BSF    F8B.4
....................        
....................       output_low(PIN_A5);                                                        //CAM_MUX MAINSIDE 
0A1EE:  BCF    F92.5
0A1F0:  BCF    F89.5
....................       for(i = 1; i < 10; i++) 
0A1F2:  MOVLW  01
0A1F4:  MOVWF  x3D
0A1F6:  MOVF   x3D,W
0A1F8:  SUBLW  09
0A1FA:  BNC   A23E
....................       { 
....................          sector_erase_SMF(ADCS_SENSOR_ADDRESS + SECT*i);                         //erase next sector in advance 
0A1FC:  CLRF   01
0A1FE:  CLRF   02
0A200:  MOVFF  01,03
0A204:  MOVFF  33D,02
0A208:  CLRF   00
0A20A:  CLRF   01
0A20C:  MOVF   00,W
0A20E:  ADDWF  50,W
0A210:  MOVWF  x3E
0A212:  MOVF   01,W
0A214:  ADDWFC 51,W
0A216:  MOVWF  x3F
0A218:  MOVF   x3D,W
0A21A:  ADDWFC 52,W
0A21C:  MOVWF  x40
0A21E:  MOVF   03,W
0A220:  ADDWFC 53,W
0A222:  MOVWF  x41
0A224:  MOVWF  x5B
0A226:  MOVFF  340,35A
0A22A:  MOVFF  33F,359
0A22E:  MOVFF  33E,358
0A232:  MOVLB  0
0A234:  CALL   36D8
0A238:  MOVLB  3
0A23A:  INCF   x3D,F
0A23C:  BRA    A1F6
0A23E:  MOVLB  0
....................       } 
....................    } 
....................    return; 
0A240:  GOTO   A2D0 (RETURN)
.................... } 
....................  
.................... void LOOP_DC_STATUS_ADDRESS() 
.................... { 
....................    int32 checksum = DC_STATUS_ADDRESS && 0x00000fff; 
....................    if(DC_STATUS_ADDRESS >= DC_STATUS_ADDRESS_END) 
....................    { 
....................       SUBSECTOR_4KB_ERASE_OF(SECT*1639+4096); 
....................        
....................       output_low(PIN_C4);                                                        //COM_MUX MAINSIDE 
....................       SUBSECTOR_4KB_ERASE_SCF(SECT*16394096); 
....................       output_high(PIN_C4);                                                       //COM_MUX COMSIDE 
....................        
....................       output_low(PIN_A5);                                                        //CAM_MUX MAINSIDE 
....................       SUBSECTOR_4KB_ERASE_SMF(SECT*1639+4096); 
....................        
....................       DC_STATUS_ADDRESS = SECT*1639+4096;                                        //keep first 1 SUBSECTOR forever 
....................       STORE_ADRESS_DATA_TO_FLASH(); 
....................    }else if(4096 - checksum < 800){                                              //if value will be close to the sector 
....................       fprintf(PC,"erasing next sector\r\n"); 
....................        
....................       SUBSECTOR_4KB_ERASE_OF(DC_STATUS_ADDRESS + 4096);                          //erase next SUBSECTOR in advance 
....................        
....................       output_low(PIN_C4);                                                        //COM_MUX MAINSIDE 
....................       SUBSECTOR_4KB_ERASE_SCF(DC_STATUS_ADDRESS + 4096);                         //erase next SUBSECTOR in advance 
....................       output_high(PIN_C4);                                                       //COM_MUX COMSIDE 
....................        
....................       output_low(PIN_A5);                                                        //CAM_MUX MAINSIDE 
....................       SUBSECTOR_4KB_ERASE_SMF(DC_STATUS_ADDRESS + 4096);                         //erase next SUBSECTOR in advance 
....................    } 
....................    return; 
.................... } 
....................  
.................... void LOOP_HIGH_SAMP_HK_ADDRESS() 
.................... { 
....................    if(HIGH_SAMP_HK_ADDRESS >= HIGH_SAMP_HK_ADDRESS_END)                          //for 15min operation, data size will be more than 2sector 
*
06EEE:  MOVF   5F,W
06EF0:  SUBLW  06
06EF2:  BC    6F68
06EF4:  XORLW  FF
06EF6:  BNZ   6F12
06EF8:  MOVF   5E,W
06EFA:  SUBLW  FB
06EFC:  BC    6F68
06EFE:  XORLW  FF
06F00:  BNZ   6F12
06F02:  MOVF   5D,W
06F04:  SUBLW  45
06F06:  BC    6F68
06F08:  XORLW  FF
06F0A:  BNZ   6F12
06F0C:  MOVF   5C,W
06F0E:  SUBLW  7F
06F10:  BC    6F68
....................    { 
....................       sector_erase_OF(SECT*1642);                                                //delet from 066A0000 (keep first 3 sectors) 
06F12:  MOVLW  06
06F14:  MOVLB  3
06F16:  MOVWF  x5B
06F18:  MOVLW  6A
06F1A:  MOVWF  x5A
06F1C:  CLRF   x59
06F1E:  CLRF   x58
06F20:  MOVLB  0
06F22:  CALL   359C
....................        
....................       output_low(PIN_C4);                                                        //COM_MUX MAINSIDE 
06F26:  BCF    F94.4
06F28:  BCF    F8B.4
....................       sector_erase_SCF(SECT*1642); 
06F2A:  MOVLW  06
06F2C:  MOVLB  3
06F2E:  MOVWF  x5B
06F30:  MOVLW  6A
06F32:  MOVWF  x5A
06F34:  CLRF   x59
06F36:  CLRF   x58
06F38:  MOVLB  0
06F3A:  CALL   363A
....................       output_high(PIN_C4);                                                       //COM_MUX COMSIDE 
06F3E:  BCF    F94.4
06F40:  BSF    F8B.4
....................        
....................       output_low(PIN_A5);                                                        //CAM_MUX MAINSIDE 
06F42:  BCF    F92.5
06F44:  BCF    F89.5
....................       sector_erase_SMF(SECT*1642); 
06F46:  MOVLW  06
06F48:  MOVLB  3
06F4A:  MOVWF  x5B
06F4C:  MOVLW  6A
06F4E:  MOVWF  x5A
06F50:  CLRF   x59
06F52:  CLRF   x58
06F54:  MOVLB  0
06F56:  CALL   36D8
....................        
....................       HIGH_SAMP_HK_ADDRESS = SECT*1642;                                          //keep first 3 sector forever 
06F5A:  MOVLW  06
06F5C:  MOVWF  5F
06F5E:  MOVLW  6A
06F60:  MOVWF  5E
06F62:  CLRF   5D
06F64:  CLRF   5C
....................    }else{                                                                        //if value will be close to the sector 
06F66:  BRA    70FE
....................       fprintf(PC,"erasing next sector\r\n"); 
06F68:  MOVLW  D2
06F6A:  MOVWF  FF6
06F6C:  MOVLW  05
06F6E:  MOVWF  FF7
06F70:  MOVLW  00
06F72:  MOVWF  FF8
06F74:  CALL   318C
....................        
....................       sector_erase_OF(HIGH_SAMP_HK_ADDRESS + SECT);                              //erase next sector in advance 
06F78:  MOVFF  5C,33D
06F7C:  MOVLB  3
06F7E:  MOVFF  5D,33E
06F82:  MOVLW  01
06F84:  ADDWF  5E,W
06F86:  MOVWF  x3F
06F88:  MOVLW  00
06F8A:  ADDWFC 5F,W
06F8C:  MOVWF  x40
06F8E:  MOVWF  x5B
06F90:  MOVFF  33F,35A
06F94:  MOVFF  5D,359
06F98:  MOVFF  5C,358
06F9C:  MOVLB  0
06F9E:  CALL   359C
....................       sector_erase_OF(HIGH_SAMP_HK_ADDRESS + SECT*2);                            //erase next sector in advance 
06FA2:  MOVFF  5C,33D
06FA6:  MOVLB  3
06FA8:  MOVFF  5D,33E
06FAC:  MOVLW  02
06FAE:  ADDWF  5E,W
06FB0:  MOVWF  x3F
06FB2:  MOVLW  00
06FB4:  ADDWFC 5F,W
06FB6:  MOVWF  x40
06FB8:  MOVWF  x5B
06FBA:  MOVFF  33F,35A
06FBE:  MOVFF  5D,359
06FC2:  MOVFF  5C,358
06FC6:  MOVLB  0
06FC8:  CALL   359C
....................       sector_erase_OF(HIGH_SAMP_HK_ADDRESS + SECT*3);                            //erase next sector in advance 
06FCC:  MOVFF  5C,33D
06FD0:  MOVLB  3
06FD2:  MOVFF  5D,33E
06FD6:  MOVLW  03
06FD8:  ADDWF  5E,W
06FDA:  MOVWF  x3F
06FDC:  MOVLW  00
06FDE:  ADDWFC 5F,W
06FE0:  MOVWF  x40
06FE2:  MOVWF  x5B
06FE4:  MOVFF  33F,35A
06FE8:  MOVFF  5D,359
06FEC:  MOVFF  5C,358
06FF0:  MOVLB  0
06FF2:  CALL   359C
....................        
....................       output_low(PIN_C4);                                                        //COM_MUX MAINSIDE 
06FF6:  BCF    F94.4
06FF8:  BCF    F8B.4
....................       sector_erase_SCF(HIGH_SAMP_HK_ADDRESS + SECT);                             //erase next sector in advance 
06FFA:  MOVFF  5C,33D
06FFE:  MOVLB  3
07000:  MOVFF  5D,33E
07004:  MOVLW  01
07006:  ADDWF  5E,W
07008:  MOVWF  x3F
0700A:  MOVLW  00
0700C:  ADDWFC 5F,W
0700E:  MOVWF  x40
07010:  MOVWF  x5B
07012:  MOVFF  33F,35A
07016:  MOVFF  5D,359
0701A:  MOVFF  5C,358
0701E:  MOVLB  0
07020:  CALL   363A
....................       sector_erase_SCF(HIGH_SAMP_HK_ADDRESS + SECT*2);                           //erase next sector in advance 
07024:  MOVFF  5C,33D
07028:  MOVLB  3
0702A:  MOVFF  5D,33E
0702E:  MOVLW  02
07030:  ADDWF  5E,W
07032:  MOVWF  x3F
07034:  MOVLW  00
07036:  ADDWFC 5F,W
07038:  MOVWF  x40
0703A:  MOVWF  x5B
0703C:  MOVFF  33F,35A
07040:  MOVFF  5D,359
07044:  MOVFF  5C,358
07048:  MOVLB  0
0704A:  CALL   363A
....................       sector_erase_SCF(HIGH_SAMP_HK_ADDRESS + SECT*3);                           //erase next sector in advance 
0704E:  MOVFF  5C,33D
07052:  MOVLB  3
07054:  MOVFF  5D,33E
07058:  MOVLW  03
0705A:  ADDWF  5E,W
0705C:  MOVWF  x3F
0705E:  MOVLW  00
07060:  ADDWFC 5F,W
07062:  MOVWF  x40
07064:  MOVWF  x5B
07066:  MOVFF  33F,35A
0706A:  MOVFF  5D,359
0706E:  MOVFF  5C,358
07072:  MOVLB  0
07074:  CALL   363A
....................       output_high(PIN_C4);                                                       //COM_MUX COMSIDE 
07078:  BCF    F94.4
0707A:  BSF    F8B.4
....................        
....................       output_low(PIN_A5);                                                        //CAM_MUX MAINSIDE 
0707C:  BCF    F92.5
0707E:  BCF    F89.5
....................       sector_erase_SMF(HIGH_SAMP_HK_ADDRESS + SECT);                             //erase next sector in advance 
07080:  MOVFF  5C,33D
07084:  MOVLB  3
07086:  MOVFF  5D,33E
0708A:  MOVLW  01
0708C:  ADDWF  5E,W
0708E:  MOVWF  x3F
07090:  MOVLW  00
07092:  ADDWFC 5F,W
07094:  MOVWF  x40
07096:  MOVWF  x5B
07098:  MOVFF  33F,35A
0709C:  MOVFF  5D,359
070A0:  MOVFF  5C,358
070A4:  MOVLB  0
070A6:  CALL   36D8
....................       sector_erase_SMF(HIGH_SAMP_HK_ADDRESS + SECT*2);                           //erase next sector in advance 
070AA:  MOVFF  5C,33D
070AE:  MOVLB  3
070B0:  MOVFF  5D,33E
070B4:  MOVLW  02
070B6:  ADDWF  5E,W
070B8:  MOVWF  x3F
070BA:  MOVLW  00
070BC:  ADDWFC 5F,W
070BE:  MOVWF  x40
070C0:  MOVWF  x5B
070C2:  MOVFF  33F,35A
070C6:  MOVFF  5D,359
070CA:  MOVFF  5C,358
070CE:  MOVLB  0
070D0:  CALL   36D8
....................       sector_erase_SMF(HIGH_SAMP_HK_ADDRESS + SECT*3);                           //erase next sector in advance 
070D4:  MOVFF  5C,33D
070D8:  MOVLB  3
070DA:  MOVFF  5D,33E
070DE:  MOVLW  03
070E0:  ADDWF  5E,W
070E2:  MOVWF  x3F
070E4:  MOVLW  00
070E6:  ADDWFC 5F,W
070E8:  MOVWF  x40
070EA:  MOVWF  x5B
070EC:  MOVFF  33F,35A
070F0:  MOVFF  5D,359
070F4:  MOVFF  5C,358
070F8:  MOVLB  0
070FA:  CALL   36D8
....................    } 
....................    return; 
070FE:  GOTO   7C56 (RETURN)
.................... } 
....................  
....................  
....................  
.................... #include<reserve_function.c> 
....................  
....................  
.................... #define table_size 80 
.................... unsigned int8 reserve_table[table_size+1] = {}; 
.................... unsigned int8 table_num = 0; 
....................  
.................... void initialize_table()                                                          //Funcion que inicializa una tabla 
.................... {                                                                                //completa todas las posiciones con 0xff 
....................    for(int num = 0; num < table_size; num++) 
*
034B6:  MOVLB  3
034B8:  CLRF   x39
034BA:  MOVF   x39,W
034BC:  SUBLW  4F
034BE:  BNC   34D4
....................    { 
....................       reserve_table[num] = 0xff; 
034C0:  CLRF   03
034C2:  MOVF   x39,W
034C4:  ADDLW  33
034C6:  MOVWF  FE9
034C8:  MOVLW  01
034CA:  ADDWFC 03,W
034CC:  MOVWF  FEA
034CE:  SETF   FEF
034D0:  INCF   x39,F
034D2:  BRA    34BA
....................    } 
....................    reserve_table[80] = 0;                                                        //Coloca en la ultima posicion 0 como cantidad de espacios utilizados 
034D4:  MOVLB  1
034D6:  CLRF   x83
....................    return; 
034D8:  MOVLB  0
034DA:  GOTO   3552 (RETURN)
.................... } 
....................  
.................... //////////////////////////////////////////////////////////////////////////////////////////////// 
.................... //                          ***Sort Function*** 
.................... //This is for sorting the saved reservation commands in ascending order. 
.................... // 
.................... //reserved_table[j-9] reserved_table[j-8] reserved_table[j-7] reserved_table[j-6] reserved_table[j-5] reserved_table[j-4] reserved_table[j-3] reserved_table[j-2] 
.................... //reserved_table[j-1]  reserved_table[j]  reserved_table[j+1] reserved_table[j+2] reserved_table[j+3] reserved_table[j+4] reserved_table[j+5] reserved_table[j+6]  
.................... // 
.................... //j-9 and j-1 data are the contents information(like mission) 
.................... //j-8 and j data are the time data(execute the command reserved_table[j] min later ) 
.................... //j-7 and j+1 data are the contents detail information 
.................... // 
.................... //by comapring j-8 and j data,if it is needed, swhich j-9 and j-1, j-8 and j, j-7 and j+1....etc 
.................... //////////////////////////////////////////////////////////////////////////////////////////////// 
....................  
.................... int8 count_reservation()                                                         //Funcion que cuenta la cantidad de posiciones en la tabla con datos distintos de 0xFF  
*
0347E:  MOVLB  3
03480:  CLRF   x39
.................... { 
....................    int8 counter = 0; 
....................    for(int num = 1; num < table_size - 6; num = num + 8) 
03482:  MOVLW  01
03484:  MOVWF  x3A
03486:  MOVF   x3A,W
03488:  SUBLW  49
0348A:  BNC   34AA
....................    { 
....................       if(reserve_table[num-1] != 0xff) 
0348C:  MOVLW  01
0348E:  SUBWF  x3A,W
03490:  CLRF   03
03492:  ADDLW  33
03494:  MOVWF  FE9
03496:  MOVLW  01
03498:  ADDWFC 03,W
0349A:  MOVWF  FEA
0349C:  INCFSZ FEF,W
0349E:  BRA    34A2
034A0:  BRA    34A4
....................       { 
....................          counter++; 
034A2:  INCF   x39,F
....................       } 
034A4:  MOVLW  08
034A6:  ADDWF  x3A,F
034A8:  BRA    3486
....................    } 
....................    return counter * 8; 
034AA:  MOVF   x39,W
034AC:  MULLW  08
034AE:  MOVFF  FF3,01
034B2:  MOVLB  0
034B4:  RETURN 0
.................... } 
....................  
.................... void sort_table()                                                                //(command info, time info, mission mode)~10compare the time and so in ascending formrt 
.................... { 
....................    for(int i = 1; i < table_size - 7; i = i + 8){ 
*
0CF46:  MOVLW  01
0CF48:  MOVLB  3
0CF4A:  MOVWF  x2D
0CF4C:  MOVF   x2D,W
0CF4E:  SUBLW  48
0CF50:  BTFSS  FD8.0
0CF52:  BRA    D262
....................  
....................          // compare from lower site 
....................       for(int j = table_size - 7; j > i; j = j - 8){ 
0CF54:  MOVLW  49
0CF56:  MOVWF  x2E
0CF58:  MOVF   x2E,W
0CF5A:  SUBWF  x2D,W
0CF5C:  BTFSC  FD8.0
0CF5E:  BRA    D25C
....................  
....................       // if upper value is larger, switch the values 
....................          if(reserve_table[j] < reserve_table[j-8]){                              //compare the time of [j]th and [j-8]th 
0CF60:  CLRF   03
0CF62:  MOVF   x2E,W
0CF64:  ADDLW  33
0CF66:  MOVWF  FE9
0CF68:  MOVLW  01
0CF6A:  ADDWFC 03,W
0CF6C:  MOVWF  FEA
0CF6E:  MOVFF  FEF,337
0CF72:  MOVLW  08
0CF74:  SUBWF  x2E,W
0CF76:  CLRF   03
0CF78:  ADDLW  33
0CF7A:  MOVWF  FE9
0CF7C:  MOVLW  01
0CF7E:  ADDWFC 03,W
0CF80:  MOVWF  FEA
0CF82:  MOVF   FEF,W
0CF84:  SUBWF  x37,W
0CF86:  BTFSC  FD8.0
0CF88:  BRA    D256
....................             int t1 = reserve_table[j+6]; 
....................             int t2 = reserve_table[j+5]; 
....................             int t3 = reserve_table[j+4]; 
....................             int t4 = reserve_table[j+3]; 
....................             int t5 = reserve_table[j+2]; 
....................             int t6 = reserve_table[j+1]; 
....................             int t7 = reserve_table[j]; 
....................             int t8 = reserve_table[j-1]; 
0CF8A:  MOVLW  06
0CF8C:  ADDWF  x2E,W
0CF8E:  CLRF   03
0CF90:  ADDLW  33
0CF92:  MOVWF  FE9
0CF94:  MOVLW  01
0CF96:  ADDWFC 03,W
0CF98:  MOVWF  FEA
0CF9A:  MOVFF  FEF,32F
0CF9E:  MOVLW  05
0CFA0:  ADDWF  x2E,W
0CFA2:  CLRF   03
0CFA4:  ADDLW  33
0CFA6:  MOVWF  FE9
0CFA8:  MOVLW  01
0CFAA:  ADDWFC 03,W
0CFAC:  MOVWF  FEA
0CFAE:  MOVFF  FEF,330
0CFB2:  MOVLW  04
0CFB4:  ADDWF  x2E,W
0CFB6:  CLRF   03
0CFB8:  ADDLW  33
0CFBA:  MOVWF  FE9
0CFBC:  MOVLW  01
0CFBE:  ADDWFC 03,W
0CFC0:  MOVWF  FEA
0CFC2:  MOVFF  FEF,331
0CFC6:  MOVLW  03
0CFC8:  ADDWF  x2E,W
0CFCA:  CLRF   03
0CFCC:  ADDLW  33
0CFCE:  MOVWF  FE9
0CFD0:  MOVLW  01
0CFD2:  ADDWFC 03,W
0CFD4:  MOVWF  FEA
0CFD6:  MOVFF  FEF,332
0CFDA:  MOVLW  02
0CFDC:  ADDWF  x2E,W
0CFDE:  CLRF   03
0CFE0:  ADDLW  33
0CFE2:  MOVWF  FE9
0CFE4:  MOVLW  01
0CFE6:  ADDWFC 03,W
0CFE8:  MOVWF  FEA
0CFEA:  MOVFF  FEF,333
0CFEE:  MOVLW  01
0CFF0:  ADDWF  x2E,W
0CFF2:  CLRF   03
0CFF4:  ADDLW  33
0CFF6:  MOVWF  FE9
0CFF8:  MOVLW  01
0CFFA:  ADDWFC 03,W
0CFFC:  MOVWF  FEA
0CFFE:  MOVFF  FEF,334
0D002:  CLRF   03
0D004:  MOVF   x2E,W
0D006:  ADDLW  33
0D008:  MOVWF  FE9
0D00A:  MOVLW  01
0D00C:  ADDWFC 03,W
0D00E:  MOVWF  FEA
0D010:  MOVFF  FEF,335
0D014:  MOVLW  01
0D016:  SUBWF  x2E,W
0D018:  CLRF   03
0D01A:  ADDLW  33
0D01C:  MOVWF  FE9
0D01E:  MOVLW  01
0D020:  ADDWFC 03,W
0D022:  MOVWF  FEA
0D024:  MOVFF  FEF,336
....................              
....................             reserve_table[j+6] = reserve_table[j-2]; 
0D028:  MOVLW  06
0D02A:  ADDWF  x2E,W
0D02C:  CLRF   03
0D02E:  ADDLW  33
0D030:  MOVWF  01
0D032:  MOVLW  01
0D034:  ADDWFC 03,F
0D036:  MOVFF  03,338
0D03A:  MOVLW  02
0D03C:  SUBWF  x2E,W
0D03E:  CLRF   03
0D040:  ADDLW  33
0D042:  MOVWF  FE9
0D044:  MOVLW  01
0D046:  ADDWFC 03,W
0D048:  MOVWF  FEA
0D04A:  MOVFF  FEF,339
0D04E:  MOVFF  338,FEA
0D052:  MOVFF  01,FE9
0D056:  MOVFF  339,FEF
....................             reserve_table[j+5] = reserve_table[j-3]; 
0D05A:  MOVLW  05
0D05C:  ADDWF  x2E,W
0D05E:  CLRF   03
0D060:  ADDLW  33
0D062:  MOVWF  01
0D064:  MOVLW  01
0D066:  ADDWFC 03,F
0D068:  MOVFF  03,338
0D06C:  MOVLW  03
0D06E:  SUBWF  x2E,W
0D070:  CLRF   03
0D072:  ADDLW  33
0D074:  MOVWF  FE9
0D076:  MOVLW  01
0D078:  ADDWFC 03,W
0D07A:  MOVWF  FEA
0D07C:  MOVFF  FEF,339
0D080:  MOVFF  338,FEA
0D084:  MOVFF  01,FE9
0D088:  MOVFF  339,FEF
....................             reserve_table[j+4] = reserve_table[j-4]; 
0D08C:  MOVLW  04
0D08E:  ADDWF  x2E,W
0D090:  CLRF   03
0D092:  ADDLW  33
0D094:  MOVWF  01
0D096:  MOVLW  01
0D098:  ADDWFC 03,F
0D09A:  MOVFF  03,338
0D09E:  MOVLW  04
0D0A0:  SUBWF  x2E,W
0D0A2:  CLRF   03
0D0A4:  ADDLW  33
0D0A6:  MOVWF  FE9
0D0A8:  MOVLW  01
0D0AA:  ADDWFC 03,W
0D0AC:  MOVWF  FEA
0D0AE:  MOVFF  FEF,339
0D0B2:  MOVFF  338,FEA
0D0B6:  MOVFF  01,FE9
0D0BA:  MOVFF  339,FEF
....................             reserve_table[j+3] = reserve_table[j-5]; 
0D0BE:  MOVLW  03
0D0C0:  ADDWF  x2E,W
0D0C2:  CLRF   03
0D0C4:  ADDLW  33
0D0C6:  MOVWF  01
0D0C8:  MOVLW  01
0D0CA:  ADDWFC 03,F
0D0CC:  MOVFF  03,338
0D0D0:  MOVLW  05
0D0D2:  SUBWF  x2E,W
0D0D4:  CLRF   03
0D0D6:  ADDLW  33
0D0D8:  MOVWF  FE9
0D0DA:  MOVLW  01
0D0DC:  ADDWFC 03,W
0D0DE:  MOVWF  FEA
0D0E0:  MOVFF  FEF,339
0D0E4:  MOVFF  338,FEA
0D0E8:  MOVFF  01,FE9
0D0EC:  MOVFF  339,FEF
....................             reserve_table[j+2] = reserve_table[j-6]; 
0D0F0:  MOVLW  02
0D0F2:  ADDWF  x2E,W
0D0F4:  CLRF   03
0D0F6:  ADDLW  33
0D0F8:  MOVWF  01
0D0FA:  MOVLW  01
0D0FC:  ADDWFC 03,F
0D0FE:  MOVFF  03,338
0D102:  MOVLW  06
0D104:  SUBWF  x2E,W
0D106:  CLRF   03
0D108:  ADDLW  33
0D10A:  MOVWF  FE9
0D10C:  MOVLW  01
0D10E:  ADDWFC 03,W
0D110:  MOVWF  FEA
0D112:  MOVFF  FEF,339
0D116:  MOVFF  338,FEA
0D11A:  MOVFF  01,FE9
0D11E:  MOVFF  339,FEF
....................             reserve_table[j+1] = reserve_table[j-7]; 
0D122:  MOVLW  01
0D124:  ADDWF  x2E,W
0D126:  CLRF   03
0D128:  ADDLW  33
0D12A:  MOVWF  01
0D12C:  MOVLW  01
0D12E:  ADDWFC 03,F
0D130:  MOVFF  03,338
0D134:  MOVLW  07
0D136:  SUBWF  x2E,W
0D138:  CLRF   03
0D13A:  ADDLW  33
0D13C:  MOVWF  FE9
0D13E:  MOVLW  01
0D140:  ADDWFC 03,W
0D142:  MOVWF  FEA
0D144:  MOVFF  FEF,339
0D148:  MOVFF  338,FEA
0D14C:  MOVFF  01,FE9
0D150:  MOVFF  339,FEF
....................             reserve_table[j] = reserve_table[j-8]; 
0D154:  CLRF   03
0D156:  MOVF   x2E,W
0D158:  ADDLW  33
0D15A:  MOVWF  01
0D15C:  MOVLW  01
0D15E:  ADDWFC 03,F
0D160:  MOVFF  03,338
0D164:  MOVLW  08
0D166:  SUBWF  x2E,W
0D168:  CLRF   03
0D16A:  ADDLW  33
0D16C:  MOVWF  FE9
0D16E:  MOVLW  01
0D170:  ADDWFC 03,W
0D172:  MOVWF  FEA
0D174:  MOVFF  FEF,339
0D178:  MOVFF  338,FEA
0D17C:  MOVFF  01,FE9
0D180:  MOVFF  339,FEF
....................             reserve_table[j-1] = reserve_table[j-9]; 
0D184:  MOVLW  01
0D186:  SUBWF  x2E,W
0D188:  CLRF   03
0D18A:  ADDLW  33
0D18C:  MOVWF  01
0D18E:  MOVLW  01
0D190:  ADDWFC 03,F
0D192:  MOVFF  03,338
0D196:  MOVLW  09
0D198:  SUBWF  x2E,W
0D19A:  CLRF   03
0D19C:  ADDLW  33
0D19E:  MOVWF  FE9
0D1A0:  MOVLW  01
0D1A2:  ADDWFC 03,W
0D1A4:  MOVWF  FEA
0D1A6:  MOVFF  FEF,339
0D1AA:  MOVFF  338,FEA
0D1AE:  MOVFF  01,FE9
0D1B2:  MOVFF  339,FEF
....................              
....................             reserve_table[j-2] = t1; 
0D1B6:  MOVLW  02
0D1B8:  SUBWF  x2E,W
0D1BA:  CLRF   03
0D1BC:  ADDLW  33
0D1BE:  MOVWF  FE9
0D1C0:  MOVLW  01
0D1C2:  ADDWFC 03,W
0D1C4:  MOVWF  FEA
0D1C6:  MOVFF  32F,FEF
....................             reserve_table[j-3] = t2; 
0D1CA:  MOVLW  03
0D1CC:  SUBWF  x2E,W
0D1CE:  CLRF   03
0D1D0:  ADDLW  33
0D1D2:  MOVWF  FE9
0D1D4:  MOVLW  01
0D1D6:  ADDWFC 03,W
0D1D8:  MOVWF  FEA
0D1DA:  MOVFF  330,FEF
....................             reserve_table[j-4] = t3; 
0D1DE:  MOVLW  04
0D1E0:  SUBWF  x2E,W
0D1E2:  CLRF   03
0D1E4:  ADDLW  33
0D1E6:  MOVWF  FE9
0D1E8:  MOVLW  01
0D1EA:  ADDWFC 03,W
0D1EC:  MOVWF  FEA
0D1EE:  MOVFF  331,FEF
....................             reserve_table[j-5] = t4; 
0D1F2:  MOVLW  05
0D1F4:  SUBWF  x2E,W
0D1F6:  CLRF   03
0D1F8:  ADDLW  33
0D1FA:  MOVWF  FE9
0D1FC:  MOVLW  01
0D1FE:  ADDWFC 03,W
0D200:  MOVWF  FEA
0D202:  MOVFF  332,FEF
....................             reserve_table[j-6] = t5; 
0D206:  MOVLW  06
0D208:  SUBWF  x2E,W
0D20A:  CLRF   03
0D20C:  ADDLW  33
0D20E:  MOVWF  FE9
0D210:  MOVLW  01
0D212:  ADDWFC 03,W
0D214:  MOVWF  FEA
0D216:  MOVFF  333,FEF
....................             reserve_table[j-7] = t6; 
0D21A:  MOVLW  07
0D21C:  SUBWF  x2E,W
0D21E:  CLRF   03
0D220:  ADDLW  33
0D222:  MOVWF  FE9
0D224:  MOVLW  01
0D226:  ADDWFC 03,W
0D228:  MOVWF  FEA
0D22A:  MOVFF  334,FEF
....................             reserve_table[j-8] = t7; 
0D22E:  MOVLW  08
0D230:  SUBWF  x2E,W
0D232:  CLRF   03
0D234:  ADDLW  33
0D236:  MOVWF  FE9
0D238:  MOVLW  01
0D23A:  ADDWFC 03,W
0D23C:  MOVWF  FEA
0D23E:  MOVFF  335,FEF
....................             reserve_table[j-9] = t8; 
0D242:  MOVLW  09
0D244:  SUBWF  x2E,W
0D246:  CLRF   03
0D248:  ADDLW  33
0D24A:  MOVWF  FE9
0D24C:  MOVLW  01
0D24E:  ADDWFC 03,W
0D250:  MOVWF  FEA
0D252:  MOVFF  336,FEF
....................                  
....................           
....................          } 
0D256:  MOVLW  08
0D258:  SUBWF  x2E,F
0D25A:  BRA    CF58
....................       } 
0D25C:  MOVLW  08
0D25E:  ADDWF  x2D,F
0D260:  BRA    CF4C
....................    } 
....................    return; 
0D262:  MOVLB  0
0D264:  RETURN 0
.................... } 
....................  
.................... void Save_RSV() 
.................... { 
....................    output_low(PIN_A5);                                                           //CAM_MUX MAINSIDE 
*
0783E:  BCF    F92.5
07840:  BCF    F89.5
....................    output_low(PIN_C4);                                                           //COM_MUX MAINSIDE 
07842:  BCF    F94.4
07844:  BCF    F8B.4
....................    SUBSECTOR_4KB_ERASE_OF(RSV_DATA_ADDRESS); 
07846:  MOVFF  3F,365
0784A:  MOVFF  3E,364
0784E:  MOVFF  3D,363
07852:  MOVFF  3C,362
07856:  CALL   2FCA
....................    delay_ms(100); 
0785A:  MOVLW  64
0785C:  MOVLB  3
0785E:  MOVWF  x6B
07860:  MOVLB  0
07862:  CALL   1AFC
....................    SUBSECTOR_4KB_ERASE_SCF(RSV_DATA_ADDRESS); 
07866:  MOVFF  3F,365
0786A:  MOVFF  3E,364
0786E:  MOVFF  3D,363
07872:  MOVFF  3C,362
07876:  CALL   305C
....................    delay_ms(100); 
0787A:  MOVLW  64
0787C:  MOVLB  3
0787E:  MOVWF  x6B
07880:  MOVLB  0
07882:  CALL   1AFC
....................    SUBSECTOR_4KB_ERASE_SMF(RSV_DATA_ADDRESS); 
07886:  MOVFF  3F,365
0788A:  MOVFF  3E,364
0788E:  MOVFF  3D,363
07892:  MOVFF  3C,362
07896:  CALL   30EE
....................    delay_ms(100); 
0789A:  MOVLW  64
0789C:  MOVLB  3
0789E:  MOVWF  x6B
078A0:  MOVLB  0
078A2:  CALL   1AFC
....................     
....................    for(int num = 0; num < table_size + 1; num++)                                 //save in flash memory reserve_table[] content 
078A6:  MOVLB  3
078A8:  CLRF   x3E
078AA:  MOVF   x3E,W
078AC:  SUBLW  50
078AE:  BNC   797A
....................    { 
....................       WRITE_DATA_BYTE_OF(RSV_DATA_ADDRESS+num,reserve_table[num]); 
078B0:  MOVF   x3E,W
078B2:  ADDWF  3C,W
078B4:  MOVWF  x3F
078B6:  MOVLW  00
078B8:  ADDWFC 3D,W
078BA:  MOVWF  x40
078BC:  MOVLW  00
078BE:  ADDWFC 3E,W
078C0:  MOVWF  x41
078C2:  MOVLW  00
078C4:  ADDWFC 3F,W
078C6:  MOVWF  x42
078C8:  CLRF   03
078CA:  MOVF   x3E,W
078CC:  ADDLW  33
078CE:  MOVWF  FE9
078D0:  MOVLW  01
078D2:  ADDWFC 03,W
078D4:  MOVWF  FEA
078D6:  MOVFF  FEF,367
078DA:  MOVFF  342,366
078DE:  MOVFF  341,365
078E2:  MOVFF  340,364
078E6:  MOVFF  33F,363
078EA:  MOVLB  0
078EC:  CALL   1622
....................       WRITE_DATA_BYTE_SMF(RSV_DATA_ADDRESS+num,reserve_table[num]); 
078F0:  MOVLB  3
078F2:  MOVF   x3E,W
078F4:  ADDWF  3C,W
078F6:  MOVWF  x3F
078F8:  MOVLW  00
078FA:  ADDWFC 3D,W
078FC:  MOVWF  x40
078FE:  MOVLW  00
07900:  ADDWFC 3E,W
07902:  MOVWF  x41
07904:  MOVLW  00
07906:  ADDWFC 3F,W
07908:  MOVWF  x42
0790A:  CLRF   03
0790C:  MOVF   x3E,W
0790E:  ADDLW  33
07910:  MOVWF  FE9
07912:  MOVLW  01
07914:  ADDWFC 03,W
07916:  MOVWF  FEA
07918:  MOVFF  FEF,367
0791C:  MOVFF  342,366
07920:  MOVFF  341,365
07924:  MOVFF  340,364
07928:  MOVFF  33F,363
0792C:  MOVLB  0
0792E:  CALL   173A
....................       WRITE_DATA_BYTE_SCF(RSV_DATA_ADDRESS+num,reserve_table[num]); 
07932:  MOVLB  3
07934:  MOVF   x3E,W
07936:  ADDWF  3C,W
07938:  MOVWF  x3F
0793A:  MOVLW  00
0793C:  ADDWFC 3D,W
0793E:  MOVWF  x40
07940:  MOVLW  00
07942:  ADDWFC 3E,W
07944:  MOVWF  x41
07946:  MOVLW  00
07948:  ADDWFC 3F,W
0794A:  MOVWF  x42
0794C:  CLRF   03
0794E:  MOVF   x3E,W
07950:  ADDLW  33
07952:  MOVWF  FE9
07954:  MOVLW  01
07956:  ADDWFC 03,W
07958:  MOVWF  FEA
0795A:  MOVFF  FEF,367
0795E:  MOVFF  342,366
07962:  MOVFF  341,365
07966:  MOVFF  340,364
0796A:  MOVFF  33F,363
0796E:  MOVLB  0
07970:  CALL   16AE
07974:  MOVLB  3
07976:  INCF   x3E,F
07978:  BRA    78AA
....................    } 
....................     
....................    WRITE_DATA_BYTE_OF(RSV_DATA_ADDRESS+81,RESERVE_MIN_FLAG);                     // save reserve flag 
0797A:  MOVLW  51
0797C:  ADDWF  3C,W
0797E:  MOVWF  x3F
07980:  MOVLW  00
07982:  ADDWFC 3D,W
07984:  MOVWF  x40
07986:  MOVLW  00
07988:  ADDWFC 3E,W
0798A:  MOVWF  x41
0798C:  MOVLW  00
0798E:  ADDWFC 3F,W
07990:  MOVWF  x42
07992:  MOVWF  x66
07994:  MOVFF  341,365
07998:  MOVFF  340,364
0799C:  MOVFF  33F,363
079A0:  MOVFF  6C,367
079A4:  MOVLB  0
079A6:  CALL   1622
....................    WRITE_DATA_BYTE_SCF(RSV_DATA_ADDRESS+81,RESERVE_MIN_FLAG); 
079AA:  MOVLW  51
079AC:  ADDWF  3C,W
079AE:  MOVLB  3
079B0:  MOVWF  x3F
079B2:  MOVLW  00
079B4:  ADDWFC 3D,W
079B6:  MOVWF  x40
079B8:  MOVLW  00
079BA:  ADDWFC 3E,W
079BC:  MOVWF  x41
079BE:  MOVLW  00
079C0:  ADDWFC 3F,W
079C2:  MOVWF  x42
079C4:  MOVWF  x66
079C6:  MOVFF  341,365
079CA:  MOVFF  340,364
079CE:  MOVFF  33F,363
079D2:  MOVFF  6C,367
079D6:  MOVLB  0
079D8:  CALL   16AE
....................    WRITE_DATA_BYTE_SMF(RSV_DATA_ADDRESS+81,RESERVE_MIN_FLAG); 
079DC:  MOVLW  51
079DE:  ADDWF  3C,W
079E0:  MOVLB  3
079E2:  MOVWF  x3F
079E4:  MOVLW  00
079E6:  ADDWFC 3D,W
079E8:  MOVWF  x40
079EA:  MOVLW  00
079EC:  ADDWFC 3E,W
079EE:  MOVWF  x41
079F0:  MOVLW  00
079F2:  ADDWFC 3F,W
079F4:  MOVWF  x42
079F6:  MOVWF  x66
079F8:  MOVFF  341,365
079FC:  MOVFF  340,364
07A00:  MOVFF  33F,363
07A04:  MOVFF  6C,367
07A08:  MOVLB  0
07A0A:  CALL   173A
....................    for(num = 0; num < table_size + 1; num++)                                     //show in PC RSV DATA 
07A0E:  MOVLB  3
07A10:  CLRF   x3E
07A12:  MOVF   x3E,W
07A14:  SUBLW  50
07A16:  BNC   7A5E
....................    { 
....................       fprintf(PC,"%x",READ_DATA_BYTE_OF(RSV_DATA_ADDRESS + num)); 
07A18:  MOVF   x3E,W
07A1A:  ADDWF  3C,W
07A1C:  MOVWF  x3F
07A1E:  MOVLW  00
07A20:  ADDWFC 3D,W
07A22:  MOVWF  x40
07A24:  MOVLW  00
07A26:  ADDWFC 3E,W
07A28:  MOVWF  x41
07A2A:  MOVLW  00
07A2C:  ADDWFC 3F,W
07A2E:  MOVWF  x42
07A30:  MOVWF  x6C
07A32:  MOVFF  341,36B
07A36:  MOVFF  340,36A
07A3A:  MOVFF  33F,369
07A3E:  MOVLB  0
07A40:  CALL   135C
07A44:  MOVFF  01,33F
07A48:  MOVFF  01,363
07A4C:  MOVLW  57
07A4E:  MOVLB  3
07A50:  MOVWF  x64
07A52:  MOVLB  0
07A54:  CALL   17E0
07A58:  MOVLB  3
07A5A:  INCF   x3E,F
07A5C:  BRA    7A12
....................    } 
....................    output_high(PIN_C4);                                                          //COM_MUX MAINSIDE 
07A5E:  BCF    F94.4
07A60:  BSF    F8B.4
....................    fprintf(PC,"\r\n"); 
07A62:  MOVLW  0D
07A64:  BTFSS  F9E.4
07A66:  BRA    7A64
07A68:  MOVWF  FAD
07A6A:  MOVLW  0A
07A6C:  BTFSS  F9E.4
07A6E:  BRA    7A6C
07A70:  MOVWF  FAD
....................    return; 
07A72:  MOVLB  0
07A74:  RETURN 0
.................... } 
....................  
.................... void table_refresh()                                                             //table and flags are come back to default  
.................... { 
....................    for(int i = 0; i < table_size; i++) 
*
0D59C:  MOVLB  3
0D59E:  CLRF   x37
0D5A0:  MOVF   x37,W
0D5A2:  SUBLW  4F
0D5A4:  BNC   D5BA
....................    { 
....................       reserve_table[i] = 0xff; 
0D5A6:  CLRF   03
0D5A8:  MOVF   x37,W
0D5AA:  ADDLW  33
0D5AC:  MOVWF  FE9
0D5AE:  MOVLW  01
0D5B0:  ADDWFC 03,W
0D5B2:  MOVWF  FEA
0D5B4:  SETF   FEF
0D5B6:  INCF   x37,F
0D5B8:  BRA    D5A0
....................    } 
....................    reserve_table[80] = 0; 
0D5BA:  MOVLB  1
0D5BC:  CLRF   x83
....................    RESERVE_MIN_FLAG = 0; 
0D5BE:  MOVLB  0
0D5C0:  CLRF   x6C
....................    RESERVE_SEC_FLAG = 0; 
0D5C2:  CLRF   x7D
....................    RESERVE_CHECK = 0; 
0D5C4:  CLRF   x6B
....................    MISSION_CONTENTS = 0;                                                         //closest mission command 
0D5C6:  CLRF   x6E
....................    RESERVE_TARGET_FLAG = 0;                                                      //closest time data 
0D5C8:  CLRF   x6D
....................    MISSION_DETAIL = 0;                                                           //closest mission command detail 
0D5CA:  CLRF   x6F
....................    RESERVE_ADDRESS_1 = 0;                                                        //closest mission address 
0D5CC:  CLRF   x70
....................    RESERVE_ADDRESS_2 = 0;                                                        //closest mission address 
0D5CE:  CLRF   x71
....................    RESERVE_ADDRESS_3 = 0;                                                        //closest mission address 
0D5D0:  CLRF   x72
....................    RESERVE_ADDRESS_4 = 0;                                                        //closest mission address 
0D5D2:  CLRF   x73
....................    RESERVE_PACKET_NUM = 0;                                                       //closest mission pckt number 
0D5D4:  CLRF   x74
....................    Save_RSV(); 
0D5D6:  CALL   783E
....................    return; 
0D5DA:  GOTO   DDE2 (RETURN)
.................... } 
....................  
.................... void Get_RSV() 
.................... { 
....................    //fprintf(PC,"%x"); 
....................    for(int num = 0; num < table_size+1; num++)                                   //Carga en el vector reserve_table[] los datos leidos de la flash memory  
*
034DE:  MOVLB  3
034E0:  CLRF   x38
034E2:  MOVF   x38,W
034E4:  SUBLW  50
034E6:  BNC   353A
....................    {                                                                             //desde la posicion RSV_DATA_ADDRESS hasta el tamao de la tabla 
....................       reserve_table[num]=READ_DATA_BYTE_OF(RSV_DATA_ADDRESS + num);              //import reservation table info 
034E8:  CLRF   03
034EA:  MOVF   x38,W
034EC:  ADDLW  33
034EE:  MOVWF  01
034F0:  MOVLW  01
034F2:  ADDWFC 03,F
034F4:  MOVFF  01,339
034F8:  MOVFF  03,33A
034FC:  MOVF   x38,W
034FE:  ADDWF  3C,W
03500:  MOVWF  x3B
03502:  MOVLW  00
03504:  ADDWFC 3D,W
03506:  MOVWF  x3C
03508:  MOVLW  00
0350A:  ADDWFC 3E,W
0350C:  MOVWF  x3D
0350E:  MOVLW  00
03510:  ADDWFC 3F,W
03512:  MOVWF  x3E
03514:  MOVWF  x6C
03516:  MOVFF  33D,36B
0351A:  MOVFF  33C,36A
0351E:  MOVFF  33B,369
03522:  MOVLB  0
03524:  CALL   135C
03528:  MOVFF  33A,FEA
0352C:  MOVFF  339,FE9
03530:  MOVFF  01,FEF
03534:  MOVLB  3
03536:  INCF   x38,F
03538:  BRA    34E2
....................    } 
....................    reserve_table[80] = count_reservation();                                      //Carga en la posicion 30 la cantidad de posiciones ocupadas con datos 
0353A:  MOVLB  0
0353C:  RCALL  347E
0353E:  MOVFF  01,183
.................... //   RESERVE_MIN_FLAG = READ_DATA_BYTE_OF(RSV_DATA_ADDRESS+31); 
....................    if(reserve_table[80] == 0xFF || reserve_table[80] == 0x00)                    //Si la tabla no tiene datos almacenados 
03542:  MOVLB  1
03544:  INCFSZ x83,W
03546:  BRA    354A
03548:  BRA    354E
0354A:  MOVF   x83,F
0354C:  BNZ   3554
....................    { 
....................       initialize_table();                                                        //completa con 0xff toda la tabla 
0354E:  MOVLB  0
03550:  BRA    34B6
03552:  MOVLB  1
....................    } 
....................    table_num = reserve_table[80];                                                //guarda en table_num la cantidad de datos que contiene la tabla 
03554:  MOVFF  183,184
....................    if(table_num != 0x00)                                                         //yes-->get reserved command and target time 
03558:  MOVF   x84,F
0355A:  BZ    3586
....................    { 
....................       RESERVE_CHECK = 1;                                                         //LA tabla esta utilizada 
0355C:  MOVLW  01
0355E:  MOVLB  0
03560:  MOVWF  x6B
....................       MISSION_CONTENTS = reserve_table[0];                                       //closest mission command 
03562:  MOVFF  133,6E
....................       RESERVE_TARGET_FLAG = reserve_table[1];                                    //closest time data 
03566:  MOVFF  134,6D
....................       MISSION_DETAIL = reserve_table[2];                                         //closest mission command detail 
0356A:  MOVFF  135,6F
....................       RESERVE_ADDRESS_1 = reserve_table[3];                                      //closest mission address 
0356E:  MOVFF  136,70
....................       RESERVE_ADDRESS_2 = reserve_table[4];                                      //closest mission address 
03572:  MOVFF  137,71
....................       RESERVE_ADDRESS_3 = reserve_table[5];                                      //closest mission address 
03576:  MOVFF  138,72
....................       RESERVE_ADDRESS_4 = reserve_table[6];                                      //closest mission address 
0357A:  MOVFF  139,73
....................       RESERVE_PACKET_NUM = reserve_table[7];                                     //closest mission pckt number 
0357E:  MOVFF  13A,74
....................    }else{ 
03582:  BRA    359A
03584:  MOVLB  1
....................       RESERVE_CHECK = 0;                                                         //la tabla no esta utilizada 
03586:  MOVLB  0
03588:  CLRF   x6B
....................       MISSION_CONTENTS = 0xff;                                                   //closest mission command 
0358A:  SETF   x6E
....................       RESERVE_TARGET_FLAG = 0xff;                                                //closest time data 
0358C:  SETF   x6D
....................       MISSION_DETAIL = 0xff;                                                     //closest mission command detail 
0358E:  SETF   x6F
....................       RESERVE_ADDRESS_1 = 0xff;                                                  //closest mission address 
03590:  SETF   x70
....................       RESERVE_ADDRESS_2 = 0xff;                                                  //closest mission address 
03592:  SETF   x71
....................       RESERVE_ADDRESS_3 = 0xff;                                                  //closest mission address 
03594:  SETF   x72
....................       RESERVE_ADDRESS_4 = 0xff;                                                  //closest mission address 
03596:  SETF   x73
....................       RESERVE_PACKET_NUM = 0xff;                                                 //closest mission pckt number 
03598:  SETF   x74
....................    } 
....................    return; 
0359A:  RETURN 0
.................... } 
....................  
.................... void Disp_RSV()                                                                  //show the reserve status (reserve command and reserve table) 
.................... { 
....................    Get_RSV();                                                                    //get the info from the main flash 
*
0B968:  CALL   34DE
....................    for(int num = 0; num < table_size + 1; num++) 
0B96C:  MOVLB  3
0B96E:  CLRF   x37
0B970:  MOVF   x37,W
0B972:  SUBLW  50
0B974:  BNC   B998
....................    { 
....................       fprintf(PC,"%x",reserve_table[num]); 
0B976:  CLRF   03
0B978:  MOVF   x37,W
0B97A:  ADDLW  33
0B97C:  MOVWF  FE9
0B97E:  MOVLW  01
0B980:  ADDWFC 03,W
0B982:  MOVWF  FEA
0B984:  MOVFF  FEF,363
0B988:  MOVLW  57
0B98A:  MOVWF  x64
0B98C:  MOVLB  0
0B98E:  CALL   17E0
0B992:  MOVLB  3
0B994:  INCF   x37,F
0B996:  BRA    B970
....................    } 
....................    fprintf(PC,"\r\n"); 
0B998:  MOVLW  0D
0B99A:  BTFSS  F9E.4
0B99C:  BRA    B99A
0B99E:  MOVWF  FAD
0B9A0:  MOVLW  0A
0B9A2:  BTFSS  F9E.4
0B9A4:  BRA    B9A2
0B9A6:  MOVWF  FAD
....................    fprintf(PC,"RESERVE_CHECK = %x\r\n",RESERVE_CHECK); 
0B9A8:  MOVLW  E8
0B9AA:  MOVWF  FF6
0B9AC:  MOVLW  05
0B9AE:  MOVWF  FF7
0B9B0:  MOVLW  00
0B9B2:  MOVWF  FF8
0B9B4:  MOVLW  10
0B9B6:  MOVWF  x62
0B9B8:  MOVLB  0
0B9BA:  CALL   17AE
0B9BE:  MOVFF  6B,363
0B9C2:  MOVLW  57
0B9C4:  MOVLB  3
0B9C6:  MOVWF  x64
0B9C8:  MOVLB  0
0B9CA:  CALL   17E0
0B9CE:  MOVLW  0D
0B9D0:  BTFSS  F9E.4
0B9D2:  BRA    B9D0
0B9D4:  MOVWF  FAD
0B9D6:  MOVLW  0A
0B9D8:  BTFSS  F9E.4
0B9DA:  BRA    B9D8
0B9DC:  MOVWF  FAD
....................    fprintf(PC,"NEXT FUNCTION_CONTENTS = %x\r\n",MISSION_CONTENTS); 
0B9DE:  MOVLW  FE
0B9E0:  MOVWF  FF6
0B9E2:  MOVLW  05
0B9E4:  MOVWF  FF7
0B9E6:  MOVLW  00
0B9E8:  MOVWF  FF8
0B9EA:  MOVLW  19
0B9EC:  MOVLB  3
0B9EE:  MOVWF  x62
0B9F0:  MOVLB  0
0B9F2:  CALL   17AE
0B9F6:  MOVFF  6E,363
0B9FA:  MOVLW  57
0B9FC:  MOVLB  3
0B9FE:  MOVWF  x64
0BA00:  MOVLB  0
0BA02:  CALL   17E0
0BA06:  MOVLW  0D
0BA08:  BTFSS  F9E.4
0BA0A:  BRA    BA08
0BA0C:  MOVWF  FAD
0BA0E:  MOVLW  0A
0BA10:  BTFSS  F9E.4
0BA12:  BRA    BA10
0BA14:  MOVWF  FAD
....................    fprintf(PC,"RESERVE_TARGET_FLAG = %x\r\n",RESERVE_TARGET_FLAG); 
0BA16:  MOVLW  1C
0BA18:  MOVWF  FF6
0BA1A:  MOVLW  06
0BA1C:  MOVWF  FF7
0BA1E:  MOVLW  00
0BA20:  MOVWF  FF8
0BA22:  MOVLW  16
0BA24:  MOVLB  3
0BA26:  MOVWF  x62
0BA28:  MOVLB  0
0BA2A:  CALL   17AE
0BA2E:  MOVFF  6D,363
0BA32:  MOVLW  57
0BA34:  MOVLB  3
0BA36:  MOVWF  x64
0BA38:  MOVLB  0
0BA3A:  CALL   17E0
0BA3E:  MOVLW  0D
0BA40:  BTFSS  F9E.4
0BA42:  BRA    BA40
0BA44:  MOVWF  FAD
0BA46:  MOVLW  0A
0BA48:  BTFSS  F9E.4
0BA4A:  BRA    BA48
0BA4C:  MOVWF  FAD
....................    fprintf(PC,"NEXT FUNCTION DETAIL = %x\r\n",MISSION_DETAIL); 
0BA4E:  MOVLW  38
0BA50:  MOVWF  FF6
0BA52:  MOVLW  06
0BA54:  MOVWF  FF7
0BA56:  MOVLW  00
0BA58:  MOVWF  FF8
0BA5A:  MOVLW  17
0BA5C:  MOVLB  3
0BA5E:  MOVWF  x62
0BA60:  MOVLB  0
0BA62:  CALL   17AE
0BA66:  MOVFF  6F,363
0BA6A:  MOVLW  57
0BA6C:  MOVLB  3
0BA6E:  MOVWF  x64
0BA70:  MOVLB  0
0BA72:  CALL   17E0
0BA76:  MOVLW  0D
0BA78:  BTFSS  F9E.4
0BA7A:  BRA    BA78
0BA7C:  MOVWF  FAD
0BA7E:  MOVLW  0A
0BA80:  BTFSS  F9E.4
0BA82:  BRA    BA80
0BA84:  MOVWF  FAD
....................    fprintf(PC,"NEXT FUNCTION ADDRESS = %x%x%x%x\r\n",RESERVE_ADDRESS_1,RESERVE_ADDRESS_2,RESERVE_ADDRESS_3,RESERVE_ADDRESS_4); 
0BA86:  MOVLW  54
0BA88:  MOVWF  FF6
0BA8A:  MOVLW  06
0BA8C:  MOVWF  FF7
0BA8E:  MOVLW  00
0BA90:  MOVWF  FF8
0BA92:  MOVLW  18
0BA94:  MOVLB  3
0BA96:  MOVWF  x62
0BA98:  MOVLB  0
0BA9A:  CALL   17AE
0BA9E:  MOVFF  70,363
0BAA2:  MOVLW  57
0BAA4:  MOVLB  3
0BAA6:  MOVWF  x64
0BAA8:  MOVLB  0
0BAAA:  CALL   17E0
0BAAE:  MOVFF  71,363
0BAB2:  MOVLW  57
0BAB4:  MOVLB  3
0BAB6:  MOVWF  x64
0BAB8:  MOVLB  0
0BABA:  CALL   17E0
0BABE:  MOVFF  72,363
0BAC2:  MOVLW  57
0BAC4:  MOVLB  3
0BAC6:  MOVWF  x64
0BAC8:  MOVLB  0
0BACA:  CALL   17E0
0BACE:  MOVFF  73,363
0BAD2:  MOVLW  57
0BAD4:  MOVLB  3
0BAD6:  MOVWF  x64
0BAD8:  MOVLB  0
0BADA:  CALL   17E0
0BADE:  MOVLW  0D
0BAE0:  BTFSS  F9E.4
0BAE2:  BRA    BAE0
0BAE4:  MOVWF  FAD
0BAE6:  MOVLW  0A
0BAE8:  BTFSS  F9E.4
0BAEA:  BRA    BAE8
0BAEC:  MOVWF  FAD
....................    fprintf(PC,"NEXT FUNCTION PCKT NUMBER = %x\r\n",RESERVE_MIN_FLAG); 
0BAEE:  MOVLW  78
0BAF0:  MOVWF  FF6
0BAF2:  MOVLW  06
0BAF4:  MOVWF  FF7
0BAF6:  MOVLW  00
0BAF8:  MOVWF  FF8
0BAFA:  MOVLW  1C
0BAFC:  MOVLB  3
0BAFE:  MOVWF  x62
0BB00:  MOVLB  0
0BB02:  CALL   17AE
0BB06:  MOVFF  6C,363
0BB0A:  MOVLW  57
0BB0C:  MOVLB  3
0BB0E:  MOVWF  x64
0BB10:  MOVLB  0
0BB12:  CALL   17E0
0BB16:  MOVLW  0D
0BB18:  BTFSS  F9E.4
0BB1A:  BRA    BB18
0BB1C:  MOVWF  FAD
0BB1E:  MOVLW  0A
0BB20:  BTFSS  F9E.4
0BB22:  BRA    BB20
0BB24:  MOVWF  FAD
....................    fprintf(PC,"RESERVE_MIN_FLAG = %x\r\n",RESERVE_MIN_FLAG); 
0BB26:  MOVLW  9A
0BB28:  MOVWF  FF6
0BB2A:  MOVLW  06
0BB2C:  MOVWF  FF7
0BB2E:  MOVLW  00
0BB30:  MOVWF  FF8
0BB32:  MOVLW  13
0BB34:  MOVLB  3
0BB36:  MOVWF  x62
0BB38:  MOVLB  0
0BB3A:  CALL   17AE
0BB3E:  MOVFF  6C,363
0BB42:  MOVLW  57
0BB44:  MOVLB  3
0BB46:  MOVWF  x64
0BB48:  MOVLB  0
0BB4A:  CALL   17E0
0BB4E:  MOVLW  0D
0BB50:  BTFSS  F9E.4
0BB52:  BRA    BB50
0BB54:  MOVWF  FAD
0BB56:  MOVLW  0A
0BB58:  BTFSS  F9E.4
0BB5A:  BRA    BB58
0BB5C:  MOVWF  FAD
....................    fprintf(PC,"TABLE NUM = %x\r\n",table_num); 
0BB5E:  MOVLW  B2
0BB60:  MOVWF  FF6
0BB62:  MOVLW  06
0BB64:  MOVWF  FF7
0BB66:  MOVLW  00
0BB68:  MOVWF  FF8
0BB6A:  MOVLW  0C
0BB6C:  MOVLB  3
0BB6E:  MOVWF  x62
0BB70:  MOVLB  0
0BB72:  CALL   17AE
0BB76:  MOVFF  184,363
0BB7A:  MOVLW  57
0BB7C:  MOVLB  3
0BB7E:  MOVWF  x64
0BB80:  MOVLB  0
0BB82:  CALL   17E0
0BB86:  MOVLW  0D
0BB88:  BTFSS  F9E.4
0BB8A:  BRA    BB88
0BB8C:  MOVWF  FAD
0BB8E:  MOVLW  0A
0BB90:  BTFSS  F9E.4
0BB92:  BRA    BB90
0BB94:  MOVWF  FAD
....................     
....................    return; 
0BB96:  RETURN 0
.................... } 
....................  
....................  
....................  
.................... void input_reservation_COM()                                                     //put the command from COM into the table and sort in ascending form 
.................... { 
.................... //!   reserve_table[table_num] = CMD_FROM_PC[0];                                 //input the data about mission content 
.................... //!   reserve_table[table_num + 1] = CMD_FROM_PC[1];                             //input the data about time data 
.................... //!   reserve_table[table_num + 2] = CMD_FROM_PC[2];                             //input the data about mission detail mode 
....................    //fprintf(PC,"Table num: %x\r\n",reserve_table[80]);                          //show the amount of bytes ocupied in the table 
....................    table_num = reserve_table[80]; 
*
0D33A:  MOVFF  183,184
....................    if(reserve_table[80] == 80) 
0D33E:  MOVLB  1
0D340:  MOVF   x83,W
0D342:  SUBLW  50
0D344:  BNZ   D35C
....................    { 
....................       fprintf(PC,"Reservation table is Full!\r\n\r\n"); 
0D346:  MOVLW  C4
0D348:  MOVWF  FF6
0D34A:  MOVLW  06
0D34C:  MOVWF  FF7
0D34E:  MOVLW  00
0D350:  MOVWF  FF8
0D352:  MOVLB  0
0D354:  CALL   318C
....................    }else{ 
0D358:  BRA    D540
0D35A:  MOVLB  1
....................       if(RESERVE_CHECK != 0x00)                                                  //if the table is in use 
0D35C:  MOVLB  0
0D35E:  MOVF   x6B,F
0D360:  BTFSC  FD8.2
0D362:  BRA    D498
....................       { 
....................          for(int num = 1; num < table_size - 6; num = num + 8)                   //check all command data placed in the table and update the time 
0D364:  MOVLW  01
0D366:  MOVLB  3
0D368:  MOVWF  x2C
0D36A:  MOVF   x2C,W
0D36C:  SUBLW  49
0D36E:  BNC   D3EA
....................          { 
....................             if(reserve_table[num-1] != 0xff)                                      
0D370:  MOVLW  01
0D372:  SUBWF  x2C,W
0D374:  CLRF   03
0D376:  ADDLW  33
0D378:  MOVWF  FE9
0D37A:  MOVLW  01
0D37C:  ADDWFC 03,W
0D37E:  MOVWF  FEA
0D380:  INCFSZ FEF,W
0D382:  BRA    D386
0D384:  BRA    D3E4
....................             { 
....................                if(reserve_table[num] > RESERVE_MIN_FLAG) 
0D386:  CLRF   03
0D388:  MOVF   x2C,W
0D38A:  ADDLW  33
0D38C:  MOVWF  FE9
0D38E:  MOVLW  01
0D390:  ADDWFC 03,W
0D392:  MOVWF  FEA
0D394:  MOVF   FEF,W
0D396:  MOVLB  0
0D398:  SUBWF  x6C,W
0D39A:  BC    D3D2
....................                { 
....................                   reserve_table[num] = reserve_table[num] - RESERVE_MIN_FLAG;    //update the time of all commands 
0D39C:  CLRF   03
0D39E:  MOVLB  3
0D3A0:  MOVF   x2C,W
0D3A2:  ADDLW  33
0D3A4:  MOVWF  01
0D3A6:  MOVLW  01
0D3A8:  ADDWFC 03,F
0D3AA:  MOVFF  03,32E
0D3AE:  CLRF   03
0D3B0:  MOVF   x2C,W
0D3B2:  ADDLW  33
0D3B4:  MOVWF  FE9
0D3B6:  MOVLW  01
0D3B8:  ADDWFC 03,W
0D3BA:  MOVWF  FEA
0D3BC:  MOVLB  0
0D3BE:  MOVF   x6C,W
0D3C0:  SUBWF  FEF,W
0D3C2:  MOVLB  3
0D3C4:  MOVFF  32E,FEA
0D3C8:  MOVFF  01,FE9
0D3CC:  MOVWF  FEF
....................                }else{ 
0D3CE:  BRA    D3E4
0D3D0:  MOVLB  0
....................                   reserve_table[num] = 0; 
0D3D2:  CLRF   03
0D3D4:  MOVLB  3
0D3D6:  MOVF   x2C,W
0D3D8:  ADDLW  33
0D3DA:  MOVWF  FE9
0D3DC:  MOVLW  01
0D3DE:  ADDWFC 03,W
0D3E0:  MOVWF  FEA
0D3E2:  CLRF   FEF
....................                } 
....................             } 
0D3E4:  MOVLW  08
0D3E6:  ADDWF  x2C,F
0D3E8:  BRA    D36A
....................          } 
....................          reserve_table[table_num] = in_bffr_main[4];                             //input the data about mission content 
0D3EA:  CLRF   03
0D3EC:  MOVLB  1
0D3EE:  MOVF   x84,W
0D3F0:  ADDLW  33
0D3F2:  MOVWF  FE9
0D3F4:  MOVLW  01
0D3F6:  ADDWFC 03,W
0D3F8:  MOVWF  FEA
0D3FA:  MOVFF  8A,FEF
....................          reserve_table[table_num + 1] = in_bffr_main[5];                         //input data about time 
0D3FE:  MOVLW  01
0D400:  ADDWF  x84,W
0D402:  CLRF   03
0D404:  ADDLW  33
0D406:  MOVWF  FE9
0D408:  MOVLW  01
0D40A:  ADDWFC 03,W
0D40C:  MOVWF  FEA
0D40E:  MOVFF  8B,FEF
....................          reserve_table[table_num + 2] = in_bffr_main[6];                         //input the data about mission detail mode 
0D412:  MOVLW  02
0D414:  ADDWF  x84,W
0D416:  CLRF   03
0D418:  ADDLW  33
0D41A:  MOVWF  FE9
0D41C:  MOVLW  01
0D41E:  ADDWFC 03,W
0D420:  MOVWF  FEA
0D422:  MOVFF  8C,FEF
....................          reserve_table[table_num + 3] = in_bffr_main[7];                         //input address 
0D426:  MOVLW  03
0D428:  ADDWF  x84,W
0D42A:  CLRF   03
0D42C:  ADDLW  33
0D42E:  MOVWF  FE9
0D430:  MOVLW  01
0D432:  ADDWFC 03,W
0D434:  MOVWF  FEA
0D436:  MOVFF  8D,FEF
....................          reserve_table[table_num + 4] = in_bffr_main[8];                         //input address 
0D43A:  MOVLW  04
0D43C:  ADDWF  x84,W
0D43E:  CLRF   03
0D440:  ADDLW  33
0D442:  MOVWF  FE9
0D444:  MOVLW  01
0D446:  ADDWFC 03,W
0D448:  MOVWF  FEA
0D44A:  MOVFF  8E,FEF
....................          reserve_table[table_num + 5] = in_bffr_main[9];                         //input address 
0D44E:  MOVLW  05
0D450:  ADDWF  x84,W
0D452:  CLRF   03
0D454:  ADDLW  33
0D456:  MOVWF  FE9
0D458:  MOVLW  01
0D45A:  ADDWFC 03,W
0D45C:  MOVWF  FEA
0D45E:  MOVFF  8F,FEF
....................          reserve_table[table_num + 6] = in_bffr_main[10];                        //input address 
0D462:  MOVLW  06
0D464:  ADDWF  x84,W
0D466:  CLRF   03
0D468:  ADDLW  33
0D46A:  MOVWF  FE9
0D46C:  MOVLW  01
0D46E:  ADDWFC 03,W
0D470:  MOVWF  FEA
0D472:  MOVFF  90,FEF
....................          reserve_table[table_num + 7] = in_bffr_main[11];                        //input packet number 
0D476:  MOVLW  07
0D478:  ADDWF  x84,W
0D47A:  CLRF   03
0D47C:  ADDLW  33
0D47E:  MOVWF  FE9
0D480:  MOVLW  01
0D482:  ADDWFC 03,W
0D484:  MOVWF  FEA
0D486:  MOVFF  91,FEF
....................          if(RESERVE_MIN_FLAG != 0)                                               //RESERVE_MIN_FLAG = 0 --> no need to update the target flag 
0D48A:  MOVLB  0
0D48C:  MOVF   x6C,F
0D48E:  BZ    D496
....................          { 
....................             RESERVE_TARGET_FLAG = RESERVE_TARGET_FLAG - RESERVE_MIN_FLAG; 
0D490:  MOVF   x6C,W
0D492:  SUBWF  x6D,F
....................             RESERVE_MIN_FLAG = 0; 
0D494:  CLRF   x6C
....................          } 
....................       }else{                                                                     //if first reservation 
0D496:  BRA    D53E
....................          RESERVE_MIN_FLAG = 0; 
0D498:  CLRF   x6C
....................          RESERVE_SEC_FLAG = 0; 
0D49A:  CLRF   x7D
....................          reserve_table[table_num] = in_bffr_main[4];                             //input the data about mission content 
0D49C:  CLRF   03
0D49E:  MOVLB  1
0D4A0:  MOVF   x84,W
0D4A2:  ADDLW  33
0D4A4:  MOVWF  FE9
0D4A6:  MOVLW  01
0D4A8:  ADDWFC 03,W
0D4AA:  MOVWF  FEA
0D4AC:  MOVFF  8A,FEF
....................          reserve_table[table_num + 1] = in_bffr_main[5];                         //input time data 
0D4B0:  MOVLW  01
0D4B2:  ADDWF  x84,W
0D4B4:  CLRF   03
0D4B6:  ADDLW  33
0D4B8:  MOVWF  FE9
0D4BA:  MOVLW  01
0D4BC:  ADDWFC 03,W
0D4BE:  MOVWF  FEA
0D4C0:  MOVFF  8B,FEF
....................          reserve_table[table_num + 2] = in_bffr_main[6];                         //input the data about mission mode detail 
0D4C4:  MOVLW  02
0D4C6:  ADDWF  x84,W
0D4C8:  CLRF   03
0D4CA:  ADDLW  33
0D4CC:  MOVWF  FE9
0D4CE:  MOVLW  01
0D4D0:  ADDWFC 03,W
0D4D2:  MOVWF  FEA
0D4D4:  MOVFF  8C,FEF
....................          reserve_table[table_num + 3] = in_bffr_main[7];                         //input address 
0D4D8:  MOVLW  03
0D4DA:  ADDWF  x84,W
0D4DC:  CLRF   03
0D4DE:  ADDLW  33
0D4E0:  MOVWF  FE9
0D4E2:  MOVLW  01
0D4E4:  ADDWFC 03,W
0D4E6:  MOVWF  FEA
0D4E8:  MOVFF  8D,FEF
....................          reserve_table[table_num + 4] = in_bffr_main[8];                         //input address 
0D4EC:  MOVLW  04
0D4EE:  ADDWF  x84,W
0D4F0:  CLRF   03
0D4F2:  ADDLW  33
0D4F4:  MOVWF  FE9
0D4F6:  MOVLW  01
0D4F8:  ADDWFC 03,W
0D4FA:  MOVWF  FEA
0D4FC:  MOVFF  8E,FEF
....................          reserve_table[table_num + 5] = in_bffr_main[9];                         //input address 
0D500:  MOVLW  05
0D502:  ADDWF  x84,W
0D504:  CLRF   03
0D506:  ADDLW  33
0D508:  MOVWF  FE9
0D50A:  MOVLW  01
0D50C:  ADDWFC 03,W
0D50E:  MOVWF  FEA
0D510:  MOVFF  8F,FEF
....................          reserve_table[table_num + 6] = in_bffr_main[10];                        //input address 
0D514:  MOVLW  06
0D516:  ADDWF  x84,W
0D518:  CLRF   03
0D51A:  ADDLW  33
0D51C:  MOVWF  FE9
0D51E:  MOVLW  01
0D520:  ADDWFC 03,W
0D522:  MOVWF  FEA
0D524:  MOVFF  90,FEF
....................          reserve_table[table_num + 7] = in_bffr_main[11];                        //input packet number 
0D528:  MOVLW  07
0D52A:  ADDWF  x84,W
0D52C:  CLRF   03
0D52E:  ADDLW  33
0D530:  MOVWF  FE9
0D532:  MOVLW  01
0D534:  ADDWFC 03,W
0D536:  MOVWF  FEA
0D538:  MOVFF  91,FEF
0D53C:  MOVLB  0
....................       } 
....................       //table_num = table_num + 3; 
....................       //reserve_table[30] = table_num; 
....................       sort_table(); 
0D53E:  RCALL  CF46
.................... //!      for(int num = 0; num < table_size+1; num++) 
.................... //!      { 
.................... //!         fprintf(PC,"%x",reserve_table[num]);//show for the test 
.................... //!      } 
....................    } 
....................    reserve_table[80] = count_reservation();                                      //update the table number data 
0D540:  CALL   347E
0D544:  MOVFF  01,183
....................    return; 
0D548:  GOTO   D55E (RETURN)
.................... } 
....................  
....................  
....................  
.................... void input_reservation_PC()                                                      //put the command from PC into the table and sort 
.................... { 
.................... //!   reserve_table[table_num] = in_bffr_main[4]; 
.................... //!   reserve_table[table_num + 1] = in_bffr_main[5]; 
.................... //!   reserve_table[table_num + 2] = in_bffr_main[6]; 
....................    fprintf(PC,"Table num: %x\r\n",reserve_table[80]);                            //print the table 
*
0DDE6:  MOVLW  E4
0DDE8:  MOVWF  FF6
0DDEA:  MOVLW  06
0DDEC:  MOVWF  FF7
0DDEE:  MOVLW  00
0DDF0:  MOVWF  FF8
0DDF2:  MOVLW  0B
0DDF4:  MOVLB  3
0DDF6:  MOVWF  x62
0DDF8:  MOVLB  0
0DDFA:  CALL   17AE
0DDFE:  MOVFF  183,363
0DE02:  MOVLW  57
0DE04:  MOVLB  3
0DE06:  MOVWF  x64
0DE08:  MOVLB  0
0DE0A:  CALL   17E0
0DE0E:  MOVLW  0D
0DE10:  BTFSS  F9E.4
0DE12:  BRA    DE10
0DE14:  MOVWF  FAD
0DE16:  MOVLW  0A
0DE18:  BTFSS  F9E.4
0DE1A:  BRA    DE18
0DE1C:  MOVWF  FAD
....................    table_num = reserve_table[80]; 
0DE1E:  MOVFF  183,184
....................    if(reserve_table[80] == 80) 
0DE22:  MOVLB  1
0DE24:  MOVF   x83,W
0DE26:  SUBLW  50
0DE28:  BNZ   DE40
....................    { 
....................       fprintf(PC,"Reservation table is Full!\r\n\r\n"); 
0DE2A:  MOVLW  F4
0DE2C:  MOVWF  FF6
0DE2E:  MOVLW  06
0DE30:  MOVWF  FF7
0DE32:  MOVLW  00
0DE34:  MOVWF  FF8
0DE36:  MOVLB  0
0DE38:  CALL   318C
....................    }else{ 
0DE3C:  BRA    E026
0DE3E:  MOVLB  1
....................       if(RESERVE_CHECK != 0x00)                                                  //if new reservation is faster than target time 
0DE40:  MOVLB  0
0DE42:  MOVF   x6B,F
0DE44:  BTFSC  FD8.2
0DE46:  BRA    DF7C
....................       { 
....................          for(int num = 1; num < table_size - 6; num = num + 8) 
0DE48:  MOVLW  01
0DE4A:  MOVLB  3
0DE4C:  MOVWF  x2C
0DE4E:  MOVF   x2C,W
0DE50:  SUBLW  49
0DE52:  BNC   DECE
....................          { 
....................             if(reserve_table[num-1] != 0xff)                                     //check all command data placed in the table and update the time 
0DE54:  MOVLW  01
0DE56:  SUBWF  x2C,W
0DE58:  CLRF   03
0DE5A:  ADDLW  33
0DE5C:  MOVWF  FE9
0DE5E:  MOVLW  01
0DE60:  ADDWFC 03,W
0DE62:  MOVWF  FEA
0DE64:  INCFSZ FEF,W
0DE66:  BRA    DE6A
0DE68:  BRA    DEC8
....................             { 
....................                if(reserve_table[num] > RESERVE_MIN_FLAG) 
0DE6A:  CLRF   03
0DE6C:  MOVF   x2C,W
0DE6E:  ADDLW  33
0DE70:  MOVWF  FE9
0DE72:  MOVLW  01
0DE74:  ADDWFC 03,W
0DE76:  MOVWF  FEA
0DE78:  MOVF   FEF,W
0DE7A:  MOVLB  0
0DE7C:  SUBWF  x6C,W
0DE7E:  BC    DEB6
....................                { 
....................                   reserve_table[num] = reserve_table[num] - RESERVE_MIN_FLAG;    //update the time of all commands 
0DE80:  CLRF   03
0DE82:  MOVLB  3
0DE84:  MOVF   x2C,W
0DE86:  ADDLW  33
0DE88:  MOVWF  01
0DE8A:  MOVLW  01
0DE8C:  ADDWFC 03,F
0DE8E:  MOVFF  03,32E
0DE92:  CLRF   03
0DE94:  MOVF   x2C,W
0DE96:  ADDLW  33
0DE98:  MOVWF  FE9
0DE9A:  MOVLW  01
0DE9C:  ADDWFC 03,W
0DE9E:  MOVWF  FEA
0DEA0:  MOVLB  0
0DEA2:  MOVF   x6C,W
0DEA4:  SUBWF  FEF,W
0DEA6:  MOVLB  3
0DEA8:  MOVFF  32E,FEA
0DEAC:  MOVFF  01,FE9
0DEB0:  MOVWF  FEF
....................                }else{ 
0DEB2:  BRA    DEC8
0DEB4:  MOVLB  0
....................                   reserve_table[num] = 0; 
0DEB6:  CLRF   03
0DEB8:  MOVLB  3
0DEBA:  MOVF   x2C,W
0DEBC:  ADDLW  33
0DEBE:  MOVWF  FE9
0DEC0:  MOVLW  01
0DEC2:  ADDWFC 03,W
0DEC4:  MOVWF  FEA
0DEC6:  CLRF   FEF
....................                } 
....................             } 
0DEC8:  MOVLW  08
0DECA:  ADDWF  x2C,F
0DECC:  BRA    DE4E
....................          } 
....................          reserve_table[table_num] = CMD_FROM_PC[0];                              //input the data about mission content 
0DECE:  CLRF   03
0DED0:  MOVLB  1
0DED2:  MOVF   x84,W
0DED4:  ADDLW  33
0DED6:  MOVWF  FE9
0DED8:  MOVLW  01
0DEDA:  ADDWFC 03,W
0DEDC:  MOVWF  FEA
0DEDE:  MOVFF  7E,FEF
....................          reserve_table[table_num + 1] = CMD_FROM_PC[1];                          //input reservation time 
0DEE2:  MOVLW  01
0DEE4:  ADDWF  x84,W
0DEE6:  CLRF   03
0DEE8:  ADDLW  33
0DEEA:  MOVWF  FE9
0DEEC:  MOVLW  01
0DEEE:  ADDWFC 03,W
0DEF0:  MOVWF  FEA
0DEF2:  MOVFF  7F,FEF
....................          reserve_table[table_num + 2] = CMD_FROM_PC[2];                          //input the data about mission detail mode 
0DEF6:  MOVLW  02
0DEF8:  ADDWF  x84,W
0DEFA:  CLRF   03
0DEFC:  ADDLW  33
0DEFE:  MOVWF  FE9
0DF00:  MOVLW  01
0DF02:  ADDWFC 03,W
0DF04:  MOVWF  FEA
0DF06:  MOVFF  80,FEF
....................          reserve_table[table_num + 3] = CMD_FROM_PC[3];                          //input address 
0DF0A:  MOVLW  03
0DF0C:  ADDWF  x84,W
0DF0E:  CLRF   03
0DF10:  ADDLW  33
0DF12:  MOVWF  FE9
0DF14:  MOVLW  01
0DF16:  ADDWFC 03,W
0DF18:  MOVWF  FEA
0DF1A:  MOVFF  81,FEF
....................          reserve_table[table_num + 4] = CMD_FROM_PC[4];                          //input address 
0DF1E:  MOVLW  04
0DF20:  ADDWF  x84,W
0DF22:  CLRF   03
0DF24:  ADDLW  33
0DF26:  MOVWF  FE9
0DF28:  MOVLW  01
0DF2A:  ADDWFC 03,W
0DF2C:  MOVWF  FEA
0DF2E:  MOVFF  82,FEF
....................          reserve_table[table_num + 5] = CMD_FROM_PC[5];                          //input address 
0DF32:  MOVLW  05
0DF34:  ADDWF  x84,W
0DF36:  CLRF   03
0DF38:  ADDLW  33
0DF3A:  MOVWF  FE9
0DF3C:  MOVLW  01
0DF3E:  ADDWFC 03,W
0DF40:  MOVWF  FEA
0DF42:  MOVFF  83,FEF
....................          reserve_table[table_num + 6] = CMD_FROM_PC[6];                          //input address 
0DF46:  MOVLW  06
0DF48:  ADDWF  x84,W
0DF4A:  CLRF   03
0DF4C:  ADDLW  33
0DF4E:  MOVWF  FE9
0DF50:  MOVLW  01
0DF52:  ADDWFC 03,W
0DF54:  MOVWF  FEA
0DF56:  MOVFF  84,FEF
....................          reserve_table[table_num + 7] = CMD_FROM_PC[7];                          //input packet number 
0DF5A:  MOVLW  07
0DF5C:  ADDWF  x84,W
0DF5E:  CLRF   03
0DF60:  ADDLW  33
0DF62:  MOVWF  FE9
0DF64:  MOVLW  01
0DF66:  ADDWFC 03,W
0DF68:  MOVWF  FEA
0DF6A:  MOVFF  85,FEF
....................           
....................          if(RESERVE_MIN_FLAG != 0)                                               //RESERVE_MIN_FLAG = 0 --> no need to update the target flag 
0DF6E:  MOVLB  0
0DF70:  MOVF   x6C,F
0DF72:  BZ    DF7A
....................          { 
....................             RESERVE_TARGET_FLAG = RESERVE_TARGET_FLAG - RESERVE_MIN_FLAG; 
0DF74:  MOVF   x6C,W
0DF76:  SUBWF  x6D,F
....................             RESERVE_MIN_FLAG = 0; 
0DF78:  CLRF   x6C
....................          } 
....................       }else{                                                                     //if first reservation 
0DF7A:  BRA    E022
....................          RESERVE_MIN_FLAG = 0; 
0DF7C:  CLRF   x6C
....................          RESERVE_SEC_FLAG = 0; 
0DF7E:  CLRF   x7D
....................          reserve_table[table_num] = CMD_FROM_PC[0];                              //input the data about mission content 
0DF80:  CLRF   03
0DF82:  MOVLB  1
0DF84:  MOVF   x84,W
0DF86:  ADDLW  33
0DF88:  MOVWF  FE9
0DF8A:  MOVLW  01
0DF8C:  ADDWFC 03,W
0DF8E:  MOVWF  FEA
0DF90:  MOVFF  7E,FEF
....................          reserve_table[table_num + 1] = CMD_FROM_PC[1]; 
0DF94:  MOVLW  01
0DF96:  ADDWF  x84,W
0DF98:  CLRF   03
0DF9A:  ADDLW  33
0DF9C:  MOVWF  FE9
0DF9E:  MOVLW  01
0DFA0:  ADDWFC 03,W
0DFA2:  MOVWF  FEA
0DFA4:  MOVFF  7F,FEF
....................          reserve_table[table_num + 2] = CMD_FROM_PC[2];                          //input the data about mission detail mode 
0DFA8:  MOVLW  02
0DFAA:  ADDWF  x84,W
0DFAC:  CLRF   03
0DFAE:  ADDLW  33
0DFB0:  MOVWF  FE9
0DFB2:  MOVLW  01
0DFB4:  ADDWFC 03,W
0DFB6:  MOVWF  FEA
0DFB8:  MOVFF  80,FEF
....................          reserve_table[table_num + 3] = CMD_FROM_PC[3];                          //input address 
0DFBC:  MOVLW  03
0DFBE:  ADDWF  x84,W
0DFC0:  CLRF   03
0DFC2:  ADDLW  33
0DFC4:  MOVWF  FE9
0DFC6:  MOVLW  01
0DFC8:  ADDWFC 03,W
0DFCA:  MOVWF  FEA
0DFCC:  MOVFF  81,FEF
....................          reserve_table[table_num + 4] = CMD_FROM_PC[4];                          //input address 
0DFD0:  MOVLW  04
0DFD2:  ADDWF  x84,W
0DFD4:  CLRF   03
0DFD6:  ADDLW  33
0DFD8:  MOVWF  FE9
0DFDA:  MOVLW  01
0DFDC:  ADDWFC 03,W
0DFDE:  MOVWF  FEA
0DFE0:  MOVFF  82,FEF
....................          reserve_table[table_num + 5] = CMD_FROM_PC[5];                          //input address 
0DFE4:  MOVLW  05
0DFE6:  ADDWF  x84,W
0DFE8:  CLRF   03
0DFEA:  ADDLW  33
0DFEC:  MOVWF  FE9
0DFEE:  MOVLW  01
0DFF0:  ADDWFC 03,W
0DFF2:  MOVWF  FEA
0DFF4:  MOVFF  83,FEF
....................          reserve_table[table_num + 6] = CMD_FROM_PC[6];                          //input address 
0DFF8:  MOVLW  06
0DFFA:  ADDWF  x84,W
0DFFC:  CLRF   03
0DFFE:  ADDLW  33
0E000:  MOVWF  FE9
0E002:  MOVLW  01
0E004:  ADDWFC 03,W
0E006:  MOVWF  FEA
0E008:  MOVFF  84,FEF
....................          reserve_table[table_num + 7] = CMD_FROM_PC[7];                          //input packet number 
0E00C:  MOVLW  07
0E00E:  ADDWF  x84,W
0E010:  CLRF   03
0E012:  ADDLW  33
0E014:  MOVWF  FE9
0E016:  MOVLW  01
0E018:  ADDWFC 03,W
0E01A:  MOVWF  FEA
0E01C:  MOVFF  85,FEF
0E020:  MOVLB  0
....................       } 
....................       //table_num = table_num + 3; 
....................       //reserve_table[30] = table_num; 
....................       sort_table(); 
0E022:  CALL   CF46
.................... //!      for(int num = 0; num < table_size+1; num++) 
.................... //!      { 
.................... //!         fprintf(PC,"%x",reserve_table[num]);//show for the test 
.................... //!      } 
....................    } 
....................    reserve_table[80] = count_reservation();                                      //update the table number data 
0E026:  CALL   347E
0E02A:  MOVFF  01,183
....................    return; 
0E02E:  GOTO   E044 (RETURN)
.................... } 
....................  
....................  
....................  
.................... void Remove_1_Reservation()                                                      //after executing the mission, it should be finished 
.................... { 
....................    for(int i = 1; i < table_size - 6; i = i + 8) 
*
0D266:  MOVLW  01
0D268:  MOVLB  3
0D26A:  MOVWF  x2C
0D26C:  MOVF   x2C,W
0D26E:  SUBLW  49
0D270:  BNC   D2BE
....................    { 
....................       if(reserve_table[i-1] != 0xff)                                             //check whether command data is placed 
0D272:  MOVLW  01
0D274:  SUBWF  x2C,W
0D276:  CLRF   03
0D278:  ADDLW  33
0D27A:  MOVWF  FE9
0D27C:  MOVLW  01
0D27E:  ADDWFC 03,W
0D280:  MOVWF  FEA
0D282:  INCFSZ FEF,W
0D284:  BRA    D288
0D286:  BRA    D2B8
....................       { 
....................          reserve_table[i] = reserve_table[i] - RESERVE_TARGET_FLAG;              //update the time of all commands 
0D288:  CLRF   03
0D28A:  MOVF   x2C,W
0D28C:  ADDLW  33
0D28E:  MOVWF  01
0D290:  MOVLW  01
0D292:  ADDWFC 03,F
0D294:  MOVFF  03,32E
0D298:  CLRF   03
0D29A:  MOVF   x2C,W
0D29C:  ADDLW  33
0D29E:  MOVWF  FE9
0D2A0:  MOVLW  01
0D2A2:  ADDWFC 03,W
0D2A4:  MOVWF  FEA
0D2A6:  MOVLB  0
0D2A8:  MOVF   x6D,W
0D2AA:  SUBWF  FEF,W
0D2AC:  MOVLB  3
0D2AE:  MOVFF  32E,FEA
0D2B2:  MOVFF  01,FE9
0D2B6:  MOVWF  FEF
....................       } 
0D2B8:  MOVLW  08
0D2BA:  ADDWF  x2C,F
0D2BC:  BRA    D26C
....................    } 
....................    reserve_table[0] = 0xff;                                                      //delete the finished mission data, put 0xFF to move at the end of the table 
0D2BE:  MOVLB  1
0D2C0:  SETF   x33
....................    reserve_table[1] = 0xff;                                                      //delete the finished mission data 
0D2C2:  SETF   x34
....................    reserve_table[2] = 0xff;                                                      //delete the finished mission data  
0D2C4:  SETF   x35
....................    reserve_table[3] = 0xff;                                                      //delete the finished mission data 
0D2C6:  SETF   x36
....................    reserve_table[4] = 0xff;                                                      //delete the finished mission data 
0D2C8:  SETF   x37
....................    reserve_table[5] = 0xff;                                                      //delete the finished mission data 
0D2CA:  SETF   x38
....................    reserve_table[6] = 0xff;                                                      //delete the finished mission data 
0D2CC:  SETF   x39
....................    reserve_table[7] = 0xff;                                                      //delete the finished mission data 
0D2CE:  SETF   x3A
....................    sort_table(); 
0D2D0:  MOVLB  0
0D2D2:  RCALL  CF46
....................    reserve_table[80] = count_reservation();                                      //update the table number data 
0D2D4:  CALL   347E
0D2D8:  MOVFF  01,183
....................     
....................    fprintf(PC,"Removed finished mission command:"); 
0D2DC:  MOVLW  14
0D2DE:  MOVWF  FF6
0D2E0:  MOVLW  07
0D2E2:  MOVWF  FF7
0D2E4:  MOVLW  00
0D2E6:  MOVWF  FF8
0D2E8:  CALL   318C
....................    Save_RSV(); 
0D2EC:  CALL   783E
....................    fprintf(PC,"\r\n"); 
0D2F0:  MOVLW  0D
0D2F2:  BTFSS  F9E.4
0D2F4:  BRA    D2F2
0D2F6:  MOVWF  FAD
0D2F8:  MOVLW  0A
0D2FA:  BTFSS  F9E.4
0D2FC:  BRA    D2FA
0D2FE:  MOVWF  FAD
....................    return; 
0D300:  GOTO   E4DC (RETURN)
.................... } 
....................  
.................... void Reserve_command_COM()                                                       //reservation from COM 
.................... { 
....................    fprintf(PC,"Reserve CMD from COM\r\n"); 
*
0D54C:  MOVLW  36
0D54E:  MOVWF  FF6
0D550:  MOVLW  07
0D552:  MOVWF  FF7
0D554:  MOVLW  00
0D556:  MOVWF  FF8
0D558:  CALL   318C
....................    input_reservation_COM();                                                      //put the command from COM into the table and sort in ascending form 
0D55C:  BRA    D33A
....................    Save_RSV();                                                                   //save reserve table to flash memory 
0D55E:  CALL   783E
....................    RESERVE_CHECK = 1;                                                            // table check flag in HIGH 
0D562:  MOVLW  01
0D564:  MOVWF  x6B
....................    if(reserve_table[80] == 0x00 || reserve_table[80] == 0xff) 
0D566:  MOVLB  1
0D568:  MOVF   x83,F
0D56A:  BZ    D570
0D56C:  INCFSZ x83,W
0D56E:  BRA    D576
....................    { 
....................       RESERVE_MIN_FLAG = 0;                                                      //reset time flag 
0D570:  MOVLB  0
0D572:  CLRF   x6C
0D574:  MOVLB  1
....................    } 
....................    MISSION_CONTENTS = reserve_table[0];                                          //closest mission command 
0D576:  MOVFF  133,6E
....................    RESERVE_TARGET_FLAG = reserve_table[1];                                       //closest time data 
0D57A:  MOVFF  134,6D
....................    MISSION_DETAIL = reserve_table[2];                                            //closest mission command detail 
0D57E:  MOVFF  135,6F
....................    RESERVE_ADDRESS_1 = reserve_table[3];                                         //closest mission address 
0D582:  MOVFF  136,70
....................    RESERVE_ADDRESS_2 = reserve_table[4];                                         //closest mission address 
0D586:  MOVFF  137,71
....................    RESERVE_ADDRESS_3 = reserve_table[5];                                         //closest mission address 
0D58A:  MOVFF  138,72
....................    RESERVE_ADDRESS_4 = reserve_table[6];                                         //closest mission address 
0D58E:  MOVFF  139,73
....................    RESERVE_PACKET_NUM = reserve_table[7];                                        //closest mission pckt number 
0D592:  MOVFF  13A,74
0D596:  MOVLB  0
0D598:  GOTO   E580 (RETURN)
.................... } 
....................  
....................  
....................  
.................... void Reserve_command_PC()                                                        //reservation from PC 
.................... { 
....................    fprintf(PC,"Reserve CMD from PC\r\n"); 
*
0E032:  MOVLW  4E
0E034:  MOVWF  FF6
0E036:  MOVLW  07
0E038:  MOVWF  FF7
0E03A:  MOVLW  00
0E03C:  MOVWF  FF8
0E03E:  CALL   318C
....................    input_reservation_PC();                                                       //put the command from PC into the table and sort in ascending form 
0E042:  BRA    DDE6
....................    Save_RSV();                                                                   //save reserve table to flash memory 
0E044:  CALL   783E
....................    RESERVE_CHECK = 1; 
0E048:  MOVLW  01
0E04A:  MOVWF  x6B
....................    if(reserve_table[80] == 0x00 || reserve_table[80] == 0xff)                    //for only first reservation 
0E04C:  MOVLB  1
0E04E:  MOVF   x83,F
0E050:  BZ    E056
0E052:  INCFSZ x83,W
0E054:  BRA    E05C
....................    { 
....................       RESERVE_MIN_FLAG = 0;                                                      //reset time flag 
0E056:  MOVLB  0
0E058:  CLRF   x6C
0E05A:  MOVLB  1
....................    } 
....................    MISSION_CONTENTS = reserve_table[0];                                          //closest mission command 
0E05C:  MOVFF  133,6E
....................    RESERVE_TARGET_FLAG = reserve_table[1];                                       //closest time data 
0E060:  MOVFF  134,6D
....................    MISSION_DETAIL = reserve_table[2];                                            //closest mission command detail 
0E064:  MOVFF  135,6F
....................    RESERVE_ADDRESS_1 = reserve_table[3];                                         //closest mission address 
0E068:  MOVFF  136,70
....................    RESERVE_ADDRESS_2 = reserve_table[4];                                         //closest mission address 
0E06C:  MOVFF  137,71
....................    RESERVE_ADDRESS_3 = reserve_table[5];                                         //closest mission address 
0E070:  MOVFF  138,72
....................    RESERVE_ADDRESS_4 = reserve_table[6];                                         //closest mission address 
0E074:  MOVFF  139,73
....................    RESERVE_PACKET_NUM = reserve_table[7];                                        //closest mission pckt number 
0E078:  MOVFF  13A,74
0E07C:  MOVLB  0
0E07E:  GOTO   E618 (RETURN)
.................... } 
....................  
....................  
....................  
.................... void Reserve_next()                                                              //after finish execution of reservation command, this function should be execute 
.................... { 
....................    fprintf(PC,"Reserve next\r\n"); 
*
0D304:  MOVLW  64
0D306:  MOVWF  FF6
0D308:  MOVLW  07
0D30A:  MOVWF  FF7
0D30C:  MOVLW  00
0D30E:  MOVWF  FF8
0D310:  CALL   318C
....................    //Save_RSV();//save reserve table to flash memory 
....................     
....................    //RESERVE_CHECK = 1; 
....................    RESERVE_MIN_FLAG = 0;                                                         //reset time flag 
0D314:  CLRF   x6C
....................    MISSION_CONTENTS = reserve_table[0];                                          //update closest mission command 
0D316:  MOVFF  133,6E
....................    RESERVE_TARGET_FLAG = reserve_table[1];                                       //update closest time data (it is the time after 1 mission) 
0D31A:  MOVFF  134,6D
....................    MISSION_DETAIL = reserve_table[2];                                            //closest mission command detail 
0D31E:  MOVFF  135,6F
....................    RESERVE_ADDRESS_1 = reserve_table[3];                                         //closest mission address 
0D322:  MOVFF  136,70
....................    RESERVE_ADDRESS_2 = reserve_table[4];                                         //closest mission address 
0D326:  MOVFF  137,71
....................    RESERVE_ADDRESS_3 = reserve_table[5];                                         //closest mission address 
0D32A:  MOVFF  138,72
....................    RESERVE_ADDRESS_4 = reserve_table[6];                                         //closest mission address 
0D32E:  MOVFF  139,73
....................    RESERVE_PACKET_NUM = reserve_table[7];                                        //closest mission pckt number 
0D332:  MOVFF  13A,74
0D336:  GOTO   E4E8 (RETURN)
.................... } 
....................  
....................  
....................  
.................... #include<SATELLITE_LOG.c> 
.................... void waiting(int32 counterval)                                                   //about 200000 : 1s 
.................... { 
....................    for(int32 num = 0; num < counterval; num++) 
*
01B26:  MOVLB  3
01B28:  CLRF   x60
01B2A:  CLRF   x5F
01B2C:  CLRF   x5E
01B2E:  CLRF   x5D
01B30:  MOVF   x60,W
01B32:  SUBWF  x5C,W
01B34:  BNC   1B60
01B36:  BNZ   1B4E
01B38:  MOVF   x5F,W
01B3A:  SUBWF  x5B,W
01B3C:  BNC   1B60
01B3E:  BNZ   1B4E
01B40:  MOVF   x5E,W
01B42:  SUBWF  x5A,W
01B44:  BNC   1B60
01B46:  BNZ   1B4E
01B48:  MOVF   x59,W
01B4A:  SUBWF  x5D,W
01B4C:  BC    1B60
....................    {} 
01B4E:  MOVLW  01
01B50:  ADDWF  x5D,F
01B52:  BTFSC  FD8.0
01B54:  INCF   x5E,F
01B56:  BTFSC  FD8.2
01B58:  INCF   x5F,F
01B5A:  BTFSC  FD8.2
01B5C:  INCF   x60,F
01B5E:  BRA    1B30
....................    return; 
01B60:  MOVLB  0
01B62:  RETURN 0
.................... } 
....................  
.................... //--------RESET Function--------------------------------------------- 
....................  
....................  
.................... void DELETE_RESET()                                                              //funcion que pone a cero el vector reset_bffr[] 
.................... { 
....................    for(int8 num = 0; num < Reset_size; num++) 
*
01ACE:  MOVLB  3
01AD0:  CLRF   x59
01AD2:  MOVF   x59,W
01AD4:  SUBLW  0A
01AD6:  BNC   1AEC
....................    { 
....................       reset_bffr[num] = 0; 
01AD8:  CLRF   03
01ADA:  MOVF   x59,W
01ADC:  ADDLW  EC
01ADE:  MOVWF  FE9
01AE0:  MOVLW  00
01AE2:  ADDWFC 03,W
01AE4:  MOVWF  FEA
01AE6:  CLRF   FEF
01AE8:  INCF   x59,F
01AEA:  BRA    1AD2
....................    } 
....................    return; 
01AEC:  MOVLB  0
01AEE:  RETURN 0
.................... } 
....................  
.................... void SEND_CMD_FOR_RESET_SATELLITE() 
.................... {   
....................    STORE_FLAG_INFO();                                                            //save flag data to flash memory 
*
07A76:  CALL   5714
....................    Save_RSV();                                                                   //save in flash memory reserve_table[] content 
07A7A:  RCALL  783E
....................    STORE_ADRESS_DATA_TO_FLASH(); 
07A7C:  CALL   3776
.................... // while(true) 
.................... // { 
....................       //fputc(0x27,PC); 
....................       fprintf(PC,"%x,",READ_DATA_BYTE_OF(FAB_HK_ADDRESS-122));                   //sec 
07A80:  MOVLW  7A
07A82:  SUBWF  48,W
07A84:  MOVLB  3
07A86:  MOVWF  x3E
07A88:  MOVLW  00
07A8A:  SUBWFB 49,W
07A8C:  MOVWF  x3F
07A8E:  MOVLW  00
07A90:  SUBWFB 4A,W
07A92:  MOVWF  x40
07A94:  MOVLW  00
07A96:  SUBWFB 4B,W
07A98:  MOVWF  x41
07A9A:  MOVWF  x6C
07A9C:  MOVFF  340,36B
07AA0:  MOVFF  33F,36A
07AA4:  MOVFF  33E,369
07AA8:  MOVLB  0
07AAA:  CALL   135C
07AAE:  MOVFF  01,33E
07AB2:  MOVFF  01,363
07AB6:  MOVLW  57
07AB8:  MOVLB  3
07ABA:  MOVWF  x64
07ABC:  MOVLB  0
07ABE:  CALL   17E0
07AC2:  MOVLW  2C
07AC4:  BTFSS  F9E.4
07AC6:  BRA    7AC4
07AC8:  MOVWF  FAD
....................       fprintf(PC,"%x,",READ_DATA_BYTE_OF(FAB_HK_ADDRESS-121));                   //min 
07ACA:  MOVLW  79
07ACC:  SUBWF  48,W
07ACE:  MOVLB  3
07AD0:  MOVWF  x3E
07AD2:  MOVLW  00
07AD4:  SUBWFB 49,W
07AD6:  MOVWF  x3F
07AD8:  MOVLW  00
07ADA:  SUBWFB 4A,W
07ADC:  MOVWF  x40
07ADE:  MOVLW  00
07AE0:  SUBWFB 4B,W
07AE2:  MOVWF  x41
07AE4:  MOVWF  x6C
07AE6:  MOVFF  340,36B
07AEA:  MOVFF  33F,36A
07AEE:  MOVFF  33E,369
07AF2:  MOVLB  0
07AF4:  CALL   135C
07AF8:  MOVFF  01,33E
07AFC:  MOVFF  01,363
07B00:  MOVLW  57
07B02:  MOVLB  3
07B04:  MOVWF  x64
07B06:  MOVLB  0
07B08:  CALL   17E0
07B0C:  MOVLW  2C
07B0E:  BTFSS  F9E.4
07B10:  BRA    7B0E
07B12:  MOVWF  FAD
....................       fprintf(PC,"%x,",READ_DATA_BYTE_OF(FAB_HK_ADDRESS-120));                   //hou 
07B14:  MOVLW  78
07B16:  SUBWF  48,W
07B18:  MOVLB  3
07B1A:  MOVWF  x3E
07B1C:  MOVLW  00
07B1E:  SUBWFB 49,W
07B20:  MOVWF  x3F
07B22:  MOVLW  00
07B24:  SUBWFB 4A,W
07B26:  MOVWF  x40
07B28:  MOVLW  00
07B2A:  SUBWFB 4B,W
07B2C:  MOVWF  x41
07B2E:  MOVWF  x6C
07B30:  MOVFF  340,36B
07B34:  MOVFF  33F,36A
07B38:  MOVFF  33E,369
07B3C:  MOVLB  0
07B3E:  CALL   135C
07B42:  MOVFF  01,33E
07B46:  MOVFF  01,363
07B4A:  MOVLW  57
07B4C:  MOVLB  3
07B4E:  MOVWF  x64
07B50:  MOVLB  0
07B52:  CALL   17E0
07B56:  MOVLW  2C
07B58:  BTFSS  F9E.4
07B5A:  BRA    7B58
07B5C:  MOVWF  FAD
....................       fprintf(PC,"%x",READ_DATA_BYTE_OF(FAB_HK_ADDRESS-119));                    //day H 
07B5E:  MOVLW  77
07B60:  SUBWF  48,W
07B62:  MOVLB  3
07B64:  MOVWF  x3E
07B66:  MOVLW  00
07B68:  SUBWFB 49,W
07B6A:  MOVWF  x3F
07B6C:  MOVLW  00
07B6E:  SUBWFB 4A,W
07B70:  MOVWF  x40
07B72:  MOVLW  00
07B74:  SUBWFB 4B,W
07B76:  MOVWF  x41
07B78:  MOVWF  x6C
07B7A:  MOVFF  340,36B
07B7E:  MOVFF  33F,36A
07B82:  MOVFF  33E,369
07B86:  MOVLB  0
07B88:  CALL   135C
07B8C:  MOVFF  01,33E
07B90:  MOVFF  01,363
07B94:  MOVLW  57
07B96:  MOVLB  3
07B98:  MOVWF  x64
07B9A:  MOVLB  0
07B9C:  CALL   17E0
....................       fprintf(PC,"%x\r\n",READ_DATA_BYTE_OF(FAB_HK_ADDRESS-118));                //day L 
07BA0:  MOVLW  76
07BA2:  SUBWF  48,W
07BA4:  MOVLB  3
07BA6:  MOVWF  x3E
07BA8:  MOVLW  00
07BAA:  SUBWFB 49,W
07BAC:  MOVWF  x3F
07BAE:  MOVLW  00
07BB0:  SUBWFB 4A,W
07BB2:  MOVWF  x40
07BB4:  MOVLW  00
07BB6:  SUBWFB 4B,W
07BB8:  MOVWF  x41
07BBA:  MOVWF  x6C
07BBC:  MOVFF  340,36B
07BC0:  MOVFF  33F,36A
07BC4:  MOVFF  33E,369
07BC8:  MOVLB  0
07BCA:  CALL   135C
07BCE:  MOVFF  01,33E
07BD2:  MOVFF  01,363
07BD6:  MOVLW  57
07BD8:  MOVLB  3
07BDA:  MOVWF  x64
07BDC:  MOVLB  0
07BDE:  CALL   17E0
07BE2:  MOVLW  0D
07BE4:  BTFSS  F9E.4
07BE6:  BRA    7BE4
07BE8:  MOVWF  FAD
07BEA:  MOVLW  0A
07BEC:  BTFSS  F9E.4
07BEE:  BRA    7BEC
07BF0:  MOVWF  FAD
....................         for(int i = 0; i<100; i++) 
07BF2:  MOVLB  3
07BF4:  CLRF   x3D
07BF6:  MOVF   x3D,W
07BF8:  SUBLW  63
07BFA:  BNC   7C16
....................         { 
....................          fputc(0x27,reset);                                                      //send command for satellite reset 
07BFC:  MOVLW  27
07BFE:  MOVLB  0
07C00:  CALL   1AF0
....................          delay_ms(10); 
07C04:  MOVLW  0A
07C06:  MOVLB  3
07C08:  MOVWF  x6B
07C0A:  MOVLB  0
07C0C:  CALL   1AFC
07C10:  MOVLB  3
07C12:  INCF   x3D,F
07C14:  BRA    7BF6
....................         } 
....................       //delay_ms(100);//if it is needed 
.................... //!      fputc(READ_DATA_BYTE_OF(FAB_HK_ADDRESS-122),reset); 
.................... //!      fputc(READ_DATA_BYTE_OF(FAB_HK_ADDRESS-121),reset); 
.................... //!      fputc(READ_DATA_BYTE_OF(FAB_HK_ADDRESS-120),reset); 
.................... //!      fputc(READ_DATA_BYTE_OF(FAB_HK_ADDRESS-119),reset); 
.................... //!      fputc(READ_DATA_BYTE_OF(FAB_HK_ADDRESS-118),reset); 
....................       RESET_DATA = 0; 
07C16:  MOVLB  0
07C18:  CLRF   xEB
....................       fprintf(PC,"Ready for reset"); 
07C1A:  MOVLW  74
07C1C:  MOVWF  FF6
07C1E:  MOVLW  07
07C20:  MOVWF  FF7
07C22:  MOVLW  00
07C24:  MOVWF  FF8
07C26:  CALL   318C
....................       delay_ms(1000); 
07C2A:  MOVLW  04
07C2C:  MOVLB  3
07C2E:  MOVWF  x3E
07C30:  MOVLW  FA
07C32:  MOVWF  x6B
07C34:  MOVLB  0
07C36:  CALL   1AFC
07C3A:  MOVLB  3
07C3C:  DECFSZ x3E,F
07C3E:  BRA    7C30
.................... // } 
....................    return; 
07C40:  MOVLB  0
07C42:  RETURN 0
.................... } 
....................  
.................... void RESET_SATELLITE()                                                           //if get reset command from reset, prepare for resetting 
.................... { 
....................    if(reset_flag == 1)                                                           //get ready for reset satellite 
07C44:  DECFSZ xF7,W
07C46:  BRA    7C4A
....................    { 
....................       SEND_CMD_FOR_RESET_SATELLITE();                                            //store flag, save RSV, store Address, send command and wait for reset 
07C48:  RCALL  7A76
....................    } 
....................    DELETE_RESET();                                                               //load zero in reset_bffr[] 
07C4A:  CALL   1ACE
....................    RESET_DATA = 0; 
07C4E:  CLRF   xEB
....................    return; 
07C50:  RETURN 0
.................... } 
....................  
.................... void COLLECT_RESET_DATA()                                                        //funcion que envia el comando 0x28 al reset PIC y carga reset_bffr[] 
.................... { 
....................    DELETE_RESET();                                                               //pone a cero todas las posiciones del vector 
*
01B64:  RCALL  1ACE
....................    RESET_DATA = 0; 
01B66:  CLRF   xEB
....................    for(int m=0; m<10; m++) 
01B68:  MOVLB  3
01B6A:  CLRF   x58
01B6C:  MOVF   x58,W
01B6E:  SUBLW  09
01B70:  BNC   1BA6
....................    { 
....................       fputc(0x28,reset);                                                            //Envia el comando 0x28 en el puerto del reset PIC 
01B72:  MOVLW  28
01B74:  MOVLB  0
01B76:  RCALL  1AF0
....................       delay_ms(10); 
01B78:  MOVLW  0A
01B7A:  MOVLB  3
01B7C:  MOVWF  x6B
01B7E:  MOVLB  0
01B80:  RCALL  1AFC
....................       waiting(10000);                                                               //wait aprox 0.5s para que el RESET PIC envie los datos por el UART (interrupcion) 
01B82:  MOVLB  3
01B84:  CLRF   x5C
01B86:  CLRF   x5B
01B88:  MOVLW  27
01B8A:  MOVWF  x5A
01B8C:  MOVLW  10
01B8E:  MOVWF  x59
01B90:  MOVLB  0
01B92:  RCALL  1B26
....................          if(RESET_bffr[0] == 0x8e) 
01B94:  MOVF   xEC,W
01B96:  SUBLW  8E
01B98:  BNZ   1BA0
....................          { 
....................          break; 
01B9A:  MOVLB  3
01B9C:  BRA    1BA6
01B9E:  MOVLB  0
....................          } 
01BA0:  MOVLB  3
01BA2:  INCF   x58,F
01BA4:  BRA    1B6C
....................    } 
....................    return; 
01BA6:  MOVLB  0
01BA8:  RETURN 0
.................... } 
....................  
....................  
.................... //@@@@@@@@@@@for satellite log@@@@@@@@@@@@@@@@@@@@@@@@@@@@@@@@@@@@@@@@@@@@@@@@@@ 
.................... #define logdata_size 11 
.................... int8 satellitelog[logdata_size] = {}; 
....................  
.................... void SAVE_SAT_LOG(int8 data1, int8 data2, int8 data3) 
.................... { 
....................    LOOP_SAT_LOG();                                                               //hace un loop en las posiciones de memoria para almacenar SAT_LOG 
*
03A8A:  BRA    3A20
....................    RESET_DATA = 0; 
03A8C:  CLRF   xEB
....................    COLLECT_RESET_DATA();                                                         //carga el RESET_bffr[] con los datos del reset PIC 
03A8E:  CALL   1B64
....................    if(RESET_bffr[0] == 0x8e) 
03A92:  MOVF   xEC,W
03A94:  SUBLW  8E
03A96:  BTFSS  FD8.2
03A98:  BRA    3BC4
....................    { 
....................       satellitelog[0] = 0xda;                                                    //header of the satellite log 
03A9A:  MOVLW  DA
03A9C:  MOVLB  1
03A9E:  MOVWF  x85
....................       satellitelog[1] = 0xda;                                                    //header of the satellite log 
03AA0:  MOVWF  x86
....................     
....................       satellitelog[2] = RESET_bffr[1]; 
03AA2:  MOVFF  ED,187
....................       satellitelog[3] = RESET_bffr[2]; 
03AA6:  MOVFF  EE,188
....................       satellitelog[4] = RESET_bffr[3]; 
03AAA:  MOVFF  EF,189
....................       satellitelog[5] = RESET_bffr[4]; 
03AAE:  MOVFF  F0,18A
....................       satellitelog[6] = RESET_bffr[5]; 
03AB2:  MOVFF  F1,18B
....................        
....................       satellitelog[7] = data1; 
03AB6:  MOVFF  354,18C
....................       satellitelog[8] = data2; 
03ABA:  MOVFF  355,18D
....................       satellitelog[9] = data3; 
03ABE:  MOVFF  356,18E
....................       satellitelog[10] = 0xef;                                                   //footer, fin del array 
03AC2:  MOVLW  EF
03AC4:  MOVWF  x8F
....................        
....................       output_low(PIN_A5);                                                        //CAM_MUX main side 
03AC6:  BCF    F92.5
03AC8:  BCF    F89.5
....................       output_low(PIN_C4);                                                        //COM_MUX main side 
03ACA:  BCF    F94.4
03ACC:  BCF    F8B.4
....................       for(int i = 0; i < logdata_size; i++)                                      //guarda el dato en las tres Flash en la posicion de memoria indicada por SAT_LOG  
03ACE:  MOVLB  3
03AD0:  CLRF   x57
03AD2:  MOVF   x57,W
03AD4:  SUBLW  0A
03AD6:  BNC   3BA2
....................       { 
....................          WRITE_DATA_BYTE_OF(SAT_LOG + i,satellitelog[i]); 
03AD8:  MOVF   x57,W
03ADA:  ADDWF  40,W
03ADC:  MOVWF  x58
03ADE:  MOVLW  00
03AE0:  ADDWFC 41,W
03AE2:  MOVWF  x59
03AE4:  MOVLW  00
03AE6:  ADDWFC 42,W
03AE8:  MOVWF  x5A
03AEA:  MOVLW  00
03AEC:  ADDWFC 43,W
03AEE:  MOVWF  x5B
03AF0:  CLRF   03
03AF2:  MOVF   x57,W
03AF4:  ADDLW  85
03AF6:  MOVWF  FE9
03AF8:  MOVLW  01
03AFA:  ADDWFC 03,W
03AFC:  MOVWF  FEA
03AFE:  MOVFF  FEF,367
03B02:  MOVFF  35B,366
03B06:  MOVFF  35A,365
03B0A:  MOVFF  359,364
03B0E:  MOVFF  358,363
03B12:  MOVLB  0
03B14:  CALL   1622
....................          WRITE_DATA_BYTE_SCF(SAT_LOG + i,satellitelog[i]); 
03B18:  MOVLB  3
03B1A:  MOVF   x57,W
03B1C:  ADDWF  40,W
03B1E:  MOVWF  x58
03B20:  MOVLW  00
03B22:  ADDWFC 41,W
03B24:  MOVWF  x59
03B26:  MOVLW  00
03B28:  ADDWFC 42,W
03B2A:  MOVWF  x5A
03B2C:  MOVLW  00
03B2E:  ADDWFC 43,W
03B30:  MOVWF  x5B
03B32:  CLRF   03
03B34:  MOVF   x57,W
03B36:  ADDLW  85
03B38:  MOVWF  FE9
03B3A:  MOVLW  01
03B3C:  ADDWFC 03,W
03B3E:  MOVWF  FEA
03B40:  MOVFF  FEF,367
03B44:  MOVFF  35B,366
03B48:  MOVFF  35A,365
03B4C:  MOVFF  359,364
03B50:  MOVFF  358,363
03B54:  MOVLB  0
03B56:  CALL   16AE
....................          WRITE_DATA_BYTE_SMF(SAT_LOG + i,satellitelog[i]); 
03B5A:  MOVLB  3
03B5C:  MOVF   x57,W
03B5E:  ADDWF  40,W
03B60:  MOVWF  x58
03B62:  MOVLW  00
03B64:  ADDWFC 41,W
03B66:  MOVWF  x59
03B68:  MOVLW  00
03B6A:  ADDWFC 42,W
03B6C:  MOVWF  x5A
03B6E:  MOVLW  00
03B70:  ADDWFC 43,W
03B72:  MOVWF  x5B
03B74:  CLRF   03
03B76:  MOVF   x57,W
03B78:  ADDLW  85
03B7A:  MOVWF  FE9
03B7C:  MOVLW  01
03B7E:  ADDWFC 03,W
03B80:  MOVWF  FEA
03B82:  MOVFF  FEF,367
03B86:  MOVFF  35B,366
03B8A:  MOVFF  35A,365
03B8E:  MOVFF  359,364
03B92:  MOVFF  358,363
03B96:  MOVLB  0
03B98:  CALL   173A
03B9C:  MOVLB  3
03B9E:  INCF   x57,F
03BA0:  BRA    3AD2
....................       } 
....................       output_high(PIN_C4);                                                       //COM_MUX COM side 
03BA2:  BCF    F94.4
03BA4:  BSF    F8B.4
....................       SAT_LOG = SAT_LOG + logdata_size; 
03BA6:  MOVLW  0B
03BA8:  ADDWF  40,F
03BAA:  MOVLW  00
03BAC:  ADDWFC 41,F
03BAE:  ADDWFC 42,F
03BB0:  ADDWFC 43,F
....................       fprintf(PC,"LOG saving done\r\n"); 
03BB2:  MOVLW  84
03BB4:  MOVWF  FF6
03BB6:  MOVLW  07
03BB8:  MOVWF  FF7
03BBA:  MOVLW  00
03BBC:  MOVWF  FF8
03BBE:  MOVLB  0
03BC0:  CALL   318C
....................    } 
....................     
....................    return; 
03BC4:  RETURN 0
.................... } 
....................  
....................  
....................  
....................  
.................... #include<FLASH_OPERATION.c>                                                      //erase or transfer 
....................  
....................  
.................... void REFRESH_SECTOR_OF(int8 data1,int8 data2,int8 data3,int8 data4) 
.................... { 
....................    fprintf(PC,"ERASE OF:%x%x%x%x\r\n",data1,data2,data3,data4); 
*
0A47A:  MOVLW  96
0A47C:  MOVWF  FF6
0A47E:  MOVLW  07
0A480:  MOVWF  FF7
0A482:  MOVLW  00
0A484:  MOVWF  FF8
0A486:  MOVLW  09
0A488:  MOVLB  3
0A48A:  MOVWF  x62
0A48C:  MOVLB  0
0A48E:  CALL   17AE
0A492:  MOVFF  348,363
0A496:  MOVLW  57
0A498:  MOVLB  3
0A49A:  MOVWF  x64
0A49C:  MOVLB  0
0A49E:  CALL   17E0
0A4A2:  MOVFF  349,363
0A4A6:  MOVLW  57
0A4A8:  MOVLB  3
0A4AA:  MOVWF  x64
0A4AC:  MOVLB  0
0A4AE:  CALL   17E0
0A4B2:  MOVFF  34A,363
0A4B6:  MOVLW  57
0A4B8:  MOVLB  3
0A4BA:  MOVWF  x64
0A4BC:  MOVLB  0
0A4BE:  CALL   17E0
0A4C2:  MOVFF  34B,363
0A4C6:  MOVLW  57
0A4C8:  MOVLB  3
0A4CA:  MOVWF  x64
0A4CC:  MOVLB  0
0A4CE:  CALL   17E0
0A4D2:  MOVLW  0D
0A4D4:  BTFSS  F9E.4
0A4D6:  BRA    A4D4
0A4D8:  MOVWF  FAD
0A4DA:  MOVLW  0A
0A4DC:  BTFSS  F9E.4
0A4DE:  BRA    A4DC
0A4E0:  MOVWF  FAD
....................    int32 address = make32(data1,data2,data3,data4); 
0A4E2:  MOVFF  348,34F
0A4E6:  MOVFF  349,34E
0A4EA:  MOVFF  34A,34D
0A4EE:  MOVFF  34B,34C
....................    sector_erase_OF(address);                                                     //erase 1 sector 
0A4F2:  MOVFF  34F,35B
0A4F6:  MOVFF  34E,35A
0A4FA:  MOVFF  34D,359
0A4FE:  MOVFF  34C,358
0A502:  CALL   359C
....................     
....................    int16 DATA = address/SECT;                                                    //maximum 2048, data almacena el nro de sector borrado 
....................    int8 D1 = DATA >> 8; 
....................    int8 D2 = DATA; 
0A506:  MOVFF  34E,350
0A50A:  MOVFF  34F,351
0A50E:  MOVFF  351,352
0A512:  MOVFF  350,353
....................     
....................    SAVE_SAT_LOG(0xe0, D1, D2);                                                   //0xE0+16bit sector info 
0A516:  MOVLW  E0
0A518:  MOVLB  3
0A51A:  MOVWF  x54
0A51C:  MOVFF  352,355
0A520:  MOVFF  353,356
0A524:  MOVLB  0
0A526:  CALL   3A8A
....................     
....................    return; 
0A52A:  RETURN 0
.................... } 
.................... void REFRESH_SECTOR_SCF(int8 data1,int8 data2,int8 data3,int8 data4) 
.................... { 
....................    fprintf(PC,"ERASE SCF:%x%x%x%x\r\n",data1,data2,data3,data4); 
0A52C:  MOVLW  AA
0A52E:  MOVWF  FF6
0A530:  MOVLW  07
0A532:  MOVWF  FF7
0A534:  MOVLW  00
0A536:  MOVWF  FF8
0A538:  MOVLW  0A
0A53A:  MOVLB  3
0A53C:  MOVWF  x62
0A53E:  MOVLB  0
0A540:  CALL   17AE
0A544:  MOVFF  348,363
0A548:  MOVLW  57
0A54A:  MOVLB  3
0A54C:  MOVWF  x64
0A54E:  MOVLB  0
0A550:  CALL   17E0
0A554:  MOVFF  349,363
0A558:  MOVLW  57
0A55A:  MOVLB  3
0A55C:  MOVWF  x64
0A55E:  MOVLB  0
0A560:  CALL   17E0
0A564:  MOVFF  34A,363
0A568:  MOVLW  57
0A56A:  MOVLB  3
0A56C:  MOVWF  x64
0A56E:  MOVLB  0
0A570:  CALL   17E0
0A574:  MOVFF  34B,363
0A578:  MOVLW  57
0A57A:  MOVLB  3
0A57C:  MOVWF  x64
0A57E:  MOVLB  0
0A580:  CALL   17E0
0A584:  MOVLW  0D
0A586:  BTFSS  F9E.4
0A588:  BRA    A586
0A58A:  MOVWF  FAD
0A58C:  MOVLW  0A
0A58E:  BTFSS  F9E.4
0A590:  BRA    A58E
0A592:  MOVWF  FAD
....................    int32 address = make32(data1,data2,data3,data4); 
0A594:  MOVFF  348,34F
0A598:  MOVFF  349,34E
0A59C:  MOVFF  34A,34D
0A5A0:  MOVFF  34B,34C
....................    output_low(PIN_C4);                                                           //multiplexor OBC side 
0A5A4:  BCF    F94.4
0A5A6:  BCF    F8B.4
....................    sector_erase_SCF(address);                                                    //erase 1 sector 
0A5A8:  MOVFF  34F,35B
0A5AC:  MOVFF  34E,35A
0A5B0:  MOVFF  34D,359
0A5B4:  MOVFF  34C,358
0A5B8:  CALL   363A
....................    output_high(PIN_C4); 
0A5BC:  BCF    F94.4
0A5BE:  BSF    F8B.4
....................     
....................    int16 DATA = address/SECT;                                                    //maximum 2048, data almacena el nro de sector borrado 
....................    int8 D1 = DATA >> 8; 
....................    int8 D2 = DATA; 
0A5C0:  MOVFF  34E,350
0A5C4:  MOVFF  34F,351
0A5C8:  MOVFF  351,352
0A5CC:  MOVFF  350,353
....................     
....................    SAVE_SAT_LOG(0xe1, D1, D2);                                                   //0xE0+16bit sector info 
0A5D0:  MOVLW  E1
0A5D2:  MOVLB  3
0A5D4:  MOVWF  x54
0A5D6:  MOVFF  352,355
0A5DA:  MOVFF  353,356
0A5DE:  MOVLB  0
0A5E0:  CALL   3A8A
....................    return; 
0A5E4:  RETURN 0
.................... } 
.................... void REFRESH_SECTOR_SMF(int8 data1,int8 data2,int8 data3,int8 data4) 
.................... { 
....................    fprintf(PC,"ERASE SMF:%x%x%x%x\r\n",data1,data2,data3,data4); 
*
06752:  MOVLW  C0
06754:  MOVWF  FF6
06756:  MOVLW  07
06758:  MOVWF  FF7
0675A:  MOVLW  00
0675C:  MOVWF  FF8
0675E:  MOVLW  0A
06760:  MOVLB  3
06762:  MOVWF  x62
06764:  MOVLB  0
06766:  CALL   17AE
0676A:  MOVFF  348,363
0676E:  MOVLW  57
06770:  MOVLB  3
06772:  MOVWF  x64
06774:  MOVLB  0
06776:  CALL   17E0
0677A:  MOVFF  349,363
0677E:  MOVLW  57
06780:  MOVLB  3
06782:  MOVWF  x64
06784:  MOVLB  0
06786:  CALL   17E0
0678A:  MOVFF  34A,363
0678E:  MOVLW  57
06790:  MOVLB  3
06792:  MOVWF  x64
06794:  MOVLB  0
06796:  CALL   17E0
0679A:  MOVFF  34B,363
0679E:  MOVLW  57
067A0:  MOVLB  3
067A2:  MOVWF  x64
067A4:  MOVLB  0
067A6:  CALL   17E0
067AA:  MOVLW  0D
067AC:  BTFSS  F9E.4
067AE:  BRA    67AC
067B0:  MOVWF  FAD
067B2:  MOVLW  0A
067B4:  BTFSS  F9E.4
067B6:  BRA    67B4
067B8:  MOVWF  FAD
....................    int32 address = make32(data1,data2,data3,data4); 
067BA:  MOVFF  348,34F
067BE:  MOVFF  349,34E
067C2:  MOVFF  34A,34D
067C6:  MOVFF  34B,34C
....................    output_low(PIN_A5);                                                           //multiplexor OBC side 
067CA:  BCF    F92.5
067CC:  BCF    F89.5
....................    sector_erase_SMF(address);                                                    //erase 1 sector 
067CE:  MOVFF  34F,35B
067D2:  MOVFF  34E,35A
067D6:  MOVFF  34D,359
067DA:  MOVFF  34C,358
067DE:  CALL   36D8
....................     
....................    int16 DATA = address/SECT;                                                    //maximum 2048, data almacena el nro de sector borrado 
....................    int8 D1 = DATA >> 8; 
....................    int8 D2 = DATA; 
067E2:  MOVFF  34E,350
067E6:  MOVFF  34F,351
067EA:  MOVFF  351,352
067EE:  MOVFF  350,353
....................     
....................    SAVE_SAT_LOG(0xe2, D1, D2);                                                   //0xE0+16bit sector info 
067F2:  MOVLW  E2
067F4:  MOVLB  3
067F6:  MOVWF  x54
067F8:  MOVFF  352,355
067FC:  MOVFF  353,356
06800:  MOVLB  0
06802:  CALL   3A8A
....................    return; 
06806:  RETURN 0
.................... } 
....................  
....................  
....................  
....................  
....................  
.................... void TRANSFER_SECTOR_OF2SCF(int8 data1,int8 data2,int8 data3,int8 data4)         //command 0x12 
.................... { 
....................    REFRESH_SECTOR_SCF(data1,data2,data3,data4);                                  //erase 1 sector SCF 
*
0BB98:  MOVFF  337,348
0BB9C:  MOVFF  338,349
0BBA0:  MOVFF  339,34A
0BBA4:  MOVFF  33A,34B
0BBA8:  CALL   A52C
....................    delay_ms(500); 
0BBAC:  MOVLW  02
0BBAE:  MOVLB  3
0BBB0:  MOVWF  x47
0BBB2:  MOVLW  FA
0BBB4:  MOVWF  x6B
0BBB6:  MOVLB  0
0BBB8:  CALL   1AFC
0BBBC:  MOVLB  3
0BBBE:  DECFSZ x47,F
0BBC0:  BRA    BBB2
....................    fprintf(PC,"transfer OF2SCF:%x%x%x%x\r\n",data1,data2,data3,data4); 
0BBC2:  MOVLW  D6
0BBC4:  MOVWF  FF6
0BBC6:  MOVLW  07
0BBC8:  MOVWF  FF7
0BBCA:  MOVLW  00
0BBCC:  MOVWF  FF8
0BBCE:  MOVLW  10
0BBD0:  MOVWF  x62
0BBD2:  MOVLB  0
0BBD4:  CALL   17AE
0BBD8:  MOVFF  337,363
0BBDC:  MOVLW  57
0BBDE:  MOVLB  3
0BBE0:  MOVWF  x64
0BBE2:  MOVLB  0
0BBE4:  CALL   17E0
0BBE8:  MOVFF  338,363
0BBEC:  MOVLW  57
0BBEE:  MOVLB  3
0BBF0:  MOVWF  x64
0BBF2:  MOVLB  0
0BBF4:  CALL   17E0
0BBF8:  MOVFF  339,363
0BBFC:  MOVLW  57
0BBFE:  MOVLB  3
0BC00:  MOVWF  x64
0BC02:  MOVLB  0
0BC04:  CALL   17E0
0BC08:  MOVFF  33A,363
0BC0C:  MOVLW  57
0BC0E:  MOVLB  3
0BC10:  MOVWF  x64
0BC12:  MOVLB  0
0BC14:  CALL   17E0
0BC18:  MOVLW  0D
0BC1A:  BTFSS  F9E.4
0BC1C:  BRA    BC1A
0BC1E:  MOVWF  FAD
0BC20:  MOVLW  0A
0BC22:  BTFSS  F9E.4
0BC24:  BRA    BC22
0BC26:  MOVWF  FAD
....................    int32 address = make32(data1,data2,data3,data4); 
0BC28:  MOVFF  337,33E
0BC2C:  MOVFF  338,33D
0BC30:  MOVFF  339,33C
0BC34:  MOVFF  33A,33B
....................    address = address - (address%SECT);                                           //si la direccion no es exacta la de un sector, transfiere desde la direccion donde comienza el sector 
0BC38:  MOVLB  3
0BC3A:  MOVFF  33B,00
0BC3E:  MOVFF  33C,01
0BC42:  CLRF   02
0BC44:  CLRF   03
0BC46:  MOVF   x3B,W
0BC48:  SUBWF  x3B,F
0BC4A:  MOVF   x3C,W
0BC4C:  SUBWFB x3C,F
0BC4E:  MOVF   02,W
0BC50:  SUBWFB x3D,F
0BC52:  MOVF   03,W
0BC54:  SUBWFB x3E,F
....................    output_low(PIN_C4);                                                           //OBC side 
0BC56:  BCF    F94.4
0BC58:  BCF    F8B.4
....................    for(int32 i = 0; i < SECT; i++) 
0BC5A:  CLRF   x42
0BC5C:  CLRF   x41
0BC5E:  CLRF   x40
0BC60:  CLRF   x3F
0BC62:  MOVF   x42,F
0BC64:  BNZ   BCE0
0BC66:  MOVF   x41,W
0BC68:  SUBLW  00
0BC6A:  BNC   BCE0
....................    { 
....................       WRITE_DATA_BYTE_SCF(address + i, READ_DATA_BYTE_OF(address + i)); 
0BC6C:  MOVF   x3F,W
0BC6E:  ADDWF  x3B,W
0BC70:  MOVWF  x47
0BC72:  MOVF   x40,W
0BC74:  ADDWFC x3C,W
0BC76:  MOVWF  x48
0BC78:  MOVF   x41,W
0BC7A:  ADDWFC x3D,W
0BC7C:  MOVWF  x49
0BC7E:  MOVF   x42,W
0BC80:  ADDWFC x3E,W
0BC82:  MOVWF  x4A
0BC84:  MOVF   x3F,W
0BC86:  ADDWF  x3B,W
0BC88:  MOVWF  x4B
0BC8A:  MOVF   x40,W
0BC8C:  ADDWFC x3C,W
0BC8E:  MOVWF  x4C
0BC90:  MOVF   x41,W
0BC92:  ADDWFC x3D,W
0BC94:  MOVWF  x4D
0BC96:  MOVF   x42,W
0BC98:  ADDWFC x3E,W
0BC9A:  MOVWF  x4E
0BC9C:  MOVWF  x6C
0BC9E:  MOVFF  34D,36B
0BCA2:  MOVFF  34C,36A
0BCA6:  MOVFF  34B,369
0BCAA:  MOVLB  0
0BCAC:  CALL   135C
0BCB0:  MOVFF  01,34B
0BCB4:  MOVFF  34A,366
0BCB8:  MOVFF  349,365
0BCBC:  MOVFF  348,364
0BCC0:  MOVFF  347,363
0BCC4:  MOVFF  01,367
0BCC8:  CALL   16AE
0BCCC:  MOVLW  01
0BCCE:  MOVLB  3
0BCD0:  ADDWF  x3F,F
0BCD2:  BTFSC  FD8.0
0BCD4:  INCF   x40,F
0BCD6:  BTFSC  FD8.2
0BCD8:  INCF   x41,F
0BCDA:  BTFSC  FD8.2
0BCDC:  INCF   x42,F
0BCDE:  BRA    BC62
....................    } 
....................    delay_ms(100); 
0BCE0:  MOVLW  64
0BCE2:  MOVWF  x6B
0BCE4:  MOVLB  0
0BCE6:  CALL   1AFC
....................    output_high(PIN_C4);                                                          //COM side 
0BCEA:  BCF    F94.4
0BCEC:  BSF    F8B.4
....................     
....................    int16 DATA = address/SECT;                                                    //maximum 2048, data almacena el nro de sector copiado 
....................    int8 D1 = DATA >> 8; 
....................    int8 D2 = DATA; 
0BCEE:  MOVFF  33D,343
0BCF2:  MOVFF  33E,344
0BCF6:  MOVFF  344,345
0BCFA:  MOVFF  343,346
....................     
....................    SAVE_SAT_LOG(0x12, D1, D2);                                                   //0xE0+16bit sector info 
0BCFE:  MOVLW  12
0BD00:  MOVLB  3
0BD02:  MOVWF  x54
0BD04:  MOVFF  345,355
0BD08:  MOVFF  346,356
0BD0C:  MOVLB  0
0BD0E:  CALL   3A8A
....................    return; 
0BD12:  RETURN 0
.................... } 
....................  
.................... void TRANSFER_SECTOR_OF2SMF(int8 data1,int8 data2,int8 data3,int8 data4) 
.................... { 
....................    REFRESH_SECTOR_SMF(data1,data2,data3,data4);                                  //erase 1 sector SMF 
0BD14:  MOVFF  337,348
0BD18:  MOVFF  338,349
0BD1C:  MOVFF  339,34A
0BD20:  MOVFF  33A,34B
0BD24:  CALL   6752
....................    delay_ms(500); 
0BD28:  MOVLW  02
0BD2A:  MOVLB  3
0BD2C:  MOVWF  x47
0BD2E:  MOVLW  FA
0BD30:  MOVWF  x6B
0BD32:  MOVLB  0
0BD34:  CALL   1AFC
0BD38:  MOVLB  3
0BD3A:  DECFSZ x47,F
0BD3C:  BRA    BD2E
....................    fprintf(PC,"transfer OF2SMF:%x%x%x%x\r\n",data1,data2,data3,data4); 
0BD3E:  MOVLW  F2
0BD40:  MOVWF  FF6
0BD42:  MOVLW  07
0BD44:  MOVWF  FF7
0BD46:  MOVLW  00
0BD48:  MOVWF  FF8
0BD4A:  MOVLW  10
0BD4C:  MOVWF  x62
0BD4E:  MOVLB  0
0BD50:  CALL   17AE
0BD54:  MOVFF  337,363
0BD58:  MOVLW  57
0BD5A:  MOVLB  3
0BD5C:  MOVWF  x64
0BD5E:  MOVLB  0
0BD60:  CALL   17E0
0BD64:  MOVFF  338,363
0BD68:  MOVLW  57
0BD6A:  MOVLB  3
0BD6C:  MOVWF  x64
0BD6E:  MOVLB  0
0BD70:  CALL   17E0
0BD74:  MOVFF  339,363
0BD78:  MOVLW  57
0BD7A:  MOVLB  3
0BD7C:  MOVWF  x64
0BD7E:  MOVLB  0
0BD80:  CALL   17E0
0BD84:  MOVFF  33A,363
0BD88:  MOVLW  57
0BD8A:  MOVLB  3
0BD8C:  MOVWF  x64
0BD8E:  MOVLB  0
0BD90:  CALL   17E0
0BD94:  MOVLW  0D
0BD96:  BTFSS  F9E.4
0BD98:  BRA    BD96
0BD9A:  MOVWF  FAD
0BD9C:  MOVLW  0A
0BD9E:  BTFSS  F9E.4
0BDA0:  BRA    BD9E
0BDA2:  MOVWF  FAD
....................    int32 address = make32(data1,data2,data3,data4); 
0BDA4:  MOVFF  337,33E
0BDA8:  MOVFF  338,33D
0BDAC:  MOVFF  339,33C
0BDB0:  MOVFF  33A,33B
....................    address = address - (address%SECT);                                           //si la direccion no es exacta la de un sector, transfiere desde la direccion donde comienza el sector 
0BDB4:  MOVLB  3
0BDB6:  MOVFF  33B,00
0BDBA:  MOVFF  33C,01
0BDBE:  CLRF   02
0BDC0:  CLRF   03
0BDC2:  MOVF   x3B,W
0BDC4:  SUBWF  x3B,F
0BDC6:  MOVF   x3C,W
0BDC8:  SUBWFB x3C,F
0BDCA:  MOVF   02,W
0BDCC:  SUBWFB x3D,F
0BDCE:  MOVF   03,W
0BDD0:  SUBWFB x3E,F
....................    output_low(PIN_A5);                                                           //OBC side 
0BDD2:  BCF    F92.5
0BDD4:  BCF    F89.5
....................    for(int32 i = 0; i < SECT; i++) 
0BDD6:  CLRF   x42
0BDD8:  CLRF   x41
0BDDA:  CLRF   x40
0BDDC:  CLRF   x3F
0BDDE:  MOVF   x42,F
0BDE0:  BNZ   BE5C
0BDE2:  MOVF   x41,W
0BDE4:  SUBLW  00
0BDE6:  BNC   BE5C
....................    { 
....................       WRITE_DATA_BYTE_SMF(address + i, READ_DATA_BYTE_OF(address + i)); 
0BDE8:  MOVF   x3F,W
0BDEA:  ADDWF  x3B,W
0BDEC:  MOVWF  x47
0BDEE:  MOVF   x40,W
0BDF0:  ADDWFC x3C,W
0BDF2:  MOVWF  x48
0BDF4:  MOVF   x41,W
0BDF6:  ADDWFC x3D,W
0BDF8:  MOVWF  x49
0BDFA:  MOVF   x42,W
0BDFC:  ADDWFC x3E,W
0BDFE:  MOVWF  x4A
0BE00:  MOVF   x3F,W
0BE02:  ADDWF  x3B,W
0BE04:  MOVWF  x4B
0BE06:  MOVF   x40,W
0BE08:  ADDWFC x3C,W
0BE0A:  MOVWF  x4C
0BE0C:  MOVF   x41,W
0BE0E:  ADDWFC x3D,W
0BE10:  MOVWF  x4D
0BE12:  MOVF   x42,W
0BE14:  ADDWFC x3E,W
0BE16:  MOVWF  x4E
0BE18:  MOVWF  x6C
0BE1A:  MOVFF  34D,36B
0BE1E:  MOVFF  34C,36A
0BE22:  MOVFF  34B,369
0BE26:  MOVLB  0
0BE28:  CALL   135C
0BE2C:  MOVFF  01,34B
0BE30:  MOVFF  34A,366
0BE34:  MOVFF  349,365
0BE38:  MOVFF  348,364
0BE3C:  MOVFF  347,363
0BE40:  MOVFF  01,367
0BE44:  CALL   173A
0BE48:  MOVLW  01
0BE4A:  MOVLB  3
0BE4C:  ADDWF  x3F,F
0BE4E:  BTFSC  FD8.0
0BE50:  INCF   x40,F
0BE52:  BTFSC  FD8.2
0BE54:  INCF   x41,F
0BE56:  BTFSC  FD8.2
0BE58:  INCF   x42,F
0BE5A:  BRA    BDDE
....................    } 
....................    delay_ms(100); 
0BE5C:  MOVLW  64
0BE5E:  MOVWF  x6B
0BE60:  MOVLB  0
0BE62:  CALL   1AFC
....................     
....................    int16 DATA = address/SECT;                                                    //maximum 2048, data almacena el nro de sector copiado 
....................    int8 D1 = DATA >> 8; 
....................    int8 D2 = DATA; 
0BE66:  MOVFF  33D,343
0BE6A:  MOVFF  33E,344
0BE6E:  MOVFF  344,345
0BE72:  MOVFF  343,346
....................     
....................    SAVE_SAT_LOG(0x13, D1, D2);                                                   //0xE0+16bit sector info 
0BE76:  MOVLW  13
0BE78:  MOVLB  3
0BE7A:  MOVWF  x54
0BE7C:  MOVFF  345,355
0BE80:  MOVFF  346,356
0BE84:  MOVLB  0
0BE86:  CALL   3A8A
....................     
....................    return; 
0BE8A:  GOTO   CF44 (RETURN)
.................... } 
....................  
....................  
.................... void TRANSFER_SECTOR_SCF2OF(int8 data1,int8 data2,int8 data3,int8 data4) 
.................... { 
....................    REFRESH_SECTOR_OF(data1,data2,data3,data4);                                   //erase 1 sector OBC flash 
0BE8E:  MOVFF  337,348
0BE92:  MOVFF  338,349
0BE96:  MOVFF  339,34A
0BE9A:  MOVFF  33A,34B
0BE9E:  CALL   A47A
....................    delay_ms(500); 
0BEA2:  MOVLW  02
0BEA4:  MOVLB  3
0BEA6:  MOVWF  x47
0BEA8:  MOVLW  FA
0BEAA:  MOVWF  x6B
0BEAC:  MOVLB  0
0BEAE:  CALL   1AFC
0BEB2:  MOVLB  3
0BEB4:  DECFSZ x47,F
0BEB6:  BRA    BEA8
....................    fprintf(PC,"transfer SCF2OF:%x%x%x%x\r\n",data1,data2,data3,data4); 
0BEB8:  MOVLW  0E
0BEBA:  MOVWF  FF6
0BEBC:  MOVLW  08
0BEBE:  MOVWF  FF7
0BEC0:  MOVLW  00
0BEC2:  MOVWF  FF8
0BEC4:  MOVLW  10
0BEC6:  MOVWF  x62
0BEC8:  MOVLB  0
0BECA:  CALL   17AE
0BECE:  MOVFF  337,363
0BED2:  MOVLW  57
0BED4:  MOVLB  3
0BED6:  MOVWF  x64
0BED8:  MOVLB  0
0BEDA:  CALL   17E0
0BEDE:  MOVFF  338,363
0BEE2:  MOVLW  57
0BEE4:  MOVLB  3
0BEE6:  MOVWF  x64
0BEE8:  MOVLB  0
0BEEA:  CALL   17E0
0BEEE:  MOVFF  339,363
0BEF2:  MOVLW  57
0BEF4:  MOVLB  3
0BEF6:  MOVWF  x64
0BEF8:  MOVLB  0
0BEFA:  CALL   17E0
0BEFE:  MOVFF  33A,363
0BF02:  MOVLW  57
0BF04:  MOVLB  3
0BF06:  MOVWF  x64
0BF08:  MOVLB  0
0BF0A:  CALL   17E0
0BF0E:  MOVLW  0D
0BF10:  BTFSS  F9E.4
0BF12:  BRA    BF10
0BF14:  MOVWF  FAD
0BF16:  MOVLW  0A
0BF18:  BTFSS  F9E.4
0BF1A:  BRA    BF18
0BF1C:  MOVWF  FAD
....................    int32 address = make32(data1,data2,data3,data4); 
0BF1E:  MOVFF  337,33E
0BF22:  MOVFF  338,33D
0BF26:  MOVFF  339,33C
0BF2A:  MOVFF  33A,33B
....................    address = address - (address%SECT);                                           //si la direccion no es exacta la de un sector, transfiere desde la direccion donde comienza el sector 
0BF2E:  MOVLB  3
0BF30:  MOVFF  33B,00
0BF34:  MOVFF  33C,01
0BF38:  CLRF   02
0BF3A:  CLRF   03
0BF3C:  MOVF   x3B,W
0BF3E:  SUBWF  x3B,F
0BF40:  MOVF   x3C,W
0BF42:  SUBWFB x3C,F
0BF44:  MOVF   02,W
0BF46:  SUBWFB x3D,F
0BF48:  MOVF   03,W
0BF4A:  SUBWFB x3E,F
....................    output_low(PIN_C4);                                                           //SCF OBC side 
0BF4C:  BCF    F94.4
0BF4E:  BCF    F8B.4
....................    for(int32 i = 0; i < SECT; i++) 
0BF50:  CLRF   x42
0BF52:  CLRF   x41
0BF54:  CLRF   x40
0BF56:  CLRF   x3F
0BF58:  MOVF   x42,F
0BF5A:  BNZ   BFD6
0BF5C:  MOVF   x41,W
0BF5E:  SUBLW  00
0BF60:  BNC   BFD6
....................    { 
....................       WRITE_DATA_BYTE_OF(address + i, READ_DATA_BYTE_SCF(address + i)); 
0BF62:  MOVF   x3F,W
0BF64:  ADDWF  x3B,W
0BF66:  MOVWF  x47
0BF68:  MOVF   x40,W
0BF6A:  ADDWFC x3C,W
0BF6C:  MOVWF  x48
0BF6E:  MOVF   x41,W
0BF70:  ADDWFC x3D,W
0BF72:  MOVWF  x49
0BF74:  MOVF   x42,W
0BF76:  ADDWFC x3E,W
0BF78:  MOVWF  x4A
0BF7A:  MOVF   x3F,W
0BF7C:  ADDWF  x3B,W
0BF7E:  MOVWF  x4B
0BF80:  MOVF   x40,W
0BF82:  ADDWFC x3C,W
0BF84:  MOVWF  x4C
0BF86:  MOVF   x41,W
0BF88:  ADDWFC x3D,W
0BF8A:  MOVWF  x4D
0BF8C:  MOVF   x42,W
0BF8E:  ADDWFC x3E,W
0BF90:  MOVWF  x4E
0BF92:  MOVWF  x52
0BF94:  MOVFF  34D,351
0BF98:  MOVFF  34C,350
0BF9C:  MOVFF  34B,34F
0BFA0:  MOVLB  0
0BFA2:  CALL   1414
0BFA6:  MOVFF  01,34B
0BFAA:  MOVFF  34A,366
0BFAE:  MOVFF  349,365
0BFB2:  MOVFF  348,364
0BFB6:  MOVFF  347,363
0BFBA:  MOVFF  01,367
0BFBE:  CALL   1622
0BFC2:  MOVLW  01
0BFC4:  MOVLB  3
0BFC6:  ADDWF  x3F,F
0BFC8:  BTFSC  FD8.0
0BFCA:  INCF   x40,F
0BFCC:  BTFSC  FD8.2
0BFCE:  INCF   x41,F
0BFD0:  BTFSC  FD8.2
0BFD2:  INCF   x42,F
0BFD4:  BRA    BF58
....................    } 
....................    delay_ms(100); 
0BFD6:  MOVLW  64
0BFD8:  MOVWF  x6B
0BFDA:  MOVLB  0
0BFDC:  CALL   1AFC
....................    output_high(PIN_C4); 
0BFE0:  BCF    F94.4
0BFE2:  BSF    F8B.4
....................     
....................    int16 DATA = address/SECT;                                                    //maximum 2048, data almacena el nro de sector copiado 
....................    int8 D1 = DATA >> 8; 
....................    int8 D2 = DATA; 
0BFE4:  MOVFF  33D,343
0BFE8:  MOVFF  33E,344
0BFEC:  MOVFF  344,345
0BFF0:  MOVFF  343,346
....................     
....................    SAVE_SAT_LOG(0x21, D1, D2);                                                   //0xE0+16bit sector info 
0BFF4:  MOVLW  21
0BFF6:  MOVLB  3
0BFF8:  MOVWF  x54
0BFFA:  MOVFF  345,355
0BFFE:  MOVFF  346,356
0C002:  MOVLB  0
0C004:  CALL   3A8A
....................     
....................    return; 
0C008:  RETURN 0
.................... } 
....................  
.................... void TRANSFER_SECTOR_SCF2SMF(int8 data1,int8 data2,int8 data3,int8 data4) 
.................... { 
....................    REFRESH_SECTOR_SMF(data1,data2,data3,data4);                                  //erase 1 sector SMF 
0C00A:  MOVFF  337,348
0C00E:  MOVFF  338,349
0C012:  MOVFF  339,34A
0C016:  MOVFF  33A,34B
0C01A:  CALL   6752
....................    delay_ms(500); 
0C01E:  MOVLW  02
0C020:  MOVLB  3
0C022:  MOVWF  x47
0C024:  MOVLW  FA
0C026:  MOVWF  x6B
0C028:  MOVLB  0
0C02A:  CALL   1AFC
0C02E:  MOVLB  3
0C030:  DECFSZ x47,F
0C032:  BRA    C024
....................    fprintf(PC,"transfer SCF2SMF:%x%x%x%x\r\n",data1,data2,data3,data4); 
0C034:  MOVLW  2A
0C036:  MOVWF  FF6
0C038:  MOVLW  08
0C03A:  MOVWF  FF7
0C03C:  MOVLW  00
0C03E:  MOVWF  FF8
0C040:  MOVLW  11
0C042:  MOVWF  x62
0C044:  MOVLB  0
0C046:  CALL   17AE
0C04A:  MOVFF  337,363
0C04E:  MOVLW  57
0C050:  MOVLB  3
0C052:  MOVWF  x64
0C054:  MOVLB  0
0C056:  CALL   17E0
0C05A:  MOVFF  338,363
0C05E:  MOVLW  57
0C060:  MOVLB  3
0C062:  MOVWF  x64
0C064:  MOVLB  0
0C066:  CALL   17E0
0C06A:  MOVFF  339,363
0C06E:  MOVLW  57
0C070:  MOVLB  3
0C072:  MOVWF  x64
0C074:  MOVLB  0
0C076:  CALL   17E0
0C07A:  MOVFF  33A,363
0C07E:  MOVLW  57
0C080:  MOVLB  3
0C082:  MOVWF  x64
0C084:  MOVLB  0
0C086:  CALL   17E0
0C08A:  MOVLW  0D
0C08C:  BTFSS  F9E.4
0C08E:  BRA    C08C
0C090:  MOVWF  FAD
0C092:  MOVLW  0A
0C094:  BTFSS  F9E.4
0C096:  BRA    C094
0C098:  MOVWF  FAD
....................    int32 address = make32(data1,data2,data3,data4); 
0C09A:  MOVFF  337,33E
0C09E:  MOVFF  338,33D
0C0A2:  MOVFF  339,33C
0C0A6:  MOVFF  33A,33B
....................    address = address - (address%SECT);                                           //si la direccion no es exacta la de un sector, transfiere desde la direccion donde comienza el sector 
0C0AA:  MOVLB  3
0C0AC:  MOVFF  33B,00
0C0B0:  MOVFF  33C,01
0C0B4:  CLRF   02
0C0B6:  CLRF   03
0C0B8:  MOVF   x3B,W
0C0BA:  SUBWF  x3B,F
0C0BC:  MOVF   x3C,W
0C0BE:  SUBWFB x3C,F
0C0C0:  MOVF   02,W
0C0C2:  SUBWFB x3D,F
0C0C4:  MOVF   03,W
0C0C6:  SUBWFB x3E,F
....................    output_low(PIN_C4);                                                           //SCF OBC side 
0C0C8:  BCF    F94.4
0C0CA:  BCF    F8B.4
....................    output_low(PIN_A5);                                                           //SMF OBC side 
0C0CC:  BCF    F92.5
0C0CE:  BCF    F89.5
....................    for(int32 i = 0; i < SECT; i++) 
0C0D0:  CLRF   x42
0C0D2:  CLRF   x41
0C0D4:  CLRF   x40
0C0D6:  CLRF   x3F
0C0D8:  MOVF   x42,F
0C0DA:  BNZ   C156
0C0DC:  MOVF   x41,W
0C0DE:  SUBLW  00
0C0E0:  BNC   C156
....................    { 
....................       WRITE_DATA_BYTE_SMF(address + i, READ_DATA_BYTE_SCF(address + i)); 
0C0E2:  MOVF   x3F,W
0C0E4:  ADDWF  x3B,W
0C0E6:  MOVWF  x47
0C0E8:  MOVF   x40,W
0C0EA:  ADDWFC x3C,W
0C0EC:  MOVWF  x48
0C0EE:  MOVF   x41,W
0C0F0:  ADDWFC x3D,W
0C0F2:  MOVWF  x49
0C0F4:  MOVF   x42,W
0C0F6:  ADDWFC x3E,W
0C0F8:  MOVWF  x4A
0C0FA:  MOVF   x3F,W
0C0FC:  ADDWF  x3B,W
0C0FE:  MOVWF  x4B
0C100:  MOVF   x40,W
0C102:  ADDWFC x3C,W
0C104:  MOVWF  x4C
0C106:  MOVF   x41,W
0C108:  ADDWFC x3D,W
0C10A:  MOVWF  x4D
0C10C:  MOVF   x42,W
0C10E:  ADDWFC x3E,W
0C110:  MOVWF  x4E
0C112:  MOVWF  x52
0C114:  MOVFF  34D,351
0C118:  MOVFF  34C,350
0C11C:  MOVFF  34B,34F
0C120:  MOVLB  0
0C122:  CALL   1414
0C126:  MOVFF  01,34B
0C12A:  MOVFF  34A,366
0C12E:  MOVFF  349,365
0C132:  MOVFF  348,364
0C136:  MOVFF  347,363
0C13A:  MOVFF  01,367
0C13E:  CALL   173A
0C142:  MOVLW  01
0C144:  MOVLB  3
0C146:  ADDWF  x3F,F
0C148:  BTFSC  FD8.0
0C14A:  INCF   x40,F
0C14C:  BTFSC  FD8.2
0C14E:  INCF   x41,F
0C150:  BTFSC  FD8.2
0C152:  INCF   x42,F
0C154:  BRA    C0D8
....................    } 
....................    delay_ms(100); 
0C156:  MOVLW  64
0C158:  MOVWF  x6B
0C15A:  MOVLB  0
0C15C:  CALL   1AFC
....................    output_high(PIN_C4); 
0C160:  BCF    F94.4
0C162:  BSF    F8B.4
....................     
....................    int16 DATA = address/SECT;                                                    //maximum 2048, data almacena el nro de sector copiado 
....................    int8 D1 = DATA >> 8; 
....................    int8 D2 = DATA; 
0C164:  MOVFF  33D,343
0C168:  MOVFF  33E,344
0C16C:  MOVFF  344,345
0C170:  MOVFF  343,346
....................     
....................    SAVE_SAT_LOG(0x23, D1, D2);                                                   //0xE0+16bit sector info 
0C174:  MOVLW  23
0C176:  MOVLB  3
0C178:  MOVWF  x54
0C17A:  MOVFF  345,355
0C17E:  MOVFF  346,356
0C182:  MOVLB  0
0C184:  CALL   3A8A
....................     
....................    return; 
0C188:  GOTO   CF44 (RETURN)
.................... } 
....................  
.................... void TRANSFER_SECTOR_SMF2OF(int8 data1,int8 data2,int8 data3,int8 data4) 
.................... { 
....................    REFRESH_SECTOR_OF(data1,data2,data3,data4);                                   //erase 1 sector OBC flash 
0C18C:  MOVFF  337,348
0C190:  MOVFF  338,349
0C194:  MOVFF  339,34A
0C198:  MOVFF  33A,34B
0C19C:  CALL   A47A
....................    delay_ms(500); 
0C1A0:  MOVLW  02
0C1A2:  MOVLB  3
0C1A4:  MOVWF  x47
0C1A6:  MOVLW  FA
0C1A8:  MOVWF  x6B
0C1AA:  MOVLB  0
0C1AC:  CALL   1AFC
0C1B0:  MOVLB  3
0C1B2:  DECFSZ x47,F
0C1B4:  BRA    C1A6
....................    fprintf(PC,"transfer SMF2OF:%x%x%x%x\r\n",data1,data2,data3,data4); 
0C1B6:  MOVLW  46
0C1B8:  MOVWF  FF6
0C1BA:  MOVLW  08
0C1BC:  MOVWF  FF7
0C1BE:  MOVLW  00
0C1C0:  MOVWF  FF8
0C1C2:  MOVLW  10
0C1C4:  MOVWF  x62
0C1C6:  MOVLB  0
0C1C8:  CALL   17AE
0C1CC:  MOVFF  337,363
0C1D0:  MOVLW  57
0C1D2:  MOVLB  3
0C1D4:  MOVWF  x64
0C1D6:  MOVLB  0
0C1D8:  CALL   17E0
0C1DC:  MOVFF  338,363
0C1E0:  MOVLW  57
0C1E2:  MOVLB  3
0C1E4:  MOVWF  x64
0C1E6:  MOVLB  0
0C1E8:  CALL   17E0
0C1EC:  MOVFF  339,363
0C1F0:  MOVLW  57
0C1F2:  MOVLB  3
0C1F4:  MOVWF  x64
0C1F6:  MOVLB  0
0C1F8:  CALL   17E0
0C1FC:  MOVFF  33A,363
0C200:  MOVLW  57
0C202:  MOVLB  3
0C204:  MOVWF  x64
0C206:  MOVLB  0
0C208:  CALL   17E0
0C20C:  MOVLW  0D
0C20E:  BTFSS  F9E.4
0C210:  BRA    C20E
0C212:  MOVWF  FAD
0C214:  MOVLW  0A
0C216:  BTFSS  F9E.4
0C218:  BRA    C216
0C21A:  MOVWF  FAD
....................    int32 address = make32(data1,data2,data3,data4); 
0C21C:  MOVFF  337,33E
0C220:  MOVFF  338,33D
0C224:  MOVFF  339,33C
0C228:  MOVFF  33A,33B
....................    address = address - (address%SECT);                                           //si la direccion no es exacta la de un sector, transfiere desde la direccion donde comienza el sector 
0C22C:  MOVLB  3
0C22E:  MOVFF  33B,00
0C232:  MOVFF  33C,01
0C236:  CLRF   02
0C238:  CLRF   03
0C23A:  MOVF   x3B,W
0C23C:  SUBWF  x3B,F
0C23E:  MOVF   x3C,W
0C240:  SUBWFB x3C,F
0C242:  MOVF   02,W
0C244:  SUBWFB x3D,F
0C246:  MOVF   03,W
0C248:  SUBWFB x3E,F
....................    output_low(PIN_A5);                                                           //SMF OBC side 
0C24A:  BCF    F92.5
0C24C:  BCF    F89.5
....................    for(int32 i = 0; i < SECT; i++) 
0C24E:  CLRF   x42
0C250:  CLRF   x41
0C252:  CLRF   x40
0C254:  CLRF   x3F
0C256:  MOVF   x42,F
0C258:  BNZ   C2D4
0C25A:  MOVF   x41,W
0C25C:  SUBLW  00
0C25E:  BNC   C2D4
....................    { 
....................       WRITE_DATA_BYTE_OF(address + i, READ_DATA_BYTE_SMF(address + i)); 
0C260:  MOVF   x3F,W
0C262:  ADDWF  x3B,W
0C264:  MOVWF  x47
0C266:  MOVF   x40,W
0C268:  ADDWFC x3C,W
0C26A:  MOVWF  x48
0C26C:  MOVF   x41,W
0C26E:  ADDWFC x3D,W
0C270:  MOVWF  x49
0C272:  MOVF   x42,W
0C274:  ADDWFC x3E,W
0C276:  MOVWF  x4A
0C278:  MOVF   x3F,W
0C27A:  ADDWF  x3B,W
0C27C:  MOVWF  x4B
0C27E:  MOVF   x40,W
0C280:  ADDWFC x3C,W
0C282:  MOVWF  x4C
0C284:  MOVF   x41,W
0C286:  ADDWFC x3D,W
0C288:  MOVWF  x4D
0C28A:  MOVF   x42,W
0C28C:  ADDWFC x3E,W
0C28E:  MOVWF  x4E
0C290:  MOVWF  x52
0C292:  MOVFF  34D,351
0C296:  MOVFF  34C,350
0C29A:  MOVFF  34B,34F
0C29E:  MOVLB  0
0C2A0:  CALL   14CC
0C2A4:  MOVFF  01,34B
0C2A8:  MOVFF  34A,366
0C2AC:  MOVFF  349,365
0C2B0:  MOVFF  348,364
0C2B4:  MOVFF  347,363
0C2B8:  MOVFF  01,367
0C2BC:  CALL   1622
0C2C0:  MOVLW  01
0C2C2:  MOVLB  3
0C2C4:  ADDWF  x3F,F
0C2C6:  BTFSC  FD8.0
0C2C8:  INCF   x40,F
0C2CA:  BTFSC  FD8.2
0C2CC:  INCF   x41,F
0C2CE:  BTFSC  FD8.2
0C2D0:  INCF   x42,F
0C2D2:  BRA    C256
....................    } 
....................    delay_ms(100); 
0C2D4:  MOVLW  64
0C2D6:  MOVWF  x6B
0C2D8:  MOVLB  0
0C2DA:  CALL   1AFC
....................     
....................    int16 DATA = address/SECT;                                                    //maximum 2048, data almacena el nro de sector copiado 
....................    int8 D1 = DATA >> 8; 
....................    int8 D2 = DATA; 
0C2DE:  MOVFF  33D,343
0C2E2:  MOVFF  33E,344
0C2E6:  MOVFF  344,345
0C2EA:  MOVFF  343,346
....................     
....................    SAVE_SAT_LOG(0x31, D1, D2);                                                   //0xE0+16bit sector info 
0C2EE:  MOVLW  31
0C2F0:  MOVLB  3
0C2F2:  MOVWF  x54
0C2F4:  MOVFF  345,355
0C2F8:  MOVFF  346,356
0C2FC:  MOVLB  0
0C2FE:  CALL   3A8A
....................     
....................    return; 
0C302:  GOTO   CF44 (RETURN)
.................... } 
....................  
.................... void TRANSFER_SECTOR_SMF2SCF(int8 data1,int8 data2,int8 data3,int8 data4)        //0x32 
.................... { 
....................    REFRESH_SECTOR_SCF(data1,data2,data3,data4);                                  //erase 1 sector SCF 
0C306:  MOVFF  337,348
0C30A:  MOVFF  338,349
0C30E:  MOVFF  339,34A
0C312:  MOVFF  33A,34B
0C316:  CALL   A52C
....................    delay_ms(500); 
0C31A:  MOVLW  02
0C31C:  MOVLB  3
0C31E:  MOVWF  x47
0C320:  MOVLW  FA
0C322:  MOVWF  x6B
0C324:  MOVLB  0
0C326:  CALL   1AFC
0C32A:  MOVLB  3
0C32C:  DECFSZ x47,F
0C32E:  BRA    C320
....................    fprintf(PC,"transfer SMF2SCF:%x%x%x%x\r\n",data1,data2,data3,data4); 
0C330:  MOVLW  62
0C332:  MOVWF  FF6
0C334:  MOVLW  08
0C336:  MOVWF  FF7
0C338:  MOVLW  00
0C33A:  MOVWF  FF8
0C33C:  MOVLW  11
0C33E:  MOVWF  x62
0C340:  MOVLB  0
0C342:  CALL   17AE
0C346:  MOVFF  337,363
0C34A:  MOVLW  57
0C34C:  MOVLB  3
0C34E:  MOVWF  x64
0C350:  MOVLB  0
0C352:  CALL   17E0
0C356:  MOVFF  338,363
0C35A:  MOVLW  57
0C35C:  MOVLB  3
0C35E:  MOVWF  x64
0C360:  MOVLB  0
0C362:  CALL   17E0
0C366:  MOVFF  339,363
0C36A:  MOVLW  57
0C36C:  MOVLB  3
0C36E:  MOVWF  x64
0C370:  MOVLB  0
0C372:  CALL   17E0
0C376:  MOVFF  33A,363
0C37A:  MOVLW  57
0C37C:  MOVLB  3
0C37E:  MOVWF  x64
0C380:  MOVLB  0
0C382:  CALL   17E0
0C386:  MOVLW  0D
0C388:  BTFSS  F9E.4
0C38A:  BRA    C388
0C38C:  MOVWF  FAD
0C38E:  MOVLW  0A
0C390:  BTFSS  F9E.4
0C392:  BRA    C390
0C394:  MOVWF  FAD
....................    int32 address = make32(data1,data2,data3,data4); 
0C396:  MOVFF  337,33E
0C39A:  MOVFF  338,33D
0C39E:  MOVFF  339,33C
0C3A2:  MOVFF  33A,33B
....................    address = address - (address%SECT);                                           //si la direccion no es exacta la de un sector, transfiere desde la direccion donde comienza el sector 
0C3A6:  MOVLB  3
0C3A8:  MOVFF  33B,00
0C3AC:  MOVFF  33C,01
0C3B0:  CLRF   02
0C3B2:  CLRF   03
0C3B4:  MOVF   x3B,W
0C3B6:  SUBWF  x3B,F
0C3B8:  MOVF   x3C,W
0C3BA:  SUBWFB x3C,F
0C3BC:  MOVF   02,W
0C3BE:  SUBWFB x3D,F
0C3C0:  MOVF   03,W
0C3C2:  SUBWFB x3E,F
....................    output_low(PIN_C4);                                                           //SCF OBC side 
0C3C4:  BCF    F94.4
0C3C6:  BCF    F8B.4
....................    output_low(PIN_A5);                                                           //SMF OBC side 
0C3C8:  BCF    F92.5
0C3CA:  BCF    F89.5
....................    for(int32 i = 0; i < SECT; i++) 
0C3CC:  CLRF   x42
0C3CE:  CLRF   x41
0C3D0:  CLRF   x40
0C3D2:  CLRF   x3F
0C3D4:  MOVF   x42,F
0C3D6:  BNZ   C452
0C3D8:  MOVF   x41,W
0C3DA:  SUBLW  00
0C3DC:  BNC   C452
....................    { 
....................       WRITE_DATA_BYTE_SCF(address + i, READ_DATA_BYTE_SMF(address + i)); 
0C3DE:  MOVF   x3F,W
0C3E0:  ADDWF  x3B,W
0C3E2:  MOVWF  x47
0C3E4:  MOVF   x40,W
0C3E6:  ADDWFC x3C,W
0C3E8:  MOVWF  x48
0C3EA:  MOVF   x41,W
0C3EC:  ADDWFC x3D,W
0C3EE:  MOVWF  x49
0C3F0:  MOVF   x42,W
0C3F2:  ADDWFC x3E,W
0C3F4:  MOVWF  x4A
0C3F6:  MOVF   x3F,W
0C3F8:  ADDWF  x3B,W
0C3FA:  MOVWF  x4B
0C3FC:  MOVF   x40,W
0C3FE:  ADDWFC x3C,W
0C400:  MOVWF  x4C
0C402:  MOVF   x41,W
0C404:  ADDWFC x3D,W
0C406:  MOVWF  x4D
0C408:  MOVF   x42,W
0C40A:  ADDWFC x3E,W
0C40C:  MOVWF  x4E
0C40E:  MOVWF  x52
0C410:  MOVFF  34D,351
0C414:  MOVFF  34C,350
0C418:  MOVFF  34B,34F
0C41C:  MOVLB  0
0C41E:  CALL   14CC
0C422:  MOVFF  01,34B
0C426:  MOVFF  34A,366
0C42A:  MOVFF  349,365
0C42E:  MOVFF  348,364
0C432:  MOVFF  347,363
0C436:  MOVFF  01,367
0C43A:  CALL   16AE
0C43E:  MOVLW  01
0C440:  MOVLB  3
0C442:  ADDWF  x3F,F
0C444:  BTFSC  FD8.0
0C446:  INCF   x40,F
0C448:  BTFSC  FD8.2
0C44A:  INCF   x41,F
0C44C:  BTFSC  FD8.2
0C44E:  INCF   x42,F
0C450:  BRA    C3D4
....................    } 
....................    delay_ms(100); 
0C452:  MOVLW  64
0C454:  MOVWF  x6B
0C456:  MOVLB  0
0C458:  CALL   1AFC
....................    output_high(PIN_C4);                                                          //SCF COM side 
0C45C:  BCF    F94.4
0C45E:  BSF    F8B.4
....................     
....................    int16 DATA = address/SECT;                                                    //maximum 2048, data almacena el nro de sector copiado 
....................    int8 D1 = DATA >> 8; 
....................    int8 D2 = DATA; 
0C460:  MOVFF  33D,343
0C464:  MOVFF  33E,344
0C468:  MOVFF  344,345
0C46C:  MOVFF  343,346
....................     
....................    SAVE_SAT_LOG(0x32, D1, D2);                                                   //0xE0+16bit sector info 
0C470:  MOVLW  32
0C472:  MOVLB  3
0C474:  MOVWF  x54
0C476:  MOVFF  345,355
0C47A:  MOVFF  346,356
0C47E:  MOVLB  0
0C480:  CALL   3A8A
....................    return; 
0C484:  RETURN 0
.................... } 
....................  
....................  
.................... #include<mainpic_function.c> 
.................... //caution 
.................... //port of kbhit in CAMTurn_OFF_BC Mission is PC-- 
.................... //TRANSFER_DATA_NBYTE_TOPC_SCF(65536,65536); is comment out-- 
.................... //adcs address test make32 function-- 
.................... // 
.................... //reset battery voltage 0x87, over 0x87 is nomal mode 
.................... //reset  
....................  
.................... static int16 currenttime = 0; 
....................  
.................... void GIVE_ACCESS_SCF_Nsec(int8 min) 
.................... { 
....................    fprintf(PC,"giving access to COM for %d min\r\n", min); 
*
0B0DE:  MOVLW  7E
0B0E0:  MOVWF  FF6
0B0E2:  MOVLW  08
0B0E4:  MOVWF  FF7
0B0E6:  MOVLW  00
0B0E8:  MOVWF  FF8
0B0EA:  MOVLW  19
0B0EC:  MOVLB  3
0B0EE:  MOVWF  x62
0B0F0:  MOVLB  0
0B0F2:  CALL   17AE
0B0F6:  MOVFF  337,33E
0B0FA:  MOVLW  18
0B0FC:  MOVLB  3
0B0FE:  MOVWF  x3F
0B100:  MOVLB  0
0B102:  CALL   6A2E
0B106:  MOVLW  99
0B108:  MOVWF  FF6
0B10A:  MOVLW  08
0B10C:  MOVWF  FF7
0B10E:  MOVLW  00
0B110:  MOVWF  FF8
0B112:  MOVLW  06
0B114:  MOVLB  3
0B116:  MOVWF  x62
0B118:  MOVLB  0
0B11A:  CALL   17AE
....................    fputc(0x35,COM); 
0B11E:  MOVLW  35
0B120:  CALL   3F52
....................    output_high(PIN_C4); 
0B124:  BCF    F94.4
0B126:  BSF    F8B.4
....................    if(min > 5)                                                                   //for accidentaly send the long time delay, maximum should be 5 min 
0B128:  MOVLB  3
0B12A:  MOVF   x37,W
0B12C:  SUBLW  05
0B12E:  BC    B134
....................    { 
....................       min = 5; 
0B130:  MOVLW  05
0B132:  MOVWF  x37
....................    } 
....................    for(int16 i = 0; i < min * 60; i++) 
0B134:  CLRF   x39
0B136:  CLRF   x38
0B138:  MOVF   x37,W
0B13A:  MULLW  3C
0B13C:  MOVF   FF3,W
0B13E:  MOVF   x39,F
0B140:  BNZ   B17E
0B142:  SUBWF  x38,W
0B144:  BC    B17E
....................    { 
....................       delay_ms(1000);                                                            //wait 1 sec 
0B146:  MOVLW  04
0B148:  MOVWF  x3A
0B14A:  MOVLW  FA
0B14C:  MOVWF  x6B
0B14E:  MOVLB  0
0B150:  CALL   1AFC
0B154:  MOVLB  3
0B156:  DECFSZ x3A,F
0B158:  BRA    B14A
....................       if(in_bffr_main[4] == 0xab || CMD_FROM_PC[0] == 0xab) 
0B15A:  MOVLB  0
0B15C:  MOVF   x8A,W
0B15E:  SUBLW  AB
0B160:  BZ    B168
0B162:  MOVF   x7E,W
0B164:  SUBLW  AB
0B166:  BNZ   B174
....................       { 
....................          CMD_FROM_PC[0] = 0; 
0B168:  CLRF   x7E
....................          CMD_FROM_PC[1] = 0; 
0B16A:  CLRF   x7F
....................          PC_DATA = 0; 
0B16C:  CLRF   x99
....................          break; 
0B16E:  MOVLB  3
0B170:  BRA    B17E
0B172:  MOVLB  0
....................       } 
0B174:  MOVLB  3
0B176:  INCF   x38,F
0B178:  BTFSC  FD8.2
0B17A:  INCF   x39,F
0B17C:  BRA    B138
....................    } 
....................    fprintf(PC,"\r\nBack to Nomal Operation\r\n"); 
0B17E:  MOVLW  A0
0B180:  MOVWF  FF6
0B182:  MOVLW  08
0B184:  MOVWF  FF7
0B186:  MOVLW  00
0B188:  MOVWF  FF8
0B18A:  MOVLB  0
0B18C:  CALL   318C
....................    return; 
0B190:  RETURN 0
.................... } 
....................  
.................... //--------MAIN PIC Buffer------------------------------------------------------ 
.................... /* 
.................... void SerialDataReceive()                                                         //get buffer data one by one 
.................... { 
....................    int num = 0; 
....................    for(num = 0 ;num < 16; num++) 
....................    { 
....................     in_bffr_main[num] = fgetc(com); 
....................    }      
....................    return; 
.................... } 
.................... */ 
.................... void DELETE_CMD_FROM_PC() 
.................... { 
....................    for(int num = 0; num < 8; num++) 
*
09F1C:  MOVLB  3
09F1E:  CLRF   x2C
09F20:  MOVF   x2C,W
09F22:  SUBLW  07
09F24:  BNC   9F3A
....................    { 
....................       CMD_FROM_PC[num] = 0; 
09F26:  CLRF   03
09F28:  MOVF   x2C,W
09F2A:  ADDLW  7E
09F2C:  MOVWF  FE9
09F2E:  MOVLW  00
09F30:  ADDWFC 03,W
09F32:  MOVWF  FEA
09F34:  CLRF   FEF
09F36:  INCF   x2C,F
09F38:  BRA    9F20
....................    } 
....................    return; 
09F3A:  MOVLB  0
09F3C:  RETURN 0
.................... } 
....................  
.................... void Delete_Buffer()                                                             //delete com command buffer 
*
04296:  MOVLB  3
04298:  CLRF   x4D
.................... { 
....................    int num = 0; 
....................    for(num = 0;num < 16; num++) 
0429A:  CLRF   x4D
0429C:  MOVF   x4D,W
0429E:  SUBLW  0F
042A0:  BNC   42B6
....................    { 
....................     in_bffr_main[num] = 0x00; 
042A2:  CLRF   03
042A4:  MOVF   x4D,W
042A6:  ADDLW  86
042A8:  MOVWF  FE9
042AA:  MOVLW  00
042AC:  ADDWFC 03,W
042AE:  MOVWF  FEA
042B0:  CLRF   FEF
042B2:  INCF   x4D,F
042B4:  BRA    429C
....................    } 
....................    COM_DATA = 0; 
042B6:  MOVLB  0
042B8:  CLRF   x96
....................    return; 
042BA:  RETURN 0
.................... } 
.................... /* 
.................... void Transfer_Buffer(int PORT_NUM)                                               //get buffer data one by one                                                                                 
.................... {                                                                                //1:PC 2:COM 3:RESET 
....................    int num = 0; 
....................    switch(PORT_NUM) 
....................    { 
....................       case 1: 
....................          for(;num < 16; num++) 
....................          { 
....................          fputc(in_bffr_main[num],PC); 
....................          } 
....................          break; 
....................       case 2: 
....................          for(;num < 16; num++) 
....................          { 
....................          fputc(in_bffr_main[num],COM); 
....................          } 
....................          break; 
....................       case 3: 
....................          for(;num < 16; num++) 
....................          { 
....................          fputc(in_bffr_main[num],RESET); 
....................          } 
....................          break; 
....................    } 
....................    return; 
.................... } 
....................  
.................... void TRANSFER_Buffer_OF(unsigned INT32 TO_ADRESS)                                //for testing 
.................... { 
....................    for (int i=0 ; i < 16 ; i++) 
....................    { 
....................       WRITE_DATA_BYTE_OF(TO_ADRESS, in_bffr_main[i]); 
....................       TO_ADRESS++; 
....................    } 
....................     
....................    return; 
.................... } 
.................... */ 
.................... //--------BC Function---------------------------------------------------------- 
....................  
.................... //unsigned int8 BC_temp_data[2] = {}; 
.................... unsigned int16 BC_temp_data_h = 0; 
.................... unsigned int16 BC_temp_data_l = 0; 
.................... unsigned int16 BC_TEMP = 0; 
.................... float  temp = 0; 
.................... float initial_temp = 0; 
.................... float MAXTEMP = 0; 
.................... int16 UNLEG2 = 0; 
....................  
....................  
....................  
.................... void BC_SETUP()                                                                  //Analog read configuration (AN9) 
.................... { 
....................    ANCON2= 0x01;                                                                 // PIN RC2 Analog enable 
*
026CA:  MOVLW  01
026CC:  MOVLB  E
026CE:  MOVWF  x46
....................    ADCON1L = 0x00;                                                               // SAMP bit must be cleared by software to start conversion (ends sampling and starts converting) 
026D0:  CLRF   FC0
....................    ADCHS0L = 0x09;                                                               // Connect AN9 as S/H+ input 
026D2:  MOVLW  09
026D4:  MOVWF  x86
....................                                                                                  // AN9 is the input 
....................    ADCON2H = 0x00;                                                               //A/D control register 2H 
026D6:  CLRF   x8D
....................    ADRC = 1;                                                                     //RC Clock source 
026D8:  BSF    x8B.7
....................    ADCSS0L = 0;                                                                  //Sample select register 
026DA:  CLRF   x82
....................    ADCON3L = 0x02;                                                               // Conversion clock select bits, Tad = 3.2/Fosc 
026DC:  MOVLW  02
026DE:  MOVWF  x8A
....................    //setup_adc(ADC_CLOCK_DIV_32);                                                //VSS_VDD 
....................    ADCON2L = 0;                                                                  //A/D control register 2L 
026E0:  CLRF   x8C
....................    return; 
026E2:  MOVLB  0
026E4:  RETURN 0
.................... } 
.................... /* 
.................... void BC_READ_TO_PC() 
.................... { 
....................    ADON = 1; 
....................    SAMP = 1; 
....................    delay_ms(100); 
....................     
....................    SAMP = 0; // start converting 
....................    while (!DONE){}; 
....................    delay_ms(100); 
....................    //BC_temp_data[0] = ADCBUF0H;//read_adc(); 
....................    //BC_temp_data[1] = ADCBUF0L; 
....................     
....................    BC_temp_data_h = ADCBUF0H; 
....................    BC_temp_data_l = ADCBUF0L; 
....................    //temp = ((data_h << 8 ) | data_l); 
....................    fprintf(PC,"data_l:%x \r\n", BC_temp_data_l); 
....................    fprintf(PC,"data_h:%x \r\n", BC_temp_data_h); 
....................    BC_TEMP = BC_temp_data_h | BC_temp_data_l; 
....................    //fprintf(PC,"temp:%f\r\n",temp); 
....................    temp = BC_TEMP/1024*3.31*100-50;    //VDD: 3.31V(MEASURED) 
....................    //fprintf(PC,"%1.1f \r\n", temp); 
....................    return; 
.................... } 
.................... */ 
.................... void CHECK_BC_TEMP()                                                             //lee la temperatura del BC y lo guarda en MAXTEMP 
.................... { 
....................    BC_SETUP();                                                                   //Analog read configuration (AN9) 
*
062AE:  CALL   26CA
....................    ADON = 1; 
062B2:  BSF    FC1.7
....................    SAMP = 1; 
062B4:  BSF    FC0.1
....................    delay_ms(10); 
062B6:  MOVLW  0A
062B8:  MOVLB  3
062BA:  MOVWF  x6B
062BC:  MOVLB  0
062BE:  CALL   1AFC
....................     
....................    SAMP = 0;                                                                     // start converting 
062C2:  BCF    FC0.1
....................    while (!DONE){}; 
062C4:  BTFSS  FC0.0
062C6:  BRA    62C4
....................    delay_ms(10); 
062C8:  MOVLW  0A
062CA:  MOVLB  3
062CC:  MOVWF  x6B
062CE:  MOVLB  0
062D0:  CALL   1AFC
....................    BC_temp_data_h = ADCBUF0H;                                                    //read_adc(); 
062D4:  MOVLB  1
062D6:  CLRF   x93
062D8:  MOVFF  FC3,192
....................    BC_temp_data_l = ADCBUF0L; 
062DC:  CLRF   x95
062DE:  MOVFF  FC2,194
....................    //fprintf(PC,"%x%x\r\n",ADCBUF0H,BC_temp_data_l); 
....................    BC_temp = BC_temp_data_h<<8 | BC_temp_data_l;                                 //convierte en un int16 
062E2:  MOVFF  192,342
062E6:  MOVLB  3
062E8:  CLRF   x41
062EA:  MOVF   x41,W
062EC:  MOVLB  1
062EE:  IORWF  x94,W
062F0:  MOVWF  x96
062F2:  MOVLB  3
062F4:  MOVF   x42,W
062F6:  MOVLB  1
062F8:  IORWF  x95,W
062FA:  MOVWF  x97
....................    //fprintf(PC,"HEX : %x%x\r\n",BC_temp>>8,BC_temp); 
....................  
....................    temp = BC_temp;                                                               //convierte a float 
062FC:  MOVFF  197,342
06300:  MOVFF  196,341
06304:  MOVLB  0
06306:  BRA    5E24
06308:  MOVFF  03,19B
0630C:  MOVFF  02,19A
06310:  MOVFF  01,199
06314:  MOVFF  00,198
....................    //temp = temp/1024*3.25*100-50; 
....................    temp = (temp*3.3/1023); 
06318:  MOVFF  19B,351
0631C:  MOVFF  19A,350
06320:  MOVFF  199,34F
06324:  MOVFF  198,34E
06328:  MOVLW  33
0632A:  MOVLB  3
0632C:  MOVWF  x55
0632E:  MOVWF  x54
06330:  MOVLW  53
06332:  MOVWF  x53
06334:  MOVLW  80
06336:  MOVWF  x52
06338:  MOVLB  0
0633A:  CALL   4A6E
0633E:  MOVFF  03,344
06342:  MOVFF  02,343
06346:  MOVFF  01,342
0634A:  MOVFF  00,341
0634E:  MOVFF  03,348
06352:  MOVFF  02,347
06356:  MOVFF  01,346
0635A:  MOVFF  00,345
0635E:  MOVLB  3
06360:  CLRF   x4C
06362:  MOVLW  C0
06364:  MOVWF  x4B
06366:  MOVLW  7F
06368:  MOVWF  x4A
0636A:  MOVLW  88
0636C:  MOVWF  x49
0636E:  MOVLB  0
06370:  BRA    5E5C
06372:  MOVFF  03,19B
06376:  MOVFF  02,19A
0637A:  MOVFF  01,199
0637E:  MOVFF  00,198
....................    temp = temp*100-50; 
06382:  MOVFF  19B,351
06386:  MOVFF  19A,350
0638A:  MOVFF  199,34F
0638E:  MOVFF  198,34E
06392:  MOVLB  3
06394:  CLRF   x55
06396:  CLRF   x54
06398:  MOVLW  48
0639A:  MOVWF  x53
0639C:  MOVLW  85
0639E:  MOVWF  x52
063A0:  MOVLB  0
063A2:  CALL   4A6E
063A6:  MOVFF  03,344
063AA:  MOVFF  02,343
063AE:  MOVFF  01,342
063B2:  MOVFF  00,341
063B6:  BSF    FD8.1
063B8:  MOVFF  03,34D
063BC:  MOVFF  02,34C
063C0:  MOVFF  01,34B
063C4:  MOVFF  00,34A
063C8:  MOVLB  3
063CA:  CLRF   x51
063CC:  CLRF   x50
063CE:  MOVLW  48
063D0:  MOVWF  x4F
063D2:  MOVLW  84
063D4:  MOVWF  x4E
063D6:  MOVLB  0
063D8:  CALL   4B64
063DC:  MOVFF  03,19B
063E0:  MOVFF  02,19A
063E4:  MOVFF  01,199
063E8:  MOVFF  00,198
....................    fprintf(PC,"Current Temp: %1.1f\r\n",temp); 
063EC:  MOVLW  BC
063EE:  MOVWF  FF6
063F0:  MOVLW  08
063F2:  MOVWF  FF7
063F4:  MOVLW  00
063F6:  MOVWF  FF8
063F8:  MOVLW  0E
063FA:  MOVLB  3
063FC:  MOVWF  x62
063FE:  MOVLB  0
06400:  CALL   17AE
06404:  MOVLW  89
06406:  MOVWF  FE9
06408:  MOVFF  19B,344
0640C:  MOVFF  19A,343
06410:  MOVFF  199,342
06414:  MOVFF  198,341
06418:  MOVLW  01
0641A:  MOVLB  3
0641C:  MOVWF  x45
0641E:  MOVLB  0
06420:  RCALL  6094
06422:  MOVLW  0D
06424:  BTFSS  F9E.4
06426:  BRA    6424
06428:  MOVWF  FAD
0642A:  MOVLW  0A
0642C:  BTFSS  F9E.4
0642E:  BRA    642C
06430:  MOVWF  FAD
....................     
....................    if(MAXTEMP < temp) 
06432:  MOVFF  1A3,348
06436:  MOVFF  1A2,347
0643A:  MOVFF  1A1,346
0643E:  MOVFF  1A0,345
06442:  MOVFF  19B,34C
06446:  MOVFF  19A,34B
0644A:  MOVFF  199,34A
0644E:  MOVFF  198,349
06452:  RCALL  6234
06454:  BNC   6466
....................    { 
....................       MAXTEMP = temp; 
06456:  MOVFF  19B,1A3
0645A:  MOVFF  19A,1A2
0645E:  MOVFF  199,1A1
06462:  MOVFF  198,1A0
....................    } 
....................    fprintf(PC,"%f\r\n",temp); 
06466:  MOVLW  89
06468:  MOVWF  FE9
0646A:  MOVFF  19B,344
0646E:  MOVFF  19A,343
06472:  MOVFF  199,342
06476:  MOVFF  198,341
0647A:  MOVLW  02
0647C:  MOVLB  3
0647E:  MOVWF  x45
06480:  MOVLB  0
06482:  RCALL  6094
06484:  MOVLW  0D
06486:  BTFSS  F9E.4
06488:  BRA    6486
0648A:  MOVWF  FAD
0648C:  MOVLW  0A
0648E:  BTFSS  F9E.4
06490:  BRA    648E
06492:  MOVWF  FAD
....................    return; 
06494:  RETURN 0
.................... } 
....................  
.................... void MEASURE_BC_TEMP() 
.................... { 
....................    BC_SETUP();                                                                   //configuracion para lectura analogica 
*
04370:  CALL   26CA
....................    ADON = 1; 
04374:  BSF    FC1.7
....................    SAMP = 1; 
04376:  BSF    FC0.1
....................    delay_ms(1); 
04378:  MOVLW  01
0437A:  MOVLB  3
0437C:  MOVWF  x6B
0437E:  MOVLB  0
04380:  CALL   1AFC
....................     
....................    SAMP = 0;                                                                     // start converting 
04384:  BCF    FC0.1
....................    while (!DONE){}; 
04386:  BTFSS  FC0.0
04388:  BRA    4386
....................    delay_ms(1); 
0438A:  MOVLW  01
0438C:  MOVLB  3
0438E:  MOVWF  x6B
04390:  MOVLB  0
04392:  CALL   1AFC
....................    BC_temp_data_h = ADCBUF0H;                                                    //read_adc(); 
04396:  MOVLB  1
04398:  CLRF   x93
0439A:  MOVFF  FC3,192
....................    BC_temp_data_l = ADCBUF0L; 
0439E:  CLRF   x95
043A0:  MOVFF  FC2,194
....................  
....................    return; 
043A4:  MOVLB  0
043A6:  RETURN 0
.................... } 
....................  
.................... void Turn_ON_BC() 
.................... { 
....................    output_high(PIN_D5);                                                          //BC switch ON, RD5=1 
*
06496:  BCF    F95.5
06498:  BSF    F8C.5
....................    return; 
0649A:  GOTO   64B2 (RETURN)
.................... } 
....................  
.................... void Turn_OFF_BC() 
.................... { 
....................    output_low(PIN_D5);                                                           //BC switch OFF, RD5=0 
*
026F8:  BCF    F95.5
026FA:  BCF    F8C.5
....................    return; 
026FC:  RETURN 0
.................... } 
....................  
.................... void BC_OPERATION()                                                              //Turn ON BC and read temperature 
.................... { 
....................    CHECK_BC_TEMP();                                                              //read BC temperature and save It in float MAXTEMP 
*
0649E:  RCALL  62AE
....................    initial_temp = MAXTEMP;                                                       //save temperature in initial_temp before turn_ON BC 
064A0:  MOVFF  1A3,19F
064A4:  MOVFF  1A2,19E
064A8:  MOVFF  1A1,19D
064AC:  MOVFF  1A0,19C
....................    //fprintf(PC,"INITIAL TEMPERATURE is %1.1f\r\n\r\n",initial_temp); 
....................    Turn_ON_BC();                                                                 //BC switch ON, RD5=1 
064B0:  BRA    6496
....................    fprintf(PC,"Turned ON BC\r\n"); 
064B2:  MOVLW  D2
064B4:  MOVWF  FF6
064B6:  MOVLW  08
064B8:  MOVWF  FF7
064BA:  MOVLW  00
064BC:  MOVWF  FF8
064BE:  CALL   318C
....................    currenttime = 0; 
064C2:  MOVLB  1
064C4:  CLRF   x91
064C6:  CLRF   x90
....................    int8 counter = 0;    
064C8:  MOVLB  3
064CA:  CLRF   x3F
....................    while(currenttime < 30)                                                       //turn ON BC for 30 sec 
064CC:  MOVLB  1
064CE:  MOVF   x91,F
064D0:  BNZ   6576
064D2:  MOVF   x90,W
064D4:  SUBLW  1D
064D6:  BNC   6576
....................    { 
....................       for(int i = 0; i < 10; i++) 
064D8:  MOVLB  3
064DA:  CLRF   x40
064DC:  MOVF   x40,W
064DE:  SUBLW  09
064E0:  BNC   654C
....................       { 
....................          COLLECT_RESET_DATA();                                                   //envia comando al reset PIC pidiendo RESET DATA 
064E2:  MOVLB  0
064E4:  CALL   1B64
....................          if(reset_bffr[0] == 0x8e) 
064E8:  MOVF   xEC,W
064EA:  SUBLW  8E
064EC:  BNZ   6546
....................          { 
....................             for(i = 0; i < 10; i++);                                             //muestra el array recibido 
064EE:  MOVLB  3
064F0:  CLRF   x40
064F2:  MOVF   x40,W
064F4:  SUBLW  09
064F6:  BNC   64FC
064F8:  INCF   x40,F
064FA:  BRA    64F2
....................             { 
....................                fprintf(PC,"%x,",reset_bffr[i]); 
064FC:  CLRF   03
064FE:  MOVF   x40,W
06500:  ADDLW  EC
06502:  MOVWF  FE9
06504:  MOVLW  00
06506:  ADDWFC 03,W
06508:  MOVWF  FEA
0650A:  MOVFF  FEF,363
0650E:  MOVLW  57
06510:  MOVWF  x64
06512:  MOVLB  0
06514:  CALL   17E0
06518:  MOVLW  2C
0651A:  BTFSS  F9E.4
0651C:  BRA    651A
0651E:  MOVWF  FAD
....................             } 
....................             fprintf(PC,"%x\r\n",reset_bffr[10]); 
06520:  MOVFF  F6,363
06524:  MOVLW  57
06526:  MOVLB  3
06528:  MOVWF  x64
0652A:  MOVLB  0
0652C:  CALL   17E0
06530:  MOVLW  0D
06532:  BTFSS  F9E.4
06534:  BRA    6532
06536:  MOVWF  FAD
06538:  MOVLW  0A
0653A:  BTFSS  F9E.4
0653C:  BRA    653A
0653E:  MOVWF  FAD
....................             break; 
06540:  MOVLB  3
06542:  BRA    654C
06544:  MOVLB  0
....................          } 
06546:  MOVLB  3
06548:  INCF   x40,F
0654A:  BRA    64DC
....................       } 
....................       CHECK_BC_TEMP();                                                           //read BC temperature and save It in float MAXTEMP 
0654C:  MOVLB  0
0654E:  RCALL  62AE
....................       UNLEG2 = UNLEG2 + RESET_bffr[10];                                          //add the unleg2 current every second 
06550:  MOVF   xF6,W
06552:  MOVLB  1
06554:  ADDWF  xA4,F
06556:  MOVLW  00
06558:  ADDWFC xA5,F
....................       counter++; 
0655A:  MOVLB  3
0655C:  INCF   x3F,F
....................       delay_ms(900); 
0655E:  MOVLW  04
06560:  MOVWF  x41
06562:  MOVLW  E1
06564:  MOVWF  x6B
06566:  MOVLB  0
06568:  CALL   1AFC
0656C:  MOVLB  3
0656E:  DECFSZ x41,F
06570:  BRA    6562
06572:  BRA    64CC
06574:  MOVLB  1
....................    } 
....................        
....................    Turn_OFF_BC();                                                                //BC switch OFF, RD5=0 
06576:  MOVLB  0
06578:  CALL   26F8
....................    fprintf(PC,"Turned OFF BC\r\n"); 
0657C:  MOVLW  E2
0657E:  MOVWF  FF6
06580:  MOVLW  08
06582:  MOVWF  FF7
06584:  MOVLW  00
06586:  MOVWF  FF8
06588:  CALL   318C
....................    delay_ms(500); 
0658C:  MOVLW  02
0658E:  MOVLB  3
06590:  MOVWF  x41
06592:  MOVLW  FA
06594:  MOVWF  x6B
06596:  MOVLB  0
06598:  CALL   1AFC
0659C:  MOVLB  3
0659E:  DECFSZ x41,F
065A0:  BRA    6592
....................    CHECK_BC_TEMP();                                                              //lee la temperatura del BC y lo guarda en float MAXTEMP 
065A2:  MOVLB  0
065A4:  RCALL  62AE
....................    if(MAXTEMP-initial_temp > 5)                                                  //pone en HIGH bandera si hubo incremento de temperatura 
065A6:  BSF    FD8.1
065A8:  MOVFF  1A3,34D
065AC:  MOVFF  1A2,34C
065B0:  MOVFF  1A1,34B
065B4:  MOVFF  1A0,34A
065B8:  MOVFF  19F,351
065BC:  MOVFF  19E,350
065C0:  MOVFF  19D,34F
065C4:  MOVFF  19C,34E
065C8:  CALL   4B64
065CC:  MOVFF  03,344
065D0:  MOVFF  02,343
065D4:  MOVFF  01,342
065D8:  MOVFF  00,341
065DC:  MOVLB  3
065DE:  CLRF   x48
065E0:  CLRF   x47
065E2:  MOVLW  20
065E4:  MOVWF  x46
065E6:  MOVLW  81
065E8:  MOVWF  x45
065EA:  MOVFF  03,34C
065EE:  MOVFF  02,34B
065F2:  MOVFF  01,34A
065F6:  MOVFF  00,349
065FA:  MOVLB  0
065FC:  RCALL  6234
065FE:  BNC   6604
....................    { 
....................       ANT_DEP_STATUS = 1; 
06600:  MOVLW  01
06602:  MOVWF  x7B
....................    } 
....................    fprintf(PC,"MAXIMUM TEMPERATURE is %1.1f\r\n\r\n",MAXTEMP); 
06604:  MOVLW  F2
06606:  MOVWF  FF6
06608:  MOVLW  08
0660A:  MOVWF  FF7
0660C:  MOVLW  00
0660E:  MOVWF  FF8
06610:  MOVLW  17
06612:  MOVLB  3
06614:  MOVWF  x62
06616:  MOVLB  0
06618:  CALL   17AE
0661C:  MOVLW  89
0661E:  MOVWF  FE9
06620:  MOVFF  1A3,344
06624:  MOVFF  1A2,343
06628:  MOVFF  1A1,342
0662C:  MOVFF  1A0,341
06630:  MOVLW  01
06632:  MOVLB  3
06634:  MOVWF  x45
06636:  MOVLB  0
06638:  RCALL  6094
0663A:  MOVLW  0E
0663C:  MOVWF  FF6
0663E:  MOVLW  09
06640:  MOVWF  FF7
06642:  MOVLW  00
06644:  MOVWF  FF8
06646:  MOVLW  04
06648:  MOVLB  3
0664A:  MOVWF  x62
0664C:  MOVLB  0
0664E:  CALL   17AE
....................    MAXTEMP = 0; 
06652:  MOVLB  1
06654:  CLRF   xA3
06656:  CLRF   xA2
06658:  CLRF   xA1
0665A:  CLRF   xA0
....................    initial_temp = 0; 
0665C:  CLRF   x9F
0665E:  CLRF   x9E
06660:  CLRF   x9D
06662:  CLRF   x9C
....................    return; 
06664:  MOVLB  0
06666:  RETURN 0
.................... } 
....................  
.................... void CLEAR_BC_FLAG() 
.................... { 
....................    BC_ATTEMPT_FLAG = 0; 
*
0AFAC:  CLRF   x68
....................    fprintf(PC,"\r\nBC Attempt Flag clear done\r\n"); 
0AFAE:  MOVLW  14
0AFB0:  MOVWF  FF6
0AFB2:  MOVLW  09
0AFB4:  MOVWF  FF7
0AFB6:  MOVLW  00
0AFB8:  MOVWF  FF8
0AFBA:  CALL   318C
....................    return; 
0AFBE:  RETURN 0
.................... } 
....................  
.................... void MAKE_BC_FLAG_1() 
.................... { 
....................    BC_ATTEMPT_FLAG = 1; 
0AFC0:  MOVLW  01
0AFC2:  MOVWF  x68
....................    fprintf(PC,"\r\nBC Attempt Flag:1\r\n"); 
0AFC4:  MOVLW  34
0AFC6:  MOVWF  FF6
0AFC8:  MOVLW  09
0AFCA:  MOVWF  FF7
0AFCC:  MOVLW  00
0AFCE:  MOVWF  FF8
0AFD0:  CALL   318C
....................    return; 
0AFD4:  RETURN 0
.................... } 
....................  
.................... void MAKE_BC_FLAG_2() 
.................... { 
....................    BC_ATTEMPT_FLAG = 2; 
0AFD6:  MOVLW  02
0AFD8:  MOVWF  x68
....................    fprintf(PC,"\r\nBC Attempt Flag:2\r\n"); 
0AFDA:  MOVLW  4A
0AFDC:  MOVWF  FF6
0AFDE:  MOVLW  09
0AFE0:  MOVWF  FF7
0AFE2:  MOVLW  00
0AFE4:  MOVWF  FF8
0AFE6:  CALL   318C
....................    return; 
0AFEA:  RETURN 0
.................... } 
....................  
.................... void MAKE_BC_FLAG_3() 
.................... { 
....................    BC_ATTEMPT_FLAG = 3; 
0AFEC:  MOVLW  03
0AFEE:  MOVWF  x68
....................    fprintf(PC,"\r\nBC Attempt Flag:3\r\n"); 
0AFF0:  MOVLW  60
0AFF2:  MOVWF  FF6
0AFF4:  MOVLW  09
0AFF6:  MOVWF  FF7
0AFF8:  MOVLW  00
0AFFA:  MOVWF  FF8
0AFFC:  CALL   318C
....................    return; 
0B000:  RETURN 0
.................... } 
....................  
.................... void MAKE_BC_FLAG_4() 
.................... { 
....................    BC_ATTEMPT_FLAG = 4; 
0B002:  MOVLW  04
0B004:  MOVWF  x68
....................    fprintf(PC,"\r\nBC Attempt Flag:4\r\n"); 
0B006:  MOVLW  76
0B008:  MOVWF  FF6
0B00A:  MOVLW  09
0B00C:  MOVWF  FF7
0B00E:  MOVLW  00
0B010:  MOVWF  FF8
0B012:  CALL   318C
....................    return; 
0B016:  RETURN 0
.................... } 
....................  
.................... void Antenna_Deploy() 
.................... { 
....................    fprintf(PC,"Ant Dep Attempt No: %x\r\n",BC_ATTEMPT_FLAG); 
*
06668:  MOVLW  8C
0666A:  MOVWF  FF6
0666C:  MOVLW  09
0666E:  MOVWF  FF7
06670:  MOVLW  00
06672:  MOVWF  FF8
06674:  MOVLW  14
06676:  MOVLB  3
06678:  MOVWF  x62
0667A:  MOVLB  0
0667C:  CALL   17AE
06680:  MOVFF  68,363
06684:  MOVLW  57
06686:  MOVLB  3
06688:  MOVWF  x64
0668A:  MOVLB  0
0668C:  CALL   17E0
06690:  MOVLW  0D
06692:  BTFSS  F9E.4
06694:  BRA    6692
06696:  MOVWF  FAD
06698:  MOVLW  0A
0669A:  BTFSS  F9E.4
0669C:  BRA    669A
0669E:  MOVWF  FAD
....................     
....................    if(BC_ATTEMPT_FLAG < 4 && BC_ATTEMPT_FLAG != 0)                               //SE REPETIRA 3 VECES MAS LUEGO DEL PRIMER DESPLIEGUE, SEA EXITOSO O NO 
066A0:  MOVF   x68,W
066A2:  SUBLW  03
066A4:  BNC   674E
066A6:  MOVF   x68,F
066A8:  BZ    674E
....................    { 
....................       //SAVE_SAT_LOG(0xBC,BC_ATTEMPT_FLAG,BC_ATTEMPT_FLAG); 
....................       fprintf(PC,"BC command sent to RESET PIC\r\n"); 
066AA:  MOVLW  A6
066AC:  MOVWF  FF6
066AE:  MOVLW  09
066B0:  MOVWF  FF7
066B2:  MOVLW  00
066B4:  MOVWF  FF8
066B6:  CALL   318C
....................       for(int num = 0; num < 50; num++) 
066BA:  MOVLB  3
066BC:  CLRF   x2C
066BE:  MOVF   x2C,W
066C0:  SUBLW  31
066C2:  BNC   66DE
....................       { 
....................          fputc(0xBC,reset); 
066C4:  MOVLW  BC
066C6:  MOVLB  0
066C8:  CALL   1AF0
....................          delay_ms(10); 
066CC:  MOVLW  0A
066CE:  MOVLB  3
066D0:  MOVWF  x6B
066D2:  MOVLB  0
066D4:  CALL   1AFC
066D8:  MOVLB  3
066DA:  INCF   x2C,F
066DC:  BRA    66BE
....................       } 
....................       delay_ms(1000); 
066DE:  MOVLW  04
066E0:  MOVWF  x2D
066E2:  MOVLW  FA
066E4:  MOVWF  x6B
066E6:  MOVLB  0
066E8:  CALL   1AFC
066EC:  MOVLB  3
066EE:  DECFSZ x2D,F
066F0:  BRA    66E2
....................       if(reset_bffr[0] == 0xCB)                                                  //check the headear of reset respond 
066F2:  MOVLB  0
066F4:  MOVF   xEC,W
066F6:  SUBLW  CB
066F8:  BNZ   674E
....................       { 
....................          RESET_DATA = 0; 
066FA:  CLRF   xEB
....................          BC_OPERATION();                                                         //Turn ON BC for 30s and read temperature 
066FC:  RCALL  649E
....................          BC_ATTEMPT_FLAG++;                                                      //increase attempt Flag 
066FE:  INCF   x68,F
....................          STORE_FLAG_INFO();                                                      //save flag data to flash memory 
06700:  CALL   5714
....................          WRITE_FLAG_to_EEPROM();                                                 //guarda los flags en la EEPROM a partir de la direccion 0x18000 (75%) 
06704:  CALL   5924
....................          STORE_ADRESS_DATA_TO_FLASH();                                           //guarda los datos de direcciones, en un nuevo sector si se cumple el ciclo de R/W 
06708:  CALL   3776
....................          reset_bffr[0] = 0; 
0670C:  CLRF   xEC
....................          CMD_FROM_PC[1] = 0; 
0670E:  CLRF   x7F
....................          RESET_DATA = 0; 
06710:  CLRF   xEB
....................          delay_ms(1000); 
06712:  MOVLW  04
06714:  MOVLB  3
06716:  MOVWF  x2D
06718:  MOVLW  FA
0671A:  MOVWF  x6B
0671C:  MOVLB  0
0671E:  CALL   1AFC
06722:  MOVLB  3
06724:  DECFSZ x2D,F
06726:  BRA    6718
....................          delay_ms(20000);                                                        //wait until RESET goes back to nomal loop 
06728:  MOVLW  50
0672A:  MOVWF  x2D
0672C:  MOVLW  FA
0672E:  MOVWF  x6B
06730:  MOVLB  0
06732:  CALL   1AFC
06736:  MOVLB  3
06738:  DECFSZ x2D,F
0673A:  BRA    672C
....................          SAVE_SAT_LOG(0xBC,BC_ATTEMPT_FLAG,BC_ATTEMPT_FLAG); 
0673C:  MOVLW  BC
0673E:  MOVWF  x54
06740:  MOVFF  68,355
06744:  MOVFF  68,356
06748:  MOVLB  0
0674A:  CALL   3A8A
....................       } 
....................    } 
....................    return; 
0674E:  GOTO   E3B4 (RETURN)
.................... } 
....................  
....................  
.................... //--------FAB HK collection---------------------------------------------------- 
.................... #define HK_size 124                                                              //HK FORMAT ARRAY SIZE 
.................... #define CW_size 5                                                                //CW FORMAT ARRAY SIZE 
.................... #define HIGH_SAMP_HK_size 124                                                    //High Sampling HK FORMAT ARRAY SIZE 
.................... #define FAB_SENSOR_size 45                                                       //HK FAB Part 
....................  
.................... static unsigned int8 CW_FORMAT[CW_size] = {}; 
.................... unsigned int8 in_HK[FAB_SENSOR_size] = {}; 
.................... unsigned int8 HKDATA[HK_size] ={}; 
.................... unsigned int8 ACK_for_COM[24] = {0xAA,0,0,0,0,0,0,0,0,0, 
....................                                  0,0,0,0,0,0,0,0,0,0, 
....................                                  0,0,0,0xBB}; 
.................... //int8 in_High_HK[HIGH_SAMP_HK_size] = {}; 
.................... BYTE FAB_DATA = 0; 
.................... //int t; 
.................... static int8 FAB_MEASUERING_FLAG= 0; 
.................... static int8 HIGH_SAMP_FAB_MEASUERING_FLAG = 0; 
.................... int32 FAB_FLAG = 0; 
.................... int8 CHECK_FAB_RESPONSE = 0; 
....................  
.................... #define buffer_from_FAB  (in_bffr_main[0]==0x33) 
....................  
.................... void REFLESH_CW_ACK_for_COM()                                                    //carga con 0x00 el array ACK_for_COM[7] 
.................... { 
....................    for(int i = 1; i < 7; i++) 
*
03F2C:  MOVLW  01
03F2E:  MOVLB  3
03F30:  MOVWF  x4F
03F32:  MOVF   x4F,W
03F34:  SUBLW  06
03F36:  BNC   3F4C
....................    { 
....................       ACK_for_COM[i] = 0x00; 
03F38:  CLRF   03
03F3A:  MOVF   x4F,W
03F3C:  ADDLW  54
03F3E:  MOVWF  FE9
03F40:  MOVLW  02
03F42:  ADDWFC 03,W
03F44:  MOVWF  FEA
03F46:  CLRF   FEF
03F48:  INCF   x4F,F
03F4A:  BRA    3F32
....................    } 
....................    return; 
03F4C:  MOVLB  0
03F4E:  GOTO   41B6 (RETURN)
.................... } 
....................  
.................... void REFLESH_MSN_ACK_for_COM()                                                   //clear array ACK_for_COM[i] from position 12 to 22 
.................... { 
....................    for(int i = 12; i < 23; i++) 
*
07D3E:  MOVLW  0C
07D40:  MOVLB  3
07D42:  MOVWF  x3A
07D44:  MOVF   x3A,W
07D46:  SUBLW  16
07D48:  BNC   7D5E
....................    { 
....................       ACK_for_COM[i] = 0x00; 
07D4A:  CLRF   03
07D4C:  MOVF   x3A,W
07D4E:  ADDLW  54
07D50:  MOVWF  FE9
07D52:  MOVLW  02
07D54:  ADDWFC 03,W
07D56:  MOVWF  FEA
07D58:  CLRF   FEF
07D5A:  INCF   x3A,F
07D5C:  BRA    7D44
....................    } 
....................    return; 
07D5E:  MOVLB  0
07D60:  GOTO   7D66 (RETURN)
.................... } 
....................  
.................... void CW_RESPOND()                                                                //carga el array ACK_for_COM[] con el dato del array CW_FORMAT[] y envia a COM PIC 
.................... { 
....................    REFLESH_CW_ACK_for_COM();                                                     //carga con 0x00 el array ACK_for_COM[] desde la pos 1 a la 6 
*
041B4:  BRA    3F2C
....................    delay_ms(100); 
041B6:  MOVLW  64
041B8:  MOVLB  3
041BA:  MOVWF  x6B
041BC:  MOVLB  0
041BE:  CALL   1AFC
....................    ACK_for_COM[0] = 0xAA; 
041C2:  MOVLW  AA
041C4:  MOVLB  2
041C6:  MOVWF  x54
....................    ACK_for_COM[1] = 0x50; 
041C8:  MOVLW  50
041CA:  MOVWF  x55
....................    ACK_for_COM[2] = CW_FORMAT[0]; 
041CC:  MOVFF  1A6,256
....................    ACK_for_COM[3] = CW_FORMAT[1]; 
041D0:  MOVFF  1A7,257
....................    ACK_for_COM[4] = CW_FORMAT[2]; 
041D4:  MOVFF  1A8,258
....................    ACK_for_COM[5] = CW_FORMAT[3]; 
041D8:  MOVFF  1A9,259
....................    ACK_for_COM[6] = CW_FORMAT[4]; 
041DC:  MOVFF  1AA,25A
....................    ACK_for_COM[23] = 0xBB; 
041E0:  MOVLW  BB
041E2:  MOVWF  x6B
....................    for(int a = 0; a < 24; a++)                                                   //send the latest CW data to COM PIC 
041E4:  MOVLB  3
041E6:  CLRF   x4D
041E8:  MOVF   x4D,W
041EA:  SUBLW  17
041EC:  BNC   420C
....................    { 
....................       fputc(ACK_for_COM[a],COM); 
041EE:  CLRF   03
041F0:  MOVF   x4D,W
041F2:  ADDLW  54
041F4:  MOVWF  FE9
041F6:  MOVLW  02
041F8:  ADDWFC 03,W
041FA:  MOVWF  FEA
041FC:  MOVFF  FEF,34F
04200:  MOVF   x4F,W
04202:  MOVLB  0
04204:  RCALL  3F52
04206:  MOVLB  3
04208:  INCF   x4D,F
0420A:  BRA    41E8
....................    } 
....................    MBP_SYNC();                                                                   //Send time data to MBP for syncronization 
0420C:  MOVLB  0
0420E:  BRA    4038
....................    fprintf(PC,"\r\nCW ANS:"); 
04210:  MOVLW  C6
04212:  MOVWF  FF6
04214:  MOVLW  09
04216:  MOVWF  FF7
04218:  MOVLW  00
0421A:  MOVWF  FF8
0421C:  CALL   318C
....................    for(a = 0; a < 23; a++)                                                       //send the latest CW data to PC 
04220:  MOVLB  3
04222:  CLRF   x4D
04224:  MOVF   x4D,W
04226:  SUBLW  16
04228:  BNC   4254
....................    { 
....................       fprintf(PC,"%x,",ACK_for_COM[a]); 
0422A:  CLRF   03
0422C:  MOVF   x4D,W
0422E:  ADDLW  54
04230:  MOVWF  FE9
04232:  MOVLW  02
04234:  ADDWFC 03,W
04236:  MOVWF  FEA
04238:  MOVFF  FEF,363
0423C:  MOVLW  57
0423E:  MOVWF  x64
04240:  MOVLB  0
04242:  CALL   17E0
04246:  MOVLW  2C
04248:  BTFSS  F9E.4
0424A:  BRA    4248
0424C:  MOVWF  FAD
0424E:  MOVLB  3
04250:  INCF   x4D,F
04252:  BRA    4224
....................    } 
....................    fprintf(PC,"%x\r\n",ACK_for_COM[23]); 
04254:  MOVFF  26B,363
04258:  MOVLW  57
0425A:  MOVWF  x64
0425C:  MOVLB  0
0425E:  CALL   17E0
04262:  MOVLW  0D
04264:  BTFSS  F9E.4
04266:  BRA    4264
04268:  MOVWF  FAD
0426A:  MOVLW  0A
0426C:  BTFSS  F9E.4
0426E:  BRA    426C
04270:  MOVWF  FAD
....................     
....................    for(int k = 14; k < 23; k++)                                                   //clear RSV part 
04272:  MOVLW  0E
04274:  MOVLB  3
04276:  MOVWF  x4E
04278:  MOVF   x4E,W
0427A:  SUBLW  16
0427C:  BNC   4292
....................    { 
....................       ACK_for_COM[k] = 0x00; 
0427E:  CLRF   03
04280:  MOVF   x4E,W
04282:  ADDLW  54
04284:  MOVWF  FE9
04286:  MOVLW  02
04288:  ADDWFC 03,W
0428A:  MOVWF  FEA
0428C:  CLRF   FEF
0428E:  INCF   x4E,F
04290:  BRA    4278
....................    } 
....................    return; 
04292:  MOVLB  0
04294:  RETURN 0
.................... } 
....................  
.................... void CHECK_50_and_CW_RESPOND()                                                   //verifica si llego comando 0x50 desde COM PIC y envia CW al COM 
.................... { 
....................    if(in_bffr_main[4] == 0x50) 
*
042BC:  MOVF   x8A,W
042BE:  SUBLW  50
042C0:  BNZ   42C8
....................    { 
....................       CW_RESPOND();                                                              //carga el array ACK_for_COM[] con el dato del array CW_FORMAT[] y envia a COM PIC 
042C2:  RCALL  41B4
....................       Delete_Buffer();                                                           //delete in_bffr_main[] (com command buffer) 
042C4:  RCALL  4296
....................       COM_DATA = 0;                                                              //flag to cero 
042C6:  CLRF   x96
....................    } 
....................    return; 
042C8:  RETURN 0
.................... } 
....................  
.................... //--------ADCS MISSION--------------------------------------------------------- 
.................... ////////////////////////////////////////////////// 
.................... //ADCS MISSION ID: 0x45                         // 
.................... //ADCS MISSION DATA COLLECT: 55                 // 
.................... //ADCS SENSOR SAMPLING: 0x34                    //   
.................... //ADCS ACK: 0x55                                // 
.................... //ADCS Finish Storing: 0x67                     // 
.................... ////////////////////////////////////////////////// 
.................... #define TLE_size 77                                                              //TLE FORMAT ARRAY SIZE 
.................... unsigned int8 TLE[TLE_size] = {0xAA,0X00,0X00,0X00,0X00,0X00,0X00,0X00,0X00,0X00, //TLE data array 
....................                                0X00,0X00,0X00,0X00,0X00,0X00,0X00,0X00,0X00,0X00, 
....................                                0X00,0X00,0X00,0X00,0X00,0X00,0X00,0X00,0X00,0X00, 
....................                                0X00,0X00,0X00,0X00,0X00,0X00,0X00,0X00,0X00,0X00, 
....................                                0X00,0X00,0X00,0X00,0X00,0X00,0X00,0X00,0X00,0X00, 
....................                                0X00,0X00,0X00,0X00,0X00,0X00,0X00,0X00,0X00,0X00, 
....................                                0X00,0X00,0X00,0X00,0X00,0X00,0X00,0X00,0X00,0X00, 
....................                                0X00,0X00,0X00,0X00,0X00,0X00,0xBB}; 
....................                                   
.................... void Turn_On_ADCS() 
.................... { 
....................    output_high(PIN_D6);                                                          //ADCS switch ON, RD6=1 
*
026EC:  BCF    F95.6
026EE:  BSF    F8C.6
....................    return; 
026F0:  RETURN 0
.................... } 
....................  
.................... void Turn_Off_ADCS() 
.................... { 
....................    output_low(PIN_D6);                                                           //ADCS switch OFF, RD6=0 
*
0A2C2:  BCF    F95.6
0A2C4:  BCF    F8C.6
....................    return; 
0A2C6:  RETURN 0
.................... } 
.................... /* 
.................... void Send_Command_to_ADCS(int8 data)                                             //testing for EM integration 
.................... { 
....................    fputc(data,ADCS); 
....................    return; 
.................... } 
.................... */ 
.................... void DELETE_ADCS_SENSOR() 
.................... { 
....................    for(int a = 0; a < ADCS_SENSOR_SIZE; a++) 
*
0A244:  MOVLB  3
0A246:  CLRF   x3D
0A248:  MOVF   x3D,W
0A24A:  SUBLW  4D
0A24C:  BNC   A262
....................    { 
....................       ADCS_SENSOR_DATA[a] = 0; 
0A24E:  CLRF   03
0A250:  MOVF   x3D,W
0A252:  ADDLW  9B
0A254:  MOVWF  FE9
0A256:  MOVLW  00
0A258:  ADDWFC 03,W
0A25A:  MOVWF  FEA
0A25C:  CLRF   FEF
0A25E:  INCF   x3D,F
0A260:  BRA    A248
....................    } 
....................    return; 
0A262:  MOVLB  0
0A264:  GOTO   A272 (RETURN)
.................... } 
....................  
.................... void ADCS_SETTINGS()                                                             //initiallize 
.................... { 
....................    output_high(PIN_C4);                                                          //flash COM side 
0A268:  BCF    F94.4
0A26A:  BSF    F8B.4
....................    Delete_Buffer();                                                              //delete in_bffr_main[] (com command buffer) 
0A26C:  CALL   4296
....................    DELETE_ADCS_SENSOR();                                                         //delet ADCS_SENSOR_DATA[] array 
0A270:  BRA    A244
....................    return; 
0A272:  GOTO   A2D2 (RETURN)
.................... } 
....................  
.................... void CHECK_ACK_FROM_ADCS_10k()                                                     //Wait ACK from DC for 10s 
.................... { 
....................    for(int32 num = 0; num < 1000000; num++)  
0A276:  MOVLB  3
0A278:  CLRF   x40
0A27A:  CLRF   x3F
0A27C:  CLRF   x3E
0A27E:  CLRF   x3D
0A280:  MOVF   x40,F
0A282:  BNZ   A2BE
0A284:  MOVF   x3F,W
0A286:  SUBLW  0F
0A288:  BNC   A2BE
0A28A:  BNZ   A29A
0A28C:  MOVF   x3E,W
0A28E:  SUBLW  42
0A290:  BNC   A2BE
0A292:  BNZ   A29A
0A294:  MOVF   x3D,W
0A296:  SUBLW  3F
0A298:  BNC   A2BE
....................    { 
....................       if(kbhit(ADCS))                                                              
0A29A:  BTFSC  F85.6
0A29C:  BRA    A2AC
....................       { 
....................          ADCS_ACK = fgetc(ADCS);                                                    //PC    
0A29E:  MOVLB  0
0A2A0:  CALL   46F2
0A2A4:  MOVFF  01,E9
....................          break; 
0A2A8:  MOVLB  3
0A2AA:  BRA    A2BE
....................       } 
0A2AC:  MOVLW  01
0A2AE:  ADDWF  x3D,F
0A2B0:  BTFSC  FD8.0
0A2B2:  INCF   x3E,F
0A2B4:  BTFSC  FD8.2
0A2B6:  INCF   x3F,F
0A2B8:  BTFSC  FD8.2
0A2BA:  INCF   x40,F
0A2BC:  BRA    A280
....................       //delay_ms(1); 
....................    } 
....................    return; 
0A2BE:  MOVLB  0
0A2C0:  RETURN 0
.................... } 
.................... /* 
.................... void DISPLAY_ADCS_SENSOR_TO_PC()//for testing 
.................... { 
....................    for(int b = 0; b < ADCS_SENSOR_SIZE; b++)//for checking 
....................    { 
....................       fputc(ADCS_SENSOR_DATA[b],PC); 
....................    } 
....................    return; 
.................... } 
....................  
.................... void Get_ADCS_MISSION_Data() 
.................... { 
....................     
....................    Delete_ADCS_SENSOR(); //initialize 
....................    CHECK_50_and_CW_RESPOND(); 
....................    fputc(0x55,ADCS); 
....................    fputc(0x55,PC); 
....................    int i = 0; 
....................    for(int32 num = 0; num < 1000000 ;num++) 
....................    { 
....................       if(kbhit(ADCS) && fgetc(ADCS) == 0x67) 
....................       { 
....................          for(num = 0; num < 10000; num++) 
....................          { 
....................             if(Kbhit(ADCS)) 
....................             { 
....................                ADCS_SENSOR_DATA[i] = fgetc(ADCS); 
....................                i++; 
....................                if(i == 60) 
....................                { 
....................                   break; 
....................                } 
....................             } 
....................          } 
....................          ADCS_ACK = 0x67; 
....................          break; 
....................       } 
....................    } 
....................    if(num == 1000000) 
....................    { 
....................       fprintf(PC,"NO DATA\r\n"); 
....................    } 
....................    CHECK_50_and_CW_RESPOND(); 
....................    return; 
.................... } 
....................  
.................... int8 compare_before_after(int32 beginning, int32 end) 
.................... { 
....................    int8 data[12] = {}; 
....................    for(int i = 0; i < 6; i++) 
....................    { 
....................       data[i] = READ_DATA_BYTE_OF(beginning+222+10+i); 
....................    } 
....................    for(i = 0; i < 6; i++) 
....................    { 
....................       data[i+6] = READ_DATA_BYTE_OF(end-101+i); 
....................    } 
....................    signed int16 Bx = make16(data[0],data[1]); 
....................    signed int16 By = make16(data[2],data[3]); 
....................    signed int16 Bz = make16(data[4],data[5]); 
....................     
....................    signed int16 Ax = make16(data[6],data[7]); 
....................    signed int16 Ay = make16(data[8],data[9]); 
....................    signed int16 Az = make16(data[10],data[11]); 
....................     
....................    signed int16 Total_B = Bx + By + Bz; 
....................    signed int16 Total_A = Ax + Ay + Az; 
....................    Total_B = abs(Total_B); 
....................    Total_A = abs(Total_A); 
....................    fprintf(PC,"%lx,%lx,%lx\r\n",Bx,By,Bz); 
....................    fprintf(PC,"%lx,%lx,%lx\r\n",Ax,Ay,Az); 
....................    fprintf(PC,"%lud,%lud\r\n",Total_B,Total_A); 
....................    if(Total_B >= Total_A) 
....................    { 
....................       return 1;//declease --> continue 
....................    }else{ 
....................       return 0;//inclease --> stop 
....................    } 
.................... } 
.................... */ 
.................... void GET_ADCS_SENSOR_DATA()                                                      //after that, method will changed (ADCS make format and just send to MAIN PIC) 
.................... { 
....................    CHECK_50_and_CW_RESPOND(); 
*
0473C:  RCALL  42BC
....................    fputc(0x34,adcs);                                                             //send command (just collect sensor) 
0473E:  MOVLW  34
04740:  MOVLB  3
04742:  MOVWF  x49
04744:  MOVLB  0
04746:  RCALL  46AC
....................    //delay_ms(700); 
....................    ADCS_ACK = 0; 
04748:  CLRF   xE9
....................    for(int32 num = 0; num < 1000000; num++) 
0474A:  MOVLB  3
0474C:  CLRF   x43
0474E:  CLRF   x42
04750:  CLRF   x41
04752:  CLRF   x40
04754:  MOVF   x43,F
04756:  BNZ   4790
04758:  MOVF   x42,W
0475A:  SUBLW  0F
0475C:  BNC   4790
0475E:  BNZ   476E
04760:  MOVF   x41,W
04762:  SUBLW  42
04764:  BNC   4790
04766:  BNZ   476E
04768:  MOVF   x40,W
0476A:  SUBLW  3F
0476C:  BNC   4790
....................    { 
....................       if(kbhit(ADCS)) 
0476E:  BTFSC  F85.6
04770:  BRA    477E
....................       { 
....................          ADCS_ACK = fgetc(ADCS); 
04772:  MOVLB  0
04774:  RCALL  46F2
04776:  MOVFF  01,E9
....................          break; 
0477A:  MOVLB  3
0477C:  BRA    4790
....................       } 
0477E:  MOVLW  01
04780:  ADDWF  x40,F
04782:  BTFSC  FD8.0
04784:  INCF   x41,F
04786:  BTFSC  FD8.2
04788:  INCF   x42,F
0478A:  BTFSC  FD8.2
0478C:  INCF   x43,F
0478E:  BRA    4754
....................        
....................    } 
....................    int8 counter = 0; 
04790:  CLRF   x44
....................    if(ADCS_ACK == 0x55)                                                          //acknowledge 
04792:  MOVLB  0
04794:  MOVF   xE9,W
04796:  SUBLW  55
04798:  BNZ   4808
....................    { 
....................       for(int32 num = 0; num < 1000000; num++) 
0479A:  MOVLB  3
0479C:  CLRF   x48
0479E:  CLRF   x47
047A0:  CLRF   x46
047A2:  CLRF   x45
047A4:  MOVF   x48,F
047A6:  BNZ   4806
047A8:  MOVF   x47,W
047AA:  SUBLW  0F
047AC:  BNC   4806
047AE:  BNZ   47BE
047B0:  MOVF   x46,W
047B2:  SUBLW  42
047B4:  BNC   4806
047B6:  BNZ   47BE
047B8:  MOVF   x45,W
047BA:  SUBLW  3F
047BC:  BNC   4806
....................       { 
....................          if(kbhit(ADCS)) 
047BE:  BTFSC  F85.6
047C0:  BRA    47F4
....................          { 
....................             ADCS_SENSOR_DATA[counter] = fgetc(ADCS); 
047C2:  CLRF   03
047C4:  MOVF   x44,W
047C6:  ADDLW  9B
047C8:  MOVWF  FE9
047CA:  MOVLW  00
047CC:  ADDWFC 03,W
047CE:  MOVWF  FEA
047D0:  MOVFF  FEA,34C
047D4:  MOVFF  FE9,34B
047D8:  MOVLB  0
047DA:  RCALL  46F2
047DC:  MOVFF  34C,FEA
047E0:  MOVFF  34B,FE9
047E4:  MOVFF  01,FEF
....................             counter++; 
047E8:  MOVLB  3
047EA:  INCF   x44,F
....................             if(counter == 61) 
047EC:  MOVF   x44,W
047EE:  SUBLW  3D
047F0:  BNZ   47F4
....................             { 
....................                break; 
047F2:  BRA    4806
....................             } 
....................          } 
047F4:  MOVLW  01
047F6:  ADDWF  x45,F
047F8:  BTFSC  FD8.0
047FA:  INCF   x46,F
047FC:  BTFSC  FD8.2
047FE:  INCF   x47,F
04800:  BTFSC  FD8.2
04802:  INCF   x48,F
04804:  BRA    47A4
04806:  MOVLB  0
....................       } 
....................    } 
....................    CHECK_50_and_CW_RESPOND(); 
04808:  RCALL  42BC
....................    if(ADCS_SENSOR_DATA[0] == 0x57) 
0480A:  MOVF   x9B,W
0480C:  SUBLW  57
0480E:  BNZ   4822
....................    { 
....................       fprintf(PC,"\r\nADCS DATA received\r\n");    
04810:  MOVLW  D0
04812:  MOVWF  FF6
04814:  MOVLW  09
04816:  MOVWF  FF7
04818:  MOVLW  00
0481A:  MOVWF  FF8
0481C:  CALL   318C
....................    }else{ 
04820:  BRA    4836
....................       fprintf(PC,"\r\nADCS DATA not received\r\n"); 
04822:  MOVLW  E8
04824:  MOVWF  FF6
04826:  MOVLW  09
04828:  MOVWF  FF7
0482A:  MOVLW  00
0482C:  MOVWF  FF8
0482E:  CALL   318C
....................       ADCS_ACK_COMMING = 0; 
04832:  CLRF   xEA
....................       ADCS_ACK = 0; 
04834:  CLRF   xE9
....................    } 
....................    return; 
04836:  RETURN 0
.................... } 
....................  
.................... /////////TLE JOIN PART///////////// 
.................... void ADCS_TLE_JOIN(int8 seq,int8 data1,int8 data2,int8 data3,int8 data4,int8 data5)  //join and save TLE data 
*
0A5E6:  MOVLB  3
0A5E8:  CLRF   x42
.................... { 
.................... int pos=0;    
....................    switch(seq) 
0A5EA:  MOVLW  01
0A5EC:  SUBWF  x3C,W
0A5EE:  ADDLW  F1
0A5F0:  BC    A674
0A5F2:  ADDLW  0F
0A5F4:  MOVLB  0
0A5F6:  GOTO   A8DE
....................    { 
....................       case 0x01: 
....................          pos=1;  
0A5FA:  MOVLW  01
0A5FC:  MOVLB  3
0A5FE:  MOVWF  x42
....................          break; 
0A600:  BRA    A674
....................       case 0x02: 
....................          pos=6;  
0A602:  MOVLW  06
0A604:  MOVLB  3
0A606:  MOVWF  x42
....................          break; 
0A608:  BRA    A674
....................       case 0x03: 
....................          pos=11;  
0A60A:  MOVLW  0B
0A60C:  MOVLB  3
0A60E:  MOVWF  x42
....................          break; 
0A610:  BRA    A674
....................       case 0x04: 
....................          pos=16;  
0A612:  MOVLW  10
0A614:  MOVLB  3
0A616:  MOVWF  x42
....................          break; 
0A618:  BRA    A674
....................       case 0x05: 
....................          pos=21;  
0A61A:  MOVLW  15
0A61C:  MOVLB  3
0A61E:  MOVWF  x42
....................          break; 
0A620:  BRA    A674
....................       case 0x06: 
....................          pos=26;  
0A622:  MOVLW  1A
0A624:  MOVLB  3
0A626:  MOVWF  x42
....................          break; 
0A628:  BRA    A674
....................       case 0x07: 
....................          pos=31;  
0A62A:  MOVLW  1F
0A62C:  MOVLB  3
0A62E:  MOVWF  x42
....................          break; 
0A630:  BRA    A674
....................       case 0x08: 
....................          pos=36;  
0A632:  MOVLW  24
0A634:  MOVLB  3
0A636:  MOVWF  x42
....................          break; 
0A638:  BRA    A674
....................       case 0x09: 
....................          pos=41;  
0A63A:  MOVLW  29
0A63C:  MOVLB  3
0A63E:  MOVWF  x42
....................          break; 
0A640:  BRA    A674
....................       case 0x0A: 
....................          pos=46;  
0A642:  MOVLW  2E
0A644:  MOVLB  3
0A646:  MOVWF  x42
....................          break; 
0A648:  BRA    A674
....................       case 0x0B: 
....................          pos=51;  
0A64A:  MOVLW  33
0A64C:  MOVLB  3
0A64E:  MOVWF  x42
....................          break; 
0A650:  BRA    A674
....................       case 0x0C: 
....................          pos=56;  
0A652:  MOVLW  38
0A654:  MOVLB  3
0A656:  MOVWF  x42
....................          break; 
0A658:  BRA    A674
....................       case 0x0D: 
....................          pos=61;  
0A65A:  MOVLW  3D
0A65C:  MOVLB  3
0A65E:  MOVWF  x42
....................          break; 
0A660:  BRA    A674
....................       case 0x0E: 
....................          pos=66;  
0A662:  MOVLW  42
0A664:  MOVLB  3
0A666:  MOVWF  x42
....................          break; 
0A668:  BRA    A674
....................       case 0x0F: 
....................          pos=71;  
0A66A:  MOVLW  47
0A66C:  MOVLB  3
0A66E:  MOVWF  x42
....................          break; 
0A670:  BRA    A674
0A672:  MOVLB  3
....................    } 
....................  
....................    output_low(PIN_C4); 
0A674:  BCF    F94.4
0A676:  BCF    F8B.4
....................    output_low(PIN_A5); 
0A678:  BCF    F92.5
0A67A:  BCF    F89.5
....................    delay_ms(100); 
0A67C:  MOVLW  64
0A67E:  MOVWF  x6B
0A680:  MOVLB  0
0A682:  CALL   1AFC
....................    for(int c = 0; c < TLE_size; c++)                                           // Read TLE data from flash and put in TLE[] array 
0A686:  MOVLB  3
0A688:  CLRF   x43
0A68A:  MOVF   x43,W
0A68C:  SUBLW  4C
0A68E:  BNC   A6E2
....................       { 
....................          TLE[c]=READ_DATA_BYTE_OF(ADCS_TLE_ADDRESS+c); 
0A690:  CLRF   03
0A692:  MOVF   x43,W
0A694:  ADDLW  74
0A696:  MOVWF  01
0A698:  MOVLW  02
0A69A:  ADDWFC 03,F
0A69C:  MOVFF  01,346
0A6A0:  MOVFF  03,347
0A6A4:  MOVF   x43,W
0A6A6:  ADDWF  54,W
0A6A8:  MOVWF  x48
0A6AA:  MOVLW  00
0A6AC:  ADDWFC 55,W
0A6AE:  MOVWF  x49
0A6B0:  MOVLW  00
0A6B2:  ADDWFC 56,W
0A6B4:  MOVWF  x4A
0A6B6:  MOVLW  00
0A6B8:  ADDWFC 57,W
0A6BA:  MOVWF  x4B
0A6BC:  MOVWF  x6C
0A6BE:  MOVFF  34A,36B
0A6C2:  MOVFF  349,36A
0A6C6:  MOVFF  348,369
0A6CA:  MOVLB  0
0A6CC:  CALL   135C
0A6D0:  MOVFF  347,FEA
0A6D4:  MOVFF  346,FE9
0A6D8:  MOVFF  01,FEF
0A6DC:  MOVLB  3
0A6DE:  INCF   x43,F
0A6E0:  BRA    A68A
....................       } 
....................       REFRESH_SECTOR_OF(0x06,0x65,0x00,0x00);                                    // Clear flash memory TO SAVE NEW DATA 
0A6E2:  MOVLW  06
0A6E4:  MOVWF  x48
0A6E6:  MOVLW  65
0A6E8:  MOVWF  x49
0A6EA:  CLRF   x4A
0A6EC:  CLRF   x4B
0A6EE:  MOVLB  0
0A6F0:  RCALL  A47A
....................       REFRESH_SECTOR_SCF(0x06,0x65,0x00,0x00); 
0A6F2:  MOVLW  06
0A6F4:  MOVLB  3
0A6F6:  MOVWF  x48
0A6F8:  MOVLW  65
0A6FA:  MOVWF  x49
0A6FC:  CLRF   x4A
0A6FE:  CLRF   x4B
0A700:  MOVLB  0
0A702:  RCALL  A52C
....................       REFRESH_SECTOR_SMF(0x06,0x65,0x00,0x00); 
0A704:  MOVLW  06
0A706:  MOVLB  3
0A708:  MOVWF  x48
0A70A:  MOVLW  65
0A70C:  MOVWF  x49
0A70E:  CLRF   x4A
0A710:  CLRF   x4B
0A712:  MOVLB  0
0A714:  CALL   6752
....................        
....................       TLE[0] = 0xAA; 
0A718:  MOVLW  AA
0A71A:  MOVLB  2
0A71C:  MOVWF  x74
....................       TLE[pos] = data1;                                                          //update TLE[] array data 
0A71E:  CLRF   03
0A720:  MOVLB  3
0A722:  MOVF   x42,W
0A724:  ADDLW  74
0A726:  MOVWF  FE9
0A728:  MOVLW  02
0A72A:  ADDWFC 03,W
0A72C:  MOVWF  FEA
0A72E:  MOVFF  33D,FEF
....................       TLE[pos+1] = data2;                                                       
0A732:  MOVLW  01
0A734:  ADDWF  x42,W
0A736:  CLRF   03
0A738:  ADDLW  74
0A73A:  MOVWF  FE9
0A73C:  MOVLW  02
0A73E:  ADDWFC 03,W
0A740:  MOVWF  FEA
0A742:  MOVFF  33E,FEF
....................       TLE[pos+2] = data3;                                                       
0A746:  MOVLW  02
0A748:  ADDWF  x42,W
0A74A:  CLRF   03
0A74C:  ADDLW  74
0A74E:  MOVWF  FE9
0A750:  MOVLW  02
0A752:  ADDWFC 03,W
0A754:  MOVWF  FEA
0A756:  MOVFF  33F,FEF
....................       TLE[pos+3] = data4;                                                       
0A75A:  MOVLW  03
0A75C:  ADDWF  x42,W
0A75E:  CLRF   03
0A760:  ADDLW  74
0A762:  MOVWF  FE9
0A764:  MOVLW  02
0A766:  ADDWFC 03,W
0A768:  MOVWF  FEA
0A76A:  MOVFF  340,FEF
....................       TLE[pos+4] = data5; 
0A76E:  MOVLW  04
0A770:  ADDWF  x42,W
0A772:  CLRF   03
0A774:  ADDLW  74
0A776:  MOVWF  FE9
0A778:  MOVLW  02
0A77A:  ADDWFC 03,W
0A77C:  MOVWF  FEA
0A77E:  MOVFF  341,FEF
....................       TLE[TLE_size] = 0xBB; 
0A782:  MOVLW  BB
0A784:  MOVLB  2
0A786:  MOVWF  xC1
....................        
....................    for(int i = 0; i < TLE_size; i++)                                             // save everything to flash memory 
0A788:  MOVLB  3
0A78A:  CLRF   x44
0A78C:  MOVF   x44,W
0A78E:  SUBLW  4C
0A790:  BNC   A85C
....................       { 
....................          WRITE_DATA_BYTE_OF(ADCS_TLE_ADDRESS + i,TLE[i]); 
0A792:  MOVF   x44,W
0A794:  ADDWF  54,W
0A796:  MOVWF  x46
0A798:  MOVLW  00
0A79A:  ADDWFC 55,W
0A79C:  MOVWF  x47
0A79E:  MOVLW  00
0A7A0:  ADDWFC 56,W
0A7A2:  MOVWF  x48
0A7A4:  MOVLW  00
0A7A6:  ADDWFC 57,W
0A7A8:  MOVWF  x49
0A7AA:  CLRF   03
0A7AC:  MOVF   x44,W
0A7AE:  ADDLW  74
0A7B0:  MOVWF  FE9
0A7B2:  MOVLW  02
0A7B4:  ADDWFC 03,W
0A7B6:  MOVWF  FEA
0A7B8:  MOVFF  FEF,367
0A7BC:  MOVFF  349,366
0A7C0:  MOVFF  348,365
0A7C4:  MOVFF  347,364
0A7C8:  MOVFF  346,363
0A7CC:  MOVLB  0
0A7CE:  CALL   1622
....................          WRITE_DATA_BYTE_SCF(ADCS_TLE_ADDRESS + i,TLE[i]); 
0A7D2:  MOVLB  3
0A7D4:  MOVF   x44,W
0A7D6:  ADDWF  54,W
0A7D8:  MOVWF  x46
0A7DA:  MOVLW  00
0A7DC:  ADDWFC 55,W
0A7DE:  MOVWF  x47
0A7E0:  MOVLW  00
0A7E2:  ADDWFC 56,W
0A7E4:  MOVWF  x48
0A7E6:  MOVLW  00
0A7E8:  ADDWFC 57,W
0A7EA:  MOVWF  x49
0A7EC:  CLRF   03
0A7EE:  MOVF   x44,W
0A7F0:  ADDLW  74
0A7F2:  MOVWF  FE9
0A7F4:  MOVLW  02
0A7F6:  ADDWFC 03,W
0A7F8:  MOVWF  FEA
0A7FA:  MOVFF  FEF,367
0A7FE:  MOVFF  349,366
0A802:  MOVFF  348,365
0A806:  MOVFF  347,364
0A80A:  MOVFF  346,363
0A80E:  MOVLB  0
0A810:  CALL   16AE
....................          WRITE_DATA_BYTE_SMF(ADCS_TLE_ADDRESS + i,TLE[i]); 
0A814:  MOVLB  3
0A816:  MOVF   x44,W
0A818:  ADDWF  54,W
0A81A:  MOVWF  x46
0A81C:  MOVLW  00
0A81E:  ADDWFC 55,W
0A820:  MOVWF  x47
0A822:  MOVLW  00
0A824:  ADDWFC 56,W
0A826:  MOVWF  x48
0A828:  MOVLW  00
0A82A:  ADDWFC 57,W
0A82C:  MOVWF  x49
0A82E:  CLRF   03
0A830:  MOVF   x44,W
0A832:  ADDLW  74
0A834:  MOVWF  FE9
0A836:  MOVLW  02
0A838:  ADDWFC 03,W
0A83A:  MOVWF  FEA
0A83C:  MOVFF  FEF,367
0A840:  MOVFF  349,366
0A844:  MOVFF  348,365
0A848:  MOVFF  347,364
0A84C:  MOVFF  346,363
0A850:  MOVLB  0
0A852:  CALL   173A
0A856:  MOVLB  3
0A858:  INCF   x44,F
0A85A:  BRA    A78C
....................       } 
....................  
....................    fprintf(PC,"\r\nTLE:\r\n"); 
0A85C:  MOVLW  04
0A85E:  MOVWF  FF6
0A860:  MOVLW  0A
0A862:  MOVWF  FF7
0A864:  MOVLW  00
0A866:  MOVWF  FF8
0A868:  MOVLB  0
0A86A:  CALL   318C
....................    for(int p = 0; p < TLE_size; p++)                                                 // print TLE data 
0A86E:  MOVLB  3
0A870:  CLRF   x45
0A872:  MOVF   x45,W
0A874:  SUBLW  4C
0A876:  BNC   A8C6
....................       { 
....................          fprintf(PC,"%x,",READ_DATA_BYTE_OF(ADCS_TLE_ADDRESS+p)); 
0A878:  MOVF   x45,W
0A87A:  ADDWF  54,W
0A87C:  MOVWF  x46
0A87E:  MOVLW  00
0A880:  ADDWFC 55,W
0A882:  MOVWF  x47
0A884:  MOVLW  00
0A886:  ADDWFC 56,W
0A888:  MOVWF  x48
0A88A:  MOVLW  00
0A88C:  ADDWFC 57,W
0A88E:  MOVWF  x49
0A890:  MOVWF  x6C
0A892:  MOVFF  348,36B
0A896:  MOVFF  347,36A
0A89A:  MOVFF  346,369
0A89E:  MOVLB  0
0A8A0:  CALL   135C
0A8A4:  MOVFF  01,346
0A8A8:  MOVFF  01,363
0A8AC:  MOVLW  57
0A8AE:  MOVLB  3
0A8B0:  MOVWF  x64
0A8B2:  MOVLB  0
0A8B4:  CALL   17E0
0A8B8:  MOVLW  2C
0A8BA:  BTFSS  F9E.4
0A8BC:  BRA    A8BA
0A8BE:  MOVWF  FAD
0A8C0:  MOVLB  3
0A8C2:  INCF   x45,F
0A8C4:  BRA    A872
....................       } 
....................       fprintf(PC,"\r\n"); 
0A8C6:  MOVLW  0D
0A8C8:  BTFSS  F9E.4
0A8CA:  BRA    A8C8
0A8CC:  MOVWF  FAD
0A8CE:  MOVLW  0A
0A8D0:  BTFSS  F9E.4
0A8D2:  BRA    A8D0
0A8D4:  MOVWF  FAD
....................    output_high(PIN_C4); 
0A8D6:  BCF    F94.4
0A8D8:  BSF    F8B.4
....................    return; 
0A8DA:  MOVLB  0
0A8DC:  RETURN 0
....................  
.................... } 
....................  
....................  
.................... void Delete_in_HK()                                                              //Borra el array in_HK[118] 
.................... { 
....................    int num; 
....................    for(num = 0; num < HK_size; num++) 
*
03C4E:  MOVLB  3
03C50:  CLRF   x3E
03C52:  MOVF   x3E,W
03C54:  SUBLW  7B
03C56:  BNC   3C6C
....................    { 
....................       in_HK[num] = 0; 
03C58:  CLRF   03
03C5A:  MOVF   x3E,W
03C5C:  ADDLW  AB
03C5E:  MOVWF  FE9
03C60:  MOVLW  01
03C62:  ADDWFC 03,W
03C64:  MOVWF  FEA
03C66:  CLRF   FEF
03C68:  INCF   x3E,F
03C6A:  BRA    3C52
....................    } 
....................    return; 
03C6C:  MOVLB  0
03C6E:  RETURN 0
.................... } 
.................... ////////////////////////////////////// 
.................... void Delete_HKDATA()                                                             //funcion que borra el array HKDATA[118] 
.................... { 
....................    int num; 
....................    for(num = 0; num < HK_size; num++) 
*
0434E:  MOVLB  3
04350:  CLRF   x4D
04352:  MOVF   x4D,W
04354:  SUBLW  7B
04356:  BNC   436C
....................    { 
....................       HKDATA[num] = 0; 
04358:  CLRF   03
0435A:  MOVF   x4D,W
0435C:  ADDLW  D8
0435E:  MOVWF  FE9
04360:  MOVLW  01
04362:  ADDWFC 03,W
04364:  MOVWF  FEA
04366:  CLRF   FEF
04368:  INCF   x4D,F
0436A:  BRA    4352
....................    } 
....................    return; 
0436C:  MOVLB  0
0436E:  RETURN 0
.................... } 
....................  
.................... void Delete_CWFORMAT()                                                           //borra el array CW_FORMAT[5] 
.................... { 
....................    for(int num = 0; num < CW_size; num++) 
*
048B4:  MOVLB  3
048B6:  CLRF   x3E
048B8:  MOVF   x3E,W
048BA:  SUBLW  04
048BC:  BNC   48D2
....................    { 
....................       CW_FORMAT[num] = 0; 
048BE:  CLRF   03
048C0:  MOVF   x3E,W
048C2:  ADDLW  A6
048C4:  MOVWF  FE9
048C6:  MOVLW  01
048C8:  ADDWFC 03,W
048CA:  MOVWF  FEA
048CC:  CLRF   FEF
048CE:  INCF   x3E,F
048D0:  BRA    48B8
....................    } 
....................    return; 
048D2:  MOVLB  0
048D4:  RETURN 0
.................... } 
....................  
.................... int8 CHECK_SUNSHINE(int8 current) 
.................... { 
....................    if(current > EX_PANEL_THRESHHOLD) 
*
04920:  MOVLB  3
04922:  MOVF   x3E,W
04924:  SUBLW  14
04926:  BC    4930
....................    { 
....................       return 1; 
04928:  MOVLW  01
0492A:  MOVWF  01
0492C:  BRA    4934
....................    }else{ 
0492E:  BRA    4934
....................       return 0; 
04930:  MOVLW  00
04932:  MOVWF  01
....................    } 
04934:  MOVLB  0
04936:  RETURN 0
.................... } 
....................  
.................... int8 CONVERT_16bit_GYRO_to_8bit_X(int8 HIGH_8bit, int8 LOW_8bit)//caribrated for X 
*
04E18:  MOVFF  33E,341
04E1C:  MOVFF  33F,340
04E20:  MOVFF  341,347
04E24:  MOVFF  340,346
04E28:  RCALL  4A1E
04E2A:  MOVFF  03,351
04E2E:  MOVFF  02,350
04E32:  MOVFF  01,34F
04E36:  MOVFF  00,34E
04E3A:  MOVLW  29
04E3C:  MOVLB  3
04E3E:  MOVWF  x55
04E40:  MOVLW  5C
04E42:  MOVWF  x54
04E44:  MOVLW  0F
04E46:  MOVWF  x53
04E48:  MOVLW  78
04E4A:  MOVWF  x52
04E4C:  MOVLB  0
04E4E:  RCALL  4A6E
04E50:  MOVFF  03,349
04E54:  MOVFF  02,348
04E58:  MOVFF  01,347
04E5C:  MOVFF  00,346
04E60:  BSF    FD8.1
04E62:  MOVFF  03,34D
04E66:  MOVFF  02,34C
04E6A:  MOVFF  01,34B
04E6E:  MOVFF  00,34A
04E72:  MOVLW  DB
04E74:  MOVLB  3
04E76:  MOVWF  x51
04E78:  MOVLW  BF
04E7A:  MOVWF  x50
04E7C:  MOVLW  72
04E7E:  MOVWF  x4F
04E80:  MOVLW  7B
04E82:  MOVWF  x4E
04E84:  MOVLB  0
04E86:  RCALL  4B64
04E88:  MOVFF  03,345
04E8C:  MOVFF  02,344
04E90:  MOVFF  01,343
04E94:  MOVFF  00,342
.................... { 
....................    signed int16 row_data = make16(HIGH_8bit, LOW_8bit); 
....................    float ang_v = row_data*0.00875-0.11853; 
....................    /*fprintf(PC,"ang:%.4f\r\n",ang_v);*/ 
....................    return (int8)ang_v;  
04E98:  MOVFF  345,349
04E9C:  MOVFF  344,348
04EA0:  MOVFF  343,347
04EA4:  MOVFF  342,346
04EA8:  RCALL  4DDC
04EAA:  MOVF   01,W
04EAC:  GOTO   4FEC (RETURN)
.................... } 
....................  
.................... int8 CONVERT_16bit_GYRO_to_8bit_Y(int8 HIGH_8bit, int8 LOW_8bit)//caribrated for Y 
04EB0:  MOVFF  33E,341
04EB4:  MOVFF  33F,340
04EB8:  MOVFF  341,347
04EBC:  MOVFF  340,346
04EC0:  RCALL  4A1E
04EC2:  MOVFF  03,351
04EC6:  MOVFF  02,350
04ECA:  MOVFF  01,34F
04ECE:  MOVFF  00,34E
04ED2:  MOVLW  29
04ED4:  MOVLB  3
04ED6:  MOVWF  x55
04ED8:  MOVLW  5C
04EDA:  MOVWF  x54
04EDC:  MOVLW  0F
04EDE:  MOVWF  x53
04EE0:  MOVLW  78
04EE2:  MOVWF  x52
04EE4:  MOVLB  0
04EE6:  RCALL  4A6E
04EE8:  MOVFF  03,349
04EEC:  MOVFF  02,348
04EF0:  MOVFF  01,347
04EF4:  MOVFF  00,346
04EF8:  BSF    FD8.1
04EFA:  MOVFF  03,34D
04EFE:  MOVFF  02,34C
04F02:  MOVFF  01,34B
04F06:  MOVFF  00,34A
04F0A:  MOVLW  98
04F0C:  MOVLB  3
04F0E:  MOVWF  x51
04F10:  MOVLW  69
04F12:  MOVWF  x50
04F14:  MOVLW  7B
04F16:  MOVWF  x4F
04F18:  MOVLW  7C
04F1A:  MOVWF  x4E
04F1C:  MOVLB  0
04F1E:  RCALL  4B64
04F20:  MOVFF  03,345
04F24:  MOVFF  02,344
04F28:  MOVFF  01,343
04F2C:  MOVFF  00,342
.................... { 
....................    signed int16 row_data = make16(HIGH_8bit, LOW_8bit); 
....................    float ang_v = row_data*0.00875-0.24552; 
....................    /*fprintf(PC,"ang:%.4f\r\n",ang_v);*/ 
....................    return (int8)ang_v;  
04F30:  MOVFF  345,349
04F34:  MOVFF  344,348
04F38:  MOVFF  343,347
04F3C:  MOVFF  342,346
04F40:  RCALL  4DDC
04F42:  MOVF   01,W
04F44:  GOTO   4FFA (RETURN)
.................... } 
....................  
.................... int8 CONVERT_16bit_GYRO_to_8bit_Z(int8 HIGH_8bit, int8 LOW_8bit)//caribrated for Z 
04F48:  MOVFF  33E,341
04F4C:  MOVFF  33F,340
04F50:  MOVFF  341,347
04F54:  MOVFF  340,346
04F58:  RCALL  4A1E
04F5A:  MOVFF  03,351
04F5E:  MOVFF  02,350
04F62:  MOVFF  01,34F
04F66:  MOVFF  00,34E
04F6A:  MOVLW  29
04F6C:  MOVLB  3
04F6E:  MOVWF  x55
04F70:  MOVLW  5C
04F72:  MOVWF  x54
04F74:  MOVLW  0F
04F76:  MOVWF  x53
04F78:  MOVLW  78
04F7A:  MOVWF  x52
04F7C:  MOVLB  0
04F7E:  RCALL  4A6E
04F80:  MOVFF  03,349
04F84:  MOVFF  02,348
04F88:  MOVFF  01,347
04F8C:  MOVFF  00,346
04F90:  BSF    FD8.1
04F92:  MOVFF  03,34D
04F96:  MOVFF  02,34C
04F9A:  MOVFF  01,34B
04F9E:  MOVFF  00,34A
04FA2:  MOVLW  CF
04FA4:  MOVLB  3
04FA6:  MOVWF  x51
04FA8:  MOVLW  49
04FAA:  MOVWF  x50
04FAC:  MOVLW  4F
04FAE:  MOVWF  x4F
04FB0:  MOVLW  7D
04FB2:  MOVWF  x4E
04FB4:  MOVLB  0
04FB6:  RCALL  4B64
04FB8:  MOVFF  03,345
04FBC:  MOVFF  02,344
04FC0:  MOVFF  01,343
04FC4:  MOVFF  00,342
.................... { 
....................    signed int16 row_data = make16(HIGH_8bit, LOW_8bit); 
....................    float ang_v = row_data*0.00875-0.40486; 
....................    /*fprintf(PC,"ang:%.4f\r\n",ang_v);*/ 
....................    return (int8)ang_v;  
04FC8:  MOVFF  345,349
04FCC:  MOVFF  344,348
04FD0:  MOVFF  343,347
04FD4:  MOVFF  342,346
04FD8:  RCALL  4DDC
04FDA:  MOVF   01,W
04FDC:  GOTO   5008 (RETURN)
.................... } 
....................  
.................... int8 OPERATION_MODE_VALUE(int8 Bat_Vol) 
.................... {//0x94HKDATA[116]  
....................    if(Bat_Vol > 0x94){//more than 3.8 
*
048D6:  MOVLB  3
048D8:  MOVF   x3E,W
048DA:  SUBLW  94
048DC:  BC    48EE
....................       OPERATION_MODE = 0x11; 
048DE:  MOVLW  11
048E0:  MOVLB  0
048E2:  MOVWF  x98
....................       return 96; 
048E4:  MOVLW  60
048E6:  MOVWF  01
048E8:  BRA    4918
....................    }else if((Bat_Vol > 0x88) && (Bat_Vol <= 0x94)){//3.5 to 3.8 
048EA:  BRA    4918
048EC:  MOVLB  3
048EE:  MOVF   x3E,W
048F0:  SUBLW  88
048F2:  BC    490A
048F4:  MOVF   x3E,W
048F6:  SUBLW  94
048F8:  BNC   490A
....................       OPERATION_MODE = 0x10; 
048FA:  MOVLW  10
048FC:  MOVLB  0
048FE:  MOVWF  x98
....................       return 64; 
04900:  MOVLW  40
04902:  MOVWF  01
04904:  BRA    4918
....................    }else if(Bat_Vol <= 0x88){//less than 3.5 
04906:  BRA    4918
04908:  MOVLB  3
0490A:  MOVF   x3E,W
0490C:  SUBLW  88
0490E:  BNC   491A
....................       OPERATION_MODE = 0x00; 
04910:  MOVLB  0
04912:  CLRF   x98
....................       return 16; 
04914:  MOVLW  10
04916:  MOVWF  01
04918:  MOVLB  3
....................    } 
0491A:  MOVLB  0
0491C:  GOTO   496A (RETURN)
.................... } 
....................  
.................... void MAKE_CW1_FORMAT()                                                            
.................... { 
....................    Delete_CWFORMAT();                                                            //borra el array CW_FORMAT[5] 
*
04938:  RCALL  48B4
....................     
....................    CW_FORMAT[0] = HKDATA[44];                                                    //battery voltage 
0493A:  MOVFF  204,1A6
....................    CW_FORMAT[1] = HKDATA[45]<<4|HKDATA[46]>>4;                                   //battery current 
0493E:  MOVLB  2
04940:  SWAPF  x05,W
04942:  MOVLB  3
04944:  MOVWF  x3E
04946:  MOVLW  F0
04948:  ANDWF  x3E,F
0494A:  MOVLB  2
0494C:  SWAPF  x06,W
0494E:  MOVWF  00
04950:  MOVLW  0F
04952:  ANDWF  00,F
04954:  MOVF   00,W
04956:  MOVLB  3
04958:  IORWF  x3E,W
0495A:  MOVLB  1
0495C:  MOVWF  xA7
....................    CW_FORMAT[2] = HKDATA[47];                                                    //battery temp 
0495E:  MOVFF  207,1A8
....................     
.................... //   CW_FORMAT[3] = CW_FORMAT[3];//0:CW1 
.................... //   CW_FORMAT[3] = CW_FORMAT[3] + RESERVE_CHECK * 64; 
....................    CW_FORMAT[3] = CW_FORMAT[3] + OPERATION_MODE_VALUE(HKDATA[116]);              //96(=64+32-->0x01100000):nomal, 64(0x01000000):low, 16(0x00100000):safe 
04962:  MOVFF  24C,33E
04966:  MOVLB  0
04968:  BRA    48D6
0496A:  MOVF   01,W
0496C:  MOVLB  1
0496E:  ADDWF  xA9,F
....................    KILL_FLAG_FAB = (HKDATA[49] & 0x10)>>4; 
04970:  MOVLB  2
04972:  MOVF   x09,W
04974:  ANDLW  10
04976:  MOVWF  00
04978:  SWAPF  00,W
0497A:  MOVLB  0
0497C:  MOVWF  x76
0497E:  MOVLW  0F
04980:  ANDWF  x76,F
....................    KILL_FLAG_MAIN = HKDATA[49] & 0x01; 
04982:  MOVLB  2
04984:  MOVF   x09,W
04986:  ANDLW  01
04988:  MOVLB  0
0498A:  MOVWF  x75
....................    CW_FORMAT[3] = CW_FORMAT[3] + KILL_FLAG_MAIN * 16; 
0498C:  MOVF   x75,W
0498E:  MULLW  10
04990:  MOVF   FF3,W
04992:  MOVLB  1
04994:  ADDWF  xA9,F
....................    CW_FORMAT[3] = CW_FORMAT[3] + KILL_FLAG_FAB * 8; 
04996:  MOVLB  0
04998:  MOVF   x76,W
0499A:  MULLW  08
0499C:  MOVF   FF3,W
0499E:  MOVLB  1
049A0:  ADDWF  xA9,F
....................    CW_FORMAT[3] = CW_FORMAT[3] + ANT_DEP_STATUS * 4; 
049A2:  MOVLB  0
049A4:  MOVF   x7B,W
049A6:  MULLW  04
049A8:  MOVF   FF3,W
049AA:  MOVLB  1
049AC:  ADDWF  xA9,F
....................    CW_FORMAT[3] = CW_FORMAT[3] + CHECK_SUNSHINE(HKDATA[34]) * 2;                 //+Y Panel (new axis definition) 
049AE:  MOVFF  1FA,33E
049B2:  MOVLB  0
049B4:  RCALL  4920
049B6:  BCF    FD8.0
049B8:  RLCF   01,W
049BA:  MOVLB  1
049BC:  ADDWF  xA9,F
....................    CW_FORMAT[3] = CW_FORMAT[3] + CHECK_SUNSHINE(HKDATA[35]) * 1;                 //+X Panel (new axis definition) 
049BE:  MOVFF  1FB,33E
049C2:  MOVLB  0
049C4:  RCALL  4920
049C6:  MOVF   01,W
049C8:  MOVLB  1
049CA:  ADDWF  xA9,F
....................     
....................    CW_FORMAT[4] = CW_FORMAT[4] + CHECK_SUNSHINE(HKDATA[36]) * 128;               //-Z Panel (new axis definition) 
049CC:  MOVFF  1FC,33E
049D0:  MOVLB  0
049D2:  RCALL  4920
049D4:  MOVF   01,W
049D6:  MULLW  80
049D8:  MOVF   FF3,W
049DA:  MOVLB  1
049DC:  ADDWF  xAA,F
....................    CW_FORMAT[4] = CW_FORMAT[4] + CHECK_SUNSHINE(HKDATA[37]) * 64;                //-X Panel (new axis definition) 
049DE:  MOVFF  1FD,33E
049E2:  MOVLB  0
049E4:  RCALL  4920
049E6:  MOVF   01,W
049E8:  MULLW  40
049EA:  MOVF   FF3,W
049EC:  MOVLB  1
049EE:  ADDWF  xAA,F
....................    CW_FORMAT[4] = CW_FORMAT[4] + CHECK_SUNSHINE(HKDATA[38]) * 32;                //+Z Panel (new axis definition) 
049F0:  MOVFF  1FE,33E
049F4:  MOVLB  0
049F6:  RCALL  4920
049F8:  MOVF   01,W
049FA:  MULLW  20
049FC:  MOVF   FF3,W
049FE:  MOVLB  1
04A00:  ADDWF  xAA,F
....................    CW_FORMAT[4] = CW_FORMAT[4] + (HKDATA[4] & 0b00011111);                       //time data 
04A02:  MOVF   xDC,W
04A04:  ANDLW  1F
04A06:  ADDWF  xAA,F
....................     
....................    CW_IDENTIFIER = 0; 
04A08:  MOVLB  0
04A0A:  CLRF   x97
....................    CHECK_50_and_CW_RESPOND(); 
04A0C:  RCALL  42BC
....................    ACK_for_COM[0] = 0xAA;                                                        //for safety (this byte should be always 0) 
04A0E:  MOVLW  AA
04A10:  MOVLB  2
04A12:  MOVWF  x54
....................    ACK_for_COM[23] = 0xBB;                                                       //for safety (this byte should be always 0) 
04A14:  MOVLW  BB
04A16:  MOVWF  x6B
....................    return; 
04A18:  MOVLB  0
04A1A:  GOTO   509E (RETURN)
.................... } 
.................... void MAKE_CW2_FORMAT()                                                            
.................... { 
....................    Delete_CWFORMAT(); 
*
04FE0:  RCALL  48B4
....................    //CHECK_50_and_CW_RESPOND(); 
....................    CW_FORMAT[0] = CONVERT_16bit_GYRO_to_8bit_X(HKDATA[59], HKDATA[60]);          //GYRO X axis 
04FE2:  MOVFF  213,33E
04FE6:  MOVFF  214,33F
04FEA:  BRA    4E18
04FEC:  MOVFF  01,1A6
....................    CW_FORMAT[1] = CONVERT_16bit_GYRO_to_8bit_Y(HKDATA[61], HKDATA[62]);          //GYRO Y axis 
04FF0:  MOVFF  215,33E
04FF4:  MOVFF  216,33F
04FF8:  BRA    4EB0
04FFA:  MOVFF  01,1A7
....................    CW_FORMAT[2] = CONVERT_16bit_GYRO_to_8bit_Z(HKDATA[63], HKDATA[64]);          //GYRO Z axis 
04FFE:  MOVFF  217,33E
05002:  MOVFF  218,33F
05006:  BRA    4F48
05008:  MOVFF  01,1A8
....................     
....................    CW_FORMAT[3] = CW_FORMAT[3] + 128;                                            //1:CW2 
0500C:  MOVLW  80
0500E:  MOVLB  1
05010:  ADDWF  xA9,F
....................    CW_FORMAT[3] = CW_FORMAT[3] + FIRST_HSSC_DONE * 64;                           //High Sampling Sensor Collection Flag 0:not done, 1:done 
05012:  MOVLB  0
05014:  MOVF   x77,W
05016:  MULLW  40
05018:  MOVF   FF3,W
0501A:  MOVLB  1
0501C:  ADDWF  xA9,F
....................    CW_FORMAT[3] = CW_FORMAT[3] + AUTO_CAM_DONE * 32;                             //AUTO CAM MISSION DONE 0:not done, 1:done 
0501E:  MOVLB  0
05020:  MOVF   x78,W
05022:  MULLW  20
05024:  MOVF   FF3,W
05026:  MOVLB  1
05028:  ADDWF  xA9,F
....................    CW_FORMAT[3] = CW_FORMAT[3] + AUTO_MBP_DONE * 16;                             //AUTO MBP MISSION DONE 0:not done, 1:done 
0502A:  MOVLB  0
0502C:  MOVF   x79,W
0502E:  MULLW  10
05030:  MOVF   FF3,W
05032:  MOVLB  1
05034:  ADDWF  xA9,F
....................    CW_FORMAT[3] = CW_FORMAT[3] + AUTO_ADCS_DONE * 8;                             //AUTO ADCS MISSION DONE 0:not done, 1:done 
05036:  MOVLB  0
05038:  MOVF   x7A,W
0503A:  MULLW  08
0503C:  MOVF   FF3,W
0503E:  MOVLB  1
05040:  ADDWF  xA9,F
....................    CW_FORMAT[3] = CW_FORMAT[3] + HKDATA[48] * 4;                                 //Heater 0:OFF, 1:ON 
05042:  MOVLB  2
05044:  MOVF   x08,W
05046:  MULLW  04
05048:  MOVF   FF3,W
0504A:  MOVLB  1
0504C:  ADDWF  xA9,F
....................    CW_FORMAT[3] = CW_FORMAT[3] + RESERVE_CHECK * 2;                              //RSV Flag 
0504E:  BCF    FD8.0
05050:  MOVLB  0
05052:  RLCF   x6B,W
05054:  MOVLB  1
05056:  ADDWF  xA9,F
....................    CW_FORMAT[3] = CW_FORMAT[3] + UPLINK_SUCCESS;                                 //UPLINK SUCCESS 
05058:  MOVLB  0
0505A:  MOVF   x7C,W
0505C:  MOVLB  1
0505E:  ADDWF  xA9,F
....................     
....................    CW_FORMAT[4] = HKDATA[20]<<4|HKDATA[21]>>4;                                   //BPB_TEMP 
05060:  SWAPF  xEC,W
05062:  MOVLB  3
05064:  MOVWF  x3E
05066:  MOVLW  F0
05068:  ANDWF  x3E,F
0506A:  MOVLB  1
0506C:  SWAPF  xED,W
0506E:  MOVWF  00
05070:  MOVLW  0F
05072:  ANDWF  00,F
05074:  MOVF   00,W
05076:  MOVLB  3
05078:  IORWF  x3E,W
0507A:  MOVLB  1
0507C:  MOVWF  xAA
....................  
....................    CW_IDENTIFIER = 1; 
0507E:  MOVLW  01
05080:  MOVLB  0
05082:  MOVWF  x97
....................    CHECK_50_and_CW_RESPOND(); 
05084:  CALL   42BC
....................    ACK_for_COM[0] = 0xAA;                                                        //for safety (this byte should be always 0) 
05088:  MOVLW  AA
0508A:  MOVLB  2
0508C:  MOVWF  x54
....................    ACK_for_COM[23] = 0xBB;                                                       //for safety (this byte should be always 0) 
0508E:  MOVLW  BB
05090:  MOVWF  x6B
....................     
....................    return; 
05092:  MOVLB  0
05094:  GOTO   50A2 (RETURN)
.................... } 
....................  
.................... void MAKE_CW_FORMAT() 
.................... { 
....................    if(CW_IDENTIFIER) 
05098:  MOVF   x97,F
0509A:  BZ    50A0
....................    { 
....................       MAKE_CW1_FORMAT(); 
0509C:  BRA    4938
....................    }else{ 
0509E:  BRA    50A2
....................       MAKE_CW2_FORMAT(); 
050A0:  BRA    4FE0
....................    } 
050A2:  RETURN 0
.................... } 
....................  
.................... void Send_COMMAND_TO_FAB(int8 cmd)                                               //funcion que envia comandos al FAB 
.................... { 
....................    fputc(cmd,FAB);                                                               //se indica el dato y el puerto 
*
042D6:  MOVLB  3
042D8:  MOVF   x4F,W
042DA:  MOVLB  0
042DC:  RCALL  42CA
....................    return; 
042DE:  RETURN 0
.................... } 
....................  
.................... void COMMAND_TO_FAB(int32 delaytime)                                             //envia comando al FAB para pedir datos 
.................... { 
....................    FAB_DATA = 0; 
042E0:  MOVLB  2
042E2:  CLRF   x6C
....................    enable_interrupts(INT_rda3);                                                  //Habilita interrupcion UART FAB para cargar el vector in_HK[] 
042E4:  BSF    F61.5
....................    Send_Command_to_FAB(0x61);                                                    //send command to fab 
042E6:  MOVLW  61
042E8:  MOVLB  3
042EA:  MOVWF  x4F
042EC:  MOVLB  0
042EE:  RCALL  42D6
....................    /*fprintf(PC,"Command to FAB sent\r\n");*/  
....................    int32 a = 0; 
042F0:  MOVLB  3
042F2:  CLRF   x4E
042F4:  CLRF   x4D
042F6:  CLRF   x4C
042F8:  CLRF   x4B
....................    while(FAB_DATA == 0){                                                         //Espera a que la bandera FAB_DATA se ponga en alto 
042FA:  MOVLB  2
042FC:  MOVF   x6C,F
042FE:  BNZ   4334
....................       a++;                                                                       //la bandera se pone en alto cuando se recibe un dato en el UART 
04300:  MOVLW  01
04302:  MOVLB  3
04304:  ADDWF  x4B,F
04306:  BTFSC  FD8.0
04308:  INCF   x4C,F
0430A:  BTFSC  FD8.2
0430C:  INCF   x4D,F
0430E:  BTFSC  FD8.2
04310:  INCF   x4E,F
....................       if(a > 50000) 
04312:  MOVF   x4E,F
04314:  BNZ   432A
04316:  MOVF   x4D,F
04318:  BNZ   432A
0431A:  MOVF   x4C,W
0431C:  SUBLW  C2
0431E:  BC    4330
04320:  XORLW  FF
04322:  BNZ   432A
04324:  MOVF   x4B,W
04326:  SUBLW  50
04328:  BC    4330
....................       { 
....................          break; 
0432A:  MOVLB  2
0432C:  BRA    4334
0432E:  MOVLB  3
....................       } 
04330:  BRA    42FA
04332:  MOVLB  2
....................    } 
....................    waiting(delaytime);                                                           //funcion de espera 
04334:  MOVFF  34A,35C
04338:  MOVFF  349,35B
0433C:  MOVFF  348,35A
04340:  MOVFF  347,359
04344:  MOVLB  0
04346:  CALL   1B26
....................    disable_interrupts(INT_rda3);                                                 //desabilita interrupcion del UART FAB 
0434A:  BCF    F61.5
....................    return; 
0434C:  RETURN 0
.................... } 
.................... /* 
.................... int8 ACK_FROM_FAB() 
.................... { 
....................    int8 ack; 
....................    ack = fgetc(CAM); 
....................    return ack; 
.................... } 
....................  
....................  
....................  
....................  
....................  
....................  
....................  
....................  
....................  
.................... */ 
.................... void SAVE_HKDATA_TO_SCF(unsigned int32 Memory_Adress) 
.................... { 
....................    output_low(PIN_C4); 
*
0512A:  BCF    F94.4
0512C:  BCF    F8B.4
....................    for(int8 num = 0; num < HK_size; num++) 
0512E:  MOVLB  3
05130:  CLRF   x46
05132:  MOVF   x46,W
05134:  SUBLW  7B
05136:  BNC   517E
....................    { 
....................       WRITE_DATA_BYTE_SCF(Memory_Adress+num, HKDATA[num]); 
05138:  MOVF   x46,W
0513A:  ADDWF  x42,W
0513C:  MOVWF  x47
0513E:  MOVLW  00
05140:  ADDWFC x43,W
05142:  MOVWF  x48
05144:  MOVLW  00
05146:  ADDWFC x44,W
05148:  MOVWF  x49
0514A:  MOVLW  00
0514C:  ADDWFC x45,W
0514E:  MOVWF  x4A
05150:  CLRF   03
05152:  MOVF   x46,W
05154:  ADDLW  D8
05156:  MOVWF  FE9
05158:  MOVLW  01
0515A:  ADDWFC 03,W
0515C:  MOVWF  FEA
0515E:  MOVFF  FEF,367
05162:  MOVFF  34A,366
05166:  MOVFF  349,365
0516A:  MOVFF  348,364
0516E:  MOVFF  347,363
05172:  MOVLB  0
05174:  CALL   16AE
05178:  MOVLB  3
0517A:  INCF   x46,F
0517C:  BRA    5132
....................    } 
....................    output_high(PIN_C4); 
0517E:  BCF    F94.4
05180:  BSF    F8B.4
....................    return; 
05182:  MOVLB  0
05184:  GOTO   519A (RETURN)
.................... } 
....................  
.................... void Send_HKDATA_to_SCF(int32 adress) 
.................... { 
....................    Save_HKDATA_to_SCF(adress);  //save HK to COM PIC 
05188:  MOVFF  341,345
0518C:  MOVFF  340,344
05190:  MOVFF  33F,343
05194:  MOVFF  33E,342
05198:  BRA    512A
....................    CHECK_50_and_CW_RESPOND(); 
0519A:  CALL   42BC
....................    return; 
0519E:  RETURN 0
.................... } 
....................  
.................... void SAVE_HKDATA_TO_SMF(unsigned int32 Memory_Adress) 
.................... { 
....................    output_low(PIN_A5); 
051A0:  BCF    F92.5
051A2:  BCF    F89.5
....................    for(int8 num = 0; num < HK_size; num++) 
051A4:  MOVLB  3
051A6:  CLRF   x46
051A8:  MOVF   x46,W
051AA:  SUBLW  7B
051AC:  BNC   51F4
....................    { 
....................       WRITE_DATA_BYTE_SMF(Memory_Adress+num, HKDATA[num]); 
051AE:  MOVF   x46,W
051B0:  ADDWF  x42,W
051B2:  MOVWF  x47
051B4:  MOVLW  00
051B6:  ADDWFC x43,W
051B8:  MOVWF  x48
051BA:  MOVLW  00
051BC:  ADDWFC x44,W
051BE:  MOVWF  x49
051C0:  MOVLW  00
051C2:  ADDWFC x45,W
051C4:  MOVWF  x4A
051C6:  CLRF   03
051C8:  MOVF   x46,W
051CA:  ADDLW  D8
051CC:  MOVWF  FE9
051CE:  MOVLW  01
051D0:  ADDWFC 03,W
051D2:  MOVWF  FEA
051D4:  MOVFF  FEF,367
051D8:  MOVFF  34A,366
051DC:  MOVFF  349,365
051E0:  MOVFF  348,364
051E4:  MOVFF  347,363
051E8:  MOVLB  0
051EA:  CALL   173A
051EE:  MOVLB  3
051F0:  INCF   x46,F
051F2:  BRA    51A8
....................    } 
....................    return; 
051F4:  MOVLB  0
051F6:  GOTO   520C (RETURN)
.................... } 
.................... void Send_HKDATA_to_SMF(int32 adress) 
.................... { 
....................    Save_HKDATA_to_SMF(adress);  //save HK to COM PIC 
051FA:  MOVFF  341,345
051FE:  MOVFF  340,344
05202:  MOVFF  33F,343
05206:  MOVFF  33E,342
0520A:  BRA    51A0
....................    CHECK_50_and_CW_RESPOND(); 
0520C:  CALL   42BC
....................    return; 
05210:  RETURN 0
.................... } 
....................  
.................... void SAVE_HKDATA_TO_OF(unsigned int32 Memory_Adress) 
.................... { 
....................    int num; 
....................    for(num = 0; num < HK_size; num++) 
05212:  MOVLB  3
05214:  CLRF   x46
05216:  MOVF   x46,W
05218:  SUBLW  7B
0521A:  BNC   5262
....................    { 
....................       WRITE_DATA_BYTE_OF(Memory_Adress+num, HKDATA[num]); 
0521C:  MOVF   x46,W
0521E:  ADDWF  x42,W
05220:  MOVWF  x47
05222:  MOVLW  00
05224:  ADDWFC x43,W
05226:  MOVWF  x48
05228:  MOVLW  00
0522A:  ADDWFC x44,W
0522C:  MOVWF  x49
0522E:  MOVLW  00
05230:  ADDWFC x45,W
05232:  MOVWF  x4A
05234:  CLRF   03
05236:  MOVF   x46,W
05238:  ADDLW  D8
0523A:  MOVWF  FE9
0523C:  MOVLW  01
0523E:  ADDWFC 03,W
05240:  MOVWF  FEA
05242:  MOVFF  FEF,367
05246:  MOVFF  34A,366
0524A:  MOVFF  349,365
0524E:  MOVFF  348,364
05252:  MOVFF  347,363
05256:  MOVLB  0
05258:  CALL   1622
0525C:  MOVLB  3
0525E:  INCF   x46,F
05260:  BRA    5216
....................    } 
....................    return; 
05262:  MOVLB  0
05264:  GOTO   527A (RETURN)
.................... } 
.................... void Send_HKDATA_to_OF(int32 adress) 
.................... { 
....................    Save_HKDATA_to_OF(adress);  //save HK to COM PIC 
05268:  MOVFF  341,345
0526C:  MOVFF  340,344
05270:  MOVFF  33F,343
05274:  MOVFF  33E,342
05278:  BRA    5212
....................    CHECK_50_and_CW_RESPOND(); 
0527A:  CALL   42BC
....................    return; 
0527E:  RETURN 0
.................... } 
....................  
....................  
....................  
....................  
....................  
....................  
....................  
....................  
.................... void SAVE_CWFORMAT_TO_SCF(unsigned int32 Memory_Adress) 
.................... { 
....................    output_low(PIN_C4); 
05280:  BCF    F94.4
05282:  BCF    F8B.4
....................    for(int8 num = 0; num < CW_size; num++) 
05284:  MOVLB  3
05286:  CLRF   x46
05288:  MOVF   x46,W
0528A:  SUBLW  04
0528C:  BNC   52D4
....................    { 
....................       WRITE_DATA_BYTE_SCF(Memory_Adress+num, CW_FORMAT[num]); 
0528E:  MOVF   x46,W
05290:  ADDWF  x42,W
05292:  MOVWF  x47
05294:  MOVLW  00
05296:  ADDWFC x43,W
05298:  MOVWF  x48
0529A:  MOVLW  00
0529C:  ADDWFC x44,W
0529E:  MOVWF  x49
052A0:  MOVLW  00
052A2:  ADDWFC x45,W
052A4:  MOVWF  x4A
052A6:  CLRF   03
052A8:  MOVF   x46,W
052AA:  ADDLW  A6
052AC:  MOVWF  FE9
052AE:  MOVLW  01
052B0:  ADDWFC 03,W
052B2:  MOVWF  FEA
052B4:  MOVFF  FEF,367
052B8:  MOVFF  34A,366
052BC:  MOVFF  349,365
052C0:  MOVFF  348,364
052C4:  MOVFF  347,363
052C8:  MOVLB  0
052CA:  CALL   16AE
052CE:  MOVLB  3
052D0:  INCF   x46,F
052D2:  BRA    5288
....................    } 
....................    output_high(PIN_C4); 
052D4:  BCF    F94.4
052D6:  BSF    F8B.4
....................    return; 
052D8:  MOVLB  0
052DA:  RETURN 0
.................... } 
.................... void SEND_CWFORMAT_TO_SCF(int32 adress) 
.................... { 
....................    SAVE_CWFORMAT_TO_SCF(adress);                                                 //save HK to COM PIC 
052DC:  MOVFF  341,345
052E0:  MOVFF  340,344
052E4:  MOVFF  33F,343
052E8:  MOVFF  33E,342
052EC:  RCALL  5280
....................    CHECK_50_and_CW_RESPOND(); 
052EE:  CALL   42BC
....................    return; 
052F2:  RETURN 0
.................... } 
....................  
.................... void SAVE_CWFORMAT_TO_SMF(unsigned int32 Memory_Adress) 
.................... { 
....................    output_low(PIN_A5); 
052F4:  BCF    F92.5
052F6:  BCF    F89.5
....................    for(int8 num = 0; num < CW_size; num++) 
052F8:  MOVLB  3
052FA:  CLRF   x46
052FC:  MOVF   x46,W
052FE:  SUBLW  04
05300:  BNC   5348
....................    { 
....................       WRITE_DATA_BYTE_SMF(Memory_Adress+num, CW_FORMAT[num]); 
05302:  MOVF   x46,W
05304:  ADDWF  x42,W
05306:  MOVWF  x47
05308:  MOVLW  00
0530A:  ADDWFC x43,W
0530C:  MOVWF  x48
0530E:  MOVLW  00
05310:  ADDWFC x44,W
05312:  MOVWF  x49
05314:  MOVLW  00
05316:  ADDWFC x45,W
05318:  MOVWF  x4A
0531A:  CLRF   03
0531C:  MOVF   x46,W
0531E:  ADDLW  A6
05320:  MOVWF  FE9
05322:  MOVLW  01
05324:  ADDWFC 03,W
05326:  MOVWF  FEA
05328:  MOVFF  FEF,367
0532C:  MOVFF  34A,366
05330:  MOVFF  349,365
05334:  MOVFF  348,364
05338:  MOVFF  347,363
0533C:  MOVLB  0
0533E:  CALL   173A
05342:  MOVLB  3
05344:  INCF   x46,F
05346:  BRA    52FC
....................    } 
....................    return; 
05348:  MOVLB  0
0534A:  GOTO   5360 (RETURN)
.................... } 
.................... void SEND_CWFORMAT_TO_SMF(int32 adress) 
.................... { 
....................    SAVE_CWFORMAT_TO_SMF(adress);  //save HK to COM PIC 
0534E:  MOVFF  341,345
05352:  MOVFF  340,344
05356:  MOVFF  33F,343
0535A:  MOVFF  33E,342
0535E:  BRA    52F4
....................    CHECK_50_and_CW_RESPOND(); 
05360:  CALL   42BC
....................    fprintf(PC,"\r\nCW SAVED\r\n"); 
05364:  MOVLW  0E
05366:  MOVWF  FF6
05368:  MOVLW  0A
0536A:  MOVWF  FF7
0536C:  MOVLW  00
0536E:  MOVWF  FF8
05370:  CALL   318C
....................    return; 
05374:  RETURN 0
.................... } 
....................  
.................... void SAVE_CWFORMAT_TO_OF(unsigned int32 Memory_Adress) 
.................... { 
....................    for(int8 num = 0; num < CW_size; num++) 
....................    { 
....................       WRITE_DATA_BYTE_OF(Memory_Adress+num, CW_FORMAT[num]); 
....................    } 
....................    return; 
.................... } 
.................... void SEND_CWFORMAT_TO_OF(int32 adress) 
.................... { 
....................    SAVE_CWFORMAT_TO_SCF(adress);                                                 //save HK to COM PIC 
*
053F2:  MOVFF  341,345
053F6:  MOVFF  340,344
053FA:  MOVFF  33F,343
053FE:  MOVFF  33E,342
05402:  RCALL  5280
....................    TRANSFER_DATA_NBYTE_TOPC_OF(adress,CW_size);                                  //for checking whether the data saved correctly 
05404:  MOVFF  341,345
05408:  MOVFF  340,344
0540C:  MOVFF  33F,343
05410:  MOVFF  33E,342
05414:  MOVLB  3
05416:  CLRF   x49
05418:  CLRF   x48
0541A:  CLRF   x47
0541C:  MOVLW  05
0541E:  MOVWF  x46
05420:  MOVLB  0
05422:  BRA    537E
....................    CHECK_50_and_CW_RESPOND(); 
05424:  CALL   42BC
....................    return; 
05428:  RETURN 0
.................... } 
....................  
....................  
....................  
....................  
....................  
....................  
....................  
....................  
.................... void CHECK_HKDATA(int8 in,int32 delaytime)                                       //funcion que carga el array HKDATA[] 
.................... { 
....................    fprintf(PC,"GET SENSOR DATA\r\n"); 
*
043A8:  MOVLW  1C
043AA:  MOVWF  FF6
043AC:  MOVLW  0A
043AE:  MOVWF  FF7
043B0:  MOVLW  00
043B2:  MOVWF  FF8
043B4:  CALL   318C
....................    Delete_HKDATA();                                                              //borra el array HKDATA[] 
043B8:  RCALL  434E
....................    waiting(delaytime);                                                           //espera 
043BA:  MOVFF  34B,35C
043BE:  MOVFF  34A,35B
043C2:  MOVFF  349,35A
043C6:  MOVFF  348,359
043CA:  CALL   1B26
....................    CHECK_50_and_CW_RESPOND(); 
043CE:  RCALL  42BC
....................    for(int num = 1; num < 11 - in; num++)                                        //[FAB] +X,-Y,-Z,+Y,-Xtemp_high,low(array[10] to [17]) 
043D0:  MOVLW  01
043D2:  MOVLB  3
043D4:  MOVWF  x4C
043D6:  MOVLW  0B
043D8:  BSF    FD8.0
043DA:  SUBFWB x47,W
043DC:  SUBWF  x4C,W
043DE:  BC    4446
....................    { 
....................       HKDATA[num + 5+4] = in_HK[num + 2 - in];                                   //coloca los datos enviados por el FAB en el array HKDATA[] desde la posicion 10 al 17 
043E0:  MOVLW  05
043E2:  ADDWF  x4C,W
043E4:  ADDLW  04
043E6:  CLRF   03
043E8:  ADDLW  D8
043EA:  MOVWF  01
043EC:  MOVLW  01
043EE:  ADDWFC 03,F
043F0:  MOVFF  03,34E
043F4:  MOVLW  02
043F6:  ADDWF  x4C,W
043F8:  BSF    FD8.0
043FA:  SUBFWB x47,W
043FC:  CLRF   03
043FE:  ADDLW  AB
04400:  MOVWF  FE9
04402:  MOVLW  01
04404:  ADDWFC 03,W
04406:  MOVWF  FEA
04408:  MOVFF  FEF,34F
0440C:  MOVFF  34E,FEA
04410:  MOVFF  01,FE9
04414:  MOVFF  34F,FEF
....................      /* fputc(HKDATA[num + 5+4],PC); */                                              //imprime los datos desde la posicion 10 hasta 19 
....................       fprintf(PC,"%x,",HKDATA[num + 5+4]); 
04418:  MOVLW  05
0441A:  ADDWF  x4C,W
0441C:  ADDLW  04
0441E:  CLRF   03
04420:  ADDLW  D8
04422:  MOVWF  FE9
04424:  MOVLW  01
04426:  ADDWFC 03,W
04428:  MOVWF  FEA
0442A:  MOVFF  FEF,363
0442E:  MOVLW  57
04430:  MOVWF  x64
04432:  MOVLB  0
04434:  CALL   17E0
04438:  MOVLW  2C
0443A:  BTFSS  F9E.4
0443C:  BRA    443A
0443E:  MOVWF  FAD
04440:  MOVLB  3
04442:  INCF   x4C,F
04444:  BRA    43D6
....................    } 
....................     
....................    MEASURE_BC_TEMP();                                                            //lectura analogica y carga de la variable BC_temp_data_h y BC_temp_data_l 
04446:  MOVLB  0
04448:  RCALL  4370
....................    CHECK_50_and_CW_RESPOND();    
0444A:  RCALL  42BC
....................    HKDATA[14+4] = BC_temp_data_h;                                                //+X temp high[18] 
0444C:  MOVFF  192,1EA
....................    HKDATA[15+4] = BC_temp_data_l;                                                //+X temp low[19] 
04450:  MOVFF  194,1EB
....................     
....................    for(num = 9; num < FAB_SENSOR_size - 2; num++)                                //[FAB] from CPLD temp to Kill status(array[20] to [49]) 
04454:  MOVLW  09
04456:  MOVLB  3
04458:  MOVWF  x4C
0445A:  MOVF   x4C,W
0445C:  SUBLW  2A
0445E:  BNC   44C6
....................    { 
....................       HKDATA[num + 7+4] = in_HK[num + 2 - in]; 
04460:  MOVLW  07
04462:  ADDWF  x4C,W
04464:  ADDLW  04
04466:  CLRF   03
04468:  ADDLW  D8
0446A:  MOVWF  01
0446C:  MOVLW  01
0446E:  ADDWFC 03,F
04470:  MOVFF  03,34E
04474:  MOVLW  02
04476:  ADDWF  x4C,W
04478:  BSF    FD8.0
0447A:  SUBFWB x47,W
0447C:  CLRF   03
0447E:  ADDLW  AB
04480:  MOVWF  FE9
04482:  MOVLW  01
04484:  ADDWFC 03,W
04486:  MOVWF  FEA
04488:  MOVFF  FEF,34F
0448C:  MOVFF  34E,FEA
04490:  MOVFF  01,FE9
04494:  MOVFF  34F,FEF
....................       /*fputc(HKDATA[num + 7+4],PC);*/                                           //imprime los datos desde la posicion 20 hasta 49 
....................       fprintf(PC,"%x,",HKDATA[num + 7+4]); 
04498:  MOVLW  07
0449A:  ADDWF  x4C,W
0449C:  ADDLW  04
0449E:  CLRF   03
044A0:  ADDLW  D8
044A2:  MOVWF  FE9
044A4:  MOVLW  01
044A6:  ADDWFC 03,W
044A8:  MOVWF  FEA
044AA:  MOVFF  FEF,363
044AE:  MOVLW  57
044B0:  MOVWF  x64
044B2:  MOVLB  0
044B4:  CALL   17E0
044B8:  MOVLW  2C
044BA:  BTFSS  F9E.4
044BC:  BRA    44BA
044BE:  MOVWF  FAD
044C0:  MOVLB  3
044C2:  INCF   x4C,F
044C4:  BRA    445A
....................    } 
....................    FAB_DATA = 0;                                                                 //pone a cero la bandera 
044C6:  MOVLB  2
044C8:  CLRF   x6C
....................    return; 
044CA:  MOVLB  0
044CC:  RETURN 0
.................... } 
....................  
.................... void VERIFY_FABDATA(int32 delaytime1,int32 delaytime2) 
.................... { 
....................    for(int8 num = 0; num < 3; num++) 
044CE:  MOVLB  3
044D0:  CLRF   x46
044D2:  MOVF   x46,W
044D4:  SUBLW  02
044D6:  BNC   4582
....................    { 
....................       COMMAND_TO_FAB(delaytime1);                                                //funcion que envia comando al FAB y carga el array in_HK[] 
044D8:  MOVFF  341,34A
044DC:  MOVFF  340,349
044E0:  MOVFF  33F,348
044E4:  MOVFF  33E,347
044E8:  MOVLB  0
044EA:  RCALL  42E0
....................       CHECK_50_and_CW_RESPOND(); 
044EC:  RCALL  42BC
....................       //FAB_DATA = 0; 
....................       if(in_HK[0] == 0x33)                                                       //gather sensor data by interrupt 
044EE:  MOVLB  1
044F0:  MOVF   xAB,W
044F2:  SUBLW  33
044F4:  BNZ   4520
....................       { 
....................          CHECK_HKDATA(2,delaytime2);                                             //funcion que carga el array HKDATA[118]  
044F6:  MOVLW  02
044F8:  MOVLB  3
044FA:  MOVWF  x47
044FC:  MOVFF  345,34B
04500:  MOVFF  344,34A
04504:  MOVFF  343,349
04508:  MOVFF  342,348
0450C:  MOVLB  0
0450E:  RCALL  43A8
....................          CHECK_50_and_CW_RESPOND(); 
04510:  RCALL  42BC
....................          CHECK_FAB_RESPONSE = 1;                                                 //1 is succeeded to get response from FAB 
04512:  MOVLW  01
04514:  MOVLB  2
04516:  MOVWF  x73
....................          break; 
04518:  MOVLB  3
0451A:  BRA    4582
....................       }else if(in_HK[1] == 0x33){ 
0451C:  BRA    457A
0451E:  MOVLB  1
04520:  MOVF   xAC,W
04522:  SUBLW  33
04524:  BNZ   4550
....................          //delay_ms(200); 
....................          CHECK_HKDATA(1,delaytime2); 
04526:  MOVLW  01
04528:  MOVLB  3
0452A:  MOVWF  x47
0452C:  MOVFF  345,34B
04530:  MOVFF  344,34A
04534:  MOVFF  343,349
04538:  MOVFF  342,348
0453C:  MOVLB  0
0453E:  RCALL  43A8
....................          CHECK_50_and_CW_RESPOND(); 
04540:  RCALL  42BC
....................          CHECK_FAB_RESPONSE = 1;                                                 //1 is succeeded to get response from FAB 
04542:  MOVLW  01
04544:  MOVLB  2
04546:  MOVWF  x73
....................          break; 
04548:  MOVLB  3
0454A:  BRA    4582
....................       }else if(in_HK[2] == 0x33){ 
0454C:  BRA    457A
0454E:  MOVLB  1
04550:  MOVF   xAD,W
04552:  SUBLW  33
04554:  BNZ   457C
....................          //delay_ms(200); 
....................          CHECK_HKDATA(0,delaytime2); 
04556:  MOVLB  3
04558:  CLRF   x47
0455A:  MOVFF  345,34B
0455E:  MOVFF  344,34A
04562:  MOVFF  343,349
04566:  MOVFF  342,348
0456A:  MOVLB  0
0456C:  RCALL  43A8
....................          CHECK_50_and_CW_RESPOND(); 
0456E:  RCALL  42BC
....................          CHECK_FAB_RESPONSE = 1;                                                 //1 is succeeded to get response from FAB 
04570:  MOVLW  01
04572:  MOVLB  2
04574:  MOVWF  x73
....................          break; 
04576:  MOVLB  3
04578:  BRA    4582
0457A:  MOVLB  1
....................       } 
0457C:  MOVLB  3
0457E:  INCF   x46,F
04580:  BRA    44D2
....................    } 
....................    return; 
04582:  MOVLB  0
04584:  RETURN 0
.................... } 
....................  
....................  
....................  
....................  
.................... void GET_RESET_DATA()                                                            //funcion que carga el array HKDATA con los datos del Reset PIC 
.................... { 
....................    RESET_DATA = 0; 
04586:  CLRF   xEB
....................    for(int i = 0; i < 6; i++) 
04588:  MOVLB  3
0458A:  CLRF   x3E
0458C:  MOVF   x3E,W
0458E:  SUBLW  05
04590:  BNC   45AA
....................    { 
....................       COLLECT_RESET_DATA(); 
04592:  MOVLB  0
04594:  CALL   1B64
....................       if(reset_bffr[0] == 0x8e) 
04598:  MOVF   xEC,W
0459A:  SUBLW  8E
0459C:  BNZ   45A4
....................       { 
....................          break; 
0459E:  MOVLB  3
045A0:  BRA    45AA
045A2:  MOVLB  0
....................       } 
045A4:  MOVLB  3
045A6:  INCF   x3E,F
045A8:  BRA    458C
....................    }    
....................    CHECK_50_and_CW_RESPOND(); 
045AA:  MOVLB  0
045AC:  RCALL  42BC
....................    if(RESET_bffr[0] == 0x8e)                                                     //si el byte de cabecera es el correcto 
045AE:  MOVF   xEC,W
045B0:  SUBLW  8E
045B2:  BNZ   4696
....................    { 
....................       fprintf(PC,"\r\nRESET DATA OBTAINED\r\n"); 
045B4:  MOVLW  2E
045B6:  MOVWF  FF6
045B8:  MOVLW  0A
045BA:  MOVWF  FF7
045BC:  MOVLW  00
045BE:  MOVWF  FF8
045C0:  CALL   318C
....................       for(int num = 0; num < 5; num++)                                           //carga el array HKDATA con timedata en las posiciones 2 al 6 
045C4:  MOVLB  3
045C6:  CLRF   x3F
045C8:  MOVF   x3F,W
045CA:  SUBLW  04
045CC:  BNC   462C
....................       { 
....................          HKDATA[num + 2] = reset_bffr[num + 1]; 
045CE:  MOVLW  02
045D0:  ADDWF  x3F,W
045D2:  CLRF   03
045D4:  ADDLW  D8
045D6:  MOVWF  01
045D8:  MOVLW  01
045DA:  ADDWFC 03,F
045DC:  MOVFF  03,341
045E0:  MOVLW  01
045E2:  ADDWF  x3F,W
045E4:  CLRF   03
045E6:  ADDLW  EC
045E8:  MOVWF  FE9
045EA:  MOVLW  00
045EC:  ADDWFC 03,W
045EE:  MOVWF  FEA
045F0:  MOVFF  FEF,342
045F4:  MOVFF  341,FEA
045F8:  MOVFF  01,FE9
045FC:  MOVFF  342,FEF
....................          /* 
....................          fputc(HKDATA[num + 2],PC); 
....................          */ 
....................          fprintf(PC,"%x,",HKDATA[num + 2]);                                      //parte del test con serial monitor 
04600:  MOVLW  02
04602:  ADDWF  x3F,W
04604:  CLRF   03
04606:  ADDLW  D8
04608:  MOVWF  FE9
0460A:  MOVLW  01
0460C:  ADDWFC 03,W
0460E:  MOVWF  FEA
04610:  MOVFF  FEF,363
04614:  MOVLW  57
04616:  MOVWF  x64
04618:  MOVLB  0
0461A:  CALL   17E0
0461E:  MOVLW  2C
04620:  BTFSS  F9E.4
04622:  BRA    4620
04624:  MOVWF  FAD
04626:  MOVLB  3
04628:  INCF   x3F,F
0462A:  BRA    45C8
....................       } 
....................     
....................       for(num = 0; num < 5; num++)                                               //carga el array HKDATA con reset sensor data en las posiciones 110 al 114 
0462C:  CLRF   x3F
0462E:  MOVF   x3F,W
04630:  SUBLW  04
04632:  BNC   4692
....................       { 
....................          HKDATA[num + 116] = reset_bffr[num + 6];                                //carga el HKDATA[] con los datos del reset[] 
04634:  MOVLW  74
04636:  ADDWF  x3F,W
04638:  CLRF   03
0463A:  ADDLW  D8
0463C:  MOVWF  01
0463E:  MOVLW  01
04640:  ADDWFC 03,F
04642:  MOVFF  03,341
04646:  MOVLW  06
04648:  ADDWF  x3F,W
0464A:  CLRF   03
0464C:  ADDLW  EC
0464E:  MOVWF  FE9
04650:  MOVLW  00
04652:  ADDWFC 03,W
04654:  MOVWF  FEA
04656:  MOVFF  FEF,342
0465A:  MOVFF  341,FEA
0465E:  MOVFF  01,FE9
04662:  MOVFF  342,FEF
....................          /* 
....................          fputc(HKDATA[num + 116],PC); 
....................          */ 
....................          fprintf(PC,"%x,",HKDATA[num + 116]);                                    //parte del test con serial monitor 
04666:  MOVLW  74
04668:  ADDWF  x3F,W
0466A:  CLRF   03
0466C:  ADDLW  D8
0466E:  MOVWF  FE9
04670:  MOVLW  01
04672:  ADDWFC 03,W
04674:  MOVWF  FEA
04676:  MOVFF  FEF,363
0467A:  MOVLW  57
0467C:  MOVWF  x64
0467E:  MOVLB  0
04680:  CALL   17E0
04684:  MOVLW  2C
04686:  BTFSS  F9E.4
04688:  BRA    4686
0468A:  MOVWF  FAD
0468C:  MOVLB  3
0468E:  INCF   x3F,F
04690:  BRA    462E
....................       } 
....................    }else{ 
04692:  BRA    46A8
04694:  MOVLB  0
....................       fprintf(PC,"\r\nRESET DATA NO OBTAINED\r\n"); 
04696:  MOVLW  46
04698:  MOVWF  FF6
0469A:  MOVLW  0A
0469C:  MOVWF  FF7
0469E:  MOVLW  00
046A0:  MOVWF  FF8
046A2:  CALL   318C
046A6:  MOVLB  3
....................    } 
....................    //Delete_Reset(); 
....................    return; 
046A8:  MOVLB  0
046AA:  RETURN 0
.................... } 
....................  
.................... void MAKE_ADCS_HKDATA()                                                          //carga en el array HKDATA[] los datos del ADCS en las posiciones 53 al 106 
.................... { 
....................    GET_ADCS_SENSOR_DATA();                                                       //funcion que carga el array ADCS_SENSOR_DATA[] con los datos del ADCS 
*
04838:  RCALL  473C
....................    CHECK_50_and_CW_RESPOND();    
0483A:  RCALL  42BC
....................    for(int num = 53; num < 113; num++)                                           //12byte(MAG6,GYRO6)+48byte(GPS) = 60 
0483C:  MOVLW  35
0483E:  MOVLB  3
04840:  MOVWF  x3E
04842:  MOVF   x3E,W
04844:  SUBLW  70
04846:  BNC   487C
....................    { 
....................       HKDATA[num] = ADCS_SENSOR_DATA[num - 52];                                  //ADCS[1] to ADCS[60] 
04848:  CLRF   03
0484A:  MOVF   x3E,W
0484C:  ADDLW  D8
0484E:  MOVWF  01
04850:  MOVLW  01
04852:  ADDWFC 03,F
04854:  MOVFF  03,341
04858:  MOVLW  34
0485A:  SUBWF  x3E,W
0485C:  CLRF   03
0485E:  ADDLW  9B
04860:  MOVWF  FE9
04862:  MOVLW  00
04864:  ADDWFC 03,W
04866:  MOVWF  FEA
04868:  MOVFF  FEF,342
0486C:  MOVFF  341,FEA
04870:  MOVFF  01,FE9
04874:  MOVFF  342,FEF
04878:  INCF   x3E,F
0487A:  BRA    4842
....................    } 
....................    for(int n = 1; n < 61; n++)                                             // SHOW IN SERIAL MONITOR 12byte(MAG6,GYRO6)+48byte(GPS) = 60 
0487C:  MOVLW  01
0487E:  MOVWF  x3F
04880:  MOVF   x3F,W
04882:  SUBLW  3C
04884:  BNC   48B0
....................    { 
....................       fprintf(PC,"%x,",ADCS_SENSOR_DATA[n]);                                    //ADCS[1] to ADCS[60] 
04886:  CLRF   03
04888:  MOVF   x3F,W
0488A:  ADDLW  9B
0488C:  MOVWF  FE9
0488E:  MOVLW  00
04890:  ADDWFC 03,W
04892:  MOVWF  FEA
04894:  MOVFF  FEF,363
04898:  MOVLW  57
0489A:  MOVWF  x64
0489C:  MOVLB  0
0489E:  CALL   17E0
048A2:  MOVLW  2C
048A4:  BTFSS  F9E.4
048A6:  BRA    48A4
048A8:  MOVWF  FAD
048AA:  MOVLB  3
048AC:  INCF   x3F,F
048AE:  BRA    4880
....................                                  
....................    } 
....................     
.................... //!   for(num = 65; num < 107; num++)                                            //60byte(GPS) 
.................... //!   { 
.................... //!      HKDATA[num] = ADCS_SENSOR_DATA[num - 34];//HKDATA[54] = ADCS_SENSOR_DATA[21]-->ADCS[21] to ADCS[62] 
.................... //!   } 
....................    return; 
048B0:  MOVLB  0
048B2:  RETURN 0
.................... } 
....................  
.................... void DISPLAY_CW()                                                                //funcion que imprime el array CW_FORMAT[] 
.................... { 
....................    fprintf(PC,"\r\nCW:\r\n"); 
*
050D4:  MOVLW  62
050D6:  MOVWF  FF6
050D8:  MOVLW  0A
050DA:  MOVWF  FF7
050DC:  MOVLW  00
050DE:  MOVWF  FF8
050E0:  CALL   318C
....................    for(int8 i = 0; i < 5; i++) 
050E4:  MOVLB  3
050E6:  CLRF   x2E
050E8:  MOVF   x2E,W
050EA:  SUBLW  04
050EC:  BNC   5110
....................    { 
....................       fprintf(PC,"%x",CW_FORMAT[i]); 
050EE:  CLRF   03
050F0:  MOVF   x2E,W
050F2:  ADDLW  A6
050F4:  MOVWF  FE9
050F6:  MOVLW  01
050F8:  ADDWFC 03,W
050FA:  MOVWF  FEA
050FC:  MOVFF  FEF,363
05100:  MOVLW  57
05102:  MOVWF  x64
05104:  MOVLB  0
05106:  CALL   17E0
0510A:  MOVLB  3
0510C:  INCF   x2E,F
0510E:  BRA    50E8
....................    } 
....................    fprintf(PC,"\r\n"); 
05110:  MOVLW  0D
05112:  BTFSS  F9E.4
05114:  BRA    5112
05116:  MOVWF  FAD
05118:  MOVLW  0A
0511A:  BTFSS  F9E.4
0511C:  BRA    511A
0511E:  MOVWF  FAD
....................    CHECK_50_and_CW_RESPOND();    
05120:  MOVLB  0
05122:  CALL   42BC
....................    return; 
05126:  GOTO   5590 (RETURN)
.................... } 
....................  
.................... void SET_IDENTIFIER() 
.................... { 
....................    CHECK_50_and_CW_RESPOND(); 
*
050A4:  CALL   42BC
....................    HKDATA[0] = 0x33; 
050A8:  MOVLW  33
050AA:  MOVLB  1
050AC:  MOVWF  xD8
....................    HKDATA[1] = 0x33; 
050AE:  MOVWF  xD9
....................    HKDATA[7] = 0xAA; 
050B0:  MOVLW  AA
050B2:  MOVWF  xDF
....................    HKDATA[8] = 0xAA; 
050B4:  MOVWF  xE0
....................    HKDATA[9] = 0xAA; 
050B6:  MOVWF  xE1
....................    HKDATA[50] = 0xBB; 
050B8:  MOVLW  BB
050BA:  MOVLB  2
050BC:  MOVWF  x0A
....................    HKDATA[51] = 0xBB; 
050BE:  MOVWF  x0B
....................    HKDATA[52] = 0xBB; 
050C0:  MOVWF  x0C
....................    HKDATA[113] = 0xCC; 
050C2:  MOVLW  CC
050C4:  MOVWF  x49
....................    HKDATA[114] = 0xCC; 
050C6:  MOVWF  x4A
....................    HKDATA[115] = 0xCC; 
050C8:  MOVWF  x4B
....................    HKDATA[122] = 0x44; 
050CA:  MOVLW  44
050CC:  MOVWF  x52
....................    HKDATA[123] = 0x44; 
050CE:  MOVWF  x53
....................    return; 
050D0:  MOVLB  0
050D2:  RETURN 0
.................... } 
....................  
.................... void FAB_TEST_OPERATION() 
.................... { 
....................    Delete_in_HK();                                                               //Borra el array in_HK[124] 
*
0542A:  CALL   3C4E
....................    LOOP_FAB_HK_ADDRESS();                                                        //Rota las posiciones de guardado de los datos si llega al final del espacio asignado  
0542E:  CALL   3C70
....................    LOOP_FAB_CW_ADDRESS();                                                        //Rota las posiciones de guardado de los datos si llega al final del espacio asignado 
05432:  CALL   3DC6
....................    CHECK_50_and_CW_RESPOND();                                                    //verifica si llego comando 0x50 desde COM PIC y envia CW al COM 
05436:  CALL   42BC
....................    LOOP_FAB_HK_ADDRESS();                                                        //Rota las posiciones de guardado de los datos si llega al final del espacio asignado 
0543A:  CALL   3C70
....................    CHECK_50_and_CW_RESPOND();                                                    //verifica si llego comando 0x50 desde COM PIC y envia CW al COM 
0543E:  CALL   42BC
....................    LOOP_FAB_CW_ADDRESS();                                                        //Rota las posiciones de guardado de los datos si llega al final del espacio asignado 
05442:  CALL   3DC6
....................    CHECK_50_and_CW_RESPOND();                                                    //verifica si llego comando 0x50 desde COM PIC y envia CW al COM 
05446:  CALL   42BC
....................    Turn_ON_ADCS();                                                               //turn ON ADCS, RD6 = HIGH                                                                
0544A:  CALL   26EC
....................    //fprintf(PC,"FAB communication start\r\n"); 
....................    waiting(200000);                                                              //wait function, about 200.000=1s 
0544E:  MOVLB  3
05450:  CLRF   x5C
05452:  MOVLW  03
05454:  MOVWF  x5B
05456:  MOVLW  0D
05458:  MOVWF  x5A
0545A:  MOVLW  40
0545C:  MOVWF  x59
0545E:  MOVLB  0
05460:  CALL   1B26
....................    FAB_MEASUERING_FLAG++;                                                        //count until 7(it means 10 min) 
05464:  MOVLB  2
05466:  INCF   x6D,F
....................    FAB_DATA = 0;                                                                 //for initialize 
05468:  CLRF   x6C
....................     
.................... //   fprintf(PC,"SENDING COMMAND TO FAB\r\n"); 
....................    CHECK_50_and_CW_RESPOND();                                                    //verifica si llego comando 0x50 desde COM PIC y envia CW al COM 
0546A:  MOVLB  0
0546C:  CALL   42BC
....................    VERIFY_FABDATA(130000,2000);//delaytime1 and delaytime2                       //envia comando al FAB y Carga el array in_HK[] con los datos del FAB 
05470:  MOVLB  3
05472:  CLRF   x41
05474:  MOVLW  01
05476:  MOVWF  x40
05478:  MOVLW  FB
0547A:  MOVWF  x3F
0547C:  MOVLW  D0
0547E:  MOVWF  x3E
05480:  CLRF   x45
05482:  CLRF   x44
05484:  MOVLW  07
05486:  MOVWF  x43
05488:  MOVLW  D0
0548A:  MOVWF  x42
0548C:  MOVLB  0
0548E:  CALL   44CE
....................    CHECK_50_and_CW_RESPOND(); 
05492:  CALL   42BC
....................     
....................    GET_RESET_DATA();                                                             //envia comando al reset PIC y Carga el array HKDATA[] con los datos del Reset PIC 
05496:  CALL   4586
....................     
....................    MAKE_ADCS_HKDATA();                                                           //carga en el array HKDATA[] los datos del ADCS en las posiciones 53 al 106 
0549A:  CALL   4838
....................     
.................... // Turn_OFF_ADCS();                                                              //ADCS switch OFF, RD6=0 
....................    CHECK_50_and_CW_RESPOND(); 
0549E:  CALL   42BC
....................    MAKE_CW_FORMAT();                                                             //make CW format 
054A2:  RCALL  5098
....................    CHECK_50_and_CW_RESPOND();    
054A4:  CALL   42BC
....................    SET_IDENTIFIER();                                                             //carga el HKDATA[] con los identificadores   
054A8:  RCALL  50A4
....................    if(CHECK_FAB_RESPONSE)                                                        //Si HKDATA[] se cargo con los datos del FAB y realizado el CW format 
054AA:  MOVLB  2
054AC:  MOVF   x73,F
054AE:  BTFSC  FD8.2
054B0:  BRA    563E
....................    { 
....................       fprintf(PC,"\r\nCollecting HK and Making CWFormat Done\r\n"); 
054B2:  MOVLW  6A
054B4:  MOVWF  FF6
054B6:  MOVLW  0A
054B8:  MOVWF  FF7
054BA:  MOVLW  00
054BC:  MOVWF  FF8
054BE:  MOVLB  0
054C0:  CALL   318C
....................  
....................       fprintf(PC,"\r\nHK data:\r\n"); 
054C4:  MOVLW  96
054C6:  MOVWF  FF6
054C8:  MOVLW  0A
054CA:  MOVWF  FF7
054CC:  MOVLW  00
054CE:  MOVWF  FF8
054D0:  CALL   318C
....................  
....................       CHECK_50_and_CW_RESPOND(); 
054D4:  CALL   42BC
....................        
....................       for(int num = 0; num < 65; num++)                                          //array[0] to [64](until gyro data) 
054D8:  MOVLB  3
054DA:  CLRF   x2C
054DC:  MOVF   x2C,W
054DE:  SUBLW  40
054E0:  BNC   550C
....................       { 
....................          fprintf(PC,"%x,",HKDATA[num]); 
054E2:  CLRF   03
054E4:  MOVF   x2C,W
054E6:  ADDLW  D8
054E8:  MOVWF  FE9
054EA:  MOVLW  01
054EC:  ADDWFC 03,W
054EE:  MOVWF  FEA
054F0:  MOVFF  FEF,363
054F4:  MOVLW  57
054F6:  MOVWF  x64
054F8:  MOVLB  0
054FA:  CALL   17E0
054FE:  MOVLW  2C
05500:  BTFSS  F9E.4
05502:  BRA    5500
05504:  MOVWF  FAD
05506:  MOVLB  3
05508:  INCF   x2C,F
0550A:  BRA    54DC
....................       } 
....................       CHECK_50_and_CW_RESPOND(); 
0550C:  MOVLB  0
0550E:  CALL   42BC
....................       for(num = 65; num < 113; num++)                                            //GPS 60 byte should be shown as char type 
05512:  MOVLW  41
05514:  MOVLB  3
05516:  MOVWF  x2C
05518:  MOVF   x2C,W
0551A:  SUBLW  70
0551C:  BNC   5548
....................       { 
....................          //fputc(HKDATA[num],PC); 
....................          fprintf(PC,"%x,",HKDATA[num]);                                          //solo para test 
0551E:  CLRF   03
05520:  MOVF   x2C,W
05522:  ADDLW  D8
05524:  MOVWF  FE9
05526:  MOVLW  01
05528:  ADDWFC 03,W
0552A:  MOVWF  FEA
0552C:  MOVFF  FEF,363
05530:  MOVLW  57
05532:  MOVWF  x64
05534:  MOVLB  0
05536:  CALL   17E0
0553A:  MOVLW  2C
0553C:  BTFSS  F9E.4
0553E:  BRA    553C
05540:  MOVWF  FAD
05542:  MOVLB  3
05544:  INCF   x2C,F
05546:  BRA    5518
....................       } 
....................       CHECK_50_and_CW_RESPOND(); 
05548:  MOVLB  0
0554A:  CALL   42BC
....................       for(num = 113; num < HK_Size; num++)                                       //array[113] to [124] 
0554E:  MOVLW  71
05550:  MOVLB  3
05552:  MOVWF  x2C
05554:  MOVF   x2C,W
05556:  SUBLW  7B
05558:  BNC   5588
....................       { 
....................          fprintf(PC,",%x",HKDATA[num]); 
0555A:  CLRF   03
0555C:  MOVF   x2C,W
0555E:  ADDLW  D8
05560:  MOVWF  FE9
05562:  MOVLW  01
05564:  ADDWFC 03,W
05566:  MOVWF  FEA
05568:  MOVFF  FEF,32E
0556C:  MOVLW  2C
0556E:  BTFSS  F9E.4
05570:  BRA    556E
05572:  MOVWF  FAD
05574:  MOVFF  32E,363
05578:  MOVLW  57
0557A:  MOVWF  x64
0557C:  MOVLB  0
0557E:  CALL   17E0
05582:  MOVLB  3
05584:  INCF   x2C,F
05586:  BRA    5554
....................       }      
....................       CHECK_50_and_CW_RESPOND(); 
05588:  MOVLB  0
0558A:  CALL   42BC
....................        
....................       DISPLAY_CW();                                                              //funcion que imprime el array CW_FORMAT[] 
0558E:  BRA    50D4
....................       CHECK_FAB_RESPONSE = 0;                                                    //bandera FAB a cero      
05590:  MOVLB  2
05592:  CLRF   x73
....................       output_low(PIN_C4);                                                        //COM Flash memory Main side 
05594:  BCF    F94.4
05596:  BCF    F8B.4
....................       output_low(PIN_A5); 
05598:  BCF    F92.5
0559A:  BCF    F89.5
....................       //sector_erase_SCF(65536*50); 
....................       //sector_erase_SCF(65536*51); 
....................       SEND_HKDATA_to_SCF(FAB_HK_ADDRESS);                                        //guarda en COM flash el array HKDATA[] 
0559C:  MOVFF  4B,341
055A0:  MOVFF  4A,340
055A4:  MOVFF  49,33F
055A8:  MOVFF  48,33E
055AC:  MOVLB  0
055AE:  RCALL  5188
....................       SEND_HKDATA_to_SMF(FAB_HK_ADDRESS); 
055B0:  MOVFF  4B,341
055B4:  MOVFF  4A,340
055B8:  MOVFF  49,33F
055BC:  MOVFF  48,33E
055C0:  RCALL  51FA
....................       SEND_HKDATA_to_OF(FAB_HK_ADDRESS);                                         //guarda en Main flash el array HKDATA[] 
055C2:  MOVFF  4B,341
055C6:  MOVFF  4A,340
055CA:  MOVFF  49,33F
055CE:  MOVFF  48,33E
055D2:  RCALL  5268
....................       SEND_CWFORMAT_TO_SCF(FAB_CW_ADDRESS);                                      //guarda en COM flash el array CWFORMAT[] 
055D4:  MOVFF  4F,341
055D8:  MOVFF  4E,340
055DC:  MOVFF  4D,33F
055E0:  MOVFF  4C,33E
055E4:  RCALL  52DC
....................       SEND_CWFORMAT_TO_SMF(FAB_CW_ADDRESS); 
055E6:  MOVFF  4F,341
055EA:  MOVFF  4E,340
055EE:  MOVFF  4D,33F
055F2:  MOVFF  4C,33E
055F6:  RCALL  534E
....................       SEND_CWFORMAT_TO_OF(FAB_CW_ADDRESS);                                       //guarda en Main flash el array CWFORMAT[] 
055F8:  MOVFF  4F,341
055FC:  MOVFF  4E,340
05600:  MOVFF  4D,33F
05604:  MOVFF  4C,33E
05608:  RCALL  53F2
....................       FAB_HK_ADDRESS = FAB_HK_ADDRESS + HK_size;                                 //prepare for next storing address 
0560A:  MOVLW  7C
0560C:  ADDWF  48,F
0560E:  MOVLW  00
05610:  ADDWFC 49,F
05612:  ADDWFC 4A,F
05614:  ADDWFC 4B,F
....................       FAB_CW_ADDRESS = FAB_CW_ADDRESS + CW_size;                                 //prepare for next storing address 
05616:  MOVLW  05
05618:  ADDWF  4C,F
0561A:  MOVLW  00
0561C:  ADDWFC 4D,F
0561E:  ADDWFC 4E,F
05620:  ADDWFC 4F,F
....................       fprintf(PC,"\r\nSENSORS DATA SAVED ON FLASH\r\n"); 
05622:  MOVLW  A4
05624:  MOVWF  FF6
05626:  MOVLW  0A
05628:  MOVWF  FF7
0562A:  MOVLW  00
0562C:  MOVWF  FF8
0562E:  CALL   318C
....................       output_high(PIN_C4);                                                       //COM Flash memory COM side 
05632:  BCF    F94.4
05634:  BSF    F8B.4
....................       CHECK_50_and_CW_RESPOND(); 
05636:  CALL   42BC
....................    }else{ 
0563A:  BRA    5712
0563C:  MOVLB  2
....................       SEND_HKDATA_to_SCF(FAB_HK_ADDRESS);                                        //guarda en COM flash el array HKDATA[] 
0563E:  MOVFF  4B,341
05642:  MOVFF  4A,340
05646:  MOVFF  49,33F
0564A:  MOVFF  48,33E
0564E:  MOVLB  0
05650:  RCALL  5188
....................       SEND_HKDATA_to_SMF(FAB_HK_ADDRESS); 
05652:  MOVFF  4B,341
05656:  MOVFF  4A,340
0565A:  MOVFF  49,33F
0565E:  MOVFF  48,33E
05662:  RCALL  51FA
....................       SEND_HKDATA_to_OF(FAB_HK_ADDRESS);                                         //guarda en Main flash el array HKDATA[] 
05664:  MOVFF  4B,341
05668:  MOVFF  4A,340
0566C:  MOVFF  49,33F
05670:  MOVFF  48,33E
05674:  RCALL  5268
....................       SEND_CWFORMAT_TO_SCF(FAB_CW_ADDRESS);                                      //guarda en COM flash el array CWFORMAT[] 
05676:  MOVFF  4F,341
0567A:  MOVFF  4E,340
0567E:  MOVFF  4D,33F
05682:  MOVFF  4C,33E
05686:  RCALL  52DC
....................       SEND_CWFORMAT_TO_SMF(FAB_CW_ADDRESS); 
05688:  MOVFF  4F,341
0568C:  MOVFF  4E,340
05690:  MOVFF  4D,33F
05694:  MOVFF  4C,33E
05698:  RCALL  534E
....................       SEND_CWFORMAT_TO_OF(FAB_CW_ADDRESS);                                       //guarda en Main flash el array CWFORMAT[] 
0569A:  MOVFF  4F,341
0569E:  MOVFF  4E,340
056A2:  MOVFF  4D,33F
056A6:  MOVFF  4C,33E
056AA:  RCALL  53F2
....................       FAB_HK_ADDRESS = FAB_HK_ADDRESS + HK_size;                                 //prepare for next storing address 
056AC:  MOVLW  7C
056AE:  ADDWF  48,F
056B0:  MOVLW  00
056B2:  ADDWFC 49,F
056B4:  ADDWFC 4A,F
056B6:  ADDWFC 4B,F
....................       FAB_CW_ADDRESS = FAB_CW_ADDRESS + CW_size;                                 //prepare for next storing address 
056B8:  MOVLW  05
056BA:  ADDWF  4C,F
056BC:  MOVLW  00
056BE:  ADDWFC 4D,F
056C0:  ADDWFC 4E,F
056C2:  ADDWFC 4F,F
....................       fprintf(PC,"NO RESPONSE FROM FAB\r\n\r\n");   
056C4:  MOVLW  C4
056C6:  MOVWF  FF6
056C8:  MOVLW  0A
056CA:  MOVWF  FF7
056CC:  MOVLW  00
056CE:  MOVWF  FF8
056D0:  CALL   318C
....................       CHECK_50_and_CW_RESPOND(); 
056D4:  CALL   42BC
....................       for(int num = 0; num < HK_size; num++) 
056D8:  MOVLB  3
056DA:  CLRF   x2D
056DC:  MOVF   x2D,W
056DE:  SUBLW  7B
056E0:  BNC   570C
....................       { 
....................          fprintf(PC,"%x,",HKDATA[num]); 
056E2:  CLRF   03
056E4:  MOVF   x2D,W
056E6:  ADDLW  D8
056E8:  MOVWF  FE9
056EA:  MOVLW  01
056EC:  ADDWFC 03,W
056EE:  MOVWF  FEA
056F0:  MOVFF  FEF,363
056F4:  MOVLW  57
056F6:  MOVWF  x64
056F8:  MOVLB  0
056FA:  CALL   17E0
056FE:  MOVLW  2C
05700:  BTFSS  F9E.4
05702:  BRA    5700
05704:  MOVWF  FAD
05706:  MOVLB  3
05708:  INCF   x2D,F
0570A:  BRA    56DC
....................       } 
....................       CHECK_50_and_CW_RESPOND(); 
0570C:  MOVLB  0
0570E:  CALL   42BC
....................     
....................    } 
....................     
....................    return; 
05712:  RETURN 0
.................... } 
.................... /* 
.................... void SAVE_ADCS_INITIAL_and_FINAL(int32 ADDRESS) 
.................... { 
....................    output_low(PIN_C4); 
....................    output_low(PIN_A5); 
....................    for(int i = 0; i < 90; i++)//put initial 90byte(9byte for time + 81byte for MSN) 
....................    { 
....................       WRITE_DATA_BYTE_OF(ADCS_SENSOR_ADDRESS+i,READ_DATA_BYTE_OF(ADDRESS+i)); 
....................    } 
....................    for(i = 0; i < 90; i++)//put initial 90byte(9byte for time + 81byte for MSN) 
....................    { 
....................       WRITE_DATA_BYTE_SCF(ADCS_SENSOR_ADDRESS+i,READ_DATA_BYTE_OF(ADDRESS+i)); 
....................    } 
....................    for(i = 0; i < 90; i++)//put initial 90byte(9byte for time + 81byte for MSN) 
....................    { 
....................       WRITE_DATA_BYTE_SMF(ADCS_SENSOR_ADDRESS+i,READ_DATA_BYTE_OF(ADDRESS+i)); 
....................    } 
....................     
....................    ADCS_SENSOR_ADDRESS = ADCS_SENSOR_ADDRESS + 90; 
....................     
....................    for(i = 0; i < 81; i++)//put final 81 byte 
....................    { 
....................       WRITE_DATA_BYTE_OF(ADCS_SENSOR_ADDRESS+i,READ_DATA_BYTE_OF(ADCS_SENSOR_ADDRESS-171+i)); 
....................    } 
....................    for(i = 0; i < 81; i++)//put final 81 byte 
....................    { 
....................       WRITE_DATA_BYTE_SCF(ADCS_SENSOR_ADDRESS+i,READ_DATA_BYTE_OF(ADCS_SENSOR_ADDRESS-171+i)); 
....................    } 
....................    for(i = 0; i < 81; i++)//put final 81 byte 
....................    { 
....................       WRITE_DATA_BYTE_SMF(ADCS_SENSOR_ADDRESS+i,READ_DATA_BYTE_OF(ADCS_SENSOR_ADDRESS-171+i)); 
....................    } 
....................    ADCS_SENSOR_ADDRESS = ADCS_SENSOR_ADDRESS + 81; 
....................    output_high(PIN_C4); 
....................    return; 
.................... } 
....................  
.................... void GET_INITIAL_TIME() 
.................... { 
....................    COLLECT_RESET_DATA(); 
....................     
....................    WRITE_DATA_BYTE_OF(ADCS_SENSOR_ADDRESS,0xdd);//header 
....................    WRITE_DATA_BYTE_OF(ADCS_SENSOR_ADDRESS + 1,0xdd);//header 
....................    for(int i = 1; i < 6; i++){ 
....................       WRITE_DATA_BYTE_OF(ADCS_SENSOR_ADDRESS+1+i,reset_bffr[i]); 
....................    } 
....................    WRITE_DATA_BYTE_OF(ADCS_SENSOR_ADDRESS + 7,0xdd);//footer 
....................    WRITE_DATA_BYTE_OF(ADCS_SENSOR_ADDRESS + 8,0xdd);//footer 
....................     
....................    output_low(PIN_C4);//COM_MUX MAINSIDE 
....................    WRITE_DATA_BYTE_SCF(ADCS_SENSOR_ADDRESS,0xdd);//header 
....................    WRITE_DATA_BYTE_SCF(ADCS_SENSOR_ADDRESS + 1,0xdd);//header 
....................    for(i = 1; i < 6; i++){ 
....................       WRITE_DATA_BYTE_SCF(ADCS_SENSOR_ADDRESS+1+i,reset_bffr[i]); 
....................    } 
....................    WRITE_DATA_BYTE_SCF(ADCS_SENSOR_ADDRESS + 7,0xdd);//footer 
....................    WRITE_DATA_BYTE_SCF(ADCS_SENSOR_ADDRESS + 8,0xdd);//footer 
....................    output_high(PIN_C4); 
....................     
....................    output_low(PIN_A5);//CAM_MUX MAINSIDE 
....................    WRITE_DATA_BYTE_SMF(ADCS_SENSOR_ADDRESS,0xdd);//heade 
....................    WRITE_DATA_BYTE_SMF(ADCS_SENSOR_ADDRESS + 1,0xdd);//header 
....................    for(i = 1; i < 6; i++){ 
....................       WRITE_DATA_BYTE_SMF(ADCS_SENSOR_ADDRESS+1+i,reset_bffr[i]); 
....................    } 
....................    WRITE_DATA_BYTE_SMF(ADCS_SENSOR_ADDRESS + 7,0xdd);//footer 
....................    WRITE_DATA_BYTE_SMF(ADCS_SENSOR_ADDRESS + 8,0xdd);//footer 
....................     
....................    ADCS_SENSOR_ADDRESS = ADCS_SENSOR_ADDRESS + 9;//total 9byte for time info 
....................    //5 byte time info and 2 byte header and 2 byte footer 
....................    return; 
.................... } 
.................... */ 
.................... //@@@@@@@@@@@@@@@@@@@@@@@@@@@@@@@@@@@@@@@@@@@@@@@@@@@@@@@@@@@@@@@@@@@@@@@@@@@@@@@@@@@@@@@@@@@@@@@@@@@@@@@@@@ 
.................... /*void GET_ADCS_MSN_DATA() 
.................... { 
....................    int a = 1; 
....................    if(kbhit(ADCS)&&fgetc(ADCS) == 0x57) 
....................    { 
....................       for(int32 n= 0; n < 300000; n++) 
....................       { 
....................          if(kbhit(ADCS)) 
....................          { 
....................             ADCS_SENSOR_DATA[a] = fgetc(ADCS);//[1] to [72] 
....................             a++;//after input everything, a = 73 
....................          } 
....................          if(a == 73) 
....................          { 
....................             break; 
....................          } 
....................       } 
....................       for(int i = 76; i > 70 ; i--)//6 byte [76] to [70] --> Duty XYZ 
....................       { 
....................          ADCS_SENSOR_DATA[i] = ADCS_SENSOR_DATA[i-4];//ADCS_SENSOR_DATA[76] is ADCS_SENSOR_DATA[72] 
....................       } 
....................       for(i = 68; i > 20 ; i--)//48 byte [68] to [21] --> GPS 
....................       { 
....................          ADCS_SENSOR_DATA[i] = ADCS_SENSOR_DATA[i-2];//ADCS_SENSOR_DATA[68] is ADCS_SENSOR_DATA[66] 
....................       } 
....................           
....................       ADCS_SENSOR_DATA[0] = 0x57; 
....................       ADCS_SENSOR_DATA[19] = 0xee; 
....................       ADCS_SENSOR_DATA[20] = 0xee; 
....................       ADCS_SENSOR_DATA[69] = 0x58; 
....................       ADCS_SENSOR_DATA[70] = 0x58; 
....................       ADCS_SENSOR_DATA[77] = 0x59; 
....................              
....................       int8 a = (int8)(currenttime >> 8); 
....................       int8 b = (int8)(currenttime); 
....................       output_low(PIN_C4); 
....................       output_low(PIN_A5); 
....................       WRITE_DATA_BYTE_OF(ADCS_SENSOR_ADDRESS,0x56);//header 
....................       WRITE_DATA_BYTE_SCF(ADCS_SENSOR_ADDRESS,0x56);//header 
....................       WRITE_DATA_BYTE_SMF(ADCS_SENSOR_ADDRESS,0x56);//header 
....................              
....................       WRITE_DATA_BYTE_OF(ADCS_SENSOR_ADDRESS+1,a); 
....................       WRITE_DATA_BYTE_OF(ADCS_SENSOR_ADDRESS+2,b); 
....................       WRITE_DATA_BYTE_SCF(ADCS_SENSOR_ADDRESS+1,a); 
....................       WRITE_DATA_BYTE_SCF(ADCS_SENSOR_ADDRESS+2,b); 
....................       WRITE_DATA_BYTE_SMF(ADCS_SENSOR_ADDRESS+1,a); 
....................       WRITE_DATA_BYTE_SMF(ADCS_SENSOR_ADDRESS+2,b); 
....................       for(i = 0; i < ADCS_SENSOR_SIZE; i++)// save everything to frash memory 
....................       { 
....................          WRITE_DATA_BYTE_OF(ADCS_SENSOR_ADDRESS + 3 + i,ADCS_SENSOR_DATA[i]); 
....................          WRITE_DATA_BYTE_SCF(ADCS_SENSOR_ADDRESS + 3 + i,ADCS_SENSOR_DATA[i]); 
....................          WRITE_DATA_BYTE_SMF(ADCS_SENSOR_ADDRESS + 3 + i,ADCS_SENSOR_DATA[i]); 
....................       } 
....................       output_high(PIN_C4); 
....................       fprintf(PC,"\r\n%ld,",currenttime); 
....................       fprintf(PC,"%x",READ_DATA_BYTE_OF(ADCS_SENSOR_ADDRESS+3));//ack 
....................       fprintf(PC,","); 
....................              
....................       for(i = 4; i < 22; i++)// show the data-->Magnetometer XYZ, Gyro XYZ, Cur sensor XYZ 
....................       { 
....................          fprintf(PC,"%x",READ_DATA_BYTE_OF(ADCS_SENSOR_ADDRESS+i)); 
....................          i++; 
....................          fprintf(PC,"%x,",READ_DATA_BYTE_OF(ADCS_SENSOR_ADDRESS+i)); 
....................          ADCS_SENSOR_DATA[i] = 0; 
....................       } 
....................              
....................       fprintf(PC,"%x",READ_DATA_BYTE_OF(ADCS_SENSOR_ADDRESS+22));//0xEE 
....................       fprintf(PC,"%x",READ_DATA_BYTE_OF(ADCS_SENSOR_ADDRESS+23));//0xEE 
....................       fprintf(PC,","); 
....................              
....................       for(i = 24; i < 72; i++)// show the data(GPS)-->48byte 
....................       { 
....................          //fprintf(PC,"%c",READ_DATA_BYTE_OF(ADCS_SENSOR_ADDRESS+i)); 
....................          fputc(READ_DATA_BYTE_OF(ADCS_SENSOR_ADDRESS+i),PC); 
....................          ADCS_SENSOR_DATA[i] = 0; 
....................       } 
....................              
....................       fprintf(PC,","); 
....................       fprintf(PC,"%x",READ_DATA_BYTE_OF(ADCS_SENSOR_ADDRESS+84));//0x58 
....................       fprintf(PC,"%x",READ_DATA_BYTE_OF(ADCS_SENSOR_ADDRESS+85));//0x58 
....................       fprintf(PC,","); 
....................              
....................       for(i = 74; i < ADCS_SENSOR_SIZE+2; i++)// show the duty data-->6byte 
....................       { 
....................          fprintf(PC,"%x,",(READ_DATA_BYTE_OF(ADCS_SENSOR_ADDRESS+i))); 
....................          ADCS_SENSOR_DATA[i] = 0; 
....................          i++; 
....................          fprintf(PC,"%x,",(READ_DATA_BYTE_OF(ADCS_SENSOR_ADDRESS+i))); 
....................          ADCS_SENSOR_DATA[i] = 0; 
....................       } 
....................       ADCS_SENSOR_ADDRESS = ADCS_SENSOR_ADDRESS + ADCS_SENSOR_SIZE + 3; 
....................    } 
....................    return; 
.................... }*/ 
.................... //@@@@@@@@@@@@@@@@@@@@@@@@@@@@@@@@@@@@@@@@@@@@@@@@@@@@@@@@@@@@@@@@@@@@@@@@@@@@@@@@@@@@@@@@@@@@@@@@@@@@@@@@@@ 
....................  
....................  
....................  
.................... int32 beginning_of_operation = 0; 
.................... //OPERATION_MODE 
.................... /*#define NOMAL_ADCS_MSN 0x22*/ 
.................... #define NOMAL_ADCS_MSN 0x78                                                      //comando esperado por hisatsugu 
.................... #define AUTO_ADCS_MSN 0x27 
.................... void ADCS_TEST_OPERATION(unsigned int16 duration, int8 OPERATION_MODE)           //Integration Testing With ADCS 
*
0A2C8:  MOVLB  3
0A2CA:  CLRF   x3C
.................... { 
....................    int8 count = 0; 
....................    LOOP_ADCS_SENSOR_ADDRESS(); 
0A2CC:  MOVLB  0
0A2CE:  BRA    A0BE
....................    ADCS_SETTINGS(); 
0A2D0:  BRA    A268
....................    beginning_of_operation = ADCS_SENSOR_ADDRESS; 
0A2D2:  MOVFF  53,2C4
0A2D6:  MOVFF  52,2C3
0A2DA:  MOVFF  51,2C2
0A2DE:  MOVFF  50,2C1
....................     
.................... /*   GET_INITIAL_TIME(); */ 
....................    fprintf(PC,"Turn On ADCS \r\n"); 
0A2E2:  MOVLW  DE
0A2E4:  MOVWF  FF6
0A2E6:  MOVLW  0A
0A2E8:  MOVWF  FF7
0A2EA:  MOVLW  00
0A2EC:  MOVWF  FF8
0A2EE:  CALL   318C
....................    Turn_On_ADCS();                                                               //Turn on ADCS 
0A2F2:  CALL   26EC
....................    /*delay_ms(8000);*/ 
....................     
....................    fputc(0x21,ADCS);                                                             //ADCS hand shake 
0A2F6:  MOVLW  21
0A2F8:  MOVLB  3
0A2FA:  MOVWF  x49
0A2FC:  MOVLB  0
0A2FE:  CALL   46AC
....................  
....................    CHECK_ACK_FROM_ADCS_10k(); 
0A302:  RCALL  A276
....................    if(ADCS_ACK == 0x55)                                                            //Success ACK 
0A304:  MOVF   xE9,W
0A306:  SUBLW  55
0A308:  BNZ   A336
....................    { 
....................       fprintf(PC,"Received ACK From ADCS\r\n"); 
0A30A:  MOVLW  EE
0A30C:  MOVWF  FF6
0A30E:  MOVLW  0A
0A310:  MOVWF  FF7
0A312:  MOVLW  00
0A314:  MOVWF  FF8
0A316:  CALL   318C
....................       //delay_ms(1000); 
....................       ADCS_ACK = 0; 
0A31A:  CLRF   xE9
....................       fputc(OPERATION_MODE,adcs);                                                   //for execute stabilize mission 
0A31C:  MOVFF  33B,349
0A320:  CALL   46AC
....................       fprintf(PC,"Sent OPERATION MODE to ADCS\r\n"); 
0A324:  MOVLW  08
0A326:  MOVWF  FF6
0A328:  MOVLW  0B
0A32A:  MOVWF  FF7
0A32C:  MOVLW  00
0A32E:  MOVWF  FF8
0A330:  CALL   318C
....................    }else{ 
0A334:  BRA    A348
....................       ADCS_ACK = 0; 
0A336:  CLRF   xE9
....................       fprintf(PC,"FAILURED GETTING ACK From ADCS\r\n"); 
0A338:  MOVLW  26
0A33A:  MOVWF  FF6
0A33C:  MOVLW  0B
0A33E:  MOVWF  FF7
0A340:  MOVLW  00
0A342:  MOVWF  FF8
0A344:  CALL   318C
....................    } 
....................     
....................  
....................  
....................    CMD_FROM_PC[0] = 0;                                                           //prepare to get MAIN command 
0A348:  CLRF   x7E
....................    PC_DATA = 0;                                                                  //prepare to get MAIN command 
0A34A:  CLRF   x99
....................    currenttime = 0;                                                              //prepare to measure the operation time 
0A34C:  MOVLB  1
0A34E:  CLRF   x91
0A350:  CLRF   x90
....................    while(true) 
....................    { 
....................     /*  for(int safe = 0; safe < 100; safe++) 
....................       { 
....................          GET_ADCS_MSN_DATA(); 
....................       }*/ 
....................       if(currenttime > duration)                                                 //600-->600 seconds (10min) 
0A352:  MOVLB  3
0A354:  MOVF   x3A,W
0A356:  MOVLB  1
0A358:  SUBWF  x91,W
0A35A:  BNC   A384
0A35C:  BNZ   A36E
0A35E:  MOVF   x90,W
0A360:  MOVLB  3
0A362:  SUBWF  x39,W
0A364:  BTFSS  FD8.0
0A366:  BRA    A36C
0A368:  MOVLB  1
0A36A:  BRA    A384
0A36C:  MOVLB  1
....................       { 
....................          fprintf(PC,"done\r\n"); 
0A36E:  MOVLW  48
0A370:  MOVWF  FF6
0A372:  MOVLW  0B
0A374:  MOVWF  FF7
0A376:  MOVLW  00
0A378:  MOVWF  FF8
0A37A:  MOVLB  0
0A37C:  CALL   318C
....................          break; 
0A380:  BRA    A3DE
0A382:  MOVLB  1
....................       } 
....................     /*  for(safe = 0; safe < 100; safe++) 
....................       { 
....................          GET_ADCS_MSN_DATA(); 
....................       }*/ 
....................       if((currenttime%90)==0) 
0A384:  MOVFF  191,33E
0A388:  MOVFF  190,33D
0A38C:  MOVLB  3
0A38E:  CLRF   x40
0A390:  MOVLW  5A
0A392:  MOVWF  x3F
0A394:  MOVLB  0
0A396:  CALL   6C8A
0A39A:  MOVFF  00,33D
0A39E:  MOVLB  3
0A3A0:  MOVFF  03,33E
0A3A4:  MOVF   x3D,F
0A3A6:  BNZ   A3B4
0A3A8:  MOVF   x3E,F
0A3AA:  BNZ   A3B4
....................       { 
....................          COLLECT_RESET_DATA(); 
0A3AC:  MOVLB  0
0A3AE:  CALL   1B64
0A3B2:  MOVLB  3
....................       } 
....................        
....................      /* for(safe = 0; safe < 100; safe++) 
....................       { 
....................          GET_ADCS_MSN_DATA(); 
....................       }*/ 
....................        
....................       if(CMD_FROM_PC[0] == 0xab) 
0A3B4:  MOVLB  0
0A3B6:  MOVF   x7E,W
0A3B8:  SUBLW  AB
0A3BA:  BNZ   A3D4
....................       { 
....................          CMD_FROM_PC[0] = 0; 
0A3BC:  CLRF   x7E
....................          PC_DATA = 0; 
0A3BE:  CLRF   x99
....................          Turn_off_ADCS(); 
0A3C0:  RCALL  A2C2
....................          fprintf(PC,"Stop ADCS Mission\r\n"); 
0A3C2:  MOVLW  50
0A3C4:  MOVWF  FF6
0A3C6:  MOVLW  0B
0A3C8:  MOVWF  FF7
0A3CA:  MOVLW  00
0A3CC:  MOVWF  FF8
0A3CE:  CALL   318C
....................          break; 
0A3D2:  BRA    A3DE
....................       } 
....................      /* for(safe = 0; safe < 100; safe++) 
....................       { 
....................          GET_ADCS_MSN_DATA(); 
....................       }*/ 
....................       RESET_SATELLITE();                                                         //if reset pic send command for resetting the satellite, OBC will response soon 
0A3D4:  CALL   7C44
0A3D8:  MOVLB  1
0A3DA:  BRA    A352
0A3DC:  MOVLB  0
....................    }   
....................    Turn_OFF_ADCS();                                                              //turn off ADCS OCP 
0A3DE:  RCALL  A2C2
....................    fprintf(PC,"\r\n\r\nTurned_OFF_ADCS\r\n\r\n\r\n");                                                        
0A3E0:  MOVLW  64
0A3E2:  MOVWF  FF6
0A3E4:  MOVLW  0B
0A3E6:  MOVWF  FF7
0A3E8:  MOVLW  00
0A3EA:  MOVWF  FF8
0A3EC:  CALL   318C
....................    fprintf(PC,"%lx",beginning_of_operation); 
0A3F0:  MOVFF  2C4,363
0A3F4:  MOVLW  57
0A3F6:  MOVLB  3
0A3F8:  MOVWF  x64
0A3FA:  MOVLB  0
0A3FC:  CALL   17E0
0A400:  MOVFF  2C3,363
0A404:  MOVLW  57
0A406:  MOVLB  3
0A408:  MOVWF  x64
0A40A:  MOVLB  0
0A40C:  CALL   17E0
0A410:  MOVFF  2C2,363
0A414:  MOVLW  57
0A416:  MOVLB  3
0A418:  MOVWF  x64
0A41A:  MOVLB  0
0A41C:  CALL   17E0
0A420:  MOVFF  2C1,363
0A424:  MOVLW  57
0A426:  MOVLB  3
0A428:  MOVWF  x64
0A42A:  MOVLB  0
0A42C:  CALL   17E0
....................    delay_ms(1000); 
0A430:  MOVLW  04
0A432:  MOVLB  3
0A434:  MOVWF  x3D
0A436:  MOVLW  FA
0A438:  MOVWF  x6B
0A43A:  MOVLB  0
0A43C:  CALL   1AFC
0A440:  MOVLB  3
0A442:  DECFSZ x3D,F
0A444:  BRA    A436
....................    Turn_On_ADCS(); 
0A446:  MOVLB  0
0A448:  CALL   26EC
....................    fprintf(PC,"\r\n\r\nTurned_ON_ADCS\r\n\r\n\r\n"); 
0A44C:  MOVLW  7E
0A44E:  MOVWF  FF6
0A450:  MOVLW  0B
0A452:  MOVWF  FF7
0A454:  MOVLW  00
0A456:  MOVWF  FF8
0A458:  CALL   318C
....................    //ADCS debe estar siempre encendido 
....................  /*  SAVE_ADCS_INITIAL_and_FINAL(beginning_of_operation); 
....................    output_low(PIN_C4); 
....................    for(int32 num = 0; num < 81+90; num++) 
....................    { 
....................       fprintf(PC,"%x",READ_DATA_BYTE_SCF(beginning_of_operation + num)); 
....................    } 
....................    //TRANSFER_DATA_NBYTE_TOPC_SCF(ADCS_SENSOR_ADDRESS-ATTEMPT_TIME*100, ATTEMPT_TIME*100); 
....................    output_high(PIN_C4);*/ 
....................    RESET_SATELLITE();                                                            //if reset pic send command for resetting the satellite, OBC will response soon 
0A45C:  CALL   7C44
....................    if(count > 89) 
0A460:  MOVLB  3
0A462:  MOVF   x3C,W
0A464:  SUBLW  59
0A466:  BC    A474
....................    { 
....................       count = 0; 
0A468:  CLRF   x3C
....................       COLLECT_RESET_DATA(); 
0A46A:  MOVLB  0
0A46C:  CALL   1B64
....................    }else{ 
0A470:  BRA    A478
0A472:  MOVLB  3
....................       count++; 
0A474:  INCF   x3C,F
0A476:  MOVLB  0
....................    }  
....................    return; 
0A478:  RETURN 0
.................... } 
....................  
.................... void ADCS_TLE_TRANSFER()                                                         //send TLE data to ADCS 
.................... { 
....................  
....................    fprintf(PC,"Turn On ADCS \r\n"); 
*
0A91C:  MOVLW  98
0A91E:  MOVWF  FF6
0A920:  MOVLW  0B
0A922:  MOVWF  FF7
0A924:  MOVLW  00
0A926:  MOVWF  FF8
0A928:  CALL   318C
....................    Turn_On_ADCS();                                                               //Turn on ADCS 
0A92C:  CALL   26EC
....................    /*delay_ms(8000);*/ 
....................    for(int c = 0; c < TLE_size; c++)                                           // Read TLE data from flash and put in TLE[] array 
0A930:  MOVLB  3
0A932:  CLRF   x37
0A934:  MOVF   x37,W
0A936:  SUBLW  4C
0A938:  BNC   A98C
....................       { 
....................          TLE[c]=READ_DATA_BYTE_OF(ADCS_TLE_ADDRESS+c); 
0A93A:  CLRF   03
0A93C:  MOVF   x37,W
0A93E:  ADDLW  74
0A940:  MOVWF  01
0A942:  MOVLW  02
0A944:  ADDWFC 03,F
0A946:  MOVFF  01,339
0A94A:  MOVFF  03,33A
0A94E:  MOVF   x37,W
0A950:  ADDWF  54,W
0A952:  MOVWF  x3B
0A954:  MOVLW  00
0A956:  ADDWFC 55,W
0A958:  MOVWF  x3C
0A95A:  MOVLW  00
0A95C:  ADDWFC 56,W
0A95E:  MOVWF  x3D
0A960:  MOVLW  00
0A962:  ADDWFC 57,W
0A964:  MOVWF  x3E
0A966:  MOVWF  x6C
0A968:  MOVFF  33D,36B
0A96C:  MOVFF  33C,36A
0A970:  MOVFF  33B,369
0A974:  MOVLB  0
0A976:  CALL   135C
0A97A:  MOVFF  33A,FEA
0A97E:  MOVFF  339,FE9
0A982:  MOVFF  01,FEF
0A986:  MOVLB  3
0A988:  INCF   x37,F
0A98A:  BRA    A934
....................       } 
....................     
....................    fputc(0x21,ADCS);                                                             //ADCS hand shake 
0A98C:  MOVLW  21
0A98E:  MOVWF  x49
0A990:  MOVLB  0
0A992:  CALL   46AC
....................  
....................    CHECK_ACK_FROM_ADCS_10k(); 
0A996:  RCALL  A276
....................    if(ADCS_ACK == 0x55)                                                            //Success ACK 
0A998:  MOVF   xE9,W
0A99A:  SUBLW  55
0A99C:  BNZ   A9EC
....................    { 
....................       fprintf(PC,"Received ACK From ADCS\r\n"); 
0A99E:  MOVLW  A8
0A9A0:  MOVWF  FF6
0A9A2:  MOVLW  0B
0A9A4:  MOVWF  FF7
0A9A6:  MOVLW  00
0A9A8:  MOVWF  FF8
0A9AA:  CALL   318C
....................       //delay_ms(1000); 
....................       ADCS_ACK = 0;       
0A9AE:  CLRF   xE9
....................       for(int t = 0; t < TLE_size; t++)                                           // Read TLE data from flash and put in TLE[] array 
0A9B0:  MOVLB  3
0A9B2:  CLRF   x38
0A9B4:  MOVF   x38,W
0A9B6:  SUBLW  4C
0A9B8:  BNC   A9D8
....................       { 
....................          fputc(TLE[t],ADCS); 
0A9BA:  CLRF   03
0A9BC:  MOVF   x38,W
0A9BE:  ADDLW  74
0A9C0:  MOVWF  FE9
0A9C2:  MOVLW  02
0A9C4:  ADDWFC 03,W
0A9C6:  MOVWF  FEA
0A9C8:  MOVFF  FEF,349
0A9CC:  MOVLB  0
0A9CE:  CALL   46AC
0A9D2:  MOVLB  3
0A9D4:  INCF   x38,F
0A9D6:  BRA    A9B4
....................       } 
....................       fprintf(PC,"Sent TLE data to ADCS\r\n"); 
0A9D8:  MOVLW  C2
0A9DA:  MOVWF  FF6
0A9DC:  MOVLW  0B
0A9DE:  MOVWF  FF7
0A9E0:  MOVLW  00
0A9E2:  MOVWF  FF8
0A9E4:  MOVLB  0
0A9E6:  CALL   318C
....................    }else{ 
0A9EA:  BRA    A9FE
....................       ADCS_ACK = 0; 
0A9EC:  CLRF   xE9
....................       fprintf(PC,"FAILURED GETTING ACK From ADCS\r\n"); 
0A9EE:  MOVLW  DA
0A9F0:  MOVWF  FF6
0A9F2:  MOVLW  0B
0A9F4:  MOVWF  FF7
0A9F6:  MOVLW  00
0A9F8:  MOVWF  FF8
0A9FA:  CALL   318C
....................    } 
....................    CMD_FROM_PC[0] = 0;                                                           //prepare to get MAIN command 
0A9FE:  CLRF   x7E
....................    PC_DATA = 0;                                                                  //prepare to get MAIN command 
0AA00:  CLRF   x99
....................    return; 
0AA02:  RETURN 0
.................... } 
....................  
....................  
.................... //--------HIGH SAMPLING HK collection------------------------------------------ 
....................  
.................... void CHECK_HIGH_SAMP_FABDATA(int8 in)                                            //FAB sensor data collect 
.................... { 
....................    fprintf(PC,"\r\nFAB DATA OBTAINED\r\n"); 
*
07222:  MOVLW  FC
07224:  MOVWF  FF6
07226:  MOVLW  0B
07228:  MOVWF  FF7
0722A:  MOVLW  00
0722C:  MOVWF  FF8
0722E:  CALL   318C
....................    Delete_HKDATA(); 
07232:  CALL   434E
....................    for(int num = 1; num < 11; num++)                                             //Collect HK DATA 
07236:  MOVLW  01
07238:  MOVLB  3
0723A:  MOVWF  x44
0723C:  MOVF   x44,W
0723E:  SUBLW  0A
07240:  BNC   72A4
....................    { 
....................       HKDATA[num + 5+4] = in_HK[num + 2 - in]; 
07242:  MOVLW  05
07244:  ADDWF  x44,W
07246:  ADDLW  04
07248:  CLRF   03
0724A:  ADDLW  D8
0724C:  MOVWF  01
0724E:  MOVLW  01
07250:  ADDWFC 03,F
07252:  MOVFF  03,346
07256:  MOVLW  02
07258:  ADDWF  x44,W
0725A:  BSF    FD8.0
0725C:  SUBFWB x43,W
0725E:  CLRF   03
07260:  ADDLW  AB
07262:  MOVWF  FE9
07264:  MOVLW  01
07266:  ADDWFC 03,W
07268:  MOVWF  FEA
0726A:  MOVFF  FEF,347
0726E:  MOVFF  346,FEA
07272:  MOVFF  01,FE9
07276:  MOVFF  347,FEF
....................       fprintf(PC, "%x,", HKDATA[num]); 
0727A:  CLRF   03
0727C:  MOVF   x44,W
0727E:  ADDLW  D8
07280:  MOVWF  FE9
07282:  MOVLW  01
07284:  ADDWFC 03,W
07286:  MOVWF  FEA
07288:  MOVFF  FEF,363
0728C:  MOVLW  57
0728E:  MOVWF  x64
07290:  MOVLB  0
07292:  CALL   17E0
07296:  MOVLW  2C
07298:  BTFSS  F9E.4
0729A:  BRA    7298
0729C:  MOVWF  FAD
0729E:  MOVLB  3
072A0:  INCF   x44,F
072A2:  BRA    723C
....................    } 
....................    MEASURE_BC_TEMP(); 
072A4:  MOVLB  0
072A6:  CALL   4370
....................    HKDATA[18] = BC_temp_data_h;                                                  //-X Panel Temp 
072AA:  MOVFF  192,1EA
....................    HKDATA[19] = BC_temp_data_l;                                                  //-X Panel Temp 
072AE:  MOVFF  194,1EB
....................    for(num = 9; num < FAB_SENSOR_size - 2; num++)                                //[FAB] from CPLD temp to Kill status(array[20] to [49]) 
072B2:  MOVLW  09
072B4:  MOVLB  3
072B6:  MOVWF  x44
072B8:  MOVF   x44,W
072BA:  SUBLW  2A
072BC:  BNC   7324
....................    { 
....................       HKDATA[num + 7+4] = in_HK[num + 2 - in]; 
072BE:  MOVLW  07
072C0:  ADDWF  x44,W
072C2:  ADDLW  04
072C4:  CLRF   03
072C6:  ADDLW  D8
072C8:  MOVWF  01
072CA:  MOVLW  01
072CC:  ADDWFC 03,F
072CE:  MOVFF  03,346
072D2:  MOVLW  02
072D4:  ADDWF  x44,W
072D6:  BSF    FD8.0
072D8:  SUBFWB x43,W
072DA:  CLRF   03
072DC:  ADDLW  AB
072DE:  MOVWF  FE9
072E0:  MOVLW  01
072E2:  ADDWFC 03,W
072E4:  MOVWF  FEA
072E6:  MOVFF  FEF,347
072EA:  MOVFF  346,FEA
072EE:  MOVFF  01,FE9
072F2:  MOVFF  347,FEF
....................       fprintf(PC, "%x,", HKDATA[num + 7+4]); 
072F6:  MOVLW  07
072F8:  ADDWF  x44,W
072FA:  ADDLW  04
072FC:  CLRF   03
072FE:  ADDLW  D8
07300:  MOVWF  FE9
07302:  MOVLW  01
07304:  ADDWFC 03,W
07306:  MOVWF  FEA
07308:  MOVFF  FEF,363
0730C:  MOVLW  57
0730E:  MOVWF  x64
07310:  MOVLB  0
07312:  CALL   17E0
07316:  MOVLW  2C
07318:  BTFSS  F9E.4
0731A:  BRA    7318
0731C:  MOVWF  FAD
0731E:  MOVLB  3
07320:  INCF   x44,F
07322:  BRA    72B8
....................    } 
....................    FAB_DATA = 0; 
07324:  MOVLB  2
07326:  CLRF   x6C
07328:  MOVLB  0
0732A:  RETURN 0
.................... } 
....................  
.................... void VERIFY_HIGH_SAMP_FABDATA(int32 delaytime) 
.................... { 
....................    for(int8 num = 0; num < 3; num++) 
0732C:  MOVLB  3
0732E:  CLRF   x42
07330:  MOVF   x42,W
07332:  SUBLW  02
07334:  BNC   73AE
....................    { 
....................       COMMAND_TO_FAB(delaytime); 
07336:  MOVFF  341,34A
0733A:  MOVFF  340,349
0733E:  MOVFF  33F,348
07342:  MOVFF  33E,347
07346:  MOVLB  0
07348:  CALL   42E0
....................       //FAB_DATA = 0; 
....................       //waiting(1000); 
....................       if(in_HK[0] == 0x33)                                                       //gather sensor data by interrupt 
0734C:  MOVLB  1
0734E:  MOVF   xAB,W
07350:  SUBLW  33
07352:  BNZ   736C
....................       { 
....................          CHECK_HIGH_SAMP_FABDATA(2); 
07354:  MOVLW  02
07356:  MOVLB  3
07358:  MOVWF  x43
0735A:  MOVLB  0
0735C:  RCALL  7222
....................          CHECK_FAB_RESPONSE = 1;                                                 //1 is succeeded to get response from FAB 
0735E:  MOVLW  01
07360:  MOVLB  2
07362:  MOVWF  x73
....................          break; 
07364:  MOVLB  3
07366:  BRA    73AE
....................       }else if(in_HK[1] == 0x33){ 
07368:  BRA    73A2
0736A:  MOVLB  1
0736C:  MOVF   xAC,W
0736E:  SUBLW  33
07370:  BNZ   738A
....................          //delay_ms(200); 
....................          CHECK_HIGH_SAMP_FABDATA(1); 
07372:  MOVLW  01
07374:  MOVLB  3
07376:  MOVWF  x43
07378:  MOVLB  0
0737A:  RCALL  7222
....................          CHECK_FAB_RESPONSE = 1;                                                 //1 is succeeded to get response from FAB 
0737C:  MOVLW  01
0737E:  MOVLB  2
07380:  MOVWF  x73
....................          break; 
07382:  MOVLB  3
07384:  BRA    73AE
....................       }else if(in_HK[2] == 0x33){ 
07386:  BRA    73A2
07388:  MOVLB  1
0738A:  MOVF   xAD,W
0738C:  SUBLW  33
0738E:  BNZ   73A4
....................          //delay_ms(200); 
....................          CHECK_HIGH_SAMP_FABDATA(0); 
07390:  MOVLB  3
07392:  CLRF   x43
07394:  MOVLB  0
07396:  RCALL  7222
....................          CHECK_FAB_RESPONSE = 1;                                                 //1 is succeeded to get response from FAB 
07398:  MOVLW  01
0739A:  MOVLB  2
0739C:  MOVWF  x73
....................          break; 
0739E:  MOVLB  3
073A0:  BRA    73AE
073A2:  MOVLB  1
....................       } 
....................       FAB_DATA = 0; 
073A4:  MOVLB  2
073A6:  CLRF   x6C
073A8:  MOVLB  3
073AA:  INCF   x42,F
073AC:  BRA    7330
....................    } 
....................    return; 
073AE:  MOVLB  0
073B0:  GOTO   7648 (RETURN)
.................... } 
....................  
....................  
....................  
.................... void GET_HIGH_SAMP_RESET_DATA() 
.................... { 
....................    RESET_DATA = 0; 
073B4:  CLRF   xEB
....................    COLLECT_RESET_DATA(); 
073B6:  CALL   1B64
....................    if(RESET_bffr[0] == 0x8e) 
073BA:  MOVF   xEC,W
073BC:  SUBLW  8E
073BE:  BNZ   748E
....................    { 
....................       fprintf(PC,"GET RESET\r\n"); 
073C0:  MOVLW  12
073C2:  MOVWF  FF6
073C4:  MOVLW  0C
073C6:  MOVWF  FF7
073C8:  MOVLW  00
073CA:  MOVWF  FF8
073CC:  CALL   318C
....................       for(int num = 0; num < 5; num++)                                           //timedata 
073D0:  MOVLB  3
073D2:  CLRF   x3E
073D4:  MOVF   x3E,W
073D6:  SUBLW  04
073D8:  BNC   742E
....................       { 
....................          HKDATA[num + 2] = reset_bffr[num + 1]; 
073DA:  MOVLW  02
073DC:  ADDWF  x3E,W
073DE:  CLRF   03
073E0:  ADDLW  D8
073E2:  MOVWF  01
073E4:  MOVLW  01
073E6:  ADDWFC 03,F
073E8:  MOVFF  03,340
073EC:  MOVLW  01
073EE:  ADDWF  x3E,W
073F0:  CLRF   03
073F2:  ADDLW  EC
073F4:  MOVWF  FE9
073F6:  MOVLW  00
073F8:  ADDWFC 03,W
073FA:  MOVWF  FEA
073FC:  MOVFF  FEF,341
07400:  MOVFF  340,FEA
07404:  MOVFF  01,FE9
07408:  MOVFF  341,FEF
....................          fputc(HKDATA[num + 2],PC); 
0740C:  MOVLW  02
0740E:  ADDWF  x3E,W
07410:  CLRF   03
07412:  ADDLW  D8
07414:  MOVWF  FE9
07416:  MOVLW  01
07418:  ADDWFC 03,W
0741A:  MOVWF  FEA
0741C:  MOVFF  FEF,33F
07420:  MOVF   x3F,W
07422:  MOVLB  0
07424:  CALL   5376
07428:  MOVLB  3
0742A:  INCF   x3E,F
0742C:  BRA    73D4
....................       } 
....................     
....................       for(num = 0; num < 5; num++)                                               //reset sensor data 
0742E:  CLRF   x3E
07430:  MOVF   x3E,W
07432:  SUBLW  04
07434:  BNC   748A
....................       { 
....................          HKDATA[num + 116] = reset_bffr[num + 6];                                //HKDATA[116] = reset[6] 
07436:  MOVLW  74
07438:  ADDWF  x3E,W
0743A:  CLRF   03
0743C:  ADDLW  D8
0743E:  MOVWF  01
07440:  MOVLW  01
07442:  ADDWFC 03,F
07444:  MOVFF  03,340
07448:  MOVLW  06
0744A:  ADDWF  x3E,W
0744C:  CLRF   03
0744E:  ADDLW  EC
07450:  MOVWF  FE9
07452:  MOVLW  00
07454:  ADDWFC 03,W
07456:  MOVWF  FEA
07458:  MOVFF  FEF,341
0745C:  MOVFF  340,FEA
07460:  MOVFF  01,FE9
07464:  MOVFF  341,FEF
....................          fputc(HKDATA[num + 116],PC); 
07468:  MOVLW  74
0746A:  ADDWF  x3E,W
0746C:  CLRF   03
0746E:  ADDLW  D8
07470:  MOVWF  FE9
07472:  MOVLW  01
07474:  ADDWFC 03,W
07476:  MOVWF  FEA
07478:  MOVFF  FEF,33F
0747C:  MOVF   x3F,W
0747E:  MOVLB  0
07480:  CALL   5376
07484:  MOVLB  3
07486:  INCF   x3E,F
07488:  BRA    7430
....................       } 
....................    }else{ 
0748A:  BRA    74A0
0748C:  MOVLB  0
....................       fprintf(PC,"NO RESET\r\n"); 
0748E:  MOVLW  1E
07490:  MOVWF  FF6
07492:  MOVLW  0C
07494:  MOVWF  FF7
07496:  MOVLW  00
07498:  MOVWF  FF8
0749A:  CALL   318C
0749E:  MOVLB  3
....................    } 
074A0:  MOVLB  0
074A2:  GOTO   764A (RETURN)
....................    //Delete_Reset(); 
.................... } 
....................  
.................... void MAKE_HIGH_SAMP_ADCS_FORMAT() 
.................... { 
....................    GET_ADCS_SENSOR_DATA(); 
074A6:  CALL   473C
....................    for(int num = 53; num < 113; num++)                                           //12byte+48byte = 60 byte 
074AA:  MOVLW  35
074AC:  MOVLB  3
074AE:  MOVWF  x3E
074B0:  MOVF   x3E,W
074B2:  SUBLW  70
074B4:  BNC   74EA
....................    { 
....................       HKDATA[num] = ADCS_SENSOR_DATA[num - 52];                                  //ADCS[1] to ADCS[60] 
074B6:  CLRF   03
074B8:  MOVF   x3E,W
074BA:  ADDLW  D8
074BC:  MOVWF  01
074BE:  MOVLW  01
074C0:  ADDWFC 03,F
074C2:  MOVFF  03,340
074C6:  MOVLW  34
074C8:  SUBWF  x3E,W
074CA:  CLRF   03
074CC:  ADDLW  9B
074CE:  MOVWF  FE9
074D0:  MOVLW  00
074D2:  ADDWFC 03,W
074D4:  MOVWF  FEA
074D6:  MOVFF  FEF,341
074DA:  MOVFF  340,FEA
074DE:  MOVFF  01,FE9
074E2:  MOVFF  341,FEF
074E6:  INCF   x3E,F
074E8:  BRA    74B0
....................    } 
.................... //!   for(num = 65; num < 107; num++) 
.................... //!   { 
.................... //!      HKDATA[num] = ADCS_SENSOR_DATA[num - 34];//HKDATA[54] = ADCS_SENSOR_DATA[21] 
.................... //!   } 
....................    return; 
074EA:  MOVLB  0
074EC:  GOTO   764C (RETURN)
.................... } 
.................... /* 
.................... void MAKE_HIGH_SAMPLING_FORMAT() 
.................... { 
....................    CHECK_50_and_CW_RESPOND(); 
....................    if(in_HK[0] == 0x33)//gather sensor data by interrupt 
....................    { 
....................       CHECK_HIGH_SAMP_FABDATA(2); 
....................       CHECK_FAB_RESPONSE = 1; //1 is succeeded to get response from FAB 
....................    }else if(in_HK[1] == 0x33){ 
....................       CHECK_HIGH_SAMP_FABDATA(1); 
....................       CHECK_FAB_RESPONSE = 1; //1 is succeeded to get response from FAB 
....................    }else if(in_HK[2] == 0x33){; 
....................       CHECK_HIGH_SAMP_FABDATA(0); 
....................       CHECK_FAB_RESPONSE = 1; //1 is succeeded to get response from FAB 
....................    } 
....................  
....................    CHECK_50_and_CW_RESPOND(); 
....................    if(RESET_bffr[0] == 0x8e) 
....................    { 
....................       for(int num = 0; num < 5; num++)//timedata 
....................       { 
....................          HKDATA[num] = reset_bffr[num + 1]; 
....................          //fputc(HKDATA[num],PC); 
....................       } 
....................     
....................       for(num = 0; num < 5; num++)//reset sensor data 
....................       { 
....................          HKDATA[num + 91] = reset_bffr[num + 6]; 
....................          //fputc(HKDATA[num + 91],PC); 
....................       } 
....................    } 
....................     
....................    CHECK_50_and_CW_RESPOND(); 
....................    for(int num = 0; num < 12; num++)//put into sensor array 
....................    { 
....................       HKDATA[num + 38] = ADCS_SENSOR_DATA[num]; 
....................    } 
....................    for(num = 0; num < 41; num++)//put into sensor array 
....................    { 
....................       HKDATA[num + 50] = ADCS_SENSOR_DATA[num + 21]; 
....................    } 
....................    return; 
.................... } 
.................... */ 
.................... void SAVE_HIGH_SAMP_DATA_TO_EACH_MEMORY() 
.................... { 
....................    output_low(PIN_C4); 
*
07102:  BCF    F94.4
07104:  BCF    F8B.4
....................    CHECK_50_and_CW_RESPOND(); 
07106:  CALL   42BC
....................    for(int i = 0; i < HIGH_SAMP_HK_size; i++) 
0710A:  MOVLB  3
0710C:  CLRF   x3E
0710E:  MOVF   x3E,W
07110:  SUBLW  7B
07112:  BNC   715A
....................    { 
....................       WRITE_DATA_BYTE_SCF(HIGH_SAMP_HK_ADDRESS + i,HKDATA[i]); 
07114:  MOVF   x3E,W
07116:  ADDWF  5C,W
07118:  MOVWF  x3F
0711A:  MOVLW  00
0711C:  ADDWFC 5D,W
0711E:  MOVWF  x40
07120:  MOVLW  00
07122:  ADDWFC 5E,W
07124:  MOVWF  x41
07126:  MOVLW  00
07128:  ADDWFC 5F,W
0712A:  MOVWF  x42
0712C:  CLRF   03
0712E:  MOVF   x3E,W
07130:  ADDLW  D8
07132:  MOVWF  FE9
07134:  MOVLW  01
07136:  ADDWFC 03,W
07138:  MOVWF  FEA
0713A:  MOVFF  FEF,367
0713E:  MOVFF  342,366
07142:  MOVFF  341,365
07146:  MOVFF  340,364
0714A:  MOVFF  33F,363
0714E:  MOVLB  0
07150:  CALL   16AE
07154:  MOVLB  3
07156:  INCF   x3E,F
07158:  BRA    710E
....................    } 
....................    output_high(PIN_C4);  
0715A:  BCF    F94.4
0715C:  BSF    F8B.4
....................     
....................    CHECK_50_and_CW_RESPOND(); 
0715E:  MOVLB  0
07160:  CALL   42BC
....................    for(i = 0; i < HIGH_SAMP_HK_size; i++) 
07164:  MOVLB  3
07166:  CLRF   x3E
07168:  MOVF   x3E,W
0716A:  SUBLW  7B
0716C:  BNC   71B4
....................    { 
....................       WRITE_DATA_BYTE_OF(HIGH_SAMP_HK_ADDRESS + i,HKDATA[i]); 
0716E:  MOVF   x3E,W
07170:  ADDWF  5C,W
07172:  MOVWF  x3F
07174:  MOVLW  00
07176:  ADDWFC 5D,W
07178:  MOVWF  x40
0717A:  MOVLW  00
0717C:  ADDWFC 5E,W
0717E:  MOVWF  x41
07180:  MOVLW  00
07182:  ADDWFC 5F,W
07184:  MOVWF  x42
07186:  CLRF   03
07188:  MOVF   x3E,W
0718A:  ADDLW  D8
0718C:  MOVWF  FE9
0718E:  MOVLW  01
07190:  ADDWFC 03,W
07192:  MOVWF  FEA
07194:  MOVFF  FEF,367
07198:  MOVFF  342,366
0719C:  MOVFF  341,365
071A0:  MOVFF  340,364
071A4:  MOVFF  33F,363
071A8:  MOVLB  0
071AA:  CALL   1622
071AE:  MOVLB  3
071B0:  INCF   x3E,F
071B2:  BRA    7168
....................    } 
....................     
....................    CHECK_50_and_CW_RESPOND(); 
071B4:  MOVLB  0
071B6:  CALL   42BC
....................    output_low(PIN_A5); 
071BA:  BCF    F92.5
071BC:  BCF    F89.5
....................    for(i = 0; i < HIGH_SAMP_HK_size; i++) 
071BE:  MOVLB  3
071C0:  CLRF   x3E
071C2:  MOVF   x3E,W
071C4:  SUBLW  7B
071C6:  BNC   720E
....................    { 
....................       WRITE_DATA_BYTE_SMF(HIGH_SAMP_HK_ADDRESS + i,HKDATA[i]); 
071C8:  MOVF   x3E,W
071CA:  ADDWF  5C,W
071CC:  MOVWF  x3F
071CE:  MOVLW  00
071D0:  ADDWFC 5D,W
071D2:  MOVWF  x40
071D4:  MOVLW  00
071D6:  ADDWFC 5E,W
071D8:  MOVWF  x41
071DA:  MOVLW  00
071DC:  ADDWFC 5F,W
071DE:  MOVWF  x42
071E0:  CLRF   03
071E2:  MOVF   x3E,W
071E4:  ADDLW  D8
071E6:  MOVWF  FE9
071E8:  MOVLW  01
071EA:  ADDWFC 03,W
071EC:  MOVWF  FEA
071EE:  MOVFF  FEF,367
071F2:  MOVFF  342,366
071F6:  MOVFF  341,365
071FA:  MOVFF  340,364
071FE:  MOVFF  33F,363
07202:  MOVLB  0
07204:  CALL   173A
07208:  MOVLB  3
0720A:  INCF   x3E,F
0720C:  BRA    71C2
....................    }   
....................     
....................    CHECK_50_and_CW_RESPOND(); 
0720E:  MOVLB  0
07210:  CALL   42BC
....................    HIGH_SAMP_HK_ADDRESS = HIGH_SAMP_HK_ADDRESS + HIGH_SAMP_HK_size;              //prepare for next storing address 
07214:  MOVLW  7C
07216:  ADDWF  5C,F
07218:  MOVLW  00
0721A:  ADDWFC 5D,F
0721C:  ADDWFC 5E,F
0721E:  ADDWFC 5F,F
....................     
....................    return; 
07220:  RETURN 0
.................... } 
....................  
.................... void HIGH_SAMP_FAB_OPERATION() 
.................... { 
....................    Turn_ON_ADCS(); 
*
074F0:  CALL   26EC
....................    CHECK_50_and_CW_RESPOND(); 
074F4:  CALL   42BC
....................    HIGH_SAMP_FAB_MEASUERING_FLAG++;                                              //count until 90(it means 10 min) 
074F8:  MOVLB  2
074FA:  INCF   x6E,F
....................    //disable_interrupts(INT_rda2); 
....................    if(HIGH_SAMP_FAB_MEASUERING_FLAG > 17)                                        //HIGH_SAMP_FAB_MEASUERING_FLAG=18 --> 18*5 = 90 (sec) 
074FC:  MOVF   x6E,W
074FE:  SUBLW  11
07500:  BTFSC  FD8.0
07502:  BRA    762C
....................       { 
....................           
....................          CHECK_50_and_CW_RESPOND(); 
07504:  MOVLB  0
07506:  CALL   42BC
....................           
....................          fprintf(PC,"\r\n\90sec\r\n"); 
0750A:  MOVLW  2A
0750C:  MOVWF  FF6
0750E:  MOVLW  0C
07510:  MOVWF  FF7
07512:  MOVLW  00
07514:  MOVWF  FF8
07516:  CALL   318C
....................          Delete_in_HK();                                                         //delet HK array 
0751A:  CALL   3C4E
....................          VERIFY_FABDATA(10000,10);                                               //envia comando al FAB y Carga el array in_HK[] con los datos del FAB 
0751E:  MOVLB  3
07520:  CLRF   x41
07522:  CLRF   x40
07524:  MOVLW  27
07526:  MOVWF  x3F
07528:  MOVLW  10
0752A:  MOVWF  x3E
0752C:  CLRF   x45
0752E:  CLRF   x44
07530:  CLRF   x43
07532:  MOVLW  0A
07534:  MOVWF  x42
07536:  MOVLB  0
07538:  CALL   44CE
....................          GET_RESET_DATA();                                                       //funcion que carga el array HKDATA con los datos del Reset PIC 
0753C:  CALL   4586
....................          MAKE_ADCS_HKDATA();                                                     //carga en el array HKDATA[] los datos del ADCS en las posiciones 53 al 106 
07540:  CALL   4838
....................          SET_IDENTIFIER(); 
07544:  CALL   50A4
....................          MAKE_CW_FORMAT(); 
07548:  CALL   5098
....................          output_low(PIN_C4); 
0754C:  BCF    F94.4
0754E:  BCF    F8B.4
....................          output_low(PIN_A5); 
07550:  BCF    F92.5
07552:  BCF    F89.5
....................           
....................          SEND_HKDATA_to_SCF(FAB_HK_ADDRESS);                                     //save HK in COM flash memory 
07554:  MOVFF  4B,341
07558:  MOVFF  4A,340
0755C:  MOVFF  49,33F
07560:  MOVFF  48,33E
07564:  CALL   5188
....................          SEND_HKDATA_to_SMF(FAB_HK_ADDRESS);                                     //save HK in Mission flash memory 
07568:  MOVFF  4B,341
0756C:  MOVFF  4A,340
07570:  MOVFF  49,33F
07574:  MOVFF  48,33E
07578:  CALL   51FA
....................          SEND_HKDATA_to_OF(FAB_HK_ADDRESS);                                      //save HK in OBC flash memory 
0757C:  MOVFF  4B,341
07580:  MOVFF  4A,340
07584:  MOVFF  49,33F
07588:  MOVFF  48,33E
0758C:  CALL   5268
....................          SEND_CWFORMAT_TO_SCF(FAB_CW_ADDRESS); 
07590:  MOVFF  4F,341
07594:  MOVFF  4E,340
07598:  MOVFF  4D,33F
0759C:  MOVFF  4C,33E
075A0:  CALL   52DC
....................          SEND_CWFORMAT_TO_SMF(FAB_CW_ADDRESS); 
075A4:  MOVFF  4F,341
075A8:  MOVFF  4E,340
075AC:  MOVFF  4D,33F
075B0:  MOVFF  4C,33E
075B4:  CALL   534E
....................          SEND_CWFORMAT_TO_OF(FAB_CW_ADDRESS); 
075B8:  MOVFF  4F,341
075BC:  MOVFF  4E,340
075C0:  MOVFF  4D,33F
075C4:  MOVFF  4C,33E
075C8:  CALL   53F2
....................           
....................          CHECK_50_and_CW_RESPOND(); 
075CC:  CALL   42BC
....................          FAB_HK_ADDRESS = FAB_HK_ADDRESS + HK_size;                              //prepare for next storing address 
075D0:  MOVLW  7C
075D2:  ADDWF  48,F
075D4:  MOVLW  00
075D6:  ADDWFC 49,F
075D8:  ADDWFC 4A,F
075DA:  ADDWFC 4B,F
....................          FAB_CW_ADDRESS = FAB_CW_ADDRESS + CW_size;                              //prepare for next storing address 
075DC:  MOVLW  05
075DE:  ADDWF  4C,F
075E0:  MOVLW  00
075E2:  ADDWFC 4D,F
075E4:  ADDWFC 4E,F
075E6:  ADDWFC 4F,F
....................           
....................          SAVE_HIGH_SAMP_DATA_TO_EACH_MEMORY(); 
075E8:  RCALL  7102
....................           
....................          CHECK_50_and_CW_RESPOND(); 
075EA:  CALL   42BC
....................           
....................          fprintf(PC,"\r\nCOUNT:%d\r\n",HIGH_SAMP_FAB_MEASUERING_FLAG); 
075EE:  MOVLW  34
075F0:  MOVWF  FF6
075F2:  MOVLW  0C
075F4:  MOVWF  FF7
075F6:  MOVLW  00
075F8:  MOVWF  FF8
075FA:  MOVLW  08
075FC:  MOVLB  3
075FE:  MOVWF  x62
07600:  MOVLB  0
07602:  CALL   17AE
07606:  MOVFF  26E,33E
0760A:  MOVLW  18
0760C:  MOVLB  3
0760E:  MOVWF  x3F
07610:  MOVLB  0
07612:  CALL   6A2E
07616:  MOVLW  0D
07618:  BTFSS  F9E.4
0761A:  BRA    7618
0761C:  MOVWF  FAD
0761E:  MOVLW  0A
07620:  BTFSS  F9E.4
07622:  BRA    7620
07624:  MOVWF  FAD
....................          HIGH_SAMP_FAB_MEASUERING_FLAG = 0; 
07626:  MOVLB  2
07628:  CLRF   x6E
....................           
....................       }else{ 
0762A:  BRA    7758
....................          Delete_in_HK();                                                         //delet HK array 
0762C:  MOVLB  0
0762E:  CALL   3C4E
....................          GET_RESET_DATA();                                                       //funcion que carga el array HKDATA con los datos del Reset PIC 
07632:  CALL   4586
....................          VERIFY_HIGH_SAMP_FABDATA(10000);                                        //get FAB data    
07636:  MOVLB  3
07638:  CLRF   x41
0763A:  CLRF   x40
0763C:  MOVLW  27
0763E:  MOVWF  x3F
07640:  MOVLW  10
07642:  MOVWF  x3E
07644:  MOVLB  0
07646:  BRA    732C
....................          GET_HIGH_SAMP_RESET_DATA();                                             //get reset data 
07648:  BRA    73B4
....................          MAKE_HIGH_SAMP_ADCS_FORMAT();                                           //get ADCS data 
0764A:  BRA    74A6
....................          SET_IDENTIFIER(); 
0764C:  CALL   50A4
....................          //MAKE_CW_FORMAT(); 
....................                
....................          fprintf(PC,"\r\n"); 
07650:  MOVLW  0D
07652:  BTFSS  F9E.4
07654:  BRA    7652
07656:  MOVWF  FAD
07658:  MOVLW  0A
0765A:  BTFSS  F9E.4
0765C:  BRA    765A
0765E:  MOVWF  FAD
....................          for(int num = 0; num < 65; num++)                                       //array[0] to [64](until gyro data) 
07660:  MOVLB  3
07662:  CLRF   x3D
07664:  MOVF   x3D,W
07666:  SUBLW  40
07668:  BNC   7694
....................          { 
....................             fprintf(PC,"%x,",HKDATA[num]); 
0766A:  CLRF   03
0766C:  MOVF   x3D,W
0766E:  ADDLW  D8
07670:  MOVWF  FE9
07672:  MOVLW  01
07674:  ADDWFC 03,W
07676:  MOVWF  FEA
07678:  MOVFF  FEF,363
0767C:  MOVLW  57
0767E:  MOVWF  x64
07680:  MOVLB  0
07682:  CALL   17E0
07686:  MOVLW  2C
07688:  BTFSS  F9E.4
0768A:  BRA    7688
0768C:  MOVWF  FAD
0768E:  MOVLB  3
07690:  INCF   x3D,F
07692:  BRA    7664
....................          } 
....................          CHECK_50_and_CW_RESPOND(); 
07694:  MOVLB  0
07696:  CALL   42BC
....................          for(num = 65; num < 113; num++) 
0769A:  MOVLW  41
0769C:  MOVLB  3
0769E:  MOVWF  x3D
076A0:  MOVF   x3D,W
076A2:  SUBLW  70
076A4:  BNC   76D0
....................          { 
....................           //fputc(HKDATA[num],PC); 
....................             fprintf(PC,"%x,",HKDATA[num]); 
076A6:  CLRF   03
076A8:  MOVF   x3D,W
076AA:  ADDLW  D8
076AC:  MOVWF  FE9
076AE:  MOVLW  01
076B0:  ADDWFC 03,W
076B2:  MOVWF  FEA
076B4:  MOVFF  FEF,363
076B8:  MOVLW  57
076BA:  MOVWF  x64
076BC:  MOVLB  0
076BE:  CALL   17E0
076C2:  MOVLW  2C
076C4:  BTFSS  F9E.4
076C6:  BRA    76C4
076C8:  MOVWF  FAD
076CA:  MOVLB  3
076CC:  INCF   x3D,F
076CE:  BRA    76A0
....................          } 
....................          CHECK_50_and_CW_RESPOND(); 
076D0:  MOVLB  0
076D2:  CALL   42BC
....................          for(num = 113; num < HK_Size; num++) 
076D6:  MOVLW  71
076D8:  MOVLB  3
076DA:  MOVWF  x3D
076DC:  MOVF   x3D,W
076DE:  SUBLW  7B
076E0:  BNC   7710
....................          { 
....................             fprintf(PC,",%x",HKDATA[num]); 
076E2:  CLRF   03
076E4:  MOVF   x3D,W
076E6:  ADDLW  D8
076E8:  MOVWF  FE9
076EA:  MOVLW  01
076EC:  ADDWFC 03,W
076EE:  MOVWF  FEA
076F0:  MOVFF  FEF,33E
076F4:  MOVLW  2C
076F6:  BTFSS  F9E.4
076F8:  BRA    76F6
076FA:  MOVWF  FAD
076FC:  MOVFF  33E,363
07700:  MOVLW  57
07702:  MOVWF  x64
07704:  MOVLB  0
07706:  CALL   17E0
0770A:  MOVLB  3
0770C:  INCF   x3D,F
0770E:  BRA    76DC
....................          }  
....................          CHECK_50_and_CW_RESPOND(); 
07710:  MOVLB  0
07712:  CALL   42BC
....................           
....................          fprintf(PC,"\r\nCOUNT:%d\r\n",HIGH_SAMP_FAB_MEASUERING_FLAG); 
07716:  MOVLW  42
07718:  MOVWF  FF6
0771A:  MOVLW  0C
0771C:  MOVWF  FF7
0771E:  MOVLW  00
07720:  MOVWF  FF8
07722:  MOVLW  08
07724:  MOVLB  3
07726:  MOVWF  x62
07728:  MOVLB  0
0772A:  CALL   17AE
0772E:  MOVFF  26E,33E
07732:  MOVLW  18
07734:  MOVLB  3
07736:  MOVWF  x3F
07738:  MOVLB  0
0773A:  CALL   6A2E
0773E:  MOVLW  0D
07740:  BTFSS  F9E.4
07742:  BRA    7740
07744:  MOVWF  FAD
07746:  MOVLW  0A
07748:  BTFSS  F9E.4
0774A:  BRA    7748
0774C:  MOVWF  FAD
....................          CHECK_FAB_RESPONSE = 0; 
0774E:  MOVLB  2
07750:  CLRF   x73
....................          SAVE_HIGH_SAMP_DATA_TO_EACH_MEMORY(); 
07752:  MOVLB  0
07754:  RCALL  7102
07756:  MOVLB  2
....................       }     
....................       //Delete_in_HK(); 
....................  
....................    FAB_DATA = 0; 
07758:  CLRF   x6C
....................    output_high(PIN_C4); 
0775A:  BCF    F94.4
0775C:  BSF    F8B.4
....................  
....................    return; 
0775E:  MOVLB  0
07760:  GOTO   7CA0 (RETURN)
.................... } 
....................  
....................  
.................... //--------CAM MISSION---------------------------------------------------------- 
.................... //#define STORE_TO_SING AA 
.................... ////////////////////////////////////////////////// 
.................... //CAM MISSION ID: 0x54                          // 
.................... //CAM ACK: 0x61                                 // 
.................... //CAM Finish Storing: 0x62                      // 
.................... ////////////////////////////////////////////////// 
....................  
.................... int8 CAM_ACK = 0; 
....................  
....................  
.................... void Turn_On_CAM() 
.................... { 
....................    output_high(PIN_D7); 
*
06808:  BCF    F95.7
0680A:  BSF    F8C.7
....................    return; 
0680C:  GOTO   6854 (RETURN)
.................... } 
....................  
.................... void Turn_Off_CAM() 
.................... { 
....................    output_low(PIN_D7); 
*
026E6:  BCF    F95.7
026E8:  BCF    F8C.7
....................    return; 
026EA:  RETURN 0
.................... } 
....................  
.................... void Send_Command_to_CAM(int8 data)                                              //testing for EM integration 
.................... { 
....................    fputc(data,CAM); 
*
068B8:  MOVFF  338,339
068BC:  RCALL  6872
....................    fprintf(PC,"Command:%x\r\n",data); 
068BE:  MOVLW  50
068C0:  MOVWF  FF6
068C2:  MOVLW  0C
068C4:  MOVWF  FF7
068C6:  MOVLW  00
068C8:  MOVWF  FF8
068CA:  MOVLW  08
068CC:  MOVLB  3
068CE:  MOVWF  x62
068D0:  MOVLB  0
068D2:  CALL   17AE
068D6:  MOVFF  338,363
068DA:  MOVLW  57
068DC:  MOVLB  3
068DE:  MOVWF  x64
068E0:  MOVLB  0
068E2:  CALL   17E0
068E6:  MOVLW  0D
068E8:  BTFSS  F9E.4
068EA:  BRA    68E8
068EC:  MOVWF  FAD
068EE:  MOVLW  0A
068F0:  BTFSS  F9E.4
068F2:  BRA    68F0
068F4:  MOVWF  FAD
....................    return; 
068F6:  RETURN 0
.................... } 
....................  
.................... void CAM_SETTINGS() 
.................... { 
....................    //disable_interrupts(INT_rda);                                                // Main to PC 
....................    fprintf(PC,"CAM Start operation\r\n"); 
*
06810:  MOVLW  5E
06812:  MOVWF  FF6
06814:  MOVLW  0C
06816:  MOVWF  FF7
06818:  MOVLW  00
0681A:  MOVWF  FF8
0681C:  CALL   318C
....................    COM_ONEBYTE_COMMAND = 0; 
06820:  CLRF   x9A
....................    fprintf(PC,"Deleting 1 sector SMF Address 00080000\r\n"); 
06822:  MOVLW  74
06824:  MOVWF  FF6
06826:  MOVLW  0C
06828:  MOVWF  FF7
0682A:  MOVLW  00
0682C:  MOVWF  FF8
0682E:  CALL   318C
....................    REFRESH_SECTOR_SMF(0x00,0x08,0x00,0x00);                                      //clear 1 sector MISSION flash CAM PART 
06832:  MOVLB  3
06834:  CLRF   x48
06836:  MOVLW  08
06838:  MOVWF  x49
0683A:  CLRF   x4A
0683C:  CLRF   x4B
0683E:  MOVLB  0
06840:  RCALL  6752
....................    output_high(PIN_A5);                                                          //turn on MUX (give access to CAM) 
06842:  BCF    F92.5
06844:  BSF    F89.5
....................    delay_ms(100); 
06846:  MOVLW  64
06848:  MOVLB  3
0684A:  MOVWF  x6B
0684C:  MOVLB  0
0684E:  CALL   1AFC
....................    Turn_On_CAM();                                                                //Turn on CAM 
06852:  BRA    6808
....................    fprintf(PC,"Turned On CAM and MUX CAM side\r\n"); 
06854:  MOVLW  9E
06856:  MOVWF  FF6
06858:  MOVLW  0C
0685A:  MOVWF  FF7
0685C:  MOVLW  00
0685E:  MOVWF  FF8
06860:  CALL   318C
....................    delay_ms(10); 
06864:  MOVLW  0A
06866:  MOVLB  3
06868:  MOVWF  x6B
0686A:  MOVLB  0
0686C:  CALL   1AFC
....................    return; 
06870:  RETURN 0
.................... } 
....................  
.................... void CHECK_ACK_FROM_CAM_10k()                                                    //check 10000 times (keep listening about 10 sec) 
.................... { 
....................    for(int32 num = 0; num < 1000000; num++)  
*
06942:  MOVLB  3
06944:  CLRF   x3B
06946:  CLRF   x3A
06948:  CLRF   x39
0694A:  CLRF   x38
0694C:  MOVF   x3B,F
0694E:  BNZ   6988
06950:  MOVF   x3A,W
06952:  SUBLW  0F
06954:  BNC   6988
06956:  BNZ   6966
06958:  MOVF   x39,W
0695A:  SUBLW  42
0695C:  BNC   6988
0695E:  BNZ   6966
06960:  MOVF   x38,W
06962:  SUBLW  3F
06964:  BNC   6988
....................    { 
....................       if(kbhit(CAM))                                                             //kbhit(PC) 
06966:  BTFSC  F86.3
06968:  BRA    6976
....................       { 
....................          CAM_ACK = fgetc(CAM);                                                   //PC    
0696A:  MOVLB  0
0696C:  RCALL  68F8
0696E:  MOVFF  01,2C5
....................          break; 
06972:  MOVLB  3
06974:  BRA    6988
....................       } 
06976:  MOVLW  01
06978:  ADDWF  x38,F
0697A:  BTFSC  FD8.0
0697C:  INCF   x39,F
0697E:  BTFSC  FD8.2
06980:  INCF   x3A,F
06982:  BTFSC  FD8.2
06984:  INCF   x3B,F
06986:  BRA    694C
....................       //delay_ms(1); 
....................    } 
....................    return; 
06988:  MOVLB  0
0698A:  RETURN 0
.................... } 
....................  
.................... void CHECK_ACK_FROM_CAM_30k()                                                    //check 30000 times (keep listening about 30 sec) 
.................... { 
....................    for(int32 num = 0; num < 3000000; num++)  
....................    { 
....................       if(kbhit(CAM))                                                             //kbhit(PC) 
....................       { 
....................          CAM_ACK = fgetc(CAM);                                                   //PC    
....................          break; 
....................       } 
....................       //delay_ms(1); 
....................    } 
....................    return; 
.................... } 
....................  
.................... void CHECK_ACK_FROM_CAM_200k()                                                   //check 200000 times(keep listening about 200 sec) 
.................... { 
....................    for(int32 num = 0; num < 40000000; num++)  
*
069E8:  MOVLB  3
069EA:  CLRF   x3B
069EC:  CLRF   x3A
069EE:  CLRF   x39
069F0:  CLRF   x38
069F2:  MOVF   x3B,W
069F4:  SUBLW  02
069F6:  BNC   6A2A
069F8:  BNZ   6A08
069FA:  MOVF   x3A,W
069FC:  SUBLW  62
069FE:  BNC   6A2A
06A00:  BNZ   6A08
06A02:  MOVF   x39,W
06A04:  SUBLW  59
06A06:  BNC   6A2A
....................    { 
....................       if(kbhit(CAM))                                                             //kbhit(PC) 
06A08:  BTFSC  F86.3
06A0A:  BRA    6A18
....................       { 
....................          CAM_ACK = fgetc(CAM);                                                   //PC 
06A0C:  MOVLB  0
06A0E:  RCALL  68F8
06A10:  MOVFF  01,2C5
....................          break; 
06A14:  MOVLB  3
06A16:  BRA    6A2A
....................       } 
06A18:  MOVLW  01
06A1A:  ADDWF  x38,F
06A1C:  BTFSC  FD8.0
06A1E:  INCF   x39,F
06A20:  BTFSC  FD8.2
06A22:  INCF   x3A,F
06A24:  BTFSC  FD8.2
06A26:  INCF   x3B,F
06A28:  BRA    69F2
....................       //delay_ms(1); 
....................    } 
....................    return; 
06A2A:  MOVLB  0
06A2C:  RETURN 0
.................... } 
.................... /* 
.................... int8 ACK_from_CAM() 
.................... { 
....................    int8 ack; 
....................    ack = fgetc(CAM | PC); 
....................    return ack; 
.................... } 
....................  
.................... void Transfer_Photo() //transfer photo from Shared Mission Flash to Shared COM Flash 
.................... { 
....................    output_low(PIN_A5); 
....................    output_low(PIN_C4); 
....................    TRANSFER_DATA_NBYTE_SMFtoSCF(0,CAM_ADDRESS,65536); //from: sector0, to: sector1, datasize: 64kbyte(this value is for testing) 
....................    CAM_ADDRESS = CAM_ADDRESS + 65536; 
....................    return; 
.................... } 
.................... */ 
.................... void CAM_TEST_OPERATION(int8 mode)                                               //Integration Testing With CAM 
.................... { 
....................    CAM_SETTINGS();                                                               //Turn ON CAM, delete 1 sector SCF address 00080000, MUX CAM side 
*
080F4:  CALL   6810
....................    delay_ms(5000);                                                               //Time is necessary for CAM to be ready 
080F8:  MOVLW  14
080FA:  MOVLB  3
080FC:  MOVWF  x38
080FE:  MOVLW  FA
08100:  MOVWF  x6B
08102:  MOVLB  0
08104:  CALL   1AFC
08108:  MOVLB  3
0810A:  DECFSZ x38,F
0810C:  BRA    80FE
....................  
....................  
....................    fprintf(PC,"Sending hand shake Command to CAM\r\n"); 
0810E:  MOVLW  C0
08110:  MOVWF  FF6
08112:  MOVLW  0C
08114:  MOVWF  FF7
08116:  MOVLW  00
08118:  MOVWF  FF8
0811A:  MOVLB  0
0811C:  CALL   318C
....................    delay_ms(10); 
08120:  MOVLW  0A
08122:  MOVLB  3
08124:  MOVWF  x6B
08126:  MOVLB  0
08128:  CALL   1AFC
....................    Send_Command_to_CAM(0x54);                                                    //CAM MISSION ID 
0812C:  MOVLW  54
0812E:  MOVLB  3
08130:  MOVWF  x38
08132:  MOVLB  0
08134:  CALL   68B8
....................    //fputc(0x54,PC); 
....................    CHECK_ACK_FROM_CAM_10k();                                                     //keep listening about 10 sec 
08138:  CALL   6942
....................     
....................    if(CAM_ACK == 0x61)                                                           //CAM ACK 
0813C:  MOVLB  2
0813E:  MOVF   xC5,W
08140:  SUBLW  61
08142:  BTFSS  FD8.2
08144:  BRA    83E2
....................    { 
....................       CAM_ACK = 0; 
08146:  CLRF   xC5
....................       LOOP_CAM_ADDRESS();                                                        //hace un loop en las posiciones de memoria para almacenar CAM data 
08148:  MOVLB  0
0814A:  CALL   698C
....................       fprintf(PC,"ACK received from CAM\r\n\r\n"); 
0814E:  MOVLW  E4
08150:  MOVWF  FF6
08152:  MOVLW  0C
08154:  MOVWF  FF7
08156:  MOVLW  00
08158:  MOVWF  FF8
0815A:  CALL   318C
....................       //delay_ms(1000); 
....................       fprintf(PC,"Sending CAM MODE data\r\n"); 
0815E:  MOVLW  FE
08160:  MOVWF  FF6
08162:  MOVLW  0C
08164:  MOVWF  FF7
08166:  MOVLW  00
08168:  MOVWF  FF8
0816A:  CALL   318C
....................       fputc(mode,CAM); 
0816E:  MOVFF  337,339
08172:  CALL   6872
....................       CHECK_ACK_FROM_CAM_10k();                                                  //keep listening about 10 sec 
08176:  CALL   6942
....................       if(CAM_ACK == mode) 
0817A:  MOVLB  3
0817C:  MOVF   x37,W
0817E:  MOVLB  2
08180:  SUBWF  xC5,W
08182:  BTFSS  FD8.2
08184:  BRA    83E0
....................       { 
....................             fprintf(PC,"Capturing and saving in SFM...\r\n\r\n"); 
08186:  MOVLW  16
08188:  MOVWF  FF6
0818A:  MOVLW  0D
0818C:  MOVWF  FF7
0818E:  MOVLW  00
08190:  MOVWF  FF8
08192:  MOVLB  0
08194:  CALL   318C
....................           
....................          CHECK_ACK_FROM_CAM_200k();                                              //keep listening about 200 sec 
08198:  CALL   69E8
....................           
....................          if(CAM_ACK == 0x62)                                                     //CAM Finish Storing 
0819C:  MOVLB  2
0819E:  MOVF   xC5,W
081A0:  SUBLW  62
081A2:  BTFSS  FD8.2
081A4:  BRA    83C8
....................          { 
....................             CAM_ACK = 0; 
081A6:  CLRF   xC5
....................             fprintf(PC,"PHOTO SAVING DONE\r\n");    
081A8:  MOVLW  3A
081AA:  MOVWF  FF6
081AC:  MOVLW  0D
081AE:  MOVWF  FF7
081B0:  MOVLW  00
081B2:  MOVWF  FF8
081B4:  MOVLB  0
081B6:  CALL   318C
....................             output_low(PIN_A5);                                                  //Mission Flash MUX Main side 
081BA:  BCF    F92.5
081BC:  BCF    F89.5
....................             delay_ms(10); 
081BE:  MOVLW  0A
081C0:  MOVLB  3
081C2:  MOVWF  x6B
081C4:  MOVLB  0
081C6:  CALL   1AFC
....................             //TRANSFER_DATA_NBYTE_TOPC_SMF(0x00000000,256);                      //for checking 
....................             output_low(PIN_C4);                                                  //COM Flash MUX Main side 
081CA:  BCF    F94.4
081CC:  BCF    F8B.4
....................             delay_ms(10); 
081CE:  MOVLW  0A
081D0:  MOVLB  3
081D2:  MOVWF  x6B
081D4:  MOVLB  0
081D6:  CALL   1AFC
....................             fprintf(PC,"Read and Transfer data from SMF TO SCF and OF Start\r\n"); 
081DA:  MOVLW  4E
081DC:  MOVWF  FF6
081DE:  MOVLW  0D
081E0:  MOVWF  FF7
081E2:  MOVLW  00
081E4:  MOVWF  FF8
081E6:  CALL   318C
....................             delay_ms(1000); 
081EA:  MOVLW  04
081EC:  MOVLB  3
081EE:  MOVWF  x38
081F0:  MOVLW  FA
081F2:  MOVWF  x6B
081F4:  MOVLB  0
081F6:  CALL   1AFC
081FA:  MOVLB  3
081FC:  DECFSZ x38,F
081FE:  BRA    81F0
....................              
....................             if(mode == 0xB0 || mode == 0xB1 || mode == 0xB2)                     //if CAM data size will be 2sectors 
08200:  MOVF   x37,W
08202:  SUBLW  B0
08204:  BZ    8212
08206:  MOVF   x37,W
08208:  SUBLW  B1
0820A:  BZ    8212
0820C:  MOVF   x37,W
0820E:  SUBLW  B2
08210:  BNZ   82E8
....................             { 
....................                sector_erase_SCF(CAM_ADDRESS);                                    //delete 1st sector 
08212:  MOVFF  47,35B
08216:  MOVFF  46,35A
0821A:  MOVFF  45,359
0821E:  MOVFF  44,358
08222:  MOVLB  0
08224:  CALL   363A
....................                sector_erase_SCF(CAM_ADDRESS + 65536);                            //delete 2nd sector 
08228:  MOVFF  44,338
0822C:  MOVLB  3
0822E:  MOVFF  45,339
08232:  MOVLW  01
08234:  ADDWF  46,W
08236:  MOVWF  x3A
08238:  MOVLW  00
0823A:  ADDWFC 47,W
0823C:  MOVWF  x3B
0823E:  MOVWF  x5B
08240:  MOVFF  33A,35A
08244:  MOVFF  45,359
08248:  MOVFF  44,358
0824C:  MOVLB  0
0824E:  CALL   363A
....................                TRANSFER_DATA_NBYTE_SMFtoSCF(0x00080000,CAM_ADDRESS,80000);       //From(SMF): sector8, To(SCF): sector indicated by CAM_ADDRESS 
08252:  MOVLB  3
08254:  CLRF   x3B
08256:  MOVLW  08
08258:  MOVWF  x3A
0825A:  CLRF   x39
0825C:  CLRF   x38
0825E:  MOVFF  47,33F
08262:  MOVFF  46,33E
08266:  MOVFF  45,33D
0826A:  MOVFF  44,33C
0826E:  CLRF   x43
08270:  MOVLW  01
08272:  MOVWF  x42
08274:  MOVLW  38
08276:  MOVWF  x41
08278:  MOVLW  80
0827A:  MOVWF  x40
0827C:  MOVLB  0
0827E:  RCALL  7F56
....................                TRANSFER_DATA_NBYTE_SMFtoOF(0x00080000,CAM_ADDRESS,80000);        //From(SMF): sector8, To(SCF): sector indicated by CAM_ADDRESS 
08280:  MOVLB  3
08282:  CLRF   x3B
08284:  MOVLW  08
08286:  MOVWF  x3A
08288:  CLRF   x39
0828A:  CLRF   x38
0828C:  MOVFF  47,33F
08290:  MOVFF  46,33E
08294:  MOVFF  45,33D
08298:  MOVFF  44,33C
0829C:  CLRF   x43
0829E:  MOVLW  01
082A0:  MOVWF  x42
082A2:  MOVLW  38
082A4:  MOVWF  x41
082A6:  MOVLW  80
082A8:  MOVWF  x40
082AA:  MOVLB  0
082AC:  RCALL  7FE8
....................                TRANSFER_DATA_NBYTE_TOPC_SCF(CAM_ADDRESS,90000);                  //From(SCF): FROM CAM_ADDRESS To PC 
082AE:  MOVFF  47,33B
082B2:  MOVFF  46,33A
082B6:  MOVFF  45,339
082BA:  MOVFF  44,338
082BE:  MOVLB  3
082C0:  CLRF   x3F
082C2:  MOVLW  01
082C4:  MOVWF  x3E
082C6:  MOVLW  5F
082C8:  MOVWF  x3D
082CA:  MOVLW  90
082CC:  MOVWF  x3C
082CE:  MOVLB  0
082D0:  RCALL  807A
....................                CAM_ADDRESS = CAM_ADDRESS + 65536*2;                              //se ubica en la nueva posicion, dos sectores adelante 
082D2:  MOVLW  02
082D4:  ADDWF  46,F
082D6:  MOVLW  00
082D8:  ADDWFC 47,F
....................                delay_ms(10); 
082DA:  MOVLW  0A
082DC:  MOVLB  3
082DE:  MOVWF  x6B
082E0:  MOVLB  0
082E2:  CALL   1AFC
082E6:  MOVLB  3
....................             } 
....................             if(mode == 0xA0 || mode == 0xA1 || mode == 0xA2) 
082E8:  MOVF   x37,W
082EA:  SUBLW  A0
082EC:  BZ    82FA
082EE:  MOVF   x37,W
082F0:  SUBLW  A1
082F2:  BZ    82FA
082F4:  MOVF   x37,W
082F6:  SUBLW  A2
082F8:  BNZ   83C4
....................             { 
....................                sector_erase_SCF(CAM_ADDRESS);                                    //delete 1st sector 
082FA:  MOVFF  47,35B
082FE:  MOVFF  46,35A
08302:  MOVFF  45,359
08306:  MOVFF  44,358
0830A:  MOVLB  0
0830C:  CALL   363A
....................                sector_erase_SCF(CAM_ADDRESS + 65536);                            //delete 2nd sector 
08310:  MOVFF  44,338
08314:  MOVLB  3
08316:  MOVFF  45,339
0831A:  MOVLW  01
0831C:  ADDWF  46,W
0831E:  MOVWF  x3A
08320:  MOVLW  00
08322:  ADDWFC 47,W
08324:  MOVWF  x3B
08326:  MOVWF  x5B
08328:  MOVFF  33A,35A
0832C:  MOVFF  45,359
08330:  MOVFF  44,358
08334:  MOVLB  0
08336:  CALL   363A
....................                TRANSFER_DATA_NBYTE_SMFtoSCF(0x00080000,CAM_ADDRESS,65536);       //From(SMF): sector8, To(SCF): sector indicated by CAM_ADDRESS 
0833A:  MOVLB  3
0833C:  CLRF   x3B
0833E:  MOVLW  08
08340:  MOVWF  x3A
08342:  CLRF   x39
08344:  CLRF   x38
08346:  MOVFF  47,33F
0834A:  MOVFF  46,33E
0834E:  MOVFF  45,33D
08352:  MOVFF  44,33C
08356:  CLRF   x43
08358:  MOVLW  01
0835A:  MOVWF  x42
0835C:  CLRF   x41
0835E:  CLRF   x40
08360:  MOVLB  0
08362:  RCALL  7F56
....................                TRANSFER_DATA_NBYTE_SMFtoOF(0x00080000,CAM_ADDRESS,65536);        //From(SMF): sector8, To(SCF): sector indicated by CAM_ADDRESS 
08364:  MOVLB  3
08366:  CLRF   x3B
08368:  MOVLW  08
0836A:  MOVWF  x3A
0836C:  CLRF   x39
0836E:  CLRF   x38
08370:  MOVFF  47,33F
08374:  MOVFF  46,33E
08378:  MOVFF  45,33D
0837C:  MOVFF  44,33C
08380:  CLRF   x43
08382:  MOVLW  01
08384:  MOVWF  x42
08386:  CLRF   x41
08388:  CLRF   x40
0838A:  MOVLB  0
0838C:  RCALL  7FE8
....................                TRANSFER_DATA_NBYTE_TOPC_SCF(CAM_ADDRESS,65536); 
0838E:  MOVFF  47,33B
08392:  MOVFF  46,33A
08396:  MOVFF  45,339
0839A:  MOVFF  44,338
0839E:  MOVLB  3
083A0:  CLRF   x3F
083A2:  MOVLW  01
083A4:  MOVWF  x3E
083A6:  CLRF   x3D
083A8:  CLRF   x3C
083AA:  MOVLB  0
083AC:  RCALL  807A
....................                CAM_ADDRESS = CAM_ADDRESS + 65536; 
083AE:  MOVLW  01
083B0:  ADDWF  46,F
083B2:  MOVLW  00
083B4:  ADDWFC 47,F
....................                delay_ms(10); 
083B6:  MOVLW  0A
083B8:  MOVLB  3
083BA:  MOVWF  x6B
083BC:  MOVLB  0
083BE:  CALL   1AFC
083C2:  MOVLB  3
....................             } 
....................              
....................          }else{ 
083C4:  BRA    83DE
083C6:  MOVLB  2
....................             CAM_ACK = 0; 
083C8:  CLRF   xC5
....................             fprintf(PC,"CAM DATA SAVING FAILURED\r\n"); 
083CA:  MOVLW  84
083CC:  MOVWF  FF6
083CE:  MOVLW  0D
083D0:  MOVWF  FF7
083D2:  MOVLW  00
083D4:  MOVWF  FF8
083D6:  MOVLB  0
083D8:  CALL   318C
083DC:  MOVLB  3
083DE:  MOVLB  2
....................          }    
....................       }    
....................  
....................    }else{ 
083E0:  BRA    83F8
....................       CAM_ACK = 0; 
083E2:  CLRF   xC5
....................       fprintf(PC,"CAM ACK FAILURED\r\n"); 
083E4:  MOVLW  A0
083E6:  MOVWF  FF6
083E8:  MOVLW  0D
083EA:  MOVWF  FF7
083EC:  MOVLW  00
083EE:  MOVWF  FF8
083F0:  MOVLB  0
083F2:  CALL   318C
083F6:  MOVLB  2
....................    } 
....................    
....................    Turn_Off_CAM(); 
083F8:  MOVLB  0
083FA:  CALL   26E6
....................    fprintf(PC,"Turned OFF CAM\r\n"); 
083FE:  MOVLW  B4
08400:  MOVWF  FF6
08402:  MOVLW  0D
08404:  MOVWF  FF7
08406:  MOVLW  00
08408:  MOVWF  FF8
0840A:  CALL   318C
....................    output_high(PIN_C4); //Give Access to COM PIC 
0840E:  BCF    F94.4
08410:  BSF    F8B.4
....................    //fputc(0x69,COM);  
....................    //enable_interrupts(INT_rda);   // Main to PC 
....................    return; 
08412:  RETURN 0
.................... } 
....................  
.................... void CAM_DEPLOYMENT_OPERATION(int8 mode) 
.................... { 
....................    CAM_SETTINGS();                                                               //Turn ON CAM, delete 1 sector SCF address 00080000, MUX CAM side 
*
06B08:  RCALL  6810
....................    delay_ms(5000);                                                               //Time is necessary for CAM to be ready 
06B0A:  MOVLW  14
06B0C:  MOVLB  3
06B0E:  MOVWF  x2E
06B10:  MOVLW  FA
06B12:  MOVWF  x6B
06B14:  MOVLB  0
06B16:  CALL   1AFC
06B1A:  MOVLB  3
06B1C:  DECFSZ x2E,F
06B1E:  BRA    6B10
....................    fprintf(PC,"Sending hand shake Command to CAM\r\n"); 
06B20:  MOVLW  C6
06B22:  MOVWF  FF6
06B24:  MOVLW  0D
06B26:  MOVWF  FF7
06B28:  MOVLW  00
06B2A:  MOVWF  FF8
06B2C:  MOVLB  0
06B2E:  CALL   318C
....................    delay_ms(10); 
06B32:  MOVLW  0A
06B34:  MOVLB  3
06B36:  MOVWF  x6B
06B38:  MOVLB  0
06B3A:  CALL   1AFC
....................    Send_Command_to_CAM(0x54);                                                    //CAM MISSION ID 
06B3E:  MOVLW  54
06B40:  MOVLB  3
06B42:  MOVWF  x38
06B44:  MOVLB  0
06B46:  RCALL  68B8
....................    CHECK_ACK_FROM_CAM_10k();                                                     //keep listening about 10 sec 
06B48:  RCALL  6942
....................    if(CAM_ACK == 0x61)                                                           //CAM ACK 
06B4A:  MOVLB  2
06B4C:  MOVF   xC5,W
06B4E:  SUBLW  61
06B50:  BTFSS  FD8.2
06B52:  BRA    6C4A
....................    { 
....................       fprintf(PC,"ACK received from CAM\r\n\r\n"); 
06B54:  MOVLW  EA
06B56:  MOVWF  FF6
06B58:  MOVLW  0D
06B5A:  MOVWF  FF7
06B5C:  MOVLW  00
06B5E:  MOVWF  FF8
06B60:  MOVLB  0
06B62:  CALL   318C
....................       CAM_ACK = 0;       
06B66:  MOVLB  2
06B68:  CLRF   xC5
....................       for(int a = 0; a < 1; a++)                                               //deployment capture repetition 
06B6A:  MOVLB  3
06B6C:  CLRF   x2D
06B6E:  MOVF   x2D,F
06B70:  BNZ   6C46
....................       { 
....................          LOOP_CAM_ADDRESS();                                                    //hace un loop en las posiciones de memoria para almacenar CAM data 
06B72:  MOVLB  0
06B74:  RCALL  698C
....................          fprintf(PC,"Sending CAM MODE data\r\n"); 
06B76:  MOVLW  04
06B78:  MOVWF  FF6
06B7A:  MOVLW  0E
06B7C:  MOVWF  FF7
06B7E:  MOVLW  00
06B80:  MOVWF  FF8
06B82:  CALL   318C
....................          delay_ms(2000);                                                         //for CAM to go waiting for OBC cmnd 
06B86:  MOVLW  08
06B88:  MOVLB  3
06B8A:  MOVWF  x2E
06B8C:  MOVLW  FA
06B8E:  MOVWF  x6B
06B90:  MOVLB  0
06B92:  CALL   1AFC
06B96:  MOVLB  3
06B98:  DECFSZ x2E,F
06B9A:  BRA    6B8C
....................          fputc(mode,CAM); 
06B9C:  MOVFF  32C,339
06BA0:  MOVLB  0
06BA2:  RCALL  6872
....................          CHECK_ACK_FROM_CAM_10k();                                              //keep listening about 10 sec 
06BA4:  RCALL  6942
....................             if(CAM_ACK == mode) 
06BA6:  MOVLB  3
06BA8:  MOVF   x2C,W
06BAA:  MOVLB  2
06BAC:  SUBWF  xC5,W
06BAE:  BNZ   6C40
....................             { 
....................                fprintf(PC,"Capturing and saving in SFM...\r\n\r\n"); 
06BB0:  MOVLW  1C
06BB2:  MOVWF  FF6
06BB4:  MOVLW  0E
06BB6:  MOVWF  FF7
06BB8:  MOVLW  00
06BBA:  MOVWF  FF8
06BBC:  MOVLB  0
06BBE:  CALL   318C
....................                CHECK_ACK_FROM_CAM_200k();                                       //keep listening about 200 sec 
06BC2:  RCALL  69E8
....................                //CHECK_ACK_FROM_CAM_30k();                                         //keep listening about 30 sec 
....................                   if(CAM_ACK == 0x62)                                           //CAM Finish Storing 
06BC4:  MOVLB  2
06BC6:  MOVF   xC5,W
06BC8:  SUBLW  62
06BCA:  BNZ   6C2A
....................                   { 
....................                      CAM_ACK = 0; 
06BCC:  CLRF   xC5
....................                      fprintf(PC,"PHOTO %d SAVING DONE\r\n",a+1);                     
06BCE:  MOVLW  01
06BD0:  MOVLB  3
06BD2:  ADDWF  x2D,W
06BD4:  MOVWF  x2E
06BD6:  MOVLW  40
06BD8:  MOVWF  FF6
06BDA:  MOVLW  0E
06BDC:  MOVWF  FF7
06BDE:  MOVLW  00
06BE0:  MOVWF  FF8
06BE2:  MOVLW  06
06BE4:  MOVWF  x62
06BE6:  MOVLB  0
06BE8:  CALL   17AE
06BEC:  MOVFF  32E,33E
06BF0:  MOVLW  18
06BF2:  MOVLB  3
06BF4:  MOVWF  x3F
06BF6:  MOVLB  0
06BF8:  RCALL  6A2E
06BFA:  MOVLW  48
06BFC:  MOVWF  FF6
06BFE:  MOVLW  0E
06C00:  MOVWF  FF7
06C02:  MOVLW  00
06C04:  MOVWF  FF8
06C06:  MOVLW  0E
06C08:  MOVLB  3
06C0A:  MOVWF  x62
06C0C:  MOVLB  0
06C0E:  CALL   17AE
....................                      CAM_ADDRESS = CAM_ADDRESS + 65536;                          //se ubica en la nueva posicion, 10 sectores adelante 
06C12:  MOVLW  01
06C14:  ADDWF  46,F
06C16:  MOVLW  00
06C18:  ADDWFC 47,F
....................                      //sector_erase_SCF(CAM_ADDRESS); 
....................                      delay_ms(10); 
06C1A:  MOVLW  0A
06C1C:  MOVLB  3
06C1E:  MOVWF  x6B
06C20:  MOVLB  0
06C22:  CALL   1AFC
....................        
....................                   }else{ 
06C26:  BRA    6C3E
06C28:  MOVLB  2
....................                      CAM_ACK = 0; 
06C2A:  CLRF   xC5
....................                      fprintf(PC,"CAM DATA SAVING FAILURED\r\n"); 
06C2C:  MOVLW  58
06C2E:  MOVWF  FF6
06C30:  MOVLW  0E
06C32:  MOVWF  FF7
06C34:  MOVLW  00
06C36:  MOVWF  FF8
06C38:  MOVLB  0
06C3A:  CALL   318C
06C3E:  MOVLB  2
....................                   }    
....................             }    
06C40:  MOVLB  3
06C42:  INCF   x2D,F
06C44:  BRA    6B6E
....................          } 
....................    }else{ 
06C46:  BRA    6C60
06C48:  MOVLB  2
....................       CAM_ACK = 0; 
06C4A:  CLRF   xC5
....................       fprintf(PC,"CAM ACK FAILURED\r\n"); 
06C4C:  MOVLW  74
06C4E:  MOVWF  FF6
06C50:  MOVLW  0E
06C52:  MOVWF  FF7
06C54:  MOVLW  00
06C56:  MOVWF  FF8
06C58:  MOVLB  0
06C5A:  CALL   318C
06C5E:  MOVLB  3
....................    } 
....................    output_low(PIN_A5);                                                           //Mission Flash MUX Main side 
06C60:  BCF    F92.5
06C62:  BCF    F89.5
....................    delay_ms(10); 
06C64:  MOVLW  0A
06C66:  MOVWF  x6B
06C68:  MOVLB  0
06C6A:  CALL   1AFC
....................    Turn_Off_CAM(); 
06C6E:  CALL   26E6
....................    fprintf(PC,"Turned OFF CAM\r\n"); 
06C72:  MOVLW  88
06C74:  MOVWF  FF6
06C76:  MOVLW  0E
06C78:  MOVWF  FF7
06C7A:  MOVLW  00
06C7C:  MOVWF  FF8
06C7E:  CALL   318C
....................    output_high(PIN_C4);                                                          //Give Access to COM PIC 
06C82:  BCF    F94.4
06C84:  BSF    F8B.4
....................    return; 
06C86:  GOTO   E3CC (RETURN)
.................... } 
....................  
....................  
.................... //--------Mission Boss PIC Data Collection---------------------------------------------- 
....................  
.................... int8 DC_ACK = 0; 
.................... int8 MBP_DATA[83] = {}; 
....................  
.................... void Turn_On_MBP() 
.................... { 
....................    output_high(PIN_F5); 
*
026F2:  BCF    F97.5
026F4:  BSF    F8E.5
....................    return; 
026F6:  RETURN 0
.................... } 
....................  
.................... void Turn_Off_MBP() 
.................... { 
....................    output_low(PIN_F5); 
*
0ADEE:  BCF    F97.5
0ADF0:  BCF    F8E.5
....................    return; 
0ADF2:  GOTO   AEE0 (RETURN)
.................... } 
....................  
.................... void CHECK_ACK_FROM_DC_10k()                                                     //Wait ACK from DC for 10s 
.................... { 
....................    for(int32 num = 0; num < 1000000; num++)  
*
03FEE:  MOVLB  3
03FF0:  CLRF   x52
03FF2:  CLRF   x51
03FF4:  CLRF   x50
03FF6:  CLRF   x4F
03FF8:  MOVF   x52,F
03FFA:  BNZ   4034
03FFC:  MOVF   x51,W
03FFE:  SUBLW  0F
04000:  BNC   4034
04002:  BNZ   4012
04004:  MOVF   x50,W
04006:  SUBLW  42
04008:  BNC   4034
0400A:  BNZ   4012
0400C:  MOVF   x4F,W
0400E:  SUBLW  3F
04010:  BNC   4034
....................    { 
....................       if(kbhit(DC))                                                             //kbhit(PC) 
04012:  BTFSC  F86.1
04014:  BRA    4022
....................       { 
....................          DC_ACK = fgetc(DC);                                                    //PC    
04016:  MOVLB  0
04018:  RCALL  3FA4
0401A:  MOVFF  01,2C6
....................          break; 
0401E:  MOVLB  3
04020:  BRA    4034
....................       } 
04022:  MOVLW  01
04024:  ADDWF  x4F,F
04026:  BTFSC  FD8.0
04028:  INCF   x50,F
0402A:  BTFSC  FD8.2
0402C:  INCF   x51,F
0402E:  BTFSC  FD8.2
04030:  INCF   x52,F
04032:  BRA    3FF8
....................       //delay_ms(1); 
....................    } 
....................    return; 
04034:  MOVLB  0
04036:  RETURN 0
.................... } 
....................  
.................... void DELETE_MBP_DATA()                                                           //Clear MBP array to receive data 
.................... { 
....................    for(int8 i = 0; i < 81; i++) 
*
0AA2A:  MOVLB  3
0AA2C:  CLRF   x48
0AA2E:  MOVF   x48,W
0AA30:  SUBLW  50
0AA32:  BNC   AA48
....................    { 
....................       MBP_DATA[i] = 0; 
0AA34:  CLRF   03
0AA36:  MOVF   x48,W
0AA38:  ADDLW  C7
0AA3A:  MOVWF  FE9
0AA3C:  MOVLW  02
0AA3E:  ADDWFC 03,W
0AA40:  MOVWF  FEA
0AA42:  CLRF   FEF
0AA44:  INCF   x48,F
0AA46:  BRA    AA2E
....................    } 
....................    return; 
0AA48:  MOVLB  0
0AA4A:  GOTO   AC4E (RETURN)
.................... } 
....................  
.................... void GET_MBP_DATA(int16 transf_size) 
*
0AB3C:  MOVLB  3
0AB3E:  CLRF   x4B
0AB40:  CLRF   x4A
0AB42:  CLRF   x4C
.................... { 
....................    int16 n = 0; 
....................    int8 input = 0; 
....................    for(int32 i = 0; i < 99000000; i++)                                            //1000000 
0AB44:  CLRF   x50
0AB46:  CLRF   x4F
0AB48:  CLRF   x4E
0AB4A:  CLRF   x4D
0AB4C:  MOVF   x50,W
0AB4E:  SUBLW  05
0AB50:  BNC   ABF4
0AB52:  BNZ   AB6A
0AB54:  MOVF   x4F,W
0AB56:  SUBLW  E6
0AB58:  BNC   ABF4
0AB5A:  BNZ   AB6A
0AB5C:  MOVF   x4E,W
0AB5E:  SUBLW  9E
0AB60:  BNC   ABF4
0AB62:  BNZ   AB6A
0AB64:  MOVF   x4D,W
0AB66:  SUBLW  BF
0AB68:  BNC   ABF4
....................    {                                                                              //99000000 es tiempo suficiente para transferir un sector 
....................       if(kbhit(DC)) 
0AB6A:  BTFSC  F86.1
0AB6C:  BRA    ABE2
....................       { 
....................          input = fgetc(DC);                                                      //get data from MBP 
0AB6E:  MOVLB  0
0AB70:  CALL   3FA4
0AB74:  MOVFF  01,34C
....................          WRITE_DATA_BYTE_OF(DC_STATUS_ADDRESS,input);                            //Save data on OF, SCF, SMF 
0AB78:  MOVFF  5B,366
0AB7C:  MOVFF  5A,365
0AB80:  MOVFF  59,364
0AB84:  MOVFF  58,363
0AB88:  MOVFF  34C,367
0AB8C:  CALL   1622
....................          WRITE_DATA_BYTE_SCF(DC_STATUS_ADDRESS,input); 
0AB90:  MOVFF  5B,366
0AB94:  MOVFF  5A,365
0AB98:  MOVFF  59,364
0AB9C:  MOVFF  58,363
0ABA0:  MOVFF  34C,367
0ABA4:  CALL   16AE
....................          WRITE_DATA_BYTE_SMF(DC_STATUS_ADDRESS,input); 
0ABA8:  MOVFF  5B,366
0ABAC:  MOVFF  5A,365
0ABB0:  MOVFF  59,364
0ABB4:  MOVFF  58,363
0ABB8:  MOVFF  34C,367
0ABBC:  CALL   173A
....................          n++; 
0ABC0:  MOVLB  3
0ABC2:  INCF   x4A,F
0ABC4:  BTFSC  FD8.2
0ABC6:  INCF   x4B,F
....................          DC_STATUS_ADDRESS = DC_STATUS_ADDRESS + 1; 
0ABC8:  MOVLW  01
0ABCA:  ADDWF  58,F
0ABCC:  MOVLW  00
0ABCE:  ADDWFC 59,F
0ABD0:  ADDWFC 5A,F
0ABD2:  ADDWFC 5B,F
....................          if(n==transf_size)                                                      //sale del for cuando se completa la cantidad de bytes 
0ABD4:  MOVF   x48,W
0ABD6:  SUBWF  x4A,W
0ABD8:  BNZ   ABE2
0ABDA:  MOVF   x49,W
0ABDC:  SUBWF  x4B,W
0ABDE:  BNZ   ABE2
....................          { 
....................          break; 
0ABE0:  BRA    ABF4
....................          } 
....................       } 
0ABE2:  MOVLW  01
0ABE4:  ADDWF  x4D,F
0ABE6:  BTFSC  FD8.0
0ABE8:  INCF   x4E,F
0ABEA:  BTFSC  FD8.2
0ABEC:  INCF   x4F,F
0ABEE:  BTFSC  FD8.2
0ABF0:  INCF   x50,F
0ABF2:  BRA    AB4C
....................    } 
....................  
....................    DC_STATUS_ADDRESS=0x06660000; 
0ABF4:  MOVLW  06
0ABF6:  MOVWF  5B
0ABF8:  MOVLW  66
0ABFA:  MOVWF  5A
0ABFC:  CLRF   59
0ABFE:  CLRF   58
....................     
....................   /* for(int m = 0; m < n; m++)                                                    //Show data from MBP on PC 
....................    { 
....................       fprintf(PC,"%x",READ_DATA_BYTE_OF(DC_STATUS_ADDRESS + m)); 
....................    } 
....................    fprintf(PC,"\r\n");*/ 
....................  
....................    fprintf(PC,"Transferred %ld Bytes",n); 
0AC00:  MOVLW  9A
0AC02:  MOVWF  FF6
0AC04:  MOVLW  0E
0AC06:  MOVWF  FF7
0AC08:  MOVLW  00
0AC0A:  MOVWF  FF8
0AC0C:  MOVLW  0C
0AC0E:  MOVWF  x62
0AC10:  MOVLB  0
0AC12:  CALL   17AE
0AC16:  MOVLW  10
0AC18:  MOVWF  FE9
0AC1A:  MOVFF  34B,352
0AC1E:  MOVFF  34A,351
0AC22:  BRA    AA4E
0AC24:  MOVLW  A9
0AC26:  MOVWF  FF6
0AC28:  MOVLW  0E
0AC2A:  MOVWF  FF7
0AC2C:  MOVLW  00
0AC2E:  MOVWF  FF8
0AC30:  MOVLW  06
0AC32:  MOVLB  3
0AC34:  MOVWF  x62
0AC36:  MOVLB  0
0AC38:  CALL   17AE
....................    n=0; 
0AC3C:  MOVLB  3
0AC3E:  CLRF   x4B
0AC40:  CLRF   x4A
....................    output_high(PIN_C4);                                                          //COM_MUX COM side 
0AC42:  BCF    F94.4
0AC44:  BSF    F8B.4
....................    return; 
0AC46:  MOVLB  0
0AC48:  GOTO   ADD0 (RETURN)
.................... //!   fputc(0x67,DC);                                                               //Este debera ser CMD2 indicando que mision se ejecutara 
.................... //!   int16 n = 0; 
.................... //!   for(int32 i = 0; i < 1000000; i++)                                            //10000000 
.................... //!   { 
.................... //!      if(kbhit(DC)) 
.................... //!      { 
.................... //!         MBP_DATA[n] = fgetc(DC);                                                //get data from MBP 
.................... //!         n++; 
.................... //!      } 
.................... //!   } 
.................... //!   for(int m = 0; m < 83; m++)                                                   //Show data from MBP on PC 
.................... //!   { 
.................... //!      fprintf(PC,"%x",MBP_DATA[m]); 
.................... //!   } 
.................... //!   fprintf(PC,"\r\n"); 
.................... //!   output_low(PIN_C4);                                                           //COM_MUX Main side 
.................... //!   output_low(PIN_A5);                                                           //CAM_MUX Main side 
.................... //!   for(m = 0; m < 83; m++)                                                       //Save data on OF, SCF, SMF 
.................... //!   { 
.................... //!      WRITE_DATA_BYTE_OF(DC_STATUS_ADDRESS + m,MBP_DATA[m]); 
.................... //!      WRITE_DATA_BYTE_SCF(DC_STATUS_ADDRESS + m,MBP_DATA[m]); 
.................... //!      WRITE_DATA_BYTE_SMF(DC_STATUS_ADDRESS + m,MBP_DATA[m]); 
.................... //!   } 
.................... //!   output_high(PIN_C4);                                                          //COM_MUX COM side 
.................... //!   DC_STATUS_ADDRESS = DC_STATUS_ADDRESS + 83;                                   //save the new DC address 
.................... //!    
.................... //!   return; 
.................... } 
....................  
.................... void DATACOLLECTION_TEST_OPERATION(int8 cmd1,int8 cmd2,int8 cmd3,int8 cmd4,int8 cmd5,int8 cmd6,int8 cmd7) 
.................... { 
....................    DELETE_MBP_DATA();                                                            //Clear MBP array to receive data 
0AC4C:  BRA    AA2A
....................   // LOOP_DC_STATUS_ADDRESS();                                                   //realiza un loop verificando si se esta por alcanzar el limite de espacio asignado 
....................    REFRESH_SECTOR_OF(0x06,0x66,0x00,0x00);                                       //clear 1 sector OBC flash DC part 
0AC4E:  MOVLW  06
0AC50:  MOVLB  3
0AC52:  MOVWF  x48
0AC54:  MOVLW  66
0AC56:  MOVWF  x49
0AC58:  CLRF   x4A
0AC5A:  CLRF   x4B
0AC5C:  MOVLB  0
0AC5E:  RCALL  A47A
....................    REFRESH_SECTOR_SCF(0x06,0x66,0x00,0x00);                                      //clear 1 sector COM flash DC part  
0AC60:  MOVLW  06
0AC62:  MOVLB  3
0AC64:  MOVWF  x48
0AC66:  MOVLW  66
0AC68:  MOVWF  x49
0AC6A:  CLRF   x4A
0AC6C:  CLRF   x4B
0AC6E:  MOVLB  0
0AC70:  RCALL  A52C
....................    REFRESH_SECTOR_SMF(0x06,0x66,0x00,0x00);                                      //clear 1 sector MISSION flash DC part 
0AC72:  MOVLW  06
0AC74:  MOVLB  3
0AC76:  MOVWF  x48
0AC78:  MOVLW  66
0AC7A:  MOVWF  x49
0AC7C:  CLRF   x4A
0AC7E:  CLRF   x4B
0AC80:  MOVLB  0
0AC82:  CALL   6752
....................     
....................    int16 data_pckts = make16(cmd6,cmd7); 
....................    int16 data_size = data_pckts*81; 
0AC86:  MOVFF  342,345
0AC8A:  MOVFF  343,344
0AC8E:  MOVFF  345,349
0AC92:  MOVFF  344,348
0AC96:  MOVLB  3
0AC98:  CLRF   x4B
0AC9A:  MOVLW  51
0AC9C:  MOVWF  x4A
0AC9E:  MOVLB  0
0ACA0:  CALL   7E50
0ACA4:  MOVFF  02,347
0ACA8:  MOVFF  01,346
....................     
....................    fprintf(PC,"sending commands to MBP\r\n"); 
0ACAC:  MOVLW  B0
0ACAE:  MOVWF  FF6
0ACB0:  MOVLW  0E
0ACB2:  MOVWF  FF7
0ACB4:  MOVLW  00
0ACB6:  MOVWF  FF8
0ACB8:  CALL   318C
....................    Turn_On_MBP();                                                                 //RF5=HIGH 
0ACBC:  CALL   26F2
....................    delay_ms(30); 
0ACC0:  MOVLW  1E
0ACC2:  MOVLB  3
0ACC4:  MOVWF  x6B
0ACC6:  MOVLB  0
0ACC8:  CALL   1AFC
....................  
....................    fputc(cmd1,DC); 
0ACCC:  MOVFF  33D,34F
0ACD0:  CALL   3F5E
....................    delay_ms(100); 
0ACD4:  MOVLW  64
0ACD6:  MOVLB  3
0ACD8:  MOVWF  x6B
0ACDA:  MOVLB  0
0ACDC:  CALL   1AFC
....................    fputc(cmd2,DC); 
0ACE0:  MOVFF  33E,34F
0ACE4:  CALL   3F5E
....................    delay_ms(100); 
0ACE8:  MOVLW  64
0ACEA:  MOVLB  3
0ACEC:  MOVWF  x6B
0ACEE:  MOVLB  0
0ACF0:  CALL   1AFC
....................    fputc(cmd3,DC); 
0ACF4:  MOVFF  33F,34F
0ACF8:  CALL   3F5E
....................    delay_ms(100); 
0ACFC:  MOVLW  64
0ACFE:  MOVLB  3
0AD00:  MOVWF  x6B
0AD02:  MOVLB  0
0AD04:  CALL   1AFC
....................    fputc(cmd4,DC); 
0AD08:  MOVFF  340,34F
0AD0C:  CALL   3F5E
....................    delay_ms(100); 
0AD10:  MOVLW  64
0AD12:  MOVLB  3
0AD14:  MOVWF  x6B
0AD16:  MOVLB  0
0AD18:  CALL   1AFC
....................    fputc(cmd5,DC); 
0AD1C:  MOVFF  341,34F
0AD20:  CALL   3F5E
....................    delay_ms(100); 
0AD24:  MOVLW  64
0AD26:  MOVLB  3
0AD28:  MOVWF  x6B
0AD2A:  MOVLB  0
0AD2C:  CALL   1AFC
....................    fputc(cmd6,DC); 
0AD30:  MOVFF  342,34F
0AD34:  CALL   3F5E
....................    delay_ms(100); 
0AD38:  MOVLW  64
0AD3A:  MOVLB  3
0AD3C:  MOVWF  x6B
0AD3E:  MOVLB  0
0AD40:  CALL   1AFC
....................    fputc(cmd7,DC); 
0AD44:  MOVFF  343,34F
0AD48:  CALL   3F5E
....................  
....................    CHECK_ACK_FROM_DC_10k();                                                      //Wait ACK from MBP for 10s 
0AD4C:  CALL   3FEE
....................    if(DC_ACK == 0x20)                                                            //Success ACK 
0AD50:  MOVLB  2
0AD52:  MOVF   xC6,W
0AD54:  SUBLW  20
0AD56:  BNZ   ADD4
....................    { 
....................       fprintf(PC,"Received ACK From MBP\r\n"); 
0AD58:  MOVLW  CA
0AD5A:  MOVWF  FF6
0AD5C:  MOVLW  0E
0AD5E:  MOVWF  FF7
0AD60:  MOVLW  00
0AD62:  MOVWF  FF8
0AD64:  MOVLB  0
0AD66:  CALL   318C
....................       //delay_ms(1000); 
....................       DC_ACK = 0; 
0AD6A:  MOVLB  2
0AD6C:  CLRF   xC6
....................       output_low(PIN_C4);                                                        //SCF main side 
0AD6E:  BCF    F94.4
0AD70:  BCF    F8B.4
....................       output_low(PIN_A5);                                                        //SMF main side 
0AD72:  BCF    F92.5
0AD74:  BCF    F89.5
....................       fprintf(PC,"TRANSFERRING %lx PACKETS\r\n",data_pckts); 
0AD76:  MOVLW  E2
0AD78:  MOVWF  FF6
0AD7A:  MOVLW  0E
0AD7C:  MOVWF  FF7
0AD7E:  MOVLW  00
0AD80:  MOVWF  FF8
0AD82:  MOVLW  0D
0AD84:  MOVLB  3
0AD86:  MOVWF  x62
0AD88:  MOVLB  0
0AD8A:  CALL   17AE
0AD8E:  MOVFF  345,363
0AD92:  MOVLW  57
0AD94:  MOVLB  3
0AD96:  MOVWF  x64
0AD98:  MOVLB  0
0AD9A:  CALL   17E0
0AD9E:  MOVFF  344,363
0ADA2:  MOVLW  57
0ADA4:  MOVLB  3
0ADA6:  MOVWF  x64
0ADA8:  MOVLB  0
0ADAA:  CALL   17E0
0ADAE:  MOVLW  F2
0ADB0:  MOVWF  FF6
0ADB2:  MOVLW  0E
0ADB4:  MOVWF  FF7
0ADB6:  MOVLW  00
0ADB8:  MOVWF  FF8
0ADBA:  MOVLW  0A
0ADBC:  MOVLB  3
0ADBE:  MOVWF  x62
0ADC0:  MOVLB  0
0ADC2:  CALL   17AE
....................        
....................       GET_MBP_DATA(data_size); 
0ADC6:  MOVFF  347,349
0ADCA:  MOVFF  346,348
0ADCE:  BRA    AB3C
....................  
....................    }else{ 
0ADD0:  BRA    ADE8
0ADD2:  MOVLB  2
....................       DC_ACK = 0; 
0ADD4:  CLRF   xC6
....................       fprintf(PC,"FAILURED GETTING ACK From MBP\r\n"); 
0ADD6:  MOVLW  FE
0ADD8:  MOVWF  FF6
0ADDA:  MOVLW  0E
0ADDC:  MOVWF  FF7
0ADDE:  MOVLW  00
0ADE0:  MOVWF  FF8
0ADE2:  MOVLB  0
0ADE4:  CALL   318C
....................    } 
.................... /*    
....................    fprintf(PC,"Turning OFF MBP\r\n"); 
....................    Turn_Off_MBP();*/                                                             //RF5=LOW 
....................    output_high(PIN_C4);                                                          //COM_MUX COM side 
0ADE8:  BCF    F94.4
0ADEA:  BSF    F8B.4
....................     
....................    return; 
0ADEC:  RETURN 0
.................... } 
....................  
.................... void MISSION_TEST_OPERATION(int8 cmd1,int8 cmd2,int8 cmd3,int8 cmd4,int8 cmd5,int8 cmd6,int8 cmd7)                                                    //send array of commnands to MBP 
.................... { 
....................    fprintf(PC,"sending commands to MBP\r\n"); 
*
0ADF6:  MOVLW  1E
0ADF8:  MOVWF  FF6
0ADFA:  MOVLW  0F
0ADFC:  MOVWF  FF7
0ADFE:  MOVLW  00
0AE00:  MOVWF  FF8
0AE02:  CALL   318C
....................    Turn_On_MBP();                                                                 //RF5=HIGH 
0AE06:  CALL   26F2
....................    delay_ms(30); 
0AE0A:  MOVLW  1E
0AE0C:  MOVLB  3
0AE0E:  MOVWF  x6B
0AE10:  MOVLB  0
0AE12:  CALL   1AFC
....................  
....................       fputc(cmd1,DC); 
0AE16:  MOVFF  33D,34F
0AE1A:  CALL   3F5E
....................       delay_ms(100); 
0AE1E:  MOVLW  64
0AE20:  MOVLB  3
0AE22:  MOVWF  x6B
0AE24:  MOVLB  0
0AE26:  CALL   1AFC
....................       fputc(cmd2,DC); 
0AE2A:  MOVFF  33E,34F
0AE2E:  CALL   3F5E
....................       delay_ms(100); 
0AE32:  MOVLW  64
0AE34:  MOVLB  3
0AE36:  MOVWF  x6B
0AE38:  MOVLB  0
0AE3A:  CALL   1AFC
....................       fputc(cmd3,DC); 
0AE3E:  MOVFF  33F,34F
0AE42:  CALL   3F5E
....................       delay_ms(100); 
0AE46:  MOVLW  64
0AE48:  MOVLB  3
0AE4A:  MOVWF  x6B
0AE4C:  MOVLB  0
0AE4E:  CALL   1AFC
....................       fputc(cmd4,DC); 
0AE52:  MOVFF  340,34F
0AE56:  CALL   3F5E
....................       delay_ms(100); 
0AE5A:  MOVLW  64
0AE5C:  MOVLB  3
0AE5E:  MOVWF  x6B
0AE60:  MOVLB  0
0AE62:  CALL   1AFC
....................       fputc(cmd5,DC); 
0AE66:  MOVFF  341,34F
0AE6A:  CALL   3F5E
....................       delay_ms(100); 
0AE6E:  MOVLW  64
0AE70:  MOVLB  3
0AE72:  MOVWF  x6B
0AE74:  MOVLB  0
0AE76:  CALL   1AFC
....................       fputc(cmd6,DC); 
0AE7A:  MOVFF  342,34F
0AE7E:  CALL   3F5E
....................       delay_ms(100); 
0AE82:  MOVLW  64
0AE84:  MOVLB  3
0AE86:  MOVWF  x6B
0AE88:  MOVLB  0
0AE8A:  CALL   1AFC
....................       fputc(cmd7,DC); 
0AE8E:  MOVFF  343,34F
0AE92:  CALL   3F5E
....................  
....................    CHECK_ACK_FROM_DC_10k();                                                      //Wait ACK from DC for 10s 
0AE96:  CALL   3FEE
....................    if(DC_ACK == 0x20)                                                            //Success ACK 
0AE9A:  MOVLB  2
0AE9C:  MOVF   xC6,W
0AE9E:  SUBLW  20
0AEA0:  BNZ   AEBA
....................    { 
....................       fprintf(PC,"Received ACK From MBP\r\n"); 
0AEA2:  MOVLW  38
0AEA4:  MOVWF  FF6
0AEA6:  MOVLW  0F
0AEA8:  MOVWF  FF7
0AEAA:  MOVLW  00
0AEAC:  MOVWF  FF8
0AEAE:  MOVLB  0
0AEB0:  CALL   318C
....................       //delay_ms(1000); 
....................       DC_ACK = 0; 
0AEB4:  MOVLB  2
0AEB6:  CLRF   xC6
....................        
....................    }else{ 
0AEB8:  BRA    AF96
....................       DC_ACK = 0; 
0AEBA:  CLRF   xC6
....................       fprintf(PC,"FAILURED GETTING ACK From MBP\r\n"); 
0AEBC:  MOVLW  50
0AEBE:  MOVWF  FF6
0AEC0:  MOVLW  0F
0AEC2:  MOVWF  FF7
0AEC4:  MOVLW  00
0AEC6:  MOVWF  FF8
0AEC8:  MOVLB  0
0AECA:  CALL   318C
....................       fprintf(PC,"PWR cycle and sending commands again\r\n"); 
0AECE:  MOVLW  70
0AED0:  MOVWF  FF6
0AED2:  MOVLW  0F
0AED4:  MOVWF  FF7
0AED6:  MOVLW  00
0AED8:  MOVWF  FF8
0AEDA:  CALL   318C
....................       Turn_Off_MBP(); 
0AEDE:  BRA    ADEE
....................       delay_ms(1000); 
0AEE0:  MOVLW  04
0AEE2:  MOVLB  3
0AEE4:  MOVWF  x44
0AEE6:  MOVLW  FA
0AEE8:  MOVWF  x6B
0AEEA:  MOVLB  0
0AEEC:  CALL   1AFC
0AEF0:  MOVLB  3
0AEF2:  DECFSZ x44,F
0AEF4:  BRA    AEE6
....................       Turn_On_MBP();                                                              //RF5=HIGH 
0AEF6:  MOVLB  0
0AEF8:  CALL   26F2
....................       delay_ms(1000); 
0AEFC:  MOVLW  04
0AEFE:  MOVLB  3
0AF00:  MOVWF  x44
0AF02:  MOVLW  FA
0AF04:  MOVWF  x6B
0AF06:  MOVLB  0
0AF08:  CALL   1AFC
0AF0C:  MOVLB  3
0AF0E:  DECFSZ x44,F
0AF10:  BRA    AF02
....................  
....................       fputc(cmd1,DC); 
0AF12:  MOVFF  33D,34F
0AF16:  MOVLB  0
0AF18:  CALL   3F5E
....................       delay_ms(100); 
0AF1C:  MOVLW  64
0AF1E:  MOVLB  3
0AF20:  MOVWF  x6B
0AF22:  MOVLB  0
0AF24:  CALL   1AFC
....................       fputc(cmd2,DC); 
0AF28:  MOVFF  33E,34F
0AF2C:  CALL   3F5E
....................       delay_ms(100); 
0AF30:  MOVLW  64
0AF32:  MOVLB  3
0AF34:  MOVWF  x6B
0AF36:  MOVLB  0
0AF38:  CALL   1AFC
....................       fputc(cmd3,DC); 
0AF3C:  MOVFF  33F,34F
0AF40:  CALL   3F5E
....................       delay_ms(100); 
0AF44:  MOVLW  64
0AF46:  MOVLB  3
0AF48:  MOVWF  x6B
0AF4A:  MOVLB  0
0AF4C:  CALL   1AFC
....................       fputc(cmd4,DC); 
0AF50:  MOVFF  340,34F
0AF54:  CALL   3F5E
....................       delay_ms(100); 
0AF58:  MOVLW  64
0AF5A:  MOVLB  3
0AF5C:  MOVWF  x6B
0AF5E:  MOVLB  0
0AF60:  CALL   1AFC
....................       fputc(cmd5,DC); 
0AF64:  MOVFF  341,34F
0AF68:  CALL   3F5E
....................       delay_ms(100); 
0AF6C:  MOVLW  64
0AF6E:  MOVLB  3
0AF70:  MOVWF  x6B
0AF72:  MOVLB  0
0AF74:  CALL   1AFC
....................       fputc(cmd6,DC); 
0AF78:  MOVFF  342,34F
0AF7C:  CALL   3F5E
....................       delay_ms(100); 
0AF80:  MOVLW  64
0AF82:  MOVLB  3
0AF84:  MOVWF  x6B
0AF86:  MOVLB  0
0AF88:  CALL   1AFC
....................       fputc(cmd7,DC);    
0AF8C:  MOVFF  343,34F
0AF90:  CALL   3F5E
0AF94:  MOVLB  2
....................    } 
....................    return; 
0AF96:  MOVLB  0
0AF98:  RETURN 0
.................... } 
....................  
.................... //-------Kill Switch----------------------------------------------------------- 
.................... Static int8 KILL_COUNTER = 0; 
.................... void Count_Kill_Flag() 
.................... { 
....................    KILL_COUNTER++; 
*
0B018:  MOVLB  3
0B01A:  INCF   x1A,F
....................    if(Kill_COUNTER > 4) 
0B01C:  MOVF   x1A,W
0B01E:  SUBLW  04
0B020:  BC    B034
....................    { 
....................       Kill_FLAG_MAIN = 1; 
0B022:  MOVLW  01
0B024:  MOVLB  0
0B026:  MOVWF  x75
....................       output_high(PIN_A4);                                                       //Kill Switch ON 
0B028:  BCF    F92.4
0B02A:  BSF    F89.4
....................       fputc(0x17,FAB); 
0B02C:  MOVLW  17
0B02E:  CALL   42CA
0B032:  MOVLB  3
....................    } 
....................    fprintf(PC,"Kill counter: %x\r\n",KILL_COUNTER); 
0B034:  MOVLW  98
0B036:  MOVWF  FF6
0B038:  MOVLW  0F
0B03A:  MOVWF  FF7
0B03C:  MOVLW  00
0B03E:  MOVWF  FF8
0B040:  MOVLW  0E
0B042:  MOVWF  x62
0B044:  MOVLB  0
0B046:  CALL   17AE
0B04A:  MOVFF  31A,363
0B04E:  MOVLW  57
0B050:  MOVLB  3
0B052:  MOVWF  x64
0B054:  MOVLB  0
0B056:  CALL   17E0
0B05A:  MOVLW  0D
0B05C:  BTFSS  F9E.4
0B05E:  BRA    B05C
0B060:  MOVWF  FAD
0B062:  MOVLW  0A
0B064:  BTFSS  F9E.4
0B066:  BRA    B064
0B068:  MOVWF  FAD
....................    return; 
0B06A:  RETURN 0
.................... } 
....................  
.................... void Disable_Kill() 
.................... { 
....................    KILL_COUNTER = 0; 
0B06C:  MOVLB  3
0B06E:  CLRF   x1A
....................     
....................    Kill_FLAG_MAIN = 0; 
0B070:  MOVLB  0
0B072:  CLRF   x75
....................    output_low(PIN_A4);                                                           //Kill Switch OFF 
0B074:  BCF    F92.4
0B076:  BCF    F89.4
....................    fputc(0x18,FAB); 
0B078:  MOVLW  18
0B07A:  CALL   42CA
....................     
....................    fprintf(PC,"Kill counter: %x\r\n",KILL_COUNTER); 
0B07E:  MOVLW  AC
0B080:  MOVWF  FF6
0B082:  MOVLW  0F
0B084:  MOVWF  FF7
0B086:  MOVLW  00
0B088:  MOVWF  FF8
0B08A:  MOVLW  0E
0B08C:  MOVLB  3
0B08E:  MOVWF  x62
0B090:  MOVLB  0
0B092:  CALL   17AE
0B096:  MOVFF  31A,363
0B09A:  MOVLW  57
0B09C:  MOVLB  3
0B09E:  MOVWF  x64
0B0A0:  MOVLB  0
0B0A2:  CALL   17E0
0B0A6:  MOVLW  0D
0B0A8:  BTFSS  F9E.4
0B0AA:  BRA    B0A8
0B0AC:  MOVWF  FAD
0B0AE:  MOVLW  0A
0B0B0:  BTFSS  F9E.4
0B0B2:  BRA    B0B0
0B0B4:  MOVWF  FAD
....................    return; 
0B0B6:  RETURN 0
.................... } 
....................  
....................  
.................... //-------Reset Function-------------------------------------------------------- 
....................  
....................  
.................... void BC_ON_30min() 
.................... { 
....................    if(currenttime > 1805 && BC_ATTEMPT_FLAG == 0)                                //if first attempt and 30 min(1800sec) passed 
*
07764:  MOVLB  1
07766:  MOVF   x91,W
07768:  SUBLW  06
0776A:  BC    783A
0776C:  XORLW  FF
0776E:  BNZ   7776
07770:  MOVF   x90,W
07772:  SUBLW  0D
07774:  BC    783A
07776:  MOVLB  0
07778:  MOVF   x68,F
0777A:  BTFSC  FD8.2
0777C:  BRA    7782
0777E:  MOVLB  1
07780:  BRA    783A
....................    { 
....................       fprintf(PC,"sending BC command to RESET PIC\r\n"); 
07782:  MOVLW  C0
07784:  MOVWF  FF6
07786:  MOVLW  0F
07788:  MOVWF  FF7
0778A:  MOVLW  00
0778C:  MOVWF  FF8
0778E:  CALL   318C
....................       for(int16 num = 0; num < 200; num++) 
07792:  MOVLB  3
07794:  CLRF   x3E
07796:  CLRF   x3D
07798:  MOVF   x3E,F
0779A:  BNZ   77CC
0779C:  MOVF   x3D,W
0779E:  SUBLW  C7
077A0:  BNC   77CC
....................       { 
....................          fputc(0xBC,reset); 
077A2:  MOVLW  BC
077A4:  MOVLB  0
077A6:  CALL   1AF0
....................          delay_ms(100); 
077AA:  MOVLW  64
077AC:  MOVLB  3
077AE:  MOVWF  x6B
077B0:  MOVLB  0
077B2:  CALL   1AFC
....................          if(reset_bffr[0] == 0xCB)                                               //condicion para que deje de enviar al recibir el ACK 
077B6:  MOVF   xEC,W
077B8:  SUBLW  CB
077BA:  BNZ   77C2
....................          { 
....................          break; 
077BC:  MOVLB  3
077BE:  BRA    77CC
077C0:  MOVLB  0
....................          } 
077C2:  MOVLB  3
077C4:  INCF   x3D,F
077C6:  BTFSC  FD8.2
077C8:  INCF   x3E,F
077CA:  BRA    7798
....................       } 
....................       delay_ms(1000);                                                             
077CC:  MOVLW  04
077CE:  MOVWF  x3F
077D0:  MOVLW  FA
077D2:  MOVWF  x6B
077D4:  MOVLB  0
077D6:  CALL   1AFC
077DA:  MOVLB  3
077DC:  DECFSZ x3F,F
077DE:  BRA    77D0
....................       if(reset_bffr[0] == 0xCB) 
077E0:  MOVLB  0
077E2:  MOVF   xEC,W
077E4:  SUBLW  CB
077E6:  BNZ   7838
....................       { 
....................          BC_OPERATION(); 
077E8:  CALL   649E
....................          BC_ATTEMPT_FLAG++; 
077EC:  INCF   x68,F
....................          WRITE_FLAG_to_EEPROM(); 
077EE:  CALL   5924
....................          STORE_FLAG_INFO(); 
077F2:  CALL   5714
....................          STORE_ADRESS_DATA_TO_FLASH(); 
077F6:  CALL   3776
....................          reset_bffr[0] = 0; 
077FA:  CLRF   xEC
....................          RESET_DATA = 0; 
077FC:  CLRF   xEB
....................          delay_ms(1000); 
077FE:  MOVLW  04
07800:  MOVLB  3
07802:  MOVWF  x3F
07804:  MOVLW  FA
07806:  MOVWF  x6B
07808:  MOVLB  0
0780A:  CALL   1AFC
0780E:  MOVLB  3
07810:  DECFSZ x3F,F
07812:  BRA    7804
....................          delay_ms(20000);                                                        //wait until RESET goes back to nomal loop 
07814:  MOVLW  50
07816:  MOVWF  x3F
07818:  MOVLW  FA
0781A:  MOVWF  x6B
0781C:  MOVLB  0
0781E:  CALL   1AFC
07822:  MOVLB  3
07824:  DECFSZ x3F,F
07826:  BRA    7818
....................          SAVE_SAT_LOG(0xBC,0x30,0x30);                                           //first 30 min antenna deployment 
07828:  MOVLW  BC
0782A:  MOVWF  x54
0782C:  MOVLW  30
0782E:  MOVWF  x55
07830:  MOVWF  x56
07832:  MOVLB  0
07834:  CALL   3A8A
07838:  MOVLB  1
....................       } 
....................    } 
....................    return; 
0783A:  MOVLB  0
0783C:  RETURN 0
.................... } 
....................  
....................  
....................  
.................... void HIGHSAMP_SENSOR_COLLECTION(int16 times) 
.................... { 
....................    LOOP_HIGH_SAMP_HK_ADDRESS();                                                  //loop in memory to save data, keep first 3 sectors forever 
*
07C52:  GOTO   6EEE
....................    int32 num = 0; 
07C56:  MOVLB  3
07C58:  CLRF   x3C
07C5A:  CLRF   x3B
07C5C:  CLRF   x3A
07C5E:  CLRF   x39
....................  
....................    while(num < times) 
07C60:  MOVF   x3C,F
07C62:  BTFSS  FD8.2
07C64:  BRA    7D2A
07C66:  MOVF   x3B,F
07C68:  BTFSS  FD8.2
07C6A:  BRA    7D2A
07C6C:  MOVF   x3A,W
07C6E:  SUBWF  x38,W
07C70:  BNC   7D2A
07C72:  BNZ   7C7A
07C74:  MOVF   x37,W
07C76:  SUBWF  x39,W
07C78:  BC    7D2A
....................    { 
....................       CHECK_50_and_CW_RESPOND();                                                 //check cw cmd from COM PIC 
07C7A:  MOVLB  0
07C7C:  CALL   42BC
....................       if(FAB_FLAG > 4) 
07C80:  MOVLB  2
07C82:  MOVF   x72,F
07C84:  BNZ   7C94
07C86:  MOVF   x71,F
07C88:  BNZ   7C94
07C8A:  MOVF   x70,F
07C8C:  BNZ   7C94
07C8E:  MOVF   x6F,W
07C90:  SUBLW  04
07C92:  BC    7D08
....................       { 
....................          FAB_FLAG = 0; 
07C94:  CLRF   x72
07C96:  CLRF   x71
07C98:  CLRF   x70
07C9A:  CLRF   x6F
....................          HIGH_SAMP_FAB_OPERATION();                                              //collect FAB, RESET and ADCS data 
07C9C:  MOVLB  0
07C9E:  BRA    74F0
....................           
....................          num++; 
07CA0:  MOVLW  01
07CA2:  MOVLB  3
07CA4:  ADDWF  x39,F
07CA6:  BTFSC  FD8.0
07CA8:  INCF   x3A,F
07CAA:  BTFSC  FD8.2
07CAC:  INCF   x3B,F
07CAE:  BTFSC  FD8.2
07CB0:  INCF   x3C,F
....................          if((num % 20) == 0)                                                     //once in the 20 times(every 100sec save the address to the flash) 
07CB2:  BSF    FD8.1
07CB4:  MOVLW  03
07CB6:  MOVWF  FEA
07CB8:  MOVLW  3D
07CBA:  MOVWF  FE9
07CBC:  MOVFF  33C,351
07CC0:  MOVFF  33B,350
07CC4:  MOVFF  33A,34F
07CC8:  MOVFF  339,34E
07CCC:  CLRF   x55
07CCE:  CLRF   x54
07CD0:  CLRF   x53
07CD2:  MOVLW  14
07CD4:  MOVWF  x52
07CD6:  MOVLB  0
07CD8:  CALL   6000
07CDC:  MOVFF  340,344
07CE0:  MOVFF  33F,343
07CE4:  MOVFF  33E,342
07CE8:  MOVFF  33D,341
07CEC:  MOVLB  3
07CEE:  MOVF   x41,F
07CF0:  BNZ   7D06
07CF2:  MOVF   x42,F
07CF4:  BNZ   7D06
07CF6:  MOVF   x43,F
07CF8:  BNZ   7D06
07CFA:  MOVF   x44,F
07CFC:  BNZ   7D06
....................          { 
....................             STORE_ADRESS_DATA_TO_FLASH();                                        //for store the flag 
07CFE:  MOVLB  0
07D00:  CALL   3776
07D04:  MOVLB  3
07D06:  MOVLB  2
....................          }  
....................       } 
....................  
....................       BC_ON_30min();                                                             //check if first attempt and 30 min(1800sec) passed 
07D08:  MOVLB  0
07D0A:  RCALL  7764
....................       if((CMD_FROM_PC[0] == 0xAB)||(in_bffr_main[4] == 0xAB))                    //forced termination function 
07D0C:  MOVF   x7E,W
07D0E:  SUBLW  AB
07D10:  BZ    7D18
07D12:  MOVF   x8A,W
07D14:  SUBLW  AB
07D16:  BNZ   7D22
....................       { 
....................          Delete_Buffer(); 
07D18:  CALL   4296
....................          break; 
07D1C:  MOVLB  3
07D1E:  BRA    7D2A
07D20:  MOVLB  0
....................       } 
....................       PC_DATA = 0; 
07D22:  CLRF   x99
....................       RESET_SATELLITE();                                                         //check reset command from RESET PIC 
07D24:  RCALL  7C44
07D26:  MOVLB  3
07D28:  BRA    7C60
....................    } 
....................    fprintf(PC,"HSSC DONE\r\n"); 
07D2A:  MOVLW  E2
07D2C:  MOVWF  FF6
07D2E:  MOVLW  0F
07D30:  MOVWF  FF7
07D32:  MOVLW  00
07D34:  MOVWF  FF8
07D36:  MOVLB  0
07D38:  CALL   318C
....................    return; 
07D3C:  RETURN 0
.................... } 
....................  
.................... void REPLY_TO_COM(int8 data1,int8 data2) 
.................... { 
....................    if(ACK_for_COM[12] == 0x66 && ACK_for_COM[14] == 0x77) 
*
09F72:  MOVLB  2
09F74:  MOVF   x60,W
09F76:  SUBLW  66
09F78:  BNZ   9FF2
09F7A:  MOVF   x62,W
09F7C:  SUBLW  77
09F7E:  BNZ   9FF2
....................    { 
....................       for(int n = 0; n < 24; n++)                                                //send back the acknowledge 
09F80:  MOVLB  3
09F82:  CLRF   x39
09F84:  MOVF   x39,W
09F86:  SUBLW  17
09F88:  BNC   9FAA
....................       { 
....................          fputc(ACK_for_COM[n],COM); 
09F8A:  CLRF   03
09F8C:  MOVF   x39,W
09F8E:  ADDLW  54
09F90:  MOVWF  FE9
09F92:  MOVLW  02
09F94:  ADDWFC 03,W
09F96:  MOVWF  FEA
09F98:  MOVFF  FEF,33B
09F9C:  MOVF   x3B,W
09F9E:  MOVLB  0
09FA0:  CALL   3F52
09FA4:  MOVLB  3
09FA6:  INCF   x39,F
09FA8:  BRA    9F84
....................       } 
....................       for(n = 0; n < 24; n++)                                                    //send back the acknowledge 
09FAA:  CLRF   x39
09FAC:  MOVF   x39,W
09FAE:  SUBLW  17
09FB0:  BNC   9FDC
....................       { 
....................          fprintf(PC,"%x,",ACK_for_COM[n]); 
09FB2:  CLRF   03
09FB4:  MOVF   x39,W
09FB6:  ADDLW  54
09FB8:  MOVWF  FE9
09FBA:  MOVLW  02
09FBC:  ADDWFC 03,W
09FBE:  MOVWF  FEA
09FC0:  MOVFF  FEF,363
09FC4:  MOVLW  57
09FC6:  MOVWF  x64
09FC8:  MOVLB  0
09FCA:  CALL   17E0
09FCE:  MOVLW  2C
09FD0:  BTFSS  F9E.4
09FD2:  BRA    9FD0
09FD4:  MOVWF  FAD
09FD6:  MOVLB  3
09FD8:  INCF   x39,F
09FDA:  BRA    9FAC
....................       } 
....................       fprintf(PC,",AUTO\r\n"); 
09FDC:  MOVLW  EE
09FDE:  MOVWF  FF6
09FE0:  MOVLW  0F
09FE2:  MOVWF  FF7
09FE4:  MOVLW  00
09FE6:  MOVWF  FF8
09FE8:  MOVLB  0
09FEA:  CALL   318C
....................    } 
09FEE:  BRA    A070
09FF0:  MOVLB  2
....................    else{ 
....................       //REFLESH_MSN_ACK_for_COM(); 
.................... //!      for(int n = 7; n < 24; n++)//send back the acknowledge 
.................... //!      { 
.................... //!         ACK_for_COM[n] = 0xff; 
.................... //!      } 
....................       ACK_for_COM[0] = 0xAA; 
09FF2:  MOVLW  AA
09FF4:  MOVWF  x54
....................       ACK_for_COM[12] = data1; 
09FF6:  MOVFF  337,260
....................       ACK_for_COM[13] = data2; 
09FFA:  MOVFF  338,261
....................       ACK_for_COM[23] = 0xBB; 
09FFE:  MOVLW  BB
0A000:  MOVWF  x6B
....................       for(int n = 0; n < 24; n++)                                                //send back the acknowledge 
0A002:  MOVLB  3
0A004:  CLRF   x3A
0A006:  MOVF   x3A,W
0A008:  SUBLW  17
0A00A:  BNC   A02C
....................       { 
....................          fputc(ACK_for_COM[n],COM); 
0A00C:  CLRF   03
0A00E:  MOVF   x3A,W
0A010:  ADDLW  54
0A012:  MOVWF  FE9
0A014:  MOVLW  02
0A016:  ADDWFC 03,W
0A018:  MOVWF  FEA
0A01A:  MOVFF  FEF,33B
0A01E:  MOVF   x3B,W
0A020:  MOVLB  0
0A022:  CALL   3F52
0A026:  MOVLB  3
0A028:  INCF   x3A,F
0A02A:  BRA    A006
....................       } 
....................       for(n = 0; n < 24; n++)                                                    //send back the acknowledge 
0A02C:  CLRF   x3A
0A02E:  MOVF   x3A,W
0A030:  SUBLW  17
0A032:  BNC   A05E
....................       { 
....................          fprintf(PC,"%x,",ACK_for_COM[n]); 
0A034:  CLRF   03
0A036:  MOVF   x3A,W
0A038:  ADDLW  54
0A03A:  MOVWF  FE9
0A03C:  MOVLW  02
0A03E:  ADDWFC 03,W
0A040:  MOVWF  FEA
0A042:  MOVFF  FEF,363
0A046:  MOVLW  57
0A048:  MOVWF  x64
0A04A:  MOVLB  0
0A04C:  CALL   17E0
0A050:  MOVLW  2C
0A052:  BTFSS  F9E.4
0A054:  BRA    A052
0A056:  MOVWF  FAD
0A058:  MOVLB  3
0A05A:  INCF   x3A,F
0A05C:  BRA    A02E
....................       } 
....................       fprintf(PC,",NORMAL\r\n"); 
0A05E:  MOVLW  F6
0A060:  MOVWF  FF6
0A062:  MOVLW  0F
0A064:  MOVWF  FF7
0A066:  MOVLW  00
0A068:  MOVWF  FF8
0A06A:  MOVLB  0
0A06C:  CALL   318C
....................    } 
0A070:  RETURN 0
....................  
.................... } 
....................  
.................... void UPDATE_ACK_for_COM(int8 data1,int8 data2,int32 address, int16 size)         //send data to COM for automatical mission 
.................... { 
....................    REFLESH_MSN_ACK_for_COM();                                                    //clear array ACK_for_COM[i] from position 12 to 22 
*
07D64:  BRA    7D3E
....................    ACK_for_COM[15] = address >> 24; 
07D66:  MOVFF  336,263
....................    ACK_for_COM[16] = address >> 16; 
07D6A:  MOVFF  335,264
....................    ACK_for_COM[17] = address >> 8; 
07D6E:  MOVFF  334,265
....................    ACK_for_COM[18] = address; 
07D72:  MOVFF  333,266
....................     
....................    ACK_for_COM[19] = size >> 24; 
07D76:  MOVLB  2
07D78:  CLRF   x67
....................    ACK_for_COM[20] = size >> 16; 
07D7A:  CLRF   x68
....................    ACK_for_COM[21] = size >> 8; 
07D7C:  MOVFF  338,269
....................    ACK_for_COM[22] = size; 
07D80:  MOVFF  337,26A
....................     
....................    ACK_for_COM[0] = 0xAA;                                                        //header 
07D84:  MOVLW  AA
07D86:  MOVWF  x54
....................    ACK_for_COM[12] = data1;                                                      //success ack indicator 0x66 
07D88:  MOVFF  331,260
....................    ACK_for_COM[14] = data2;                                                      //auto indicator 0x77 
07D8C:  MOVFF  332,262
....................    ACK_for_COM[23] = 0xBB;                                                       //footer 
07D90:  MOVLW  BB
07D92:  MOVWF  x6B
....................    for(int n = 0; n < 24; n++)                                                   //send back the acknowledge 
07D94:  MOVLB  3
07D96:  CLRF   x39
07D98:  MOVF   x39,W
07D9A:  SUBLW  17
07D9C:  BNC   7DBE
....................    { 
....................       fputc(ACK_for_COM[n],COM); 
07D9E:  CLRF   03
07DA0:  MOVF   x39,W
07DA2:  ADDLW  54
07DA4:  MOVWF  FE9
07DA6:  MOVLW  02
07DA8:  ADDWFC 03,W
07DAA:  MOVWF  FEA
07DAC:  MOVFF  FEF,33A
07DB0:  MOVF   x3A,W
07DB2:  MOVLB  0
07DB4:  CALL   3F52
07DB8:  MOVLB  3
07DBA:  INCF   x39,F
07DBC:  BRA    7D98
....................    } 
07DBE:  MOVLB  0
07DC0:  RETURN 0
.................... } 
....................  
.................... void RSV_DATA_DOWNLOAD(int8 cmnd1,int8 cmnd2,int8 cmnd3,int8 cmnd4,int8 cmnd5,int8 cmnd6,int8 cmnd7) //carga el array ACK_for_COM[] con el dato del array CW_FORMAT[] y envia a COM PIC 
.................... { 
....................    for(int a = 13; a < 23; a++)                                                   //clear ACK_for_COM array  
*
0C486:  MOVLW  0D
0C488:  MOVLB  3
0C48A:  MOVWF  x44
0C48C:  MOVF   x44,W
0C48E:  SUBLW  16
0C490:  BNC   C4A6
....................    { 
....................       ACK_for_COM[a] = 0x00; 
0C492:  CLRF   03
0C494:  MOVF   x44,W
0C496:  ADDLW  54
0C498:  MOVWF  FE9
0C49A:  MOVLW  02
0C49C:  ADDWFC 03,W
0C49E:  MOVWF  FEA
0C4A0:  CLRF   FEF
0C4A2:  INCF   x44,F
0C4A4:  BRA    C48C
....................    } 
....................    delay_ms(100); 
0C4A6:  MOVLW  64
0C4A8:  MOVWF  x6B
0C4AA:  MOVLB  0
0C4AC:  CALL   1AFC
.................... //   ACK_for_COM[0] = 0xAA; 
....................  //ACK_for_COM[13] = cmnd2;                                                      //CMD2 Mode (time to give access) 
....................    ACK_for_COM[14] = cmnd1;                                                      //CMD1 Function 
0C4B0:  MOVFF  33D,262
....................    ACK_for_COM[15] = cmnd3;                                                      //CMD3 address1 
0C4B4:  MOVFF  33F,263
....................    ACK_for_COM[16] = cmnd4;                                                      //CMD4 address2 
0C4B8:  MOVFF  340,264
....................    ACK_for_COM[17] = cmnd5;                                                      //CMD5 address3 
0C4BC:  MOVFF  341,265
....................    ACK_for_COM[18] = cmnd6;                                                      //CMD6 address4 
0C4C0:  MOVFF  342,266
....................    ACK_for_COM[19] = 0x00;                                                       //empty 
0C4C4:  MOVLB  2
0C4C6:  CLRF   x67
....................    ACK_for_COM[20] = 0x00;                                                       //empty 
0C4C8:  CLRF   x68
....................    ACK_for_COM[21] = 0x00;                                                       //empty 
0C4CA:  CLRF   x69
....................    ACK_for_COM[22] = cmnd7;                                                      //CMD7 pckt 
0C4CC:  MOVFF  343,26A
.................... //   ACK_for_COM[23] = 0xBB; 
....................  /*  for(int m = 0; m < 24; m++)                                                   //send the reservation function data to COM  
....................    { 
....................       fputc(ACK_for_COM[m],COM); 
....................    }*/ 
....................  
....................    for(int m = 0; m < 23; m++)                                                       //send the reservation function data to PC 
0C4D0:  MOVLB  3
0C4D2:  CLRF   x45
0C4D4:  MOVF   x45,W
0C4D6:  SUBLW  16
0C4D8:  BNC   C504
....................    { 
....................       fprintf(PC,"%x,",ACK_for_COM[m]); 
0C4DA:  CLRF   03
0C4DC:  MOVF   x45,W
0C4DE:  ADDLW  54
0C4E0:  MOVWF  FE9
0C4E2:  MOVLW  02
0C4E4:  ADDWFC 03,W
0C4E6:  MOVWF  FEA
0C4E8:  MOVFF  FEF,363
0C4EC:  MOVLW  57
0C4EE:  MOVWF  x64
0C4F0:  MOVLB  0
0C4F2:  CALL   17E0
0C4F6:  MOVLW  2C
0C4F8:  BTFSS  F9E.4
0C4FA:  BRA    C4F8
0C4FC:  MOVWF  FAD
0C4FE:  MOVLB  3
0C500:  INCF   x45,F
0C502:  BRA    C4D4
....................    } 
....................    fprintf(PC,"%x\r\n",ACK_for_COM[23]); 
0C504:  MOVFF  26B,363
0C508:  MOVLW  57
0C50A:  MOVWF  x64
0C50C:  MOVLB  0
0C50E:  CALL   17E0
0C512:  MOVLW  0D
0C514:  BTFSS  F9E.4
0C516:  BRA    C514
0C518:  MOVWF  FAD
0C51A:  MOVLW  0A
0C51C:  BTFSS  F9E.4
0C51E:  BRA    C51C
0C520:  MOVWF  FAD
....................     
.................... /* for(int k = 14; k < 23; k++)                                                   //clear ACK_for_COM array 
....................    { 
....................       ACK_for_COM[k] = 0x00; 
....................    }*/ 
....................    return; 
0C522:  RETURN 0
.................... } 
....................  
.................... void MBP_SYNC() 
.................... { 
....................    fprintf(PC,"\r\nsending SYNC time to MBP\r\n"); 
*
04038:  MOVLW  00
0403A:  MOVWF  FF6
0403C:  MOVLW  10
0403E:  MOVWF  FF7
04040:  MOVLW  00
04042:  MOVWF  FF8
04044:  CALL   318C
....................    Turn_On_MBP();                                                                 //RF5=HIGH 
04048:  CALL   26F2
....................    delay_ms(30); 
0404C:  MOVLW  1E
0404E:  MOVLB  3
04050:  MOVWF  x6B
04052:  MOVLB  0
04054:  CALL   1AFC
....................    COLLECT_RESET_DATA(); 
04058:  CALL   1B64
....................       if(RESET_bffr[0] == 0x8e) 
0405C:  MOVF   xEC,W
0405E:  SUBLW  8E
04060:  BNZ   4074
....................    { 
....................       fprintf(PC,"Time received from RESET\r\n"); 
04062:  MOVLW  1E
04064:  MOVWF  FF6
04066:  MOVLW  10
04068:  MOVWF  FF7
0406A:  MOVLW  00
0406C:  MOVWF  FF8
0406E:  CALL   318C
....................  
....................    }else{ 
04072:  BRA    4084
....................       fprintf(PC,"NO RESET time\r\n"); 
04074:  MOVLW  3A
04076:  MOVWF  FF6
04078:  MOVLW  10
0407A:  MOVWF  FF7
0407C:  MOVLW  00
0407E:  MOVWF  FF8
04080:  CALL   318C
....................    } 
....................        
....................       fputc(0XAA,DC); 
04084:  MOVLW  AA
04086:  MOVLB  3
04088:  MOVWF  x4F
0408A:  MOVLB  0
0408C:  RCALL  3F5E
....................       delay_ms(100); 
0408E:  MOVLW  64
04090:  MOVLB  3
04092:  MOVWF  x6B
04094:  MOVLB  0
04096:  CALL   1AFC
....................       fputc(reset_bffr[1],DC);                                                       //sec 
0409A:  MOVFF  ED,34F
0409E:  RCALL  3F5E
....................       delay_ms(100); 
040A0:  MOVLW  64
040A2:  MOVLB  3
040A4:  MOVWF  x6B
040A6:  MOVLB  0
040A8:  CALL   1AFC
....................       fputc(reset_bffr[2],DC);                                                       //minutes 
040AC:  MOVFF  EE,34F
040B0:  RCALL  3F5E
....................       delay_ms(100); 
040B2:  MOVLW  64
040B4:  MOVLB  3
040B6:  MOVWF  x6B
040B8:  MOVLB  0
040BA:  CALL   1AFC
....................       fputc(reset_bffr[3],DC);                                                       //hours 
040BE:  MOVFF  EF,34F
040C2:  RCALL  3F5E
....................       delay_ms(100); 
040C4:  MOVLW  64
040C6:  MOVLB  3
040C8:  MOVWF  x6B
040CA:  MOVLB  0
040CC:  CALL   1AFC
....................       fputc(reset_bffr[4],DC);                                                       //day_H 
040D0:  MOVFF  F0,34F
040D4:  RCALL  3F5E
....................       delay_ms(100); 
040D6:  MOVLW  64
040D8:  MOVLB  3
040DA:  MOVWF  x6B
040DC:  MOVLB  0
040DE:  CALL   1AFC
....................       fputc(reset_bffr[5],DC);                                                       //day_L 
040E2:  MOVFF  F1,34F
040E6:  RCALL  3F5E
....................       delay_ms(100); 
040E8:  MOVLW  64
040EA:  MOVLB  3
040EC:  MOVWF  x6B
040EE:  MOVLB  0
040F0:  CALL   1AFC
....................       fputc(0XBB,DC); 
040F4:  MOVLW  BB
040F6:  MOVLB  3
040F8:  MOVWF  x4F
040FA:  MOVLB  0
040FC:  RCALL  3F5E
....................    fprintf(PC,"%x:%x:%x,%x%x\r\n",reset_bffr[1], reset_bffr[2], reset_bffr[3], reset_bffr[4], reset_bffr[5]); 
040FE:  MOVFF  ED,363
04102:  MOVLW  57
04104:  MOVLB  3
04106:  MOVWF  x64
04108:  MOVLB  0
0410A:  CALL   17E0
0410E:  MOVLW  3A
04110:  BTFSS  F9E.4
04112:  BRA    4110
04114:  MOVWF  FAD
04116:  MOVFF  EE,363
0411A:  MOVLW  57
0411C:  MOVLB  3
0411E:  MOVWF  x64
04120:  MOVLB  0
04122:  CALL   17E0
04126:  MOVLW  3A
04128:  BTFSS  F9E.4
0412A:  BRA    4128
0412C:  MOVWF  FAD
0412E:  MOVFF  EF,363
04132:  MOVLW  57
04134:  MOVLB  3
04136:  MOVWF  x64
04138:  MOVLB  0
0413A:  CALL   17E0
0413E:  MOVLW  2C
04140:  BTFSS  F9E.4
04142:  BRA    4140
04144:  MOVWF  FAD
04146:  MOVFF  F0,363
0414A:  MOVLW  57
0414C:  MOVLB  3
0414E:  MOVWF  x64
04150:  MOVLB  0
04152:  CALL   17E0
04156:  MOVFF  F1,363
0415A:  MOVLW  57
0415C:  MOVLB  3
0415E:  MOVWF  x64
04160:  MOVLB  0
04162:  CALL   17E0
04166:  MOVLW  0D
04168:  BTFSS  F9E.4
0416A:  BRA    4168
0416C:  MOVWF  FAD
0416E:  MOVLW  0A
04170:  BTFSS  F9E.4
04172:  BRA    4170
04174:  MOVWF  FAD
....................    CHECK_ACK_FROM_DC_10k();                                                      //Wait ACK from DC for 10s 
04176:  RCALL  3FEE
....................    if(DC_ACK == 0x20)                                                            //Success ACK 
04178:  MOVLB  2
0417A:  MOVF   xC6,W
0417C:  SUBLW  20
0417E:  BNZ   4198
....................    { 
....................       fprintf(PC,"Time Received for MBP\r\n"); 
04180:  MOVLW  4A
04182:  MOVWF  FF6
04184:  MOVLW  10
04186:  MOVWF  FF7
04188:  MOVLW  00
0418A:  MOVWF  FF8
0418C:  MOVLB  0
0418E:  CALL   318C
....................       //delay_ms(1000); 
....................       DC_ACK = 0; 
04192:  MOVLB  2
04194:  CLRF   xC6
....................        
....................    }else{ 
04196:  BRA    41AE
....................       DC_ACK = 0; 
04198:  CLRF   xC6
....................       fprintf(PC,"FAILURED GETTING ACK From MBP\r\n"); 
0419A:  MOVLW  62
0419C:  MOVWF  FF6
0419E:  MOVLW  10
041A0:  MOVWF  FF7
041A2:  MOVLW  00
041A4:  MOVWF  FF8
041A6:  MOVLB  0
041A8:  CALL   318C
041AC:  MOVLB  2
....................    } 
.................... return; 
041AE:  MOVLB  0
041B0:  GOTO   4210 (RETURN)
.................... } 
....................  
....................  
....................  
....................  
....................  
.................... #include<AUTO_MSN.c> 
.................... #define loop_day 70 
.................... int16 AD = 0;                                                                    //DATE DATA 
.................... int16 D = 0;                                                                     //everyday change the DL address. nomally, increase 5 packet for each day 
....................                                                                                   
.................... int8 ADH = 0;                                                                    //for satellite log(int16 date high) 
.................... int8 ADL = 0;                                                                    //for satellite log(int16 date low) 
.................... int32 DL_AD = 0;                                                                 //Data size to increase when day changed 
....................  
.................... //@@@@@@@@@@@ HIGH SAMPLING@@@@@@@@@@@@@@@@@@@@@@@@@@@@@@@@@@@@@@@@@@@@@@@@@@@@@@@@@@@@@@@@@@@@@@@@ 
.................... void DAY0()                                                                      //2 hour high sampling sensor 
.................... { 
....................    SAVE_SAT_LOG(0xFA,0x11,0x11);                                                 //11,11: automatical mission 
*
07DC2:  MOVLW  FA
07DC4:  MOVLB  3
07DC6:  MOVWF  x54
07DC8:  MOVLW  11
07DCA:  MOVWF  x55
07DCC:  MOVWF  x56
07DCE:  MOVLB  0
07DD0:  CALL   3A8A
....................    FIRST_HSSC_DONE = 1;                                                          //flag in HIGH 
07DD4:  MOVLW  01
07DD6:  MOVWF  x77
....................    STORE_FLAG_INFO();                                                            //save passed days 
07DD8:  CALL   5714
....................    WRITE_FLAG_to_EEPROM(); 
07DDC:  CALL   5924
....................    HIGHSAMP_SENSOR_COLLECTION(1440);                                             //execute HSSC mission for 2 hours 
07DE0:  MOVLW  05
07DE2:  MOVLB  3
07DE4:  MOVWF  x38
07DE6:  MOVLW  A0
07DE8:  MOVWF  x37
07DEA:  MOVLB  0
07DEC:  RCALL  7C52
....................    STORE_ADRESS_DATA_TO_FLASH();                                                 // save all address data in FLASH memories 
07DEE:  CALL   3776
....................     
....................    AD = PASSED_DAYS % loop_day;                                                  //1,2,3,4 
07DF2:  MOVFF  6A,33E
07DF6:  MOVFF  69,33D
07DFA:  MOVLB  3
07DFC:  CLRF   x40
07DFE:  MOVLW  46
07E00:  MOVWF  x3F
07E02:  MOVLB  0
07E04:  CALL   6C8A
07E08:  MOVFF  00,31B
07E0C:  MOVLB  3
07E0E:  MOVFF  03,31C
....................    ADH = AD << 8; 
07E12:  CLRF   x1F
....................    ADL = AD; 
07E14:  MOVFF  31B,320
....................    SAVE_SAT_LOG(0xFD,ADH,ADL);                                                   //11,11: automatical mission 
07E18:  MOVLW  FD
07E1A:  MOVWF  x54
07E1C:  MOVFF  31F,355
07E20:  MOVFF  320,356
07E24:  MOVLB  0
07E26:  CALL   3A8A
....................    UPDATE_ACK_for_COM(0x66,0x77,SECT*1639,405);                                  //send data1,data2,address,size to COM for automatical mission) 
07E2A:  MOVLW  66
07E2C:  MOVLB  3
07E2E:  MOVWF  x31
07E30:  MOVLW  77
07E32:  MOVWF  x32
07E34:  MOVLW  06
07E36:  MOVWF  x36
07E38:  MOVLW  67
07E3A:  MOVWF  x35
07E3C:  CLRF   x34
07E3E:  CLRF   x33
07E40:  MOVLW  01
07E42:  MOVWF  x38
07E44:  MOVLW  95
07E46:  MOVWF  x37
07E48:  MOVLB  0
07E4A:  RCALL  7D64
....................                                                                                  //118byte*3600*2/5 (about 2.59sector) 65536*1639 
....................    return;                                                                        
07E4C:  GOTO   8DA2 (RETURN)
.................... } 
....................  
.................... void DAY1to4()                                                                   //HIGH SAMPLING Download 
.................... { 
....................    AD = PASSED_DAYS % loop_day;                                                  //1,2,3,4 
*
07E72:  MOVFF  6A,33E
07E76:  MOVFF  69,33D
07E7A:  MOVLB  3
07E7C:  CLRF   x40
07E7E:  MOVLW  46
07E80:  MOVWF  x3F
07E82:  MOVLB  0
07E84:  CALL   6C8A
07E88:  MOVFF  00,31B
07E8C:  MOVLB  3
07E8E:  MOVFF  03,31C
....................    ADH = AD << 8; 
07E92:  CLRF   x1F
....................    ADL = AD; 
07E94:  MOVFF  31B,320
....................    D = AD; 
07E98:  MOVFF  31C,31E
07E9C:  MOVFF  31B,31D
....................     
....................    DL_AD = 220*D;                                                                //skip 220 packets each day 
07EA0:  CLRF   x49
07EA2:  MOVLW  DC
07EA4:  MOVWF  x48
07EA6:  MOVFF  31E,34B
07EAA:  MOVFF  31D,34A
07EAE:  MOVLB  0
07EB0:  RCALL  7E50
07EB2:  MOVLB  3
07EB4:  CLRF   x24
07EB6:  CLRF   x23
07EB8:  MOVFF  02,322
07EBC:  MOVFF  01,321
....................    DL_AD = DL_AD * 81;                                                           //address from where will be downloaded 
07EC0:  MOVFF  324,337
07EC4:  MOVFF  323,336
07EC8:  MOVFF  322,335
07ECC:  MOVFF  321,334
07ED0:  CLRF   x3B
07ED2:  CLRF   x3A
07ED4:  CLRF   x39
07ED6:  MOVLW  51
07ED8:  MOVWF  x38
07EDA:  MOVLB  0
07EDC:  CALL   6CD0
07EE0:  MOVFF  03,324
07EE4:  MOVFF  02,323
07EE8:  MOVFF  01,322
07EEC:  MOVFF  00,321
....................    ///////////////PACKET///////////////// 
....................    //220-224, 440-444, 660-664, 880-884 
....................    ////////////////////////////////////// 
....................     
....................     
....................    SAVE_SAT_LOG(0xFD,ADH,ADL);                                                   //11,11: automatical mission 
07EF0:  MOVLW  FD
07EF2:  MOVLB  3
07EF4:  MOVWF  x54
07EF6:  MOVFF  31F,355
07EFA:  MOVFF  320,356
07EFE:  MOVLB  0
07F00:  CALL   3A8A
....................    UPDATE_ACK_for_COM(0x66,0x77,SECT*1639+DL_AD,405);                            //65536*1639 
07F04:  MOVLB  3
07F06:  MOVFF  321,32D
07F0A:  MOVFF  322,32E
07F0E:  MOVLW  67
07F10:  ADDWF  x23,W
07F12:  MOVWF  x2F
07F14:  MOVLW  06
07F16:  ADDWFC x24,W
07F18:  MOVWF  x30
07F1A:  MOVLW  66
07F1C:  MOVWF  x31
07F1E:  MOVLW  77
07F20:  MOVWF  x32
07F22:  MOVFF  330,336
07F26:  MOVFF  32F,335
07F2A:  MOVFF  322,334
07F2E:  MOVFF  321,333
07F32:  MOVLW  01
07F34:  MOVWF  x38
07F36:  MOVLW  95
07F38:  MOVWF  x37
07F3A:  MOVLB  0
07F3C:  RCALL  7D64
....................    ADH=0; ADL=0; DL_AD=0; D=0; 
07F3E:  MOVLB  3
07F40:  CLRF   x1F
07F42:  CLRF   x20
07F44:  CLRF   x24
07F46:  CLRF   x23
07F48:  CLRF   x22
07F4A:  CLRF   x21
07F4C:  CLRF   x1E
07F4E:  CLRF   x1D
....................    return; 
07F50:  MOVLB  0
07F52:  GOTO   8E30 (RETURN)
.................... } 
....................  
.................... void DAY1to4_ADDRESS()                                                           //HIGH SAMPLING DL 
.................... { 
....................    AD = PASSED_DAYS % loop_day;                                                  //1,2,3,4 
*
09232:  MOVFF  6A,33E
09236:  MOVFF  69,33D
0923A:  MOVLB  3
0923C:  CLRF   x40
0923E:  MOVLW  46
09240:  MOVWF  x3F
09242:  MOVLB  0
09244:  CALL   6C8A
09248:  MOVFF  00,31B
0924C:  MOVLB  3
0924E:  MOVFF  03,31C
....................    ADH = AD << 8; 
09252:  CLRF   x1F
....................    ADL = AD; 
09254:  MOVFF  31B,320
....................    D = AD; 
09258:  MOVFF  31C,31E
0925C:  MOVFF  31B,31D
....................     
....................    DL_AD = 220*D;                                                                //realiza saltos de 220 paquetes 
09260:  CLRF   x49
09262:  MOVLW  DC
09264:  MOVWF  x48
09266:  MOVFF  31E,34B
0926A:  MOVFF  31D,34A
0926E:  MOVLB  0
09270:  CALL   7E50
09274:  MOVLB  3
09276:  CLRF   x24
09278:  CLRF   x23
0927A:  MOVFF  02,322
0927E:  MOVFF  01,321
....................    DL_AD = DL_AD * 81; 
09282:  MOVFF  324,337
09286:  MOVFF  323,336
0928A:  MOVFF  322,335
0928E:  MOVFF  321,334
09292:  CLRF   x3B
09294:  CLRF   x3A
09296:  CLRF   x39
09298:  MOVLW  51
0929A:  MOVWF  x38
0929C:  MOVLB  0
0929E:  CALL   6CD0
092A2:  MOVFF  03,324
092A6:  MOVFF  02,323
092AA:  MOVFF  01,322
092AE:  MOVFF  00,321
....................    ///////////////PACKET///////////////// 
....................    //220-224, 440-444, 660-664, 880-884 
....................    ////////////////////////////////////// 
....................     
....................     
....................    UPDATE_ACK_for_COM(0x66,0x77,SECT*1639+DL_AD,405);                            //65536*8 
092B2:  MOVLB  3
092B4:  MOVFF  321,32D
092B8:  MOVFF  322,32E
092BC:  MOVLW  67
092BE:  ADDWF  x23,W
092C0:  MOVWF  x2F
092C2:  MOVLW  06
092C4:  ADDWFC x24,W
092C6:  MOVWF  x30
092C8:  MOVLW  66
092CA:  MOVWF  x31
092CC:  MOVLW  77
092CE:  MOVWF  x32
092D0:  MOVFF  330,336
092D4:  MOVFF  32F,335
092D8:  MOVFF  322,334
092DC:  MOVFF  321,333
092E0:  MOVLW  01
092E2:  MOVWF  x38
092E4:  MOVLW  95
092E6:  MOVWF  x37
092E8:  MOVLB  0
092EA:  CALL   7D64
....................    ADH=0; ADL=0; DL_AD=0; D=0; 
092EE:  MOVLB  3
092F0:  CLRF   x1F
092F2:  CLRF   x20
092F4:  CLRF   x24
092F6:  CLRF   x23
092F8:  CLRF   x22
092FA:  CLRF   x21
092FC:  CLRF   x1E
092FE:  CLRF   x1D
....................    return; 
09300:  MOVLB  0
09302:  GOTO   99E2 (RETURN)
.................... } 
....................  
.................... void DAY20to25()                                                                 //20-25day 
.................... { 
....................    AD = PASSED_DAYS % loop_day;                                                  //20,21,22,23,24,25 
*
088EC:  MOVFF  6A,33E
088F0:  MOVFF  69,33D
088F4:  MOVLB  3
088F6:  CLRF   x40
088F8:  MOVLW  46
088FA:  MOVWF  x3F
088FC:  MOVLB  0
088FE:  CALL   6C8A
08902:  MOVFF  00,31B
08906:  MOVLB  3
08908:  MOVFF  03,31C
....................    ADH = AD << 8; 
0890C:  CLRF   x1F
....................    ADL = AD; 
0890E:  MOVFF  31B,320
....................     
....................    D = AD - 15;                                                                  //5,6,7,8,9,10 
08912:  MOVLW  0F
08914:  SUBWF  x1B,W
08916:  MOVWF  x1D
08918:  MOVLW  00
0891A:  SUBWFB x1C,W
0891C:  MOVWF  x1E
....................    DL_AD = 220*D;                                                                //realiza saltos de 220 paquetes 
0891E:  CLRF   x49
08920:  MOVLW  DC
08922:  MOVWF  x48
08924:  MOVFF  31E,34B
08928:  MOVFF  31D,34A
0892C:  MOVLB  0
0892E:  CALL   7E50
08932:  MOVLB  3
08934:  CLRF   x24
08936:  CLRF   x23
08938:  MOVFF  02,322
0893C:  MOVFF  01,321
....................    DL_AD = DL_AD * 81; 
08940:  MOVFF  324,337
08944:  MOVFF  323,336
08948:  MOVFF  322,335
0894C:  MOVFF  321,334
08950:  CLRF   x3B
08952:  CLRF   x3A
08954:  CLRF   x39
08956:  MOVLW  51
08958:  MOVWF  x38
0895A:  MOVLB  0
0895C:  CALL   6CD0
08960:  MOVFF  03,324
08964:  MOVFF  02,323
08968:  MOVFF  01,322
0896C:  MOVFF  00,321
....................    //////////////////////////////PACKET//////////////////////////////// 
....................    //1100-1104, 1320-1324, 1540-1544, 1760-1764, 1980,1984, 2200-2204 
....................    //////////////////////////////////////////////////////////////////// 
....................     
....................    SAVE_SAT_LOG(0xFD,ADH,ADL);                                                   //11,11: automatical mission 
08970:  MOVLW  FD
08972:  MOVLB  3
08974:  MOVWF  x54
08976:  MOVFF  31F,355
0897A:  MOVFF  320,356
0897E:  MOVLB  0
08980:  CALL   3A8A
....................    UPDATE_ACK_for_COM(0x66,0x77,SECT*1639+DL_AD,405);                            //65536*8 
08984:  MOVLB  3
08986:  MOVFF  321,32D
0898A:  MOVFF  322,32E
0898E:  MOVLW  67
08990:  ADDWF  x23,W
08992:  MOVWF  x2F
08994:  MOVLW  06
08996:  ADDWFC x24,W
08998:  MOVWF  x30
0899A:  MOVLW  66
0899C:  MOVWF  x31
0899E:  MOVLW  77
089A0:  MOVWF  x32
089A2:  MOVFF  330,336
089A6:  MOVFF  32F,335
089AA:  MOVFF  322,334
089AE:  MOVFF  321,333
089B2:  MOVLW  01
089B4:  MOVWF  x38
089B6:  MOVLW  95
089B8:  MOVWF  x37
089BA:  MOVLB  0
089BC:  CALL   7D64
....................    ADH=0; ADL=0; DL_AD=0; D=0; 
089C0:  MOVLB  3
089C2:  CLRF   x1F
089C4:  CLRF   x20
089C6:  CLRF   x24
089C8:  CLRF   x23
089CA:  CLRF   x22
089CC:  CLRF   x21
089CE:  CLRF   x1E
089D0:  CLRF   x1D
....................    return; 
089D2:  MOVLB  0
089D4:  GOTO   908E (RETURN)
.................... } 
....................  
.................... void DAY20to25_ADDRESS()                                                         //20-25day 
.................... { 
....................    AD = PASSED_DAYS % loop_day;                                                  //20,21,22,23,24,25 
*
09502:  MOVFF  6A,33E
09506:  MOVFF  69,33D
0950A:  MOVLB  3
0950C:  CLRF   x40
0950E:  MOVLW  46
09510:  MOVWF  x3F
09512:  MOVLB  0
09514:  CALL   6C8A
09518:  MOVFF  00,31B
0951C:  MOVLB  3
0951E:  MOVFF  03,31C
....................    ADH = AD << 8; 
09522:  CLRF   x1F
....................    ADL = AD; 
09524:  MOVFF  31B,320
....................     
....................    D = AD - 15;                                                                  //5,6,7,8,9,10 
09528:  MOVLW  0F
0952A:  SUBWF  x1B,W
0952C:  MOVWF  x1D
0952E:  MOVLW  00
09530:  SUBWFB x1C,W
09532:  MOVWF  x1E
....................    DL_AD = 220*D;                                                                //realiza saltos de 220 paquetes 
09534:  CLRF   x49
09536:  MOVLW  DC
09538:  MOVWF  x48
0953A:  MOVFF  31E,34B
0953E:  MOVFF  31D,34A
09542:  MOVLB  0
09544:  CALL   7E50
09548:  MOVLB  3
0954A:  CLRF   x24
0954C:  CLRF   x23
0954E:  MOVFF  02,322
09552:  MOVFF  01,321
....................    DL_AD = DL_AD * 81; 
09556:  MOVFF  324,337
0955A:  MOVFF  323,336
0955E:  MOVFF  322,335
09562:  MOVFF  321,334
09566:  CLRF   x3B
09568:  CLRF   x3A
0956A:  CLRF   x39
0956C:  MOVLW  51
0956E:  MOVWF  x38
09570:  MOVLB  0
09572:  CALL   6CD0
09576:  MOVFF  03,324
0957A:  MOVFF  02,323
0957E:  MOVFF  01,322
09582:  MOVFF  00,321
....................    //////////////////////////////PACKET//////////////////////////////// 
....................    //1100-1104, 1320-1324, 1540-1544, 1760-1764, 1980,1984, 2200-2204 
....................    //////////////////////////////////////////////////////////////////// 
....................     
....................    UPDATE_ACK_for_COM(0x66,0x77,SECT*1639+DL_AD,405);//65536*8 
09586:  MOVLB  3
09588:  MOVFF  321,32D
0958C:  MOVFF  322,32E
09590:  MOVLW  67
09592:  ADDWF  x23,W
09594:  MOVWF  x2F
09596:  MOVLW  06
09598:  ADDWFC x24,W
0959A:  MOVWF  x30
0959C:  MOVLW  66
0959E:  MOVWF  x31
095A0:  MOVLW  77
095A2:  MOVWF  x32
095A4:  MOVFF  330,336
095A8:  MOVFF  32F,335
095AC:  MOVFF  322,334
095B0:  MOVFF  321,333
095B4:  MOVLW  01
095B6:  MOVWF  x38
095B8:  MOVLW  95
095BA:  MOVWF  x37
095BC:  MOVLB  0
095BE:  CALL   7D64
....................    ADH=0; ADL=0; DL_AD=0; D=0; 
095C2:  MOVLB  3
095C4:  CLRF   x1F
095C6:  CLRF   x20
095C8:  CLRF   x24
095CA:  CLRF   x23
095CC:  CLRF   x22
095CE:  CLRF   x21
095D0:  CLRF   x1E
095D2:  CLRF   x1D
....................    return; 
095D4:  MOVLB  0
095D6:  GOTO   9CB6 (RETURN)
.................... } 
....................  
.................... //@@@@@@@@@@@ CAM MISSION @@@@@@@@@@@@@@@@@@@@@@@@@@@@@@@@@@@@@@@@@@@@@@@@@@@@@@@@@@@@@@@@@@@@@@@@ 
.................... void DAY5()                                                                      //CAM MSN 
.................... { 
....................    SAVE_SAT_LOG(0xC0,0x11,0x11);                                                 //11,11: automatical mission 
*
08414:  MOVLW  C0
08416:  MOVLB  3
08418:  MOVWF  x54
0841A:  MOVLW  11
0841C:  MOVWF  x55
0841E:  MOVWF  x56
08420:  MOVLB  0
08422:  CALL   3A8A
....................    AUTO_CAM_DONE = 1; 
08426:  MOVLW  01
08428:  MOVWF  x78
....................    STORE_FLAG_INFO();                                                            //save flag 
0842A:  CALL   5714
....................    WRITE_FLAG_to_EEPROM(); 
0842E:  CALL   5924
....................    CAM_TEST_OPERATION(0xA0);                                                     //cam mission 320x240 low quality 
08432:  MOVLW  A0
08434:  MOVLB  3
08436:  MOVWF  x37
08438:  MOVLB  0
0843A:  RCALL  80F4
....................    STORE_ADRESS_DATA_TO_FLASH();                                                 //save passed days 
0843C:  CALL   3776
....................     
....................    AD = PASSED_DAYS % loop_day;                                                  //1,2,3,4 
08440:  MOVFF  6A,33E
08444:  MOVFF  69,33D
08448:  MOVLB  3
0844A:  CLRF   x40
0844C:  MOVLW  46
0844E:  MOVWF  x3F
08450:  MOVLB  0
08452:  CALL   6C8A
08456:  MOVFF  00,31B
0845A:  MOVLB  3
0845C:  MOVFF  03,31C
....................    ADH = AD << 8; 
08460:  CLRF   x1F
....................    ADL = AD; 
08462:  MOVFF  31B,320
....................    SAVE_SAT_LOG(0xCD,ADH,ADL);                                                   //11,11: automatical mission 
08466:  MOVLW  CD
08468:  MOVWF  x54
0846A:  MOVFF  31F,355
0846E:  MOVFF  320,356
08472:  MOVLB  0
08474:  CALL   3A8A
....................    UPDATE_ACK_for_COM(0x66,0x77,SECT*8,405);                                     //65536*8 
08478:  MOVLW  66
0847A:  MOVLB  3
0847C:  MOVWF  x31
0847E:  MOVLW  77
08480:  MOVWF  x32
08482:  CLRF   x36
08484:  MOVLW  08
08486:  MOVWF  x35
08488:  CLRF   x34
0848A:  CLRF   x33
0848C:  MOVLW  01
0848E:  MOVWF  x38
08490:  MOVLW  95
08492:  MOVWF  x37
08494:  MOVLB  0
08496:  RCALL  7D64
....................    return; 
08498:  GOTO   8E76 (RETURN)
.................... } 
....................  
.................... void DAY6to9()                                                                   //CAM DL 1 
.................... { 
....................    AD = PASSED_DAYS % loop_day;                                                  //6,7,8,9 
0849C:  MOVFF  6A,33E
084A0:  MOVFF  69,33D
084A4:  MOVLB  3
084A6:  CLRF   x40
084A8:  MOVLW  46
084AA:  MOVWF  x3F
084AC:  MOVLB  0
084AE:  CALL   6C8A
084B2:  MOVFF  00,31B
084B6:  MOVLB  3
084B8:  MOVFF  03,31C
....................    ADH = AD << 8; 
084BC:  CLRF   x1F
....................    ADL = AD; 
084BE:  MOVFF  31B,320
....................     
....................    D = AD - 5;                                                                   //1,2,3,4 
084C2:  MOVLW  05
084C4:  SUBWF  x1B,W
084C6:  MOVWF  x1D
084C8:  MOVLW  00
084CA:  SUBWFB x1C,W
084CC:  MOVWF  x1E
....................    DL_AD = D*5;                                                                   
084CE:  MOVFF  31E,349
084D2:  MOVFF  31D,348
084D6:  CLRF   x4B
084D8:  MOVLW  05
084DA:  MOVWF  x4A
084DC:  MOVLB  0
084DE:  RCALL  7E50
084E0:  MOVLB  3
084E2:  CLRF   x24
084E4:  CLRF   x23
084E6:  MOVFF  02,322
084EA:  MOVFF  01,321
....................    DL_AD = DL_AD * 81;                                                           //download address 
084EE:  MOVFF  324,337
084F2:  MOVFF  323,336
084F6:  MOVFF  322,335
084FA:  MOVFF  321,334
084FE:  CLRF   x3B
08500:  CLRF   x3A
08502:  CLRF   x39
08504:  MOVLW  51
08506:  MOVWF  x38
08508:  MOVLB  0
0850A:  CALL   6CD0
0850E:  MOVFF  03,324
08512:  MOVFF  02,323
08516:  MOVFF  01,322
0851A:  MOVFF  00,321
....................    //////////PACKET//////////// 
....................    //5-9, 10-14, 15-19, 20-24 
....................    //////////////////////////// 
....................     
....................    SAVE_SAT_LOG(0xCD,ADH,ADL);                                                   //11,11: automatical mission 
0851E:  MOVLW  CD
08520:  MOVLB  3
08522:  MOVWF  x54
08524:  MOVFF  31F,355
08528:  MOVFF  320,356
0852C:  MOVLB  0
0852E:  CALL   3A8A
....................    UPDATE_ACK_for_COM(0x66,0x77,SECT*8+DL_AD,405);                               //65536*8 
08532:  MOVLB  3
08534:  MOVFF  321,32D
08538:  MOVFF  322,32E
0853C:  MOVLW  08
0853E:  ADDWF  x23,W
08540:  MOVWF  x2F
08542:  MOVLW  00
08544:  ADDWFC x24,W
08546:  MOVWF  x30
08548:  MOVLW  66
0854A:  MOVWF  x31
0854C:  MOVLW  77
0854E:  MOVWF  x32
08550:  MOVFF  330,336
08554:  MOVFF  32F,335
08558:  MOVFF  322,334
0855C:  MOVFF  321,333
08560:  MOVLW  01
08562:  MOVWF  x38
08564:  MOVLW  95
08566:  MOVWF  x37
08568:  MOVLB  0
0856A:  CALL   7D64
....................    ADH=0; ADL=0; DL_AD=0; D=0; 
0856E:  MOVLB  3
08570:  CLRF   x1F
08572:  CLRF   x20
08574:  CLRF   x24
08576:  CLRF   x23
08578:  CLRF   x22
0857A:  CLRF   x21
0857C:  CLRF   x1E
0857E:  CLRF   x1D
....................    return; 
08580:  MOVLB  0
08582:  GOTO   8EDA (RETURN)
.................... } 
....................  
.................... void DAY6to9_ADDRESS()                                                           //CAM DL 1 
.................... { 
....................    AD = PASSED_DAYS % loop_day;                                                  //6,7,8,9 
*
09306:  MOVFF  6A,33E
0930A:  MOVFF  69,33D
0930E:  MOVLB  3
09310:  CLRF   x40
09312:  MOVLW  46
09314:  MOVWF  x3F
09316:  MOVLB  0
09318:  CALL   6C8A
0931C:  MOVFF  00,31B
09320:  MOVLB  3
09322:  MOVFF  03,31C
....................    ADH = AD << 8; 
09326:  CLRF   x1F
....................    ADL = AD; 
09328:  MOVFF  31B,320
....................     
....................    D = AD - 5;                                                                   //1,2,3,4 
0932C:  MOVLW  05
0932E:  SUBWF  x1B,W
09330:  MOVWF  x1D
09332:  MOVLW  00
09334:  SUBWFB x1C,W
09336:  MOVWF  x1E
....................    DL_AD = D*5;                                                                  //saltos de 5 paquetes 
09338:  MOVFF  31E,349
0933C:  MOVFF  31D,348
09340:  CLRF   x4B
09342:  MOVLW  05
09344:  MOVWF  x4A
09346:  MOVLB  0
09348:  CALL   7E50
0934C:  MOVLB  3
0934E:  CLRF   x24
09350:  CLRF   x23
09352:  MOVFF  02,322
09356:  MOVFF  01,321
....................    DL_AD = DL_AD * 81; 
0935A:  MOVFF  324,337
0935E:  MOVFF  323,336
09362:  MOVFF  322,335
09366:  MOVFF  321,334
0936A:  CLRF   x3B
0936C:  CLRF   x3A
0936E:  CLRF   x39
09370:  MOVLW  51
09372:  MOVWF  x38
09374:  MOVLB  0
09376:  CALL   6CD0
0937A:  MOVFF  03,324
0937E:  MOVFF  02,323
09382:  MOVFF  01,322
09386:  MOVFF  00,321
....................    //////////PACKET//////////// 
....................    //5-9, 10-14, 15-19, 20-24 
....................    //////////////////////////// 
....................     
....................    UPDATE_ACK_for_COM(0x66,0x77,SECT*8+DL_AD,405);                               //65536*8 
0938A:  MOVLB  3
0938C:  MOVFF  321,32D
09390:  MOVFF  322,32E
09394:  MOVLW  08
09396:  ADDWF  x23,W
09398:  MOVWF  x2F
0939A:  MOVLW  00
0939C:  ADDWFC x24,W
0939E:  MOVWF  x30
093A0:  MOVLW  66
093A2:  MOVWF  x31
093A4:  MOVLW  77
093A6:  MOVWF  x32
093A8:  MOVFF  330,336
093AC:  MOVFF  32F,335
093B0:  MOVFF  322,334
093B4:  MOVFF  321,333
093B8:  MOVLW  01
093BA:  MOVWF  x38
093BC:  MOVLW  95
093BE:  MOVWF  x37
093C0:  MOVLB  0
093C2:  CALL   7D64
....................    ADH=0; ADL=0; DL_AD=0; D=0; 
093C6:  MOVLB  3
093C8:  CLRF   x1F
093CA:  CLRF   x20
093CC:  CLRF   x24
093CE:  CLRF   x23
093D0:  CLRF   x22
093D2:  CLRF   x21
093D4:  CLRF   x1E
093D6:  CLRF   x1D
....................    return; 
093D8:  MOVLB  0
093DA:  GOTO   9AA8 (RETURN)
.................... } 
....................  
.................... void DAY26to46()                                                                 //CAM Download 1 
.................... { 
....................    AD = PASSED_DAYS % loop_day;                                                  //26,27,28,29,30,31,32,33,34,35,36,37,38,39,40,41,42,43,44,45,46 
*
089D8:  MOVFF  6A,33E
089DC:  MOVFF  69,33D
089E0:  MOVLB  3
089E2:  CLRF   x40
089E4:  MOVLW  46
089E6:  MOVWF  x3F
089E8:  MOVLB  0
089EA:  CALL   6C8A
089EE:  MOVFF  00,31B
089F2:  MOVLB  3
089F4:  MOVFF  03,31C
....................    ADH = AD << 8; 
089F8:  CLRF   x1F
....................    ADL = AD; 
089FA:  MOVFF  31B,320
....................     
....................    D = AD - 21;                                                                  //se le descuenta 21 para continuar con la descarga desde el paquete 25  
089FE:  MOVLW  15
08A00:  SUBWF  x1B,W
08A02:  MOVWF  x1D
08A04:  MOVLW  00
08A06:  SUBWFB x1C,W
08A08:  MOVWF  x1E
....................    DL_AD = D*5;                                                                  //los primeros 25 se descarga en los primeros 5 dias 
08A0A:  MOVFF  31E,349
08A0E:  MOVFF  31D,348
08A12:  CLRF   x4B
08A14:  MOVLW  05
08A16:  MOVWF  x4A
08A18:  MOVLB  0
08A1A:  CALL   7E50
08A1E:  MOVLB  3
08A20:  CLRF   x24
08A22:  CLRF   x23
08A24:  MOVFF  02,322
08A28:  MOVFF  01,321
....................    DL_AD = DL_AD * 81; 
08A2C:  MOVFF  324,337
08A30:  MOVFF  323,336
08A34:  MOVFF  322,335
08A38:  MOVFF  321,334
08A3C:  CLRF   x3B
08A3E:  CLRF   x3A
08A40:  CLRF   x39
08A42:  MOVLW  51
08A44:  MOVWF  x38
08A46:  MOVLB  0
08A48:  CALL   6CD0
08A4C:  MOVFF  03,324
08A50:  MOVFF  02,323
08A54:  MOVFF  01,322
08A58:  MOVFF  00,321
....................    ///////////////////////PACKET///////////////////////// 
....................    //25-29,   30-34,   35-39,   40-44,   45-49 
....................    //50-54,   55-59,   60-64,   65-69,   70-74 
....................    //75-79,   80-84,   85-89,   90-94,   95-99 
....................    //100-104, 105-109, 110-114, 115-119, 120-124 
....................    //125-129 
....................    //---------------------------------------------------- 
....................    //total is 129 packet 
....................    ////////////////////////////////////////////////////// 
....................     
....................    /////////////////////////////BYTE///////////////////////// 
....................    //2025-2429, 2430-2834, 2835-3239, 3240-3644, 3645-4049 
....................    //4050-4454, 4455-4859, 4860-5264, 5265-5669, 5670-6074 
....................    //6075-6479, 6480-6884, 6885-7289, 7290-7694, 7695-8099 
....................    //8100-8504, 8505-8909, 8910-9314, 9315-9719, 9720-10124 
....................    //10125-10530 
....................    //-------------------------------------------------------- 
....................    //total is about 10kB 
....................    ////////////////////////////////////////////////////////// 
....................     
....................    SAVE_SAT_LOG(0xCD,ADH,ADL);                                                   //11,11: automatical mission 
08A5C:  MOVLW  CD
08A5E:  MOVLB  3
08A60:  MOVWF  x54
08A62:  MOVFF  31F,355
08A66:  MOVFF  320,356
08A6A:  MOVLB  0
08A6C:  CALL   3A8A
....................    UPDATE_ACK_for_COM(0x66,0x77,SECT*8+DL_AD,405);                               //65536*8 
08A70:  MOVLB  3
08A72:  MOVFF  321,32D
08A76:  MOVFF  322,32E
08A7A:  MOVLW  08
08A7C:  ADDWF  x23,W
08A7E:  MOVWF  x2F
08A80:  MOVLW  00
08A82:  ADDWFC x24,W
08A84:  MOVWF  x30
08A86:  MOVLW  66
08A88:  MOVWF  x31
08A8A:  MOVLW  77
08A8C:  MOVWF  x32
08A8E:  MOVFF  330,336
08A92:  MOVFF  32F,335
08A96:  MOVFF  322,334
08A9A:  MOVFF  321,333
08A9E:  MOVLW  01
08AA0:  MOVWF  x38
08AA2:  MOVLW  95
08AA4:  MOVWF  x37
08AA6:  MOVLB  0
08AA8:  CALL   7D64
....................    ADH=0; ADL=0; DL_AD=0; D=0; 
08AAC:  MOVLB  3
08AAE:  CLRF   x1F
08AB0:  CLRF   x20
08AB2:  CLRF   x24
08AB4:  CLRF   x23
08AB6:  CLRF   x22
08AB8:  CLRF   x21
08ABA:  CLRF   x1E
08ABC:  CLRF   x1D
....................    return; 
08ABE:  MOVLB  0
08AC0:  GOTO   90F0 (RETURN)
.................... } 
....................  
.................... void DAY26to46_ADDRESS()                                                         //CAM DL 1 
.................... { 
....................    AD = PASSED_DAYS % loop_day;                                                  //26,27,28,29,30,31,32,33,34,35,36,37,38,39,40,41,42,43,44,45,46 
*
095DA:  MOVFF  6A,33E
095DE:  MOVFF  69,33D
095E2:  MOVLB  3
095E4:  CLRF   x40
095E6:  MOVLW  46
095E8:  MOVWF  x3F
095EA:  MOVLB  0
095EC:  CALL   6C8A
095F0:  MOVFF  00,31B
095F4:  MOVLB  3
095F6:  MOVFF  03,31C
....................    ADH = AD << 8; 
095FA:  CLRF   x1F
....................    ADL = AD; 
095FC:  MOVFF  31B,320
....................     
....................    D = AD - 21; 
09600:  MOVLW  15
09602:  SUBWF  x1B,W
09604:  MOVWF  x1D
09606:  MOVLW  00
09608:  SUBWFB x1C,W
0960A:  MOVWF  x1E
....................    DL_AD = D*5;                                                                  //saltos de 5 paquetes 
0960C:  MOVFF  31E,349
09610:  MOVFF  31D,348
09614:  CLRF   x4B
09616:  MOVLW  05
09618:  MOVWF  x4A
0961A:  MOVLB  0
0961C:  CALL   7E50
09620:  MOVLB  3
09622:  CLRF   x24
09624:  CLRF   x23
09626:  MOVFF  02,322
0962A:  MOVFF  01,321
....................    DL_AD = DL_AD * 81; 
0962E:  MOVFF  324,337
09632:  MOVFF  323,336
09636:  MOVFF  322,335
0963A:  MOVFF  321,334
0963E:  CLRF   x3B
09640:  CLRF   x3A
09642:  CLRF   x39
09644:  MOVLW  51
09646:  MOVWF  x38
09648:  MOVLB  0
0964A:  CALL   6CD0
0964E:  MOVFF  03,324
09652:  MOVFF  02,323
09656:  MOVFF  01,322
0965A:  MOVFF  00,321
....................    ///////////////////////PACKET///////////////////////// 
....................    //25-29,   40-34,   35-39,   40-44,   45-49 
....................    //50-54,   55-59,   60-64,   65-69,   70-74 
....................    //75-79,   80-84,   85-89,   90-94,   95-99 
....................    //100-104, 105-109, 110-114, 115-119, 120-124 
....................    //125-129 
....................    //---------------------------------------------------- 
....................    //total is 129 packet 
....................    ////////////////////////////////////////////////////// 
....................     
....................    /////////////////////////////BYTE///////////////////////// 
....................    //2025-2429, 2430-2834, 2835-3239, 3240-3644, 3645-4049 
....................    //4050-4454, 4455-4859, 4860-5264, 5265-5669, 5670-6074 
....................    //6075-6479, 6480-6884, 6885-7289, 7290-7694, 7695-8099 
....................    //8100-8504, 8505-8909, 8910-9314, 9315-9719, 9720-10124 
....................    //10125-10530 
....................    //-------------------------------------------------------- 
....................    //total is about 10kB 
....................    ////////////////////////////////////////////////////////// 
....................     
....................    UPDATE_ACK_for_COM(0x66,0x77,SECT*8+DL_AD,405);                               //65536*8 
0965E:  MOVLB  3
09660:  MOVFF  321,32D
09664:  MOVFF  322,32E
09668:  MOVLW  08
0966A:  ADDWF  x23,W
0966C:  MOVWF  x2F
0966E:  MOVLW  00
09670:  ADDWFC x24,W
09672:  MOVWF  x30
09674:  MOVLW  66
09676:  MOVWF  x31
09678:  MOVLW  77
0967A:  MOVWF  x32
0967C:  MOVFF  330,336
09680:  MOVFF  32F,335
09684:  MOVFF  322,334
09688:  MOVFF  321,333
0968C:  MOVLW  01
0968E:  MOVWF  x38
09690:  MOVLW  95
09692:  MOVWF  x37
09694:  MOVLB  0
09696:  CALL   7D64
....................    ADH=0; ADL=0; DL_AD=0; D=0; 
0969A:  MOVLB  3
0969C:  CLRF   x1F
0969E:  CLRF   x20
096A0:  CLRF   x24
096A2:  CLRF   x23
096A4:  CLRF   x22
096A6:  CLRF   x21
096A8:  CLRF   x1E
096AA:  CLRF   x1D
....................    return; 
096AC:  MOVLB  0
096AE:  GOTO   9D18 (RETURN)
.................... } 
....................  
.................... //@@@@@@@@@@@@@@@@@@@@@@@@@@ MBP MISSION @@@@@@@@@@@@@@@@@@@@@@@@@@@@@@@@ 
.................... void DAY10()                                                                     //MBP mission 
.................... { 
....................    AUTO_MBP_DONE = 1; 
*
08586:  MOVLW  01
08588:  MOVWF  x79
....................    STORE_FLAG_INFO();                                                            //save flag 
0858A:  CALL   5714
....................    WRITE_FLAG_to_EEPROM(); 
0858E:  CALL   5924
....................     
....................    SAVE_SAT_LOG(0xD0,0x11,0x11);                                                 //11,11: automatical mission 
08592:  MOVLW  D0
08594:  MOVLB  3
08596:  MOVWF  x54
08598:  MOVLW  11
0859A:  MOVWF  x55
0859C:  MOVWF  x56
0859E:  MOVLB  0
085A0:  CALL   3A8A
.................... //   DATACOLLECTION_TEST_OPERATION();                                              //1 execution of the mission 
....................    delay_ms(3000); 
085A4:  MOVLW  0C
085A6:  MOVLB  3
085A8:  MOVWF  x2D
085AA:  MOVLW  FA
085AC:  MOVWF  x6B
085AE:  MOVLB  0
085B0:  CALL   1AFC
085B4:  MOVLB  3
085B6:  DECFSZ x2D,F
085B8:  BRA    85AA
....................    SAVE_SAT_LOG(0xD0,0x22,0x22);                                                 //01,01: automatical mission 
085BA:  MOVLW  D0
085BC:  MOVWF  x54
085BE:  MOVLW  22
085C0:  MOVWF  x55
085C2:  MOVWF  x56
085C4:  MOVLB  0
085C6:  CALL   3A8A
.................... //   DATACOLLECTION_TEST_OPERATION();                                              //2 execution of the mission 
....................    delay_ms(3000); 
085CA:  MOVLW  0C
085CC:  MOVLB  3
085CE:  MOVWF  x2D
085D0:  MOVLW  FA
085D2:  MOVWF  x6B
085D4:  MOVLB  0
085D6:  CALL   1AFC
085DA:  MOVLB  3
085DC:  DECFSZ x2D,F
085DE:  BRA    85D0
....................    SAVE_SAT_LOG(0xD0,0x33,0x33);                                                 //01,01: automatical mission 
085E0:  MOVLW  D0
085E2:  MOVWF  x54
085E4:  MOVLW  33
085E6:  MOVWF  x55
085E8:  MOVWF  x56
085EA:  MOVLB  0
085EC:  CALL   3A8A
.................... //   DATACOLLECTION_TEST_OPERATION();                                              //3 execution of the mission 
....................    delay_ms(3000); 
085F0:  MOVLW  0C
085F2:  MOVLB  3
085F4:  MOVWF  x2D
085F6:  MOVLW  FA
085F8:  MOVWF  x6B
085FA:  MOVLB  0
085FC:  CALL   1AFC
08600:  MOVLB  3
08602:  DECFSZ x2D,F
08604:  BRA    85F6
....................    SAVE_SAT_LOG(0xD0,0x44,0x44);                                                 //01,01: automatical mission 
08606:  MOVLW  D0
08608:  MOVWF  x54
0860A:  MOVLW  44
0860C:  MOVWF  x55
0860E:  MOVWF  x56
08610:  MOVLB  0
08612:  CALL   3A8A
.................... //   DATACOLLECTION_TEST_OPERATION();                                              //4 execution of the mission 
....................    STORE_ADRESS_DATA_TO_FLASH(); 
08616:  CALL   3776
....................     
....................    AD = PASSED_DAYS % loop_day;                                                  //10 
0861A:  MOVFF  6A,33E
0861E:  MOVFF  69,33D
08622:  MOVLB  3
08624:  CLRF   x40
08626:  MOVLW  46
08628:  MOVWF  x3F
0862A:  MOVLB  0
0862C:  CALL   6C8A
08630:  MOVFF  00,31B
08634:  MOVLB  3
08636:  MOVFF  03,31C
....................    ADH = AD << 8; 
0863A:  CLRF   x1F
....................    ADL = AD; 
0863C:  MOVFF  31B,320
....................    SAVE_SAT_LOG(0xDD,ADH,ADL);                                                   //11,11: automatical mission 
08640:  MOVLW  DD
08642:  MOVWF  x54
08644:  MOVFF  31F,355
08648:  MOVFF  320,356
0864C:  MOVLB  0
0864E:  CALL   3A8A
....................    UPDATE_ACK_for_COM(0x66,0x77,DC_STATUS_ADDRESS-332,332);                      //65536*162, 332 corresponde a 4 paquetes de 83 recibidos de la ejecucion de DC 
08652:  MOVLW  4C
08654:  SUBWF  58,W
08656:  MOVLB  3
08658:  MOVWF  x2D
0865A:  MOVLW  01
0865C:  SUBWFB 59,W
0865E:  MOVWF  x2E
08660:  MOVLW  00
08662:  SUBWFB 5A,W
08664:  MOVWF  x2F
08666:  MOVLW  00
08668:  SUBWFB 5B,W
0866A:  MOVWF  x30
0866C:  MOVLW  66
0866E:  MOVWF  x31
08670:  MOVLW  77
08672:  MOVWF  x32
08674:  MOVFF  330,336
08678:  MOVFF  32F,335
0867C:  MOVFF  32E,334
08680:  MOVFF  32D,333
08684:  MOVLW  01
08686:  MOVWF  x38
08688:  MOVLW  4C
0868A:  MOVWF  x37
0868C:  MOVLB  0
0868E:  CALL   7D64
....................    return; 
08692:  GOTO   8F20 (RETURN)
.................... } 
....................  
.................... void DAY11to14()                                                                 //MBP Data download 
.................... { 
....................    SAVE_SAT_LOG(0xD0,0x11,0x11);                                                 //01,01: automatical mission 
08696:  MOVLW  D0
08698:  MOVLB  3
0869A:  MOVWF  x54
0869C:  MOVLW  11
0869E:  MOVWF  x55
086A0:  MOVWF  x56
086A2:  MOVLB  0
086A4:  CALL   3A8A
....................   // DATACOLLECTION_TEST_OPERATION(); 
....................    delay_ms(3000); 
086A8:  MOVLW  0C
086AA:  MOVLB  3
086AC:  MOVWF  x2D
086AE:  MOVLW  FA
086B0:  MOVWF  x6B
086B2:  MOVLB  0
086B4:  CALL   1AFC
086B8:  MOVLB  3
086BA:  DECFSZ x2D,F
086BC:  BRA    86AE
....................    SAVE_SAT_LOG(0xD0,0x22,0x22);                                                 //01,01: automatical mission 
086BE:  MOVLW  D0
086C0:  MOVWF  x54
086C2:  MOVLW  22
086C4:  MOVWF  x55
086C6:  MOVWF  x56
086C8:  MOVLB  0
086CA:  CALL   3A8A
....................   // DATACOLLECTION_TEST_OPERATION(); 
....................    delay_ms(3000); 
086CE:  MOVLW  0C
086D0:  MOVLB  3
086D2:  MOVWF  x2D
086D4:  MOVLW  FA
086D6:  MOVWF  x6B
086D8:  MOVLB  0
086DA:  CALL   1AFC
086DE:  MOVLB  3
086E0:  DECFSZ x2D,F
086E2:  BRA    86D4
....................    SAVE_SAT_LOG(0xD0,0x33,0x33);                                                 //01,01: automatical mission 
086E4:  MOVLW  D0
086E6:  MOVWF  x54
086E8:  MOVLW  33
086EA:  MOVWF  x55
086EC:  MOVWF  x56
086EE:  MOVLB  0
086F0:  CALL   3A8A
....................    //DATACOLLECTION_TEST_OPERATION(); 
....................    delay_ms(3000); 
086F4:  MOVLW  0C
086F6:  MOVLB  3
086F8:  MOVWF  x2D
086FA:  MOVLW  FA
086FC:  MOVWF  x6B
086FE:  MOVLB  0
08700:  CALL   1AFC
08704:  MOVLB  3
08706:  DECFSZ x2D,F
08708:  BRA    86FA
....................    SAVE_SAT_LOG(0xD4,0x44,0x44);                                                 //01,01: automatical mission 
0870A:  MOVLW  D4
0870C:  MOVWF  x54
0870E:  MOVLW  44
08710:  MOVWF  x55
08712:  MOVWF  x56
08714:  MOVLB  0
08716:  CALL   3A8A
....................  //  DATACOLLECTION_TEST_OPERATION(); 
....................    STORE_ADRESS_DATA_TO_FLASH(); 
0871A:  CALL   3776
....................     
....................    AD = PASSED_DAYS % loop_day;                                                  //11,12,13,14 
0871E:  MOVFF  6A,33E
08722:  MOVFF  69,33D
08726:  MOVLB  3
08728:  CLRF   x40
0872A:  MOVLW  46
0872C:  MOVWF  x3F
0872E:  MOVLB  0
08730:  CALL   6C8A
08734:  MOVFF  00,31B
08738:  MOVLB  3
0873A:  MOVFF  03,31C
....................    ADH = AD << 8; 
0873E:  CLRF   x1F
....................    ADL = AD; 
08740:  MOVFF  31B,320
....................    SAVE_SAT_LOG(0xDD,ADH,ADL); 
08744:  MOVLW  DD
08746:  MOVWF  x54
08748:  MOVFF  31F,355
0874C:  MOVFF  320,356
08750:  MOVLB  0
08752:  CALL   3A8A
....................    UPDATE_ACK_for_COM(0x66,0x77,DC_STATUS_ADDRESS-332,332);                      //65536*8 
08756:  MOVLW  4C
08758:  SUBWF  58,W
0875A:  MOVLB  3
0875C:  MOVWF  x2D
0875E:  MOVLW  01
08760:  SUBWFB 59,W
08762:  MOVWF  x2E
08764:  MOVLW  00
08766:  SUBWFB 5A,W
08768:  MOVWF  x2F
0876A:  MOVLW  00
0876C:  SUBWFB 5B,W
0876E:  MOVWF  x30
08770:  MOVLW  66
08772:  MOVWF  x31
08774:  MOVLW  77
08776:  MOVWF  x32
08778:  MOVFF  330,336
0877C:  MOVFF  32F,335
08780:  MOVFF  32E,334
08784:  MOVFF  32D,333
08788:  MOVLW  01
0878A:  MOVWF  x38
0878C:  MOVLW  4C
0878E:  MOVWF  x37
08790:  MOVLB  0
08792:  CALL   7D64
....................    ADH=0; ADL=0; DL_AD=0; D=0; 
08796:  MOVLB  3
08798:  CLRF   x1F
0879A:  CLRF   x20
0879C:  CLRF   x24
0879E:  CLRF   x23
087A0:  CLRF   x22
087A2:  CLRF   x21
087A4:  CLRF   x1E
087A6:  CLRF   x1D
....................    return; 
087A8:  MOVLB  0
087AA:  GOTO   8F84 (RETURN)
.................... } 
....................  
.................... void DAY11to14_ADDRESS()                                                         //MBP Data download 
.................... {    
....................    AD = PASSED_DAYS % loop_day;                                                  //11,12,13,14 
*
093DE:  MOVFF  6A,33E
093E2:  MOVFF  69,33D
093E6:  MOVLB  3
093E8:  CLRF   x40
093EA:  MOVLW  46
093EC:  MOVWF  x3F
093EE:  MOVLB  0
093F0:  CALL   6C8A
093F4:  MOVFF  00,31B
093F8:  MOVLB  3
093FA:  MOVFF  03,31C
....................    ADH = AD << 8; 
093FE:  CLRF   x1F
....................    ADL = AD; 
09400:  MOVFF  31B,320
....................    UPDATE_ACK_for_COM(0x66,0x77,DC_STATUS_ADDRESS-332,332);//65536*8 
09404:  MOVLW  4C
09406:  SUBWF  58,W
09408:  MOVWF  x2D
0940A:  MOVLW  01
0940C:  SUBWFB 59,W
0940E:  MOVWF  x2E
09410:  MOVLW  00
09412:  SUBWFB 5A,W
09414:  MOVWF  x2F
09416:  MOVLW  00
09418:  SUBWFB 5B,W
0941A:  MOVWF  x30
0941C:  MOVLW  66
0941E:  MOVWF  x31
09420:  MOVLW  77
09422:  MOVWF  x32
09424:  MOVFF  330,336
09428:  MOVFF  32F,335
0942C:  MOVFF  32E,334
09430:  MOVFF  32D,333
09434:  MOVLW  01
09436:  MOVWF  x38
09438:  MOVLW  4C
0943A:  MOVWF  x37
0943C:  MOVLB  0
0943E:  CALL   7D64
....................    ADH=0; ADL=0; DL_AD=0; D=0; 
09442:  MOVLB  3
09444:  CLRF   x1F
09446:  CLRF   x20
09448:  CLRF   x24
0944A:  CLRF   x23
0944C:  CLRF   x22
0944E:  CLRF   x21
09450:  CLRF   x1E
09452:  CLRF   x1D
....................    return; 
09454:  MOVLB  0
09456:  GOTO   9B8C (RETURN)
.................... } 
....................  
.................... //@@@@@@@@@@@ ADCS MISSION @@@@@@@@@@@@@@@@@@@@@@@@@@@@@@@@@@@@@@@@@@@@@@@@@@@@@@@@@@@@@@@@@@@@@@@@@@ 
.................... void DAY15()                                                                     //ADCS MSN 
.................... { 
....................    SAVE_SAT_LOG(0xA0,0x11,0x11);                                                 //01,01: automatical mission 
*
087AE:  MOVLW  A0
087B0:  MOVLB  3
087B2:  MOVWF  x54
087B4:  MOVLW  11
087B6:  MOVWF  x55
087B8:  MOVWF  x56
087BA:  MOVLB  0
087BC:  CALL   3A8A
....................    AUTO_ADCS_DONE = 1; 
087C0:  MOVLW  01
087C2:  MOVWF  x7A
....................    STORE_FLAG_INFO();                                                            //save flag 
087C4:  CALL   5714
....................    WRITE_FLAG_to_EEPROM(); 
087C8:  CALL   5924
....................  /*ADCS_TEST_OPERATION(5400,AUTO_ADCS_MSN);*/ 
....................    STORE_ADRESS_DATA_TO_FLASH(); 
087CC:  CALL   3776
....................     
....................    AD = PASSED_DAYS % loop_day;                                                  //15 
087D0:  MOVFF  6A,33E
087D4:  MOVFF  69,33D
087D8:  MOVLB  3
087DA:  CLRF   x40
087DC:  MOVLW  46
087DE:  MOVWF  x3F
087E0:  MOVLB  0
087E2:  CALL   6C8A
087E6:  MOVFF  00,31B
087EA:  MOVLB  3
087EC:  MOVFF  03,31C
....................    ADH = AD << 8; 
087F0:  CLRF   x1F
....................    ADL = AD; 
087F2:  MOVFF  31B,320
....................    SAVE_SAT_LOG(0xAD,ADH,ADL);                                                   //11,11: automatical mission 
087F6:  MOVLW  AD
087F8:  MOVWF  x54
087FA:  MOVFF  31F,355
087FE:  MOVFF  320,356
08802:  MOVLB  0
08804:  CALL   3A8A
....................    UPDATE_ACK_for_COM(0x66, 0x77, SECT*1138, 405);                               //(9byte) + (initial 81byte) + (end 81byte) 
08808:  MOVLW  66
0880A:  MOVLB  3
0880C:  MOVWF  x31
0880E:  MOVLW  77
08810:  MOVWF  x32
08812:  MOVLW  04
08814:  MOVWF  x36
08816:  MOVLW  72
08818:  MOVWF  x35
0881A:  CLRF   x34
0881C:  CLRF   x33
0881E:  MOVLW  01
08820:  MOVWF  x38
08822:  MOVLW  95
08824:  MOVWF  x37
08826:  MOVLB  0
08828:  CALL   7D64
....................    return; 
0882C:  GOTO   8FCA (RETURN)
.................... } 
....................  
.................... void DAY16to19()                                                                 //ADCS Data download 
.................... { 
....................    AD = PASSED_DAYS % loop_day;                                                  //16,17,18,19 
08830:  MOVFF  6A,33E
08834:  MOVFF  69,33D
08838:  MOVLB  3
0883A:  CLRF   x40
0883C:  MOVLW  46
0883E:  MOVWF  x3F
08840:  MOVLB  0
08842:  CALL   6C8A
08846:  MOVFF  00,31B
0884A:  MOVLB  3
0884C:  MOVFF  03,31C
....................    ADH = AD << 8; 
08850:  CLRF   x1F
....................    ADL = AD; 
08852:  MOVFF  31B,320
....................    D = AD - 15; 
08856:  MOVLW  0F
08858:  SUBWF  x1B,W
0885A:  MOVWF  x1D
0885C:  MOVLW  00
0885E:  SUBWFB x1C,W
08860:  MOVWF  x1E
....................    DL_AD = 360*D; 
08862:  MOVLW  01
08864:  MOVWF  x49
08866:  MOVLW  68
08868:  MOVWF  x48
0886A:  MOVFF  31E,34B
0886E:  MOVFF  31D,34A
08872:  MOVLB  0
08874:  CALL   7E50
08878:  MOVLB  3
0887A:  CLRF   x24
0887C:  CLRF   x23
0887E:  MOVFF  02,322
08882:  MOVFF  01,321
....................    SAVE_SAT_LOG(0xAD,ADH,ADL);                                                   //11,11: automatical mission 
08886:  MOVLW  AD
08888:  MOVWF  x54
0888A:  MOVFF  31F,355
0888E:  MOVFF  320,356
08892:  MOVLB  0
08894:  CALL   3A8A
....................    UPDATE_ACK_for_COM(0x66,0x77,SECT*1639+DL_AD,405);                            //65536*8 
08898:  MOVLB  3
0889A:  MOVFF  321,32D
0889E:  MOVFF  322,32E
088A2:  MOVLW  67
088A4:  ADDWF  x23,W
088A6:  MOVWF  x2F
088A8:  MOVLW  06
088AA:  ADDWFC x24,W
088AC:  MOVWF  x30
088AE:  MOVLW  66
088B0:  MOVWF  x31
088B2:  MOVLW  77
088B4:  MOVWF  x32
088B6:  MOVFF  330,336
088BA:  MOVFF  32F,335
088BE:  MOVFF  322,334
088C2:  MOVFF  321,333
088C6:  MOVLW  01
088C8:  MOVWF  x38
088CA:  MOVLW  95
088CC:  MOVWF  x37
088CE:  MOVLB  0
088D0:  CALL   7D64
....................    ADH=0; ADL=0; DL_AD=0; D=0; 
088D4:  MOVLB  3
088D6:  CLRF   x1F
088D8:  CLRF   x20
088DA:  CLRF   x24
088DC:  CLRF   x23
088DE:  CLRF   x22
088E0:  CLRF   x21
088E2:  CLRF   x1E
088E4:  CLRF   x1D
....................    return; 
088E6:  MOVLB  0
088E8:  GOTO   902C (RETURN)
.................... } 
....................  
.................... void DAY16to19_ADDRESS()                                                         //ADCS DL 
.................... { 
....................    AD = PASSED_DAYS % loop_day;                                                  //16,17,18,19 
*
0945A:  MOVFF  6A,33E
0945E:  MOVFF  69,33D
09462:  MOVLB  3
09464:  CLRF   x40
09466:  MOVLW  46
09468:  MOVWF  x3F
0946A:  MOVLB  0
0946C:  CALL   6C8A
09470:  MOVFF  00,31B
09474:  MOVLB  3
09476:  MOVFF  03,31C
....................    ADH = AD << 8; 
0947A:  CLRF   x1F
....................    ADL = AD; 
0947C:  MOVFF  31B,320
....................    D = AD - 15; 
09480:  MOVLW  0F
09482:  SUBWF  x1B,W
09484:  MOVWF  x1D
09486:  MOVLW  00
09488:  SUBWFB x1C,W
0948A:  MOVWF  x1E
....................    DL_AD = 360*D;                                                                //saltos de 360 paquetes 
0948C:  MOVLW  01
0948E:  MOVWF  x49
09490:  MOVLW  68
09492:  MOVWF  x48
09494:  MOVFF  31E,34B
09498:  MOVFF  31D,34A
0949C:  MOVLB  0
0949E:  CALL   7E50
094A2:  MOVLB  3
094A4:  CLRF   x24
094A6:  CLRF   x23
094A8:  MOVFF  02,322
094AC:  MOVFF  01,321
....................    UPDATE_ACK_for_COM(0x66,0x77,SECT*1639+DL_AD,405);                            //65536*8 
094B0:  MOVFF  321,32D
094B4:  MOVFF  322,32E
094B8:  MOVLW  67
094BA:  ADDWF  x23,W
094BC:  MOVWF  x2F
094BE:  MOVLW  06
094C0:  ADDWFC x24,W
094C2:  MOVWF  x30
094C4:  MOVLW  66
094C6:  MOVWF  x31
094C8:  MOVLW  77
094CA:  MOVWF  x32
094CC:  MOVFF  330,336
094D0:  MOVFF  32F,335
094D4:  MOVFF  322,334
094D8:  MOVFF  321,333
094DC:  MOVLW  01
094DE:  MOVWF  x38
094E0:  MOVLW  95
094E2:  MOVWF  x37
094E4:  MOVLB  0
094E6:  CALL   7D64
....................    ADH=0; ADL=0; DL_AD=0; D=0; 
094EA:  MOVLB  3
094EC:  CLRF   x1F
094EE:  CLRF   x20
094F0:  CLRF   x24
094F2:  CLRF   x23
094F4:  CLRF   x22
094F6:  CLRF   x21
094F8:  CLRF   x1E
094FA:  CLRF   x1D
....................    return; 
094FC:  MOVLB  0
094FE:  GOTO   9C54 (RETURN)
.................... } 
....................  
.................... void DAY47to52()                                                                 //ADCS Datadownload 
.................... { 
....................    AD = PASSED_DAYS % loop_day;                                                  //47,48,49,50,51,52 
*
08AC4:  MOVFF  6A,33E
08AC8:  MOVFF  69,33D
08ACC:  MOVLB  3
08ACE:  CLRF   x40
08AD0:  MOVLW  46
08AD2:  MOVWF  x3F
08AD4:  MOVLB  0
08AD6:  CALL   6C8A
08ADA:  MOVFF  00,31B
08ADE:  MOVLB  3
08AE0:  MOVFF  03,31C
....................    ADH = AD << 8; 
08AE4:  CLRF   x1F
....................    ADL = AD; 
08AE6:  MOVFF  31B,320
....................    D = AD - 42;                                                                  //5,6,7,8,9,10 
08AEA:  MOVLW  2A
08AEC:  SUBWF  x1B,W
08AEE:  MOVWF  x1D
08AF0:  MOVLW  00
08AF2:  SUBWFB x1C,W
08AF4:  MOVWF  x1E
....................     
....................    DL_AD = 360*D;                                                                //realiza saltos de 360 
08AF6:  MOVLW  01
08AF8:  MOVWF  x49
08AFA:  MOVLW  68
08AFC:  MOVWF  x48
08AFE:  MOVFF  31E,34B
08B02:  MOVFF  31D,34A
08B06:  MOVLB  0
08B08:  CALL   7E50
08B0C:  MOVLB  3
08B0E:  CLRF   x24
08B10:  CLRF   x23
08B12:  MOVFF  02,322
08B16:  MOVFF  01,321
....................    DL_AD = DL_AD * 81;                                                           //download address 
08B1A:  MOVFF  324,337
08B1E:  MOVFF  323,336
08B22:  MOVFF  322,335
08B26:  MOVFF  321,334
08B2A:  CLRF   x3B
08B2C:  CLRF   x3A
08B2E:  CLRF   x39
08B30:  MOVLW  51
08B32:  MOVWF  x38
08B34:  MOVLB  0
08B36:  CALL   6CD0
08B3A:  MOVFF  03,324
08B3E:  MOVFF  02,323
08B42:  MOVFF  01,322
08B46:  MOVFF  00,321
....................    /////////////////////////////PACKET//////////////////////////////// 
....................    //1800-1804, 2160-2164, 2520-2524, 2880-2884, 3240-3244, 3600-3604 
....................    /////////////////////////////////////////////////////////////////// 
....................     
....................    SAVE_SAT_LOG(0xAD,ADH,ADL);                                                   //11,11: automatical mission 
08B4A:  MOVLW  AD
08B4C:  MOVLB  3
08B4E:  MOVWF  x54
08B50:  MOVFF  31F,355
08B54:  MOVFF  320,356
08B58:  MOVLB  0
08B5A:  CALL   3A8A
....................    UPDATE_ACK_for_COM(0x66,0x77,SECT*1639+DL_AD,405);                            //65536*8 
08B5E:  MOVLB  3
08B60:  MOVFF  321,32D
08B64:  MOVFF  322,32E
08B68:  MOVLW  67
08B6A:  ADDWF  x23,W
08B6C:  MOVWF  x2F
08B6E:  MOVLW  06
08B70:  ADDWFC x24,W
08B72:  MOVWF  x30
08B74:  MOVLW  66
08B76:  MOVWF  x31
08B78:  MOVLW  77
08B7A:  MOVWF  x32
08B7C:  MOVFF  330,336
08B80:  MOVFF  32F,335
08B84:  MOVFF  322,334
08B88:  MOVFF  321,333
08B8C:  MOVLW  01
08B8E:  MOVWF  x38
08B90:  MOVLW  95
08B92:  MOVWF  x37
08B94:  MOVLB  0
08B96:  CALL   7D64
....................    ADH=0; ADL=0; DL_AD=0; D=0; 
08B9A:  MOVLB  3
08B9C:  CLRF   x1F
08B9E:  CLRF   x20
08BA0:  CLRF   x24
08BA2:  CLRF   x23
08BA4:  CLRF   x22
08BA6:  CLRF   x21
08BA8:  CLRF   x1E
08BAA:  CLRF   x1D
....................    return; 
08BAC:  MOVLB  0
08BAE:  GOTO   9152 (RETURN)
.................... } 
....................  
.................... void DAY47to52_ADDRESS()                                                         //ADCS DL 
.................... { 
....................    AD = PASSED_DAYS % loop_day;                                                  //47,48,49,50,51,52 
*
096B2:  MOVFF  6A,33E
096B6:  MOVFF  69,33D
096BA:  MOVLB  3
096BC:  CLRF   x40
096BE:  MOVLW  46
096C0:  MOVWF  x3F
096C2:  MOVLB  0
096C4:  CALL   6C8A
096C8:  MOVFF  00,31B
096CC:  MOVLB  3
096CE:  MOVFF  03,31C
....................    ADH = AD << 8; 
096D2:  CLRF   x1F
....................    ADL = AD; 
096D4:  MOVFF  31B,320
....................    D = AD - 42;                                                                  //5,6,7,8,9,10 
096D8:  MOVLW  2A
096DA:  SUBWF  x1B,W
096DC:  MOVWF  x1D
096DE:  MOVLW  00
096E0:  SUBWFB x1C,W
096E2:  MOVWF  x1E
....................     
....................    DL_AD = 360*D;                                                                //saltos de 360 paquetes 
096E4:  MOVLW  01
096E6:  MOVWF  x49
096E8:  MOVLW  68
096EA:  MOVWF  x48
096EC:  MOVFF  31E,34B
096F0:  MOVFF  31D,34A
096F4:  MOVLB  0
096F6:  CALL   7E50
096FA:  MOVLB  3
096FC:  CLRF   x24
096FE:  CLRF   x23
09700:  MOVFF  02,322
09704:  MOVFF  01,321
....................    DL_AD = DL_AD * 81; 
09708:  MOVFF  324,337
0970C:  MOVFF  323,336
09710:  MOVFF  322,335
09714:  MOVFF  321,334
09718:  CLRF   x3B
0971A:  CLRF   x3A
0971C:  CLRF   x39
0971E:  MOVLW  51
09720:  MOVWF  x38
09722:  MOVLB  0
09724:  CALL   6CD0
09728:  MOVFF  03,324
0972C:  MOVFF  02,323
09730:  MOVFF  01,322
09734:  MOVFF  00,321
....................    /////////////////////////////PACKET//////////////////////////////// 
....................    //1800-1804, 2160-2164, 2520-2524, 2880-2884, 3240-3244, 3600-3604 
....................    /////////////////////////////////////////////////////////////////// 
....................     
....................    UPDATE_ACK_for_COM(0x66,0x77,SECT*1639+DL_AD,405);                            //65536*8 
09738:  MOVLB  3
0973A:  MOVFF  321,32D
0973E:  MOVFF  322,32E
09742:  MOVLW  67
09744:  ADDWF  x23,W
09746:  MOVWF  x2F
09748:  MOVLW  06
0974A:  ADDWFC x24,W
0974C:  MOVWF  x30
0974E:  MOVLW  66
09750:  MOVWF  x31
09752:  MOVLW  77
09754:  MOVWF  x32
09756:  MOVFF  330,336
0975A:  MOVFF  32F,335
0975E:  MOVFF  322,334
09762:  MOVFF  321,333
09766:  MOVLW  01
09768:  MOVWF  x38
0976A:  MOVLW  95
0976C:  MOVWF  x37
0976E:  MOVLB  0
09770:  CALL   7D64
....................    ADH=0; ADL=0; DL_AD=0; D=0; 
09774:  MOVLB  3
09776:  CLRF   x1F
09778:  CLRF   x20
0977A:  CLRF   x24
0977C:  CLRF   x23
0977E:  CLRF   x22
09780:  CLRF   x21
09782:  CLRF   x1E
09784:  CLRF   x1D
....................    return; 
09786:  MOVLB  0
09788:  GOTO   9D7A (RETURN)
.................... } 
....................  
.................... //@@@@@@@@@@@ SAT_LOG @@@@@@@@@@@@@@@@@@@@@@@@@@@@@@@@@@@@@@@@@@@@@@@@@@@@@@@@@@@@@@@@@@@@@@@@@@ 
.................... void DAY53to59()                                                                 //LOG DL 
.................... { 
....................    AD = PASSED_DAYS % loop_day;                                                  //53,54,55,56,57,58,59 
*
08BB2:  MOVFF  6A,33E
08BB6:  MOVFF  69,33D
08BBA:  MOVLB  3
08BBC:  CLRF   x40
08BBE:  MOVLW  46
08BC0:  MOVWF  x3F
08BC2:  MOVLB  0
08BC4:  CALL   6C8A
08BC8:  MOVFF  00,31B
08BCC:  MOVLB  3
08BCE:  MOVFF  03,31C
....................    ADH = AD << 8; 
08BD2:  CLRF   x1F
....................    ADL = AD; 
08BD4:  MOVFF  31B,320
....................    D = AD - 53;                                                                  //0,1,2,3,4,5,6 
08BD8:  MOVLW  35
08BDA:  SUBWF  x1B,W
08BDC:  MOVWF  x1D
08BDE:  MOVLW  00
08BE0:  SUBWFB x1C,W
08BE2:  MOVWF  x1E
....................     
....................    DL_AD = D; 
08BE4:  CLRF   x24
08BE6:  CLRF   x23
08BE8:  MOVFF  31E,322
08BEC:  MOVFF  31D,321
....................    DL_AD = DL_AD * 81; 
08BF0:  MOVFF  324,337
08BF4:  MOVFF  323,336
08BF8:  MOVFF  322,335
08BFC:  MOVFF  321,334
08C00:  CLRF   x3B
08C02:  CLRF   x3A
08C04:  CLRF   x39
08C06:  MOVLW  51
08C08:  MOVWF  x38
08C0A:  MOVLB  0
08C0C:  CALL   6CD0
08C10:  MOVFF  03,324
08C14:  MOVFF  02,323
08C18:  MOVFF  01,322
08C1C:  MOVFF  00,321
....................    /////////////////////////////PACKET////////////////////////////// 
....................    //0-4, 5-10, 10-14, 15-19, 20-24, 25-29, 30-34 
....................    ///////////////////////////////////////////////////////////////// 
....................     
....................    SAVE_SAT_LOG(0xAD,ADH,ADL);                                                   //11,11: automatical mission 
08C20:  MOVLW  AD
08C22:  MOVLB  3
08C24:  MOVWF  x54
08C26:  MOVFF  31F,355
08C2A:  MOVFF  320,356
08C2E:  MOVLB  0
08C30:  CALL   3A8A
....................    UPDATE_ACK_for_COM(0x66,0x77,SECT*6+DL_AD,405);                               //65536*8 
08C34:  MOVLB  3
08C36:  MOVFF  321,32D
08C3A:  MOVFF  322,32E
08C3E:  MOVLW  06
08C40:  ADDWF  x23,W
08C42:  MOVWF  x2F
08C44:  MOVLW  00
08C46:  ADDWFC x24,W
08C48:  MOVWF  x30
08C4A:  MOVLW  66
08C4C:  MOVWF  x31
08C4E:  MOVLW  77
08C50:  MOVWF  x32
08C52:  MOVFF  330,336
08C56:  MOVFF  32F,335
08C5A:  MOVFF  322,334
08C5E:  MOVFF  321,333
08C62:  MOVLW  01
08C64:  MOVWF  x38
08C66:  MOVLW  95
08C68:  MOVWF  x37
08C6A:  MOVLB  0
08C6C:  CALL   7D64
....................    ADH=0; ADL=0; DL_AD=0; D=0; 
08C70:  MOVLB  3
08C72:  CLRF   x1F
08C74:  CLRF   x20
08C76:  CLRF   x24
08C78:  CLRF   x23
08C7A:  CLRF   x22
08C7C:  CLRF   x21
08C7E:  CLRF   x1E
08C80:  CLRF   x1D
....................    return; 
08C82:  MOVLB  0
08C84:  GOTO   91B4 (RETURN)
.................... } 
....................  
.................... void DAY53to59_ADDRESS()                                                         //LOG DL 
.................... { 
....................    AD = PASSED_DAYS % loop_day;                                                  //53,54,55,56,57,58,59 
*
0978C:  MOVFF  6A,33E
09790:  MOVFF  69,33D
09794:  MOVLB  3
09796:  CLRF   x40
09798:  MOVLW  46
0979A:  MOVWF  x3F
0979C:  MOVLB  0
0979E:  CALL   6C8A
097A2:  MOVFF  00,31B
097A6:  MOVLB  3
097A8:  MOVFF  03,31C
....................    ADH = AD << 8; 
097AC:  CLRF   x1F
....................    ADL = AD; 
097AE:  MOVFF  31B,320
....................    D = AD - 53;                                                                  //0,1,2,3,4,5,6 
097B2:  MOVLW  35
097B4:  SUBWF  x1B,W
097B6:  MOVWF  x1D
097B8:  MOVLW  00
097BA:  SUBWFB x1C,W
097BC:  MOVWF  x1E
....................     
....................    DL_AD = D; 
097BE:  CLRF   x24
097C0:  CLRF   x23
097C2:  MOVFF  31E,322
097C6:  MOVFF  31D,321
....................    DL_AD = DL_AD * 81; 
097CA:  MOVFF  324,337
097CE:  MOVFF  323,336
097D2:  MOVFF  322,335
097D6:  MOVFF  321,334
097DA:  CLRF   x3B
097DC:  CLRF   x3A
097DE:  CLRF   x39
097E0:  MOVLW  51
097E2:  MOVWF  x38
097E4:  MOVLB  0
097E6:  CALL   6CD0
097EA:  MOVFF  03,324
097EE:  MOVFF  02,323
097F2:  MOVFF  01,322
097F6:  MOVFF  00,321
....................    /////////////////////////////PACKET////////////////////////////// 
....................    //0-4, 5-10, 10-14, 15-19, 20-24, 25-29, 30-34 
....................    ///////////////////////////////////////////////////////////////// 
....................     
....................    UPDATE_ACK_for_COM(0x66,0x77,SECT*6+DL_AD,405);                               //65536*8 
097FA:  MOVLB  3
097FC:  MOVFF  321,32D
09800:  MOVFF  322,32E
09804:  MOVLW  06
09806:  ADDWF  x23,W
09808:  MOVWF  x2F
0980A:  MOVLW  00
0980C:  ADDWFC x24,W
0980E:  MOVWF  x30
09810:  MOVLW  66
09812:  MOVWF  x31
09814:  MOVLW  77
09816:  MOVWF  x32
09818:  MOVFF  330,336
0981C:  MOVFF  32F,335
09820:  MOVFF  322,334
09824:  MOVFF  321,333
09828:  MOVLW  01
0982A:  MOVWF  x38
0982C:  MOVLW  95
0982E:  MOVWF  x37
09830:  MOVLB  0
09832:  CALL   7D64
....................    ADH=0; ADL=0; DL_AD=0; D=0; 
09836:  MOVLB  3
09838:  CLRF   x1F
0983A:  CLRF   x20
0983C:  CLRF   x24
0983E:  CLRF   x23
09840:  CLRF   x22
09842:  CLRF   x21
09844:  CLRF   x1E
09846:  CLRF   x1D
....................    return; 
09848:  MOVLB  0
0984A:  GOTO   9DDC (RETURN)
.................... } 
....................  
.................... //@@@@@@@@@@@ NOMAL SAMPLING HK @@@@@@@@@@@@@@@@@@@@@@@@@@@@@@@@@@@@@@@@@@@@@@@@@@@@@@@@ 
.................... void DAY60to69()                                                                 //HK Download 
.................... { 
....................    AD = PASSED_DAYS % loop_day;                                                  //60,61,62,63,64,65,66,67,68,69 
*
08C88:  MOVFF  6A,33E
08C8C:  MOVFF  69,33D
08C90:  MOVLB  3
08C92:  CLRF   x40
08C94:  MOVLW  46
08C96:  MOVWF  x3F
08C98:  MOVLB  0
08C9A:  CALL   6C8A
08C9E:  MOVFF  00,31B
08CA2:  MOVLB  3
08CA4:  MOVFF  03,31C
....................    ADH = AD << 8; 
08CA8:  CLRF   x1F
....................    ADL = AD; 
08CAA:  MOVFF  31B,320
....................    //D = AD - 53;                                                                //0,1,2,3,4,5,6,7,8,9 (deberia ser AD-53?) 
....................    D = AD - 60; 
08CAE:  MOVLW  3C
08CB0:  SUBWF  x1B,W
08CB2:  MOVWF  x1D
08CB4:  MOVLW  00
08CB6:  SUBWFB x1C,W
08CB8:  MOVWF  x1E
....................    DL_AD = 9798*D;                                                               //realiza un salto de 9798 paquetes 
08CBA:  MOVLW  26
08CBC:  MOVWF  x49
08CBE:  MOVLW  46
08CC0:  MOVWF  x48
08CC2:  MOVFF  31E,34B
08CC6:  MOVFF  31D,34A
08CCA:  MOVLB  0
08CCC:  CALL   7E50
08CD0:  MOVLB  3
08CD2:  CLRF   x24
08CD4:  CLRF   x23
08CD6:  MOVFF  02,322
08CDA:  MOVFF  01,321
....................    DL_AD = DL_AD * 81; 
08CDE:  MOVFF  324,337
08CE2:  MOVFF  323,336
08CE6:  MOVFF  322,335
08CEA:  MOVFF  321,334
08CEE:  CLRF   x3B
08CF0:  CLRF   x3A
08CF2:  CLRF   x39
08CF4:  MOVLW  51
08CF6:  MOVWF  x38
08CF8:  MOVLB  0
08CFA:  CALL   6CD0
08CFE:  MOVFF  03,324
08D02:  MOVFF  02,323
08D06:  MOVFF  01,322
08D0A:  MOVFF  00,321
....................    /////////////////////////////PACKET////////////////////////////// 
....................    //    0-4,      9798-9802,  19596-19600, 29394-29398, 39192-39196 
....................    //48990-48994, 58788-58792, 68586-68590, 78384-78388, 88182-88186 
....................    ///////////////////////////////////////////////////////////////// 
....................     
....................    SAVE_SAT_LOG(0xAD,ADH,ADL);                                                   //11,11: automatical mission 
08D0E:  MOVLW  AD
08D10:  MOVLB  3
08D12:  MOVWF  x54
08D14:  MOVFF  31F,355
08D18:  MOVFF  320,356
08D1C:  MOVLB  0
08D1E:  CALL   3A8A
....................    UPDATE_ACK_for_COM(0x66,0x77,SECT*98+DL_AD,405);                              //65536*8 
08D22:  MOVLB  3
08D24:  MOVFF  321,32D
08D28:  MOVFF  322,32E
08D2C:  MOVLW  62
08D2E:  ADDWF  x23,W
08D30:  MOVWF  x2F
08D32:  MOVLW  00
08D34:  ADDWFC x24,W
08D36:  MOVWF  x30
08D38:  MOVLW  66
08D3A:  MOVWF  x31
08D3C:  MOVLW  77
08D3E:  MOVWF  x32
08D40:  MOVFF  330,336
08D44:  MOVFF  32F,335
08D48:  MOVFF  322,334
08D4C:  MOVFF  321,333
08D50:  MOVLW  01
08D52:  MOVWF  x38
08D54:  MOVLW  95
08D56:  MOVWF  x37
08D58:  MOVLB  0
08D5A:  CALL   7D64
....................    ADH=0; ADL=0; DL_AD=0; D=0; 
08D5E:  MOVLB  3
08D60:  CLRF   x1F
08D62:  CLRF   x20
08D64:  CLRF   x24
08D66:  CLRF   x23
08D68:  CLRF   x22
08D6A:  CLRF   x21
08D6C:  CLRF   x1E
08D6E:  CLRF   x1D
....................    return; 
08D70:  MOVLB  0
08D72:  GOTO   9216 (RETURN)
.................... } 
....................  
.................... void DAY60to69_ADDRESS()                                                         //HK Download 
.................... { 
....................    AD = PASSED_DAYS % loop_day;                                                  //60,61,62,63,64,65,66,67,68,69 
*
0984E:  MOVFF  6A,33E
09852:  MOVFF  69,33D
09856:  MOVLB  3
09858:  CLRF   x40
0985A:  MOVLW  46
0985C:  MOVWF  x3F
0985E:  MOVLB  0
09860:  CALL   6C8A
09864:  MOVFF  00,31B
09868:  MOVLB  3
0986A:  MOVFF  03,31C
....................    ADH = AD << 8; 
0986E:  CLRF   x1F
....................    ADL = AD; 
09870:  MOVFF  31B,320
....................    //D = AD - 53;                                                                  //0,1,2,3,4,5,6,7,8,9 (deberia ser AD-53?) 
....................    D = AD - 60; 
09874:  MOVLW  3C
09876:  SUBWF  x1B,W
09878:  MOVWF  x1D
0987A:  MOVLW  00
0987C:  SUBWFB x1C,W
0987E:  MOVWF  x1E
....................    DL_AD = 9798*D;                                                               //realiza saltos de 9798 paquetes 
09880:  MOVLW  26
09882:  MOVWF  x49
09884:  MOVLW  46
09886:  MOVWF  x48
09888:  MOVFF  31E,34B
0988C:  MOVFF  31D,34A
09890:  MOVLB  0
09892:  CALL   7E50
09896:  MOVLB  3
09898:  CLRF   x24
0989A:  CLRF   x23
0989C:  MOVFF  02,322
098A0:  MOVFF  01,321
....................    DL_AD = DL_AD * 81; 
098A4:  MOVFF  324,337
098A8:  MOVFF  323,336
098AC:  MOVFF  322,335
098B0:  MOVFF  321,334
098B4:  CLRF   x3B
098B6:  CLRF   x3A
098B8:  CLRF   x39
098BA:  MOVLW  51
098BC:  MOVWF  x38
098BE:  MOVLB  0
098C0:  CALL   6CD0
098C4:  MOVFF  03,324
098C8:  MOVFF  02,323
098CC:  MOVFF  01,322
098D0:  MOVFF  00,321
....................    /////////////////////////////PACKET////////////////////////////// 
....................    //    0-4,      9798-9802,  19596-19600, 29394-29398, 39192-39196 
....................    //48990-48994, 58788-58792, 68586-68590, 78384-78388, 88182-88186 
....................    ///////////////////////////////////////////////////////////////// 
....................     
....................    UPDATE_ACK_for_COM(0x66,0x77,SECT*98+DL_AD,405);                              //65536*8 
098D4:  MOVLB  3
098D6:  MOVFF  321,32D
098DA:  MOVFF  322,32E
098DE:  MOVLW  62
098E0:  ADDWF  x23,W
098E2:  MOVWF  x2F
098E4:  MOVLW  00
098E6:  ADDWFC x24,W
098E8:  MOVWF  x30
098EA:  MOVLW  66
098EC:  MOVWF  x31
098EE:  MOVLW  77
098F0:  MOVWF  x32
098F2:  MOVFF  330,336
098F6:  MOVFF  32F,335
098FA:  MOVFF  322,334
098FE:  MOVFF  321,333
09902:  MOVLW  01
09904:  MOVWF  x38
09906:  MOVLW  95
09908:  MOVWF  x37
0990A:  MOVLB  0
0990C:  CALL   7D64
....................    ADH=0; ADL=0; DL_AD=0; D=0; 
09910:  MOVLB  3
09912:  CLRF   x1F
09914:  CLRF   x20
09916:  CLRF   x24
09918:  CLRF   x23
0991A:  CLRF   x22
0991C:  CLRF   x21
0991E:  CLRF   x1E
09920:  CLRF   x1D
....................    return; 
09922:  MOVLB  0
09924:  GOTO   9E3E (RETURN)
.................... } 
....................  
.................... //@@@@@@@@@@@ ADDRESS CHANGE @@@@@@@@@@@@@@@@@@@@@@@@@@@@@@@@@@@@@@@@@@@@@@@@@@@@@@@@ 
.................... void AUTO_MSN_AD_CHANGE()                                                        //update address for a new cycle 
*
06D2C:  MOVFF  6A,33E
06D30:  MOVFF  69,33D
06D34:  MOVLB  3
06D36:  CLRF   x40
06D38:  MOVLW  46
06D3A:  MOVWF  x3F
06D3C:  MOVLB  0
06D3E:  RCALL  6C8A
06D40:  MOVFF  02,32E
06D44:  MOVFF  01,32D
06D48:  MOVFF  32D,32F
.................... { 
....................    unsigned int16 D = PASSED_DAYS/loop_day; 
....................    int8 UPDATE_TIME = (int8)D; 
....................    SAVE_SAT_LOG(0xF9,UPDATE_TIME,UPDATE_TIME); 
06D4C:  MOVLW  F9
06D4E:  MOVLB  3
06D50:  MOVWF  x54
06D52:  MOVFF  32F,355
06D56:  MOVFF  32F,356
06D5A:  MOVLB  0
06D5C:  CALL   3A8A
....................    int32 DATA = 8192*D;                                                          //11byte*500 < 5500 (enough), SAT_LOG data sent in one cycle 
06D60:  MOVLB  3
06D62:  SWAPF  x2D,W
06D64:  MOVWF  x31
06D66:  CLRF   x30
06D68:  RLCF   x31,F
06D6A:  MOVLW  E0
06D6C:  ANDWF  x31,F
....................    SAT_LOG = SECT*6 + DATA;                                                      //2sector 
06D6E:  MOVFF  330,40
06D72:  MOVFF  331,41
06D76:  MOVLW  06
06D78:  ADDWF  x32,W
06D7A:  MOVWF  42
06D7C:  MOVLW  00
06D7E:  ADDWFC x33,W
06D80:  MOVWF  43
....................     
....................    DATA = SECT*D;                                                                //1sector, CAM data sent in one cycle 
06D82:  MOVFF  32E,333
06D86:  MOVFF  32D,332
06D8A:  CLRF   x30
06D8C:  CLRF   x31
....................    CAM_ADDRESS = SECT*8 + DATA; 
06D8E:  MOVFF  330,44
06D92:  MOVFF  331,45
06D96:  MOVLW  08
06D98:  ADDWF  x32,W
06D9A:  MOVWF  46
06D9C:  MOVLW  00
06D9E:  ADDWFC x33,W
06DA0:  MOVWF  47
....................     
....................    DATA = SECT*130;                                                              //124*3600*24*70/90 < 128sector, HK data sent in one cycle 
06DA2:  CLRF   x33
06DA4:  MOVLW  82
06DA6:  MOVWF  x32
06DA8:  CLRF   x31
06DAA:  CLRF   x30
....................    DATA = DATA*D; 
06DAC:  MOVFF  333,337
06DB0:  MOVFF  332,336
06DB4:  MOVFF  331,335
06DB8:  MOVFF  330,334
06DBC:  CLRF   x3B
06DBE:  CLRF   x3A
06DC0:  MOVFF  32E,339
06DC4:  MOVFF  32D,338
06DC8:  MOVLB  0
06DCA:  RCALL  6CD0
06DCC:  MOVFF  03,333
06DD0:  MOVFF  02,332
06DD4:  MOVFF  01,331
06DD8:  MOVFF  00,330
....................    FAB_HK_ADDRESS = SECT*98 + DATA;                                              //1000sector 
06DDC:  MOVLB  3
06DDE:  MOVFF  330,48
06DE2:  MOVFF  331,49
06DE6:  MOVLW  62
06DE8:  ADDWF  x32,W
06DEA:  MOVWF  4A
06DEC:  MOVLW  00
06DEE:  ADDWFC x33,W
06DF0:  MOVWF  4B
....................     
....................    DATA = SECT*5;                                                                //81*5400/1.5 < 5sector, ADCS data sent in one cycle 
06DF2:  CLRF   x33
06DF4:  MOVLW  05
06DF6:  MOVWF  x32
06DF8:  CLRF   x31
06DFA:  CLRF   x30
....................    DATA = DATA*D; 
06DFC:  MOVFF  333,337
06E00:  MOVFF  332,336
06E04:  MOVFF  331,335
06E08:  MOVFF  330,334
06E0C:  CLRF   x3B
06E0E:  CLRF   x3A
06E10:  MOVFF  32E,339
06E14:  MOVFF  32D,338
06E18:  MOVLB  0
06E1A:  RCALL  6CD0
06E1C:  MOVFF  03,333
06E20:  MOVFF  02,332
06E24:  MOVFF  01,331
06E28:  MOVFF  00,330
....................    ADCS_SENSOR_ADDRESS = SECT*1138 + DATA;                                       //500sector 
06E2C:  MOVLB  3
06E2E:  MOVFF  330,50
06E32:  MOVFF  331,51
06E36:  MOVLW  72
06E38:  ADDWF  x32,W
06E3A:  MOVWF  52
06E3C:  MOVLW  04
06E3E:  ADDWFC x33,W
06E40:  MOVWF  53
....................     
....................    DATA = 405*5;                                                                 //5packet*5, DC data sent in one cycle 
06E42:  CLRF   x33
06E44:  CLRF   x32
06E46:  MOVLW  07
06E48:  MOVWF  x31
06E4A:  MOVLW  E9
06E4C:  MOVWF  x30
....................    DATA = DATA*D; 
06E4E:  MOVFF  333,337
06E52:  MOVFF  332,336
06E56:  MOVFF  331,335
06E5A:  MOVFF  330,334
06E5E:  CLRF   x3B
06E60:  CLRF   x3A
06E62:  MOVFF  32E,339
06E66:  MOVFF  32D,338
06E6A:  MOVLB  0
06E6C:  RCALL  6CD0
06E6E:  MOVFF  03,333
06E72:  MOVFF  02,332
06E76:  MOVFF  01,331
06E7A:  MOVFF  00,330
....................    DC_STATUS_ADDRESS = SECT*1638 + DATA;                                         //1sector 
06E7E:  MOVLB  3
06E80:  MOVFF  330,58
06E84:  MOVFF  331,59
06E88:  MOVLW  66
06E8A:  ADDWF  x32,W
06E8C:  MOVWF  5A
06E8E:  MOVLW  06
06E90:  ADDWFC x33,W
06E92:  MOVWF  5B
....................     
....................    DATA = SECT*3;                                                                //124*3600*2/5 < 3sector, HSSC data sent in one cycle 
06E94:  CLRF   x33
06E96:  MOVLW  03
06E98:  MOVWF  x32
06E9A:  CLRF   x31
06E9C:  CLRF   x30
....................    DATA = DATA*D; 
06E9E:  MOVFF  333,337
06EA2:  MOVFF  332,336
06EA6:  MOVFF  331,335
06EAA:  MOVFF  330,334
06EAE:  CLRF   x3B
06EB0:  CLRF   x3A
06EB2:  MOVFF  32E,339
06EB6:  MOVFF  32D,338
06EBA:  MOVLB  0
06EBC:  RCALL  6CD0
06EBE:  MOVFF  03,333
06EC2:  MOVFF  02,332
06EC6:  MOVFF  01,331
06ECA:  MOVFF  00,330
....................    HIGH_SAMP_HK_ADDRESS = SECT*1639 + DATA;                                      //409sector 
06ECE:  MOVLB  3
06ED0:  MOVFF  330,5C
06ED4:  MOVFF  331,5D
06ED8:  MOVLW  67
06EDA:  ADDWF  x32,W
06EDC:  MOVWF  5E
06EDE:  MOVLW  06
06EE0:  ADDWFC x33,W
06EE2:  MOVWF  5F
....................     
....................    STORE_ADRESS_DATA_TO_FLASH();                                                 //update 
06EE4:  MOVLB  0
06EE6:  CALL   3776
....................     
....................    return; 
06EEA:  GOTO   9F08 (RETURN)
.................... } 
....................  
....................  
.................... //@@@@@@@@@@@ AUTO MISSION EXECUTING FUNCTION @@@@@@@@@@@@@@@@@@@@@@@@@@@@@@@@@@@@@@@@ 
....................  
.................... void AUTOMATICAL_MSN_EXE() 
.................... { 
....................    //PASSED_DAYS = make16(reset_bffr[4],reset_bffr[5]); 
....................    if(((PASSED_DAYS%loop_day) >= 0 && UPLINK_SUCCESS == 0) && FIRST_HSSC_DONE == 0)                      //automated high samp mission condition 
*
08D76:  MOVFF  6A,33E
08D7A:  MOVFF  69,33D
08D7E:  MOVLB  3
08D80:  CLRF   x40
08D82:  MOVLW  46
08D84:  MOVWF  x3F
08D86:  MOVLB  0
08D88:  CALL   6C8A
08D8C:  MOVFF  00,32D
08D90:  MOVFF  03,32E
08D94:  MOVLB  0
08D96:  MOVF   x7C,F
08D98:  BNZ   8DA4
08D9A:  MOVF   x77,F
08D9C:  BNZ   8DA4
....................    { 
....................       DAY0(); 
08D9E:  GOTO   7DC2
....................    }else if(PASSED_DAYS < make16(reset_bffr[4],reset_bffr[5]))                                           //if the date changed (next day) 
08DA2:  BRA    9216
08DA4:  MOVFF  F0,03
08DA8:  MOVFF  F1,01
08DAC:  MOVF   x6A,W
08DAE:  SUBWF  xF0,W
08DB0:  BTFSS  FD8.0
08DB2:  BRA    9216
08DB4:  BNZ   8DBE
08DB6:  MOVF   01,W
08DB8:  SUBWF  x69,W
08DBA:  BTFSC  FD8.0
08DBC:  BRA    9216
....................    { 
....................       PASSED_DAYS = make16(reset_bffr[4],reset_bffr[5]);                                                 //update passed days 
08DBE:  MOVFF  F0,6A
08DC2:  MOVFF  F1,69
....................       STORE_FLAG_INFO();                                                                                 //save passed days 
08DC6:  CALL   5714
....................       WRITE_FLAG_to_EEPROM(); 
08DCA:  CALL   5924
....................        
....................       if(((PASSED_DAYS%loop_day) >= 1 && (PASSED_DAYS%loop_day) <= 4) && UPLINK_SUCCESS == 0){           //1-4th day high samp mission download  
08DCE:  MOVFF  6A,33E
08DD2:  MOVFF  69,33D
08DD6:  MOVLB  3
08DD8:  CLRF   x40
08DDA:  MOVLW  46
08DDC:  MOVWF  x3F
08DDE:  MOVLB  0
08DE0:  CALL   6C8A
08DE4:  MOVFF  00,32D
08DE8:  MOVLB  3
08DEA:  MOVFF  03,32E
08DEE:  MOVF   x2E,F
08DF0:  BNZ   8DF8
08DF2:  MOVF   x2D,W
08DF4:  SUBLW  00
08DF6:  BC    8E34
08DF8:  MOVFF  6A,33E
08DFC:  MOVFF  69,33D
08E00:  CLRF   x40
08E02:  MOVLW  46
08E04:  MOVWF  x3F
08E06:  MOVLB  0
08E08:  CALL   6C8A
08E0C:  MOVFF  00,32D
08E10:  MOVLB  3
08E12:  MOVFF  03,32E
08E16:  MOVF   x2E,F
08E18:  BNZ   8E34
08E1A:  MOVF   x2D,W
08E1C:  SUBLW  04
08E1E:  BNC   8E34
08E20:  MOVLB  0
08E22:  MOVF   x7C,F
08E24:  BTFSC  FD8.2
08E26:  BRA    8E2C
08E28:  MOVLB  3
08E2A:  BRA    8E34
....................          DAY1to4(); 
08E2C:  GOTO   7E72
....................       }else if(((PASSED_DAYS%loop_day) >= 5 && UPLINK_SUCCESS == 0) && AUTO_CAM_DONE == 0){              //5th day (CAM MSN) 
08E30:  BRA    9216
08E32:  MOVLB  3
08E34:  MOVFF  6A,33E
08E38:  MOVFF  69,33D
08E3C:  CLRF   x40
08E3E:  MOVLW  46
08E40:  MOVWF  x3F
08E42:  MOVLB  0
08E44:  CALL   6C8A
08E48:  MOVFF  00,32D
08E4C:  MOVLB  3
08E4E:  MOVFF  03,32E
08E52:  MOVF   x2E,F
08E54:  BNZ   8E5C
08E56:  MOVF   x2D,W
08E58:  SUBLW  04
08E5A:  BC    8E7A
08E5C:  MOVLB  0
08E5E:  MOVF   x7C,F
08E60:  BTFSC  FD8.2
08E62:  BRA    8E68
08E64:  MOVLB  3
08E66:  BRA    8E7A
08E68:  MOVF   x78,F
08E6A:  BTFSC  FD8.2
08E6C:  BRA    8E72
08E6E:  MOVLB  3
08E70:  BRA    8E7A
....................          DAY5(); 
08E72:  GOTO   8414
....................       }else if(((PASSED_DAYS%loop_day) >= 6 && (PASSED_DAYS%loop_day) <= 9) && UPLINK_SUCCESS == 0){     //download cam data 
08E76:  BRA    9216
08E78:  MOVLB  3
08E7A:  MOVFF  6A,33E
08E7E:  MOVFF  69,33D
08E82:  CLRF   x40
08E84:  MOVLW  46
08E86:  MOVWF  x3F
08E88:  MOVLB  0
08E8A:  CALL   6C8A
08E8E:  MOVFF  00,32D
08E92:  MOVLB  3
08E94:  MOVFF  03,32E
08E98:  MOVF   x2E,F
08E9A:  BNZ   8EA2
08E9C:  MOVF   x2D,W
08E9E:  SUBLW  05
08EA0:  BC    8EDE
08EA2:  MOVFF  6A,33E
08EA6:  MOVFF  69,33D
08EAA:  CLRF   x40
08EAC:  MOVLW  46
08EAE:  MOVWF  x3F
08EB0:  MOVLB  0
08EB2:  CALL   6C8A
08EB6:  MOVFF  00,32D
08EBA:  MOVLB  3
08EBC:  MOVFF  03,32E
08EC0:  MOVF   x2E,F
08EC2:  BNZ   8EDE
08EC4:  MOVF   x2D,W
08EC6:  SUBLW  09
08EC8:  BNC   8EDE
08ECA:  MOVLB  0
08ECC:  MOVF   x7C,F
08ECE:  BTFSC  FD8.2
08ED0:  BRA    8ED6
08ED2:  MOVLB  3
08ED4:  BRA    8EDE
....................          DAY6to9(); 
08ED6:  GOTO   849C
....................       }else if(((PASSED_DAYS%loop_day) >= 10 && UPLINK_SUCCESS == 0) && AUTO_MBP_DONE == 0){             //MBP and download 
08EDA:  BRA    9216
08EDC:  MOVLB  3
08EDE:  MOVFF  6A,33E
08EE2:  MOVFF  69,33D
08EE6:  CLRF   x40
08EE8:  MOVLW  46
08EEA:  MOVWF  x3F
08EEC:  MOVLB  0
08EEE:  CALL   6C8A
08EF2:  MOVFF  00,32D
08EF6:  MOVLB  3
08EF8:  MOVFF  03,32E
08EFC:  MOVF   x2E,F
08EFE:  BNZ   8F06
08F00:  MOVF   x2D,W
08F02:  SUBLW  09
08F04:  BC    8F24
08F06:  MOVLB  0
08F08:  MOVF   x7C,F
08F0A:  BTFSC  FD8.2
08F0C:  BRA    8F12
08F0E:  MOVLB  3
08F10:  BRA    8F24
08F12:  MOVF   x79,F
08F14:  BTFSC  FD8.2
08F16:  BRA    8F1C
08F18:  MOVLB  3
08F1A:  BRA    8F24
....................          DAY10(); 
08F1C:  GOTO   8586
....................       }else if(((PASSED_DAYS%loop_day) >= 11 && (PASSED_DAYS%loop_day) <= 14) && UPLINK_SUCCESS == 0){   //MBP and download 
08F20:  BRA    9216
08F22:  MOVLB  3
08F24:  MOVFF  6A,33E
08F28:  MOVFF  69,33D
08F2C:  CLRF   x40
08F2E:  MOVLW  46
08F30:  MOVWF  x3F
08F32:  MOVLB  0
08F34:  CALL   6C8A
08F38:  MOVFF  00,32D
08F3C:  MOVLB  3
08F3E:  MOVFF  03,32E
08F42:  MOVF   x2E,F
08F44:  BNZ   8F4C
08F46:  MOVF   x2D,W
08F48:  SUBLW  0A
08F4A:  BC    8F88
08F4C:  MOVFF  6A,33E
08F50:  MOVFF  69,33D
08F54:  CLRF   x40
08F56:  MOVLW  46
08F58:  MOVWF  x3F
08F5A:  MOVLB  0
08F5C:  CALL   6C8A
08F60:  MOVFF  00,32D
08F64:  MOVLB  3
08F66:  MOVFF  03,32E
08F6A:  MOVF   x2E,F
08F6C:  BNZ   8F88
08F6E:  MOVF   x2D,W
08F70:  SUBLW  0E
08F72:  BNC   8F88
08F74:  MOVLB  0
08F76:  MOVF   x7C,F
08F78:  BTFSC  FD8.2
08F7A:  BRA    8F80
08F7C:  MOVLB  3
08F7E:  BRA    8F88
....................          DAY11to14(); 
08F80:  GOTO   8696
....................       }else if(((PASSED_DAYS%loop_day) >= 15 && UPLINK_SUCCESS == 0) && AUTO_ADCS_DONE == 0){            //ADCS Mission and Download 
08F84:  BRA    9216
08F86:  MOVLB  3
08F88:  MOVFF  6A,33E
08F8C:  MOVFF  69,33D
08F90:  CLRF   x40
08F92:  MOVLW  46
08F94:  MOVWF  x3F
08F96:  MOVLB  0
08F98:  CALL   6C8A
08F9C:  MOVFF  00,32D
08FA0:  MOVLB  3
08FA2:  MOVFF  03,32E
08FA6:  MOVF   x2E,F
08FA8:  BNZ   8FB0
08FAA:  MOVF   x2D,W
08FAC:  SUBLW  0E
08FAE:  BC    8FCE
08FB0:  MOVLB  0
08FB2:  MOVF   x7C,F
08FB4:  BTFSC  FD8.2
08FB6:  BRA    8FBC
08FB8:  MOVLB  3
08FBA:  BRA    8FCE
08FBC:  MOVF   x7A,F
08FBE:  BTFSC  FD8.2
08FC0:  BRA    8FC6
08FC2:  MOVLB  3
08FC4:  BRA    8FCE
....................          DAY15(); 
08FC6:  GOTO   87AE
....................       }else if(((PASSED_DAYS%loop_day) >= 16 && (PASSED_DAYS%loop_day) <= 19) && UPLINK_SUCCESS == 0){   //ADCS Download 
08FCA:  BRA    9216
08FCC:  MOVLB  3
08FCE:  MOVFF  6A,33E
08FD2:  MOVFF  69,33D
08FD6:  CLRF   x40
08FD8:  MOVLW  46
08FDA:  MOVWF  x3F
08FDC:  MOVLB  0
08FDE:  CALL   6C8A
08FE2:  MOVFF  00,32D
08FE6:  MOVLB  3
08FE8:  MOVFF  03,32E
08FEC:  MOVF   x2E,F
08FEE:  BNZ   8FF6
08FF0:  MOVF   x2D,W
08FF2:  SUBLW  0F
08FF4:  BC    9030
08FF6:  MOVFF  6A,33E
08FFA:  MOVFF  69,33D
08FFE:  CLRF   x40
09000:  MOVLW  46
09002:  MOVWF  x3F
09004:  MOVLB  0
09006:  CALL   6C8A
0900A:  MOVFF  00,32D
0900E:  MOVLB  3
09010:  MOVFF  03,32E
09014:  MOVF   x2E,F
09016:  BNZ   9030
09018:  MOVF   x2D,W
0901A:  SUBLW  13
0901C:  BNC   9030
0901E:  MOVLB  0
09020:  MOVF   x7C,F
09022:  BTFSC  FD8.2
09024:  BRA    902A
09026:  MOVLB  3
09028:  BRA    9030
....................          DAY16to19(); 
0902A:  BRA    8830
....................       }else if(((PASSED_DAYS%loop_day) >= 20 && (PASSED_DAYS%loop_day) <= 25) && UPLINK_SUCCESS == 0){   //High sampling sensor collecting mission download 
0902C:  BRA    9216
0902E:  MOVLB  3
09030:  MOVFF  6A,33E
09034:  MOVFF  69,33D
09038:  CLRF   x40
0903A:  MOVLW  46
0903C:  MOVWF  x3F
0903E:  MOVLB  0
09040:  CALL   6C8A
09044:  MOVFF  00,32D
09048:  MOVLB  3
0904A:  MOVFF  03,32E
0904E:  MOVF   x2E,F
09050:  BNZ   9058
09052:  MOVF   x2D,W
09054:  SUBLW  13
09056:  BC    9092
09058:  MOVFF  6A,33E
0905C:  MOVFF  69,33D
09060:  CLRF   x40
09062:  MOVLW  46
09064:  MOVWF  x3F
09066:  MOVLB  0
09068:  CALL   6C8A
0906C:  MOVFF  00,32D
09070:  MOVLB  3
09072:  MOVFF  03,32E
09076:  MOVF   x2E,F
09078:  BNZ   9092
0907A:  MOVF   x2D,W
0907C:  SUBLW  19
0907E:  BNC   9092
09080:  MOVLB  0
09082:  MOVF   x7C,F
09084:  BTFSC  FD8.2
09086:  BRA    908C
09088:  MOVLB  3
0908A:  BRA    9092
....................          DAY20to25(); 
0908C:  BRA    88EC
....................       }else if(((PASSED_DAYS%loop_day) >= 26 && (PASSED_DAYS%loop_day) <= 46) && UPLINK_SUCCESS == 0){   //CAM Mission Download 
0908E:  BRA    9216
09090:  MOVLB  3
09092:  MOVFF  6A,33E
09096:  MOVFF  69,33D
0909A:  CLRF   x40
0909C:  MOVLW  46
0909E:  MOVWF  x3F
090A0:  MOVLB  0
090A2:  CALL   6C8A
090A6:  MOVFF  00,32D
090AA:  MOVLB  3
090AC:  MOVFF  03,32E
090B0:  MOVF   x2E,F
090B2:  BNZ   90BA
090B4:  MOVF   x2D,W
090B6:  SUBLW  19
090B8:  BC    90F4
090BA:  MOVFF  6A,33E
090BE:  MOVFF  69,33D
090C2:  CLRF   x40
090C4:  MOVLW  46
090C6:  MOVWF  x3F
090C8:  MOVLB  0
090CA:  CALL   6C8A
090CE:  MOVFF  00,32D
090D2:  MOVLB  3
090D4:  MOVFF  03,32E
090D8:  MOVF   x2E,F
090DA:  BNZ   90F4
090DC:  MOVF   x2D,W
090DE:  SUBLW  2E
090E0:  BNC   90F4
090E2:  MOVLB  0
090E4:  MOVF   x7C,F
090E6:  BTFSC  FD8.2
090E8:  BRA    90EE
090EA:  MOVLB  3
090EC:  BRA    90F4
....................          DAY26to46(); 
090EE:  BRA    89D8
....................       }else if(((PASSED_DAYS%loop_day) >= 47 && (PASSED_DAYS%loop_day) <= 52) && UPLINK_SUCCESS == 0){   //ADCS Mission Data Download 
090F0:  BRA    9216
090F2:  MOVLB  3
090F4:  MOVFF  6A,33E
090F8:  MOVFF  69,33D
090FC:  CLRF   x40
090FE:  MOVLW  46
09100:  MOVWF  x3F
09102:  MOVLB  0
09104:  CALL   6C8A
09108:  MOVFF  00,32D
0910C:  MOVLB  3
0910E:  MOVFF  03,32E
09112:  MOVF   x2E,F
09114:  BNZ   911C
09116:  MOVF   x2D,W
09118:  SUBLW  2E
0911A:  BC    9156
0911C:  MOVFF  6A,33E
09120:  MOVFF  69,33D
09124:  CLRF   x40
09126:  MOVLW  46
09128:  MOVWF  x3F
0912A:  MOVLB  0
0912C:  CALL   6C8A
09130:  MOVFF  00,32D
09134:  MOVLB  3
09136:  MOVFF  03,32E
0913A:  MOVF   x2E,F
0913C:  BNZ   9156
0913E:  MOVF   x2D,W
09140:  SUBLW  34
09142:  BNC   9156
09144:  MOVLB  0
09146:  MOVF   x7C,F
09148:  BTFSC  FD8.2
0914A:  BRA    9150
0914C:  MOVLB  3
0914E:  BRA    9156
....................          DAY47to52(); 
09150:  BRA    8AC4
....................       }else if(((PASSED_DAYS%loop_day) >= 53 && (PASSED_DAYS%loop_day) <= 59) && UPLINK_SUCCESS == 0){   //Satellite LOG Download 
09152:  BRA    9216
09154:  MOVLB  3
09156:  MOVFF  6A,33E
0915A:  MOVFF  69,33D
0915E:  CLRF   x40
09160:  MOVLW  46
09162:  MOVWF  x3F
09164:  MOVLB  0
09166:  CALL   6C8A
0916A:  MOVFF  00,32D
0916E:  MOVLB  3
09170:  MOVFF  03,32E
09174:  MOVF   x2E,F
09176:  BNZ   917E
09178:  MOVF   x2D,W
0917A:  SUBLW  34
0917C:  BC    91B8
0917E:  MOVFF  6A,33E
09182:  MOVFF  69,33D
09186:  CLRF   x40
09188:  MOVLW  46
0918A:  MOVWF  x3F
0918C:  MOVLB  0
0918E:  CALL   6C8A
09192:  MOVFF  00,32D
09196:  MOVLB  3
09198:  MOVFF  03,32E
0919C:  MOVF   x2E,F
0919E:  BNZ   91B8
091A0:  MOVF   x2D,W
091A2:  SUBLW  3B
091A4:  BNC   91B8
091A6:  MOVLB  0
091A8:  MOVF   x7C,F
091AA:  BTFSC  FD8.2
091AC:  BRA    91B2
091AE:  MOVLB  3
091B0:  BRA    91B8
....................          DAY53to59(); 
091B2:  BRA    8BB2
....................       }else if(((PASSED_DAYS%loop_day) >= 60 && (PASSED_DAYS%loop_day) <= 69) && UPLINK_SUCCESS == 0){   //Normal HK Download 
091B4:  BRA    9216
091B6:  MOVLB  3
091B8:  MOVFF  6A,33E
091BC:  MOVFF  69,33D
091C0:  CLRF   x40
091C2:  MOVLW  46
091C4:  MOVWF  x3F
091C6:  MOVLB  0
091C8:  CALL   6C8A
091CC:  MOVFF  00,32D
091D0:  MOVLB  3
091D2:  MOVFF  03,32E
091D6:  MOVF   x2E,F
091D8:  BNZ   91E0
091DA:  MOVF   x2D,W
091DC:  SUBLW  3B
091DE:  BC    9218
091E0:  MOVFF  6A,33E
091E4:  MOVFF  69,33D
091E8:  CLRF   x40
091EA:  MOVLW  46
091EC:  MOVWF  x3F
091EE:  MOVLB  0
091F0:  CALL   6C8A
091F4:  MOVFF  00,32D
091F8:  MOVLB  3
091FA:  MOVFF  03,32E
091FE:  MOVF   x2E,F
09200:  BNZ   9218
09202:  MOVF   x2D,W
09204:  SUBLW  45
09206:  BNC   9218
09208:  MOVLB  0
0920A:  MOVF   x7C,F
0920C:  BTFSC  FD8.2
0920E:  BRA    9214
09210:  MOVLB  3
09212:  BRA    9218
....................          DAY60to69(); 
09214:  BRA    8C88
09216:  MOVLB  3
....................       } 
....................    } 
....................    if(BC_ATTEMPT_FLAG == 0)                                                      //at this moment, this flag should be over 1 
09218:  MOVLB  0
0921A:  MOVF   x68,F
0921C:  BNZ   9222
....................    { 
....................       BC_ON_30min(); 
0921E:  CALL   7764
....................    } 
....................     
....................    FAB_FLAG = 0; 
09222:  MOVLB  2
09224:  CLRF   x72
09226:  CLRF   x71
09228:  CLRF   x70
0922A:  CLRF   x6F
....................    return; 
0922C:  MOVLB  0
0922E:  GOTO   9F18 (RETURN)
.................... } 
....................  
.................... void PREPARE_AUTOMATICAL_MSN_ADDRESS() 
.................... { 
....................    if((PASSED_DAYS%loop_day) == 0 && UPLINK_SUCCESS == 0){                                               //0th day high samp mission download 
*
09928:  MOVFF  6A,33E
0992C:  MOVFF  69,33D
09930:  MOVLB  3
09932:  CLRF   x40
09934:  MOVLW  46
09936:  MOVWF  x3F
09938:  MOVLB  0
0993A:  CALL   6C8A
0993E:  MOVFF  00,32D
09942:  MOVLB  3
09944:  MOVFF  03,32E
09948:  MOVF   x2D,F
0994A:  BNZ   9984
0994C:  MOVF   x2E,F
0994E:  BNZ   9984
09950:  MOVLB  0
09952:  MOVF   x7C,F
09954:  BTFSC  FD8.2
09956:  BRA    995C
09958:  MOVLB  3
0995A:  BRA    9984
....................       UPDATE_ACK_for_COM(0x66,0x77,SECT*1639,405); 
0995C:  MOVLW  66
0995E:  MOVLB  3
09960:  MOVWF  x31
09962:  MOVLW  77
09964:  MOVWF  x32
09966:  MOVLW  06
09968:  MOVWF  x36
0996A:  MOVLW  67
0996C:  MOVWF  x35
0996E:  CLRF   x34
09970:  CLRF   x33
09972:  MOVLW  01
09974:  MOVWF  x38
09976:  MOVLW  95
09978:  MOVWF  x37
0997A:  MOVLB  0
0997C:  CALL   7D64
....................    }else if(((PASSED_DAYS%loop_day) >= 1 && (PASSED_DAYS%loop_day) <= 4) && UPLINK_SUCCESS == 0){        //1-4th day high samp mission download  
09980:  BRA    9E3E
09982:  MOVLB  3
09984:  MOVFF  6A,33E
09988:  MOVFF  69,33D
0998C:  CLRF   x40
0998E:  MOVLW  46
09990:  MOVWF  x3F
09992:  MOVLB  0
09994:  CALL   6C8A
09998:  MOVFF  00,32D
0999C:  MOVLB  3
0999E:  MOVFF  03,32E
099A2:  MOVF   x2E,F
099A4:  BNZ   99AC
099A6:  MOVF   x2D,W
099A8:  SUBLW  00
099AA:  BC    99E6
099AC:  MOVFF  6A,33E
099B0:  MOVFF  69,33D
099B4:  CLRF   x40
099B6:  MOVLW  46
099B8:  MOVWF  x3F
099BA:  MOVLB  0
099BC:  CALL   6C8A
099C0:  MOVFF  00,32D
099C4:  MOVLB  3
099C6:  MOVFF  03,32E
099CA:  MOVF   x2E,F
099CC:  BNZ   99E6
099CE:  MOVF   x2D,W
099D0:  SUBLW  04
099D2:  BNC   99E6
099D4:  MOVLB  0
099D6:  MOVF   x7C,F
099D8:  BTFSC  FD8.2
099DA:  BRA    99E0
099DC:  MOVLB  3
099DE:  BRA    99E6
....................       DAY1to4_ADDRESS(); 
099E0:  BRA    9232
....................    }else if(((PASSED_DAYS%loop_day) >= 5 && UPLINK_SUCCESS == 0) && AUTO_CAM_DONE == 0){                 //5th day (CAM MSN) 
099E2:  BRA    9E3E
099E4:  MOVLB  3
099E6:  MOVFF  6A,33E
099EA:  MOVFF  69,33D
099EE:  CLRF   x40
099F0:  MOVLW  46
099F2:  MOVWF  x3F
099F4:  MOVLB  0
099F6:  CALL   6C8A
099FA:  MOVFF  00,32D
099FE:  MOVLB  3
09A00:  MOVFF  03,32E
09A04:  MOVF   x2E,F
09A06:  BNZ   9A0E
09A08:  MOVF   x2D,W
09A0A:  SUBLW  04
09A0C:  BC    9A4A
09A0E:  MOVLB  0
09A10:  MOVF   x7C,F
09A12:  BTFSC  FD8.2
09A14:  BRA    9A1A
09A16:  MOVLB  3
09A18:  BRA    9A4A
09A1A:  MOVF   x78,F
09A1C:  BTFSC  FD8.2
09A1E:  BRA    9A24
09A20:  MOVLB  3
09A22:  BRA    9A4A
....................       UPDATE_ACK_for_COM(0x66,0x77,SECT*8,405);//65536*8; 
09A24:  MOVLW  66
09A26:  MOVLB  3
09A28:  MOVWF  x31
09A2A:  MOVLW  77
09A2C:  MOVWF  x32
09A2E:  CLRF   x36
09A30:  MOVLW  08
09A32:  MOVWF  x35
09A34:  CLRF   x34
09A36:  CLRF   x33
09A38:  MOVLW  01
09A3A:  MOVWF  x38
09A3C:  MOVLW  95
09A3E:  MOVWF  x37
09A40:  MOVLB  0
09A42:  CALL   7D64
....................    }else if(((PASSED_DAYS%loop_day) >= 6 && (PASSED_DAYS%loop_day) <= 9) && UPLINK_SUCCESS == 0){        //download cam data 
09A46:  BRA    9E3E
09A48:  MOVLB  3
09A4A:  MOVFF  6A,33E
09A4E:  MOVFF  69,33D
09A52:  CLRF   x40
09A54:  MOVLW  46
09A56:  MOVWF  x3F
09A58:  MOVLB  0
09A5A:  CALL   6C8A
09A5E:  MOVFF  00,32D
09A62:  MOVLB  3
09A64:  MOVFF  03,32E
09A68:  MOVF   x2E,F
09A6A:  BNZ   9A72
09A6C:  MOVF   x2D,W
09A6E:  SUBLW  05
09A70:  BC    9AAC
09A72:  MOVFF  6A,33E
09A76:  MOVFF  69,33D
09A7A:  CLRF   x40
09A7C:  MOVLW  46
09A7E:  MOVWF  x3F
09A80:  MOVLB  0
09A82:  CALL   6C8A
09A86:  MOVFF  00,32D
09A8A:  MOVLB  3
09A8C:  MOVFF  03,32E
09A90:  MOVF   x2E,F
09A92:  BNZ   9AAC
09A94:  MOVF   x2D,W
09A96:  SUBLW  09
09A98:  BNC   9AAC
09A9A:  MOVLB  0
09A9C:  MOVF   x7C,F
09A9E:  BTFSC  FD8.2
09AA0:  BRA    9AA6
09AA2:  MOVLB  3
09AA4:  BRA    9AAC
....................       DAY6to9_ADDRESS(); 
09AA6:  BRA    9306
....................    }else if(((PASSED_DAYS%loop_day) >= 10 && UPLINK_SUCCESS == 0) && AUTO_MBP_DONE == 0){                //MBP and download 
09AA8:  BRA    9E3E
09AAA:  MOVLB  3
09AAC:  MOVFF  6A,33E
09AB0:  MOVFF  69,33D
09AB4:  CLRF   x40
09AB6:  MOVLW  46
09AB8:  MOVWF  x3F
09ABA:  MOVLB  0
09ABC:  CALL   6C8A
09AC0:  MOVFF  00,32D
09AC4:  MOVLB  3
09AC6:  MOVFF  03,32E
09ACA:  MOVF   x2E,F
09ACC:  BNZ   9AD4
09ACE:  MOVF   x2D,W
09AD0:  SUBLW  09
09AD2:  BC    9B2E
09AD4:  MOVLB  0
09AD6:  MOVF   x7C,F
09AD8:  BTFSC  FD8.2
09ADA:  BRA    9AE0
09ADC:  MOVLB  3
09ADE:  BRA    9B2E
09AE0:  MOVF   x79,F
09AE2:  BTFSC  FD8.2
09AE4:  BRA    9AEA
09AE6:  MOVLB  3
09AE8:  BRA    9B2E
....................       UPDATE_ACK_for_COM(0x66,0x77,DC_STATUS_ADDRESS-332,332);//65536*162; 
09AEA:  MOVLW  4C
09AEC:  SUBWF  58,W
09AEE:  MOVLB  3
09AF0:  MOVWF  x2D
09AF2:  MOVLW  01
09AF4:  SUBWFB 59,W
09AF6:  MOVWF  x2E
09AF8:  MOVLW  00
09AFA:  SUBWFB 5A,W
09AFC:  MOVWF  x2F
09AFE:  MOVLW  00
09B00:  SUBWFB 5B,W
09B02:  MOVWF  x30
09B04:  MOVLW  66
09B06:  MOVWF  x31
09B08:  MOVLW  77
09B0A:  MOVWF  x32
09B0C:  MOVFF  330,336
09B10:  MOVFF  32F,335
09B14:  MOVFF  32E,334
09B18:  MOVFF  32D,333
09B1C:  MOVLW  01
09B1E:  MOVWF  x38
09B20:  MOVLW  4C
09B22:  MOVWF  x37
09B24:  MOVLB  0
09B26:  CALL   7D64
....................    }else if(((PASSED_DAYS%loop_day) >= 11 && (PASSED_DAYS%loop_day) <= 14) && UPLINK_SUCCESS == 0){      //MBP and download 
09B2A:  BRA    9E3E
09B2C:  MOVLB  3
09B2E:  MOVFF  6A,33E
09B32:  MOVFF  69,33D
09B36:  CLRF   x40
09B38:  MOVLW  46
09B3A:  MOVWF  x3F
09B3C:  MOVLB  0
09B3E:  CALL   6C8A
09B42:  MOVFF  00,32D
09B46:  MOVLB  3
09B48:  MOVFF  03,32E
09B4C:  MOVF   x2E,F
09B4E:  BNZ   9B56
09B50:  MOVF   x2D,W
09B52:  SUBLW  0A
09B54:  BC    9B90
09B56:  MOVFF  6A,33E
09B5A:  MOVFF  69,33D
09B5E:  CLRF   x40
09B60:  MOVLW  46
09B62:  MOVWF  x3F
09B64:  MOVLB  0
09B66:  CALL   6C8A
09B6A:  MOVFF  00,32D
09B6E:  MOVLB  3
09B70:  MOVFF  03,32E
09B74:  MOVF   x2E,F
09B76:  BNZ   9B90
09B78:  MOVF   x2D,W
09B7A:  SUBLW  0E
09B7C:  BNC   9B90
09B7E:  MOVLB  0
09B80:  MOVF   x7C,F
09B82:  BTFSC  FD8.2
09B84:  BRA    9B8A
09B86:  MOVLB  3
09B88:  BRA    9B90
....................       DAY11to14_ADDRESS(); 
09B8A:  BRA    93DE
....................    }else if(((PASSED_DAYS%loop_day) >= 15 && UPLINK_SUCCESS == 0) && AUTO_ADCS_DONE == 0){               //ADCS Mission and Download 
09B8C:  BRA    9E3E
09B8E:  MOVLB  3
09B90:  MOVFF  6A,33E
09B94:  MOVFF  69,33D
09B98:  CLRF   x40
09B9A:  MOVLW  46
09B9C:  MOVWF  x3F
09B9E:  MOVLB  0
09BA0:  CALL   6C8A
09BA4:  MOVFF  00,32D
09BA8:  MOVLB  3
09BAA:  MOVFF  03,32E
09BAE:  MOVF   x2E,F
09BB0:  BNZ   9BB8
09BB2:  MOVF   x2D,W
09BB4:  SUBLW  0E
09BB6:  BC    9BF6
09BB8:  MOVLB  0
09BBA:  MOVF   x7C,F
09BBC:  BTFSC  FD8.2
09BBE:  BRA    9BC4
09BC0:  MOVLB  3
09BC2:  BRA    9BF6
09BC4:  MOVF   x7A,F
09BC6:  BTFSC  FD8.2
09BC8:  BRA    9BCE
09BCA:  MOVLB  3
09BCC:  BRA    9BF6
....................       UPDATE_ACK_for_COM(0x66, 0x77, SECT*1138, 405);                                                    //ADCS 
09BCE:  MOVLW  66
09BD0:  MOVLB  3
09BD2:  MOVWF  x31
09BD4:  MOVLW  77
09BD6:  MOVWF  x32
09BD8:  MOVLW  04
09BDA:  MOVWF  x36
09BDC:  MOVLW  72
09BDE:  MOVWF  x35
09BE0:  CLRF   x34
09BE2:  CLRF   x33
09BE4:  MOVLW  01
09BE6:  MOVWF  x38
09BE8:  MOVLW  95
09BEA:  MOVWF  x37
09BEC:  MOVLB  0
09BEE:  CALL   7D64
....................    }else if(((PASSED_DAYS%loop_day) >= 16 && (PASSED_DAYS%loop_day) <= 19) && UPLINK_SUCCESS == 0){      //ADCS Download 
09BF2:  BRA    9E3E
09BF4:  MOVLB  3
09BF6:  MOVFF  6A,33E
09BFA:  MOVFF  69,33D
09BFE:  CLRF   x40
09C00:  MOVLW  46
09C02:  MOVWF  x3F
09C04:  MOVLB  0
09C06:  CALL   6C8A
09C0A:  MOVFF  00,32D
09C0E:  MOVLB  3
09C10:  MOVFF  03,32E
09C14:  MOVF   x2E,F
09C16:  BNZ   9C1E
09C18:  MOVF   x2D,W
09C1A:  SUBLW  0F
09C1C:  BC    9C58
09C1E:  MOVFF  6A,33E
09C22:  MOVFF  69,33D
09C26:  CLRF   x40
09C28:  MOVLW  46
09C2A:  MOVWF  x3F
09C2C:  MOVLB  0
09C2E:  CALL   6C8A
09C32:  MOVFF  00,32D
09C36:  MOVLB  3
09C38:  MOVFF  03,32E
09C3C:  MOVF   x2E,F
09C3E:  BNZ   9C58
09C40:  MOVF   x2D,W
09C42:  SUBLW  13
09C44:  BNC   9C58
09C46:  MOVLB  0
09C48:  MOVF   x7C,F
09C4A:  BTFSC  FD8.2
09C4C:  BRA    9C52
09C4E:  MOVLB  3
09C50:  BRA    9C58
....................       DAY16to19_ADDRESS();                                                                             //ADCS DL 
09C52:  BRA    945A
....................    }else if(((PASSED_DAYS%loop_day) >= 20 && (PASSED_DAYS%loop_day) <= 25) && UPLINK_SUCCESS == 0){      //High sampling sensor collecting mission download 
09C54:  BRA    9E3E
09C56:  MOVLB  3
09C58:  MOVFF  6A,33E
09C5C:  MOVFF  69,33D
09C60:  CLRF   x40
09C62:  MOVLW  46
09C64:  MOVWF  x3F
09C66:  MOVLB  0
09C68:  CALL   6C8A
09C6C:  MOVFF  00,32D
09C70:  MOVLB  3
09C72:  MOVFF  03,32E
09C76:  MOVF   x2E,F
09C78:  BNZ   9C80
09C7A:  MOVF   x2D,W
09C7C:  SUBLW  13
09C7E:  BC    9CBA
09C80:  MOVFF  6A,33E
09C84:  MOVFF  69,33D
09C88:  CLRF   x40
09C8A:  MOVLW  46
09C8C:  MOVWF  x3F
09C8E:  MOVLB  0
09C90:  CALL   6C8A
09C94:  MOVFF  00,32D
09C98:  MOVLB  3
09C9A:  MOVFF  03,32E
09C9E:  MOVF   x2E,F
09CA0:  BNZ   9CBA
09CA2:  MOVF   x2D,W
09CA4:  SUBLW  19
09CA6:  BNC   9CBA
09CA8:  MOVLB  0
09CAA:  MOVF   x7C,F
09CAC:  BTFSC  FD8.2
09CAE:  BRA    9CB4
09CB0:  MOVLB  3
09CB2:  BRA    9CBA
....................       DAY20to25_ADDRESS(); 
09CB4:  BRA    9502
....................    }else if(((PASSED_DAYS%loop_day) >= 26 && (PASSED_DAYS%loop_day) <= 46) && UPLINK_SUCCESS == 0){      //CAM Mission Download 
09CB6:  BRA    9E3E
09CB8:  MOVLB  3
09CBA:  MOVFF  6A,33E
09CBE:  MOVFF  69,33D
09CC2:  CLRF   x40
09CC4:  MOVLW  46
09CC6:  MOVWF  x3F
09CC8:  MOVLB  0
09CCA:  CALL   6C8A
09CCE:  MOVFF  00,32D
09CD2:  MOVLB  3
09CD4:  MOVFF  03,32E
09CD8:  MOVF   x2E,F
09CDA:  BNZ   9CE2
09CDC:  MOVF   x2D,W
09CDE:  SUBLW  19
09CE0:  BC    9D1C
09CE2:  MOVFF  6A,33E
09CE6:  MOVFF  69,33D
09CEA:  CLRF   x40
09CEC:  MOVLW  46
09CEE:  MOVWF  x3F
09CF0:  MOVLB  0
09CF2:  CALL   6C8A
09CF6:  MOVFF  00,32D
09CFA:  MOVLB  3
09CFC:  MOVFF  03,32E
09D00:  MOVF   x2E,F
09D02:  BNZ   9D1C
09D04:  MOVF   x2D,W
09D06:  SUBLW  2E
09D08:  BNC   9D1C
09D0A:  MOVLB  0
09D0C:  MOVF   x7C,F
09D0E:  BTFSC  FD8.2
09D10:  BRA    9D16
09D12:  MOVLB  3
09D14:  BRA    9D1C
....................       DAY26to46_ADDRESS(); 
09D16:  BRA    95DA
....................    }else if(((PASSED_DAYS%loop_day) >= 47 && (PASSED_DAYS%loop_day) <= 52) && UPLINK_SUCCESS == 0){      //ADCS Mission Data Download 
09D18:  BRA    9E3E
09D1A:  MOVLB  3
09D1C:  MOVFF  6A,33E
09D20:  MOVFF  69,33D
09D24:  CLRF   x40
09D26:  MOVLW  46
09D28:  MOVWF  x3F
09D2A:  MOVLB  0
09D2C:  CALL   6C8A
09D30:  MOVFF  00,32D
09D34:  MOVLB  3
09D36:  MOVFF  03,32E
09D3A:  MOVF   x2E,F
09D3C:  BNZ   9D44
09D3E:  MOVF   x2D,W
09D40:  SUBLW  2E
09D42:  BC    9D7E
09D44:  MOVFF  6A,33E
09D48:  MOVFF  69,33D
09D4C:  CLRF   x40
09D4E:  MOVLW  46
09D50:  MOVWF  x3F
09D52:  MOVLB  0
09D54:  CALL   6C8A
09D58:  MOVFF  00,32D
09D5C:  MOVLB  3
09D5E:  MOVFF  03,32E
09D62:  MOVF   x2E,F
09D64:  BNZ   9D7E
09D66:  MOVF   x2D,W
09D68:  SUBLW  34
09D6A:  BNC   9D7E
09D6C:  MOVLB  0
09D6E:  MOVF   x7C,F
09D70:  BTFSC  FD8.2
09D72:  BRA    9D78
09D74:  MOVLB  3
09D76:  BRA    9D7E
....................       DAY47to52_ADDRESS(); 
09D78:  BRA    96B2
....................    }else if(((PASSED_DAYS%loop_day) >= 53 && (PASSED_DAYS%loop_day) <= 59) && UPLINK_SUCCESS == 0){      //Satellite LOG Download 
09D7A:  BRA    9E3E
09D7C:  MOVLB  3
09D7E:  MOVFF  6A,33E
09D82:  MOVFF  69,33D
09D86:  CLRF   x40
09D88:  MOVLW  46
09D8A:  MOVWF  x3F
09D8C:  MOVLB  0
09D8E:  CALL   6C8A
09D92:  MOVFF  00,32D
09D96:  MOVLB  3
09D98:  MOVFF  03,32E
09D9C:  MOVF   x2E,F
09D9E:  BNZ   9DA6
09DA0:  MOVF   x2D,W
09DA2:  SUBLW  34
09DA4:  BC    9DE0
09DA6:  MOVFF  6A,33E
09DAA:  MOVFF  69,33D
09DAE:  CLRF   x40
09DB0:  MOVLW  46
09DB2:  MOVWF  x3F
09DB4:  MOVLB  0
09DB6:  CALL   6C8A
09DBA:  MOVFF  00,32D
09DBE:  MOVLB  3
09DC0:  MOVFF  03,32E
09DC4:  MOVF   x2E,F
09DC6:  BNZ   9DE0
09DC8:  MOVF   x2D,W
09DCA:  SUBLW  3B
09DCC:  BNC   9DE0
09DCE:  MOVLB  0
09DD0:  MOVF   x7C,F
09DD2:  BTFSC  FD8.2
09DD4:  BRA    9DDA
09DD6:  MOVLB  3
09DD8:  BRA    9DE0
....................       DAY53to59_ADDRESS(); 
09DDA:  BRA    978C
....................    }else if(((PASSED_DAYS%loop_day) >= 60 && (PASSED_DAYS%loop_day) <= 69) && UPLINK_SUCCESS == 0){      //Normal HK Download 
09DDC:  BRA    9E3E
09DDE:  MOVLB  3
09DE0:  MOVFF  6A,33E
09DE4:  MOVFF  69,33D
09DE8:  CLRF   x40
09DEA:  MOVLW  46
09DEC:  MOVWF  x3F
09DEE:  MOVLB  0
09DF0:  CALL   6C8A
09DF4:  MOVFF  00,32D
09DF8:  MOVLB  3
09DFA:  MOVFF  03,32E
09DFE:  MOVF   x2E,F
09E00:  BNZ   9E08
09E02:  MOVF   x2D,W
09E04:  SUBLW  3B
09E06:  BC    9E40
09E08:  MOVFF  6A,33E
09E0C:  MOVFF  69,33D
09E10:  CLRF   x40
09E12:  MOVLW  46
09E14:  MOVWF  x3F
09E16:  MOVLB  0
09E18:  CALL   6C8A
09E1C:  MOVFF  00,32D
09E20:  MOVLB  3
09E22:  MOVFF  03,32E
09E26:  MOVF   x2E,F
09E28:  BNZ   9E40
09E2A:  MOVF   x2D,W
09E2C:  SUBLW  45
09E2E:  BNC   9E40
09E30:  MOVLB  0
09E32:  MOVF   x7C,F
09E34:  BTFSC  FD8.2
09E36:  BRA    9E3C
09E38:  MOVLB  3
09E3A:  BRA    9E40
....................       DAY60to69_ADDRESS(); 
09E3C:  BRA    984E
09E3E:  MOVLB  3
....................    } 
....................    return; 
09E40:  MOVLB  0
09E42:  GOTO   9F1A (RETURN)
.................... } 
....................  
....................  
.................... //@@@@@@@@@@@ AUTO MISSION OPERATION @@@@@@@@@@@@@@@@@@@@@@@@@@@@@@@@@@@@@@@@@@@@@@@@@@@@@@@@ 
.................... void AUTOMATICAL_MISSION_CHECK() 
.................... { 
....................    int c; 
....................    for(c = 0; c < 6; c++) 
09E46:  MOVLB  3
09E48:  CLRF   x2C
09E4A:  MOVF   x2C,W
09E4C:  SUBLW  05
09E4E:  BNC   9E68
....................    { 
....................       COLLECT_RESET_DATA();                                                      //send cmd to get reset data 
09E50:  MOVLB  0
09E52:  CALL   1B64
....................       if(reset_bffr[0] == 0x8e) 
09E56:  MOVF   xEC,W
09E58:  SUBLW  8E
09E5A:  BNZ   9E62
....................       { 
....................          break; 
09E5C:  MOVLB  3
09E5E:  BRA    9E68
09E60:  MOVLB  0
....................       } 
09E62:  MOVLB  3
09E64:  INCF   x2C,F
09E66:  BRA    9E4A
....................    } 
....................     
....................    for(c = 0; c < 10; c++)                                                       //print reset data 
09E68:  CLRF   x2C
09E6A:  MOVF   x2C,W
09E6C:  SUBLW  09
09E6E:  BNC   9E9A
....................    { 
....................       fprintf(PC,"%x,",reset_bffr[c]); 
09E70:  CLRF   03
09E72:  MOVF   x2C,W
09E74:  ADDLW  EC
09E76:  MOVWF  FE9
09E78:  MOVLW  00
09E7A:  ADDWFC 03,W
09E7C:  MOVWF  FEA
09E7E:  MOVFF  FEF,363
09E82:  MOVLW  57
09E84:  MOVWF  x64
09E86:  MOVLB  0
09E88:  CALL   17E0
09E8C:  MOVLW  2C
09E8E:  BTFSS  F9E.4
09E90:  BRA    9E8E
09E92:  MOVWF  FAD
09E94:  MOVLB  3
09E96:  INCF   x2C,F
09E98:  BRA    9E6A
....................    } 
....................    fprintf(PC,"%x\r\n",reset_bffr[10]); 
09E9A:  MOVFF  F6,363
09E9E:  MOVLW  57
09EA0:  MOVWF  x64
09EA2:  MOVLB  0
09EA4:  CALL   17E0
09EA8:  MOVLW  0D
09EAA:  BTFSS  F9E.4
09EAC:  BRA    9EAA
09EAE:  MOVWF  FAD
09EB0:  MOVLW  0A
09EB2:  BTFSS  F9E.4
09EB4:  BRA    9EB2
09EB6:  MOVWF  FAD
....................     
....................    if(((PASSED_DAYS%loop_day==0)&&(PASSED_DAYS>69))&&UPLINK_SUCCESS == 0)        //after 70 day (one cycle), auto mission again 
09EB8:  MOVFF  6A,33E
09EBC:  MOVFF  69,33D
09EC0:  MOVLB  3
09EC2:  CLRF   x40
09EC4:  MOVLW  46
09EC6:  MOVWF  x3F
09EC8:  MOVLB  0
09ECA:  CALL   6C8A
09ECE:  MOVFF  00,32D
09ED2:  MOVLB  3
09ED4:  MOVFF  03,32E
09ED8:  MOVF   x2D,F
09EDA:  BNZ   9F12
09EDC:  MOVF   x2E,F
09EDE:  BNZ   9F12
09EE0:  MOVLB  0
09EE2:  MOVF   x6A,F
09EE4:  BNZ   9EF2
09EE6:  MOVF   x69,W
09EE8:  SUBLW  45
09EEA:  BTFSS  FD8.0
09EEC:  BRA    9EF2
09EEE:  MOVLB  3
09EF0:  BRA    9F12
09EF2:  MOVF   x7C,F
09EF4:  BTFSC  FD8.2
09EF6:  BRA    9EFC
09EF8:  MOVLB  3
09EFA:  BRA    9F12
....................    { 
....................       FIRST_HSSC_DONE = 0; 
09EFC:  CLRF   x77
....................       AUTO_CAM_DONE = 0; 
09EFE:  CLRF   x78
....................       AUTO_MBP_DONE = 0; 
09F00:  CLRF   x79
....................       AUTO_ADCS_DONE = 0; 
09F02:  CLRF   x7A
....................       AUTO_MSN_AD_CHANGE();                                                      //update address for a new cycle 
09F04:  GOTO   6D2C
....................       STORE_FLAG_INFO();                                                         //save flag data to flash memory 
09F08:  CALL   5714
....................       WRITE_FLAG_to_EEPROM();                                                    //saves the flags in the EEPROM from the address 0x18000 (75%) 
09F0C:  CALL   5924
09F10:  MOVLB  3
....................    } 
....................    AUTOMATICAL_MSN_EXE(); 
09F12:  MOVLB  0
09F14:  GOTO   8D76
....................    PREPARE_AUTOMATICAL_MSN_ADDRESS(); 
09F18:  BRA    9928
....................    return; 
09F1A:  RETURN 0
.................... } 
....................  
....................  
.................... #include<analyze_command.c> 
.................... void UPLINK_SUCCESS_CHECK() 
.................... { 
....................    if(UPLINK_SUCCESS == 0) 
*
0AF9A:  MOVF   x7C,F
0AF9C:  BNZ   AFAA
....................    { 
....................       UPLINK_SUCCESS = 1; 
0AF9E:  MOVLW  01
0AFA0:  MOVWF  x7C
....................       STORE_FLAG_INFO();                                                         //save flag data to flash memory 
0AFA2:  CALL   5714
....................       WRITE_FLAG_to_EEPROM();                                                    //save flags on EEPROM from address 0x18000 (75%) 
0AFA6:  CALL   5924
....................    } 
....................    return; 
0AFAA:  RETURN 0
.................... } 
....................  
.................... void UPLINK_SUCCESS_ADCS() 
.................... { 
....................    if(UPLINK_SUCCESS == 0) 
*
0A098:  MOVF   x7C,F
0A09A:  BNZ   A0AC
....................    { 
....................       UPLINK_SUCCESS = 1; 
0A09C:  MOVLW  01
0A09E:  MOVWF  x7C
....................       AUTO_ADCS_DONE = 1; 
0A0A0:  MOVWF  x7A
....................       STORE_FLAG_INFO(); 
0A0A2:  CALL   5714
....................       WRITE_FLAG_to_EEPROM(); 
0A0A6:  CALL   5924
....................    }else if(AUTO_ADCS_DONE == 0){ 
0A0AA:  BRA    A0BC
0A0AC:  MOVF   x7A,F
0A0AE:  BNZ   A0BC
....................       AUTO_ADCS_DONE = 1; 
0A0B0:  MOVLW  01
0A0B2:  MOVWF  x7A
....................       STORE_FLAG_INFO(); 
0A0B4:  CALL   5714
....................       WRITE_FLAG_to_EEPROM(); 
0A0B8:  CALL   5924
....................    } 
....................    return; 
0A0BC:  RETURN 0
.................... } 
....................  
.................... void UPLINK_SUCCESS_HSSC() 
.................... { 
....................    if(UPLINK_SUCCESS == 0) 
*
0B0B8:  MOVF   x7C,F
0B0BA:  BNZ   B0CC
....................    { 
....................       UPLINK_SUCCESS = 1; 
0B0BC:  MOVLW  01
0B0BE:  MOVWF  x7C
....................       FIRST_HSSC_DONE = 1; 
0B0C0:  MOVWF  x77
....................       STORE_FLAG_INFO(); 
0B0C2:  CALL   5714
....................       WRITE_FLAG_to_EEPROM(); 
0B0C6:  CALL   5924
....................    }else if(FIRST_HSSC_DONE == 0){ 
0B0CA:  BRA    B0DC
0B0CC:  MOVF   x77,F
0B0CE:  BNZ   B0DC
....................       FIRST_HSSC_DONE = 1; 
0B0D0:  MOVLW  01
0B0D2:  MOVWF  x77
....................       STORE_FLAG_INFO(); 
0B0D4:  CALL   5714
....................       WRITE_FLAG_to_EEPROM(); 
0B0D8:  CALL   5924
....................    } 
....................    return; 
0B0DC:  RETURN 0
.................... } 
....................  
.................... void UPLINK_SUCCESS_MBP() 
.................... { 
....................    if(UPLINK_SUCCESS == 0) 
*
0AA04:  MOVF   x7C,F
0AA06:  BNZ   AA18
....................    { 
....................       UPLINK_SUCCESS = 1; 
0AA08:  MOVLW  01
0AA0A:  MOVWF  x7C
....................       AUTO_MBP_DONE = 1; 
0AA0C:  MOVWF  x79
....................       STORE_FLAG_INFO();                                                         //store flag info on flash 
0AA0E:  CALL   5714
....................       WRITE_FLAG_to_EEPROM();                                                    //store flag info on EEPROM 
0AA12:  CALL   5924
....................    }else if(AUTO_MBP_DONE == 0){ 
0AA16:  BRA    AA28
0AA18:  MOVF   x79,F
0AA1A:  BNZ   AA28
....................       AUTO_MBP_DONE = 1; 
0AA1C:  MOVLW  01
0AA1E:  MOVWF  x79
....................       STORE_FLAG_INFO();                                                         //store flag info on flash 
0AA20:  CALL   5714
....................       WRITE_FLAG_to_EEPROM();                                                    //store flag info on EEPROM 
0AA24:  CALL   5924
....................    } 
....................    return; 
0AA28:  RETURN 0
.................... } 
....................  
.................... void UPLINK_SUCCESS_CAM() 
.................... { 
....................    if(UPLINK_SUCCESS == 0) 
*
0A072:  MOVF   x7C,F
0A074:  BNZ   A086
....................    { 
....................       AUTO_CAM_DONE = 1; 
0A076:  MOVLW  01
0A078:  MOVWF  x78
....................       UPLINK_SUCCESS = 1; 
0A07A:  MOVWF  x7C
....................       STORE_FLAG_INFO();                                                         //store flag info on flash 
0A07C:  CALL   5714
....................       WRITE_FLAG_to_EEPROM();                                                    //store flag info on EEPROM 
0A080:  CALL   5924
....................    }else if(AUTO_CAM_DONE == 0){ 
0A084:  BRA    A096
0A086:  MOVF   x78,F
0A088:  BNZ   A096
....................       AUTO_CAM_DONE = 1; 
0A08A:  MOVLW  01
0A08C:  MOVWF  x78
....................       STORE_FLAG_INFO();                                                         //store flag info on flash 
0A08E:  CALL   5714
....................       WRITE_FLAG_to_EEPROM();                                                    //store flag info on EEPROM 
0A092:  CALL   5924
....................    } 
....................    return; 
0A096:  RETURN 0
.................... } 
....................  
.................... void EXECUTE_MISSION_from_COM(int8 CMD1,int8 CMD2,int8 CMD3,int8 CMD4,int8 CMD5,int8 CMD6,int8 CMD7) 
.................... { 
....................    switch(CMD1) 
*
0C524:  MOVLB  3
0C526:  MOVF   x2C,W
0C528:  XORLW  C0
0C52A:  MOVLB  0
0C52C:  BTFSC  FD8.2
0C52E:  BRA    C634
0C530:  XORLW  60
0C532:  BTFSC  FD8.2
0C534:  BRA    C66E
0C536:  XORLW  01
0C538:  BTFSC  FD8.2
0C53A:  BRA    C6D2
0C53C:  XORLW  03
0C53E:  BTFSC  FD8.2
0C540:  BRA    C71C
0C542:  XORLW  72
0C544:  BTFSC  FD8.2
0C546:  BRA    C74E
0C548:  XORLW  01
0C54A:  BTFSC  FD8.2
0C54C:  BRA    C7AA
0C54E:  XORLW  03
0C550:  BTFSC  FD8.2
0C552:  BRA    C804
0C554:  XORLW  01
0C556:  BTFSC  FD8.2
0C558:  BRA    C85E
0C55A:  XORLW  07
0C55C:  BTFSC  FD8.2
0C55E:  BRA    C8B8
0C560:  XORLW  01
0C562:  BTFSC  FD8.2
0C564:  BRA    C912
0C566:  XORLW  03
0C568:  BTFSC  FD8.2
0C56A:  BRA    C96C
0C56C:  XORLW  01
0C56E:  BTFSC  FD8.2
0C570:  BRA    C9C6
0C572:  XORLW  08
0C574:  BTFSC  FD8.2
0C576:  BRA    CA20
0C578:  XORLW  75
0C57A:  BTFSC  FD8.2
0C57C:  BRA    CA7A
0C57E:  XORLW  88
0C580:  BTFSC  FD8.2
0C582:  BRA    CAB2
0C584:  XORLW  92
0C586:  BTFSC  FD8.2
0C588:  BRA    CAE0
0C58A:  XORLW  01
0C58C:  BTFSC  FD8.2
0C58E:  BRA    CB0A
0C590:  XORLW  03
0C592:  BTFSC  FD8.2
0C594:  BRA    CB34
0C596:  XORLW  01
0C598:  BTFSC  FD8.2
0C59A:  BRA    CB5E
0C59C:  XORLW  07
0C59E:  BTFSC  FD8.2
0C5A0:  BRA    CB88
0C5A2:  XORLW  FF
0C5A4:  BTFSC  FD8.2
0C5A6:  BRA    CBB2
0C5A8:  XORLW  F0
0C5AA:  BTFSC  FD8.2
0C5AC:  BRA    CBE0
0C5AE:  XORLW  41
0C5B0:  BTFSC  FD8.2
0C5B2:  BRA    CC0E
0C5B4:  XORLW  A3
0C5B6:  BTFSC  FD8.2
0C5B8:  BRA    CC88
0C5BA:  XORLW  B7
0C5BC:  BTFSC  FD8.2
0C5BE:  BRA    CCA0
0C5C0:  XORLW  66
0C5C2:  BTFSC  FD8.2
0C5C4:  BRA    CCAE
0C5C6:  XORLW  17
0C5C8:  BTFSC  FD8.2
0C5CA:  BRA    CCB4
0C5CC:  XORLW  CF
0C5CE:  BTFSC  FD8.2
0C5D0:  BRA    CCBA
0C5D2:  XORLW  B0
0C5D4:  BTFSC  FD8.2
0C5D6:  BRA    CCCC
0C5D8:  XORLW  01
0C5DA:  BTFSC  FD8.2
0C5DC:  BRA    CCFA
0C5DE:  XORLW  03
0C5E0:  BTFSC  FD8.2
0C5E2:  BRA    CD28
0C5E4:  XORLW  F0
0C5E6:  BTFSC  FD8.2
0C5E8:  BRA    CD56
0C5EA:  XORLW  01
0C5EC:  BTFSC  FD8.2
0C5EE:  BRA    CD84
0C5F0:  XORLW  32
0C5F2:  BTFSC  FD8.2
0C5F4:  GOTO   CDB2
0C5F8:  XORLW  02
0C5FA:  BTFSC  FD8.2
0C5FC:  GOTO   CDE0
0C600:  XORLW  12
0C602:  BTFSC  FD8.2
0C604:  GOTO   CE0E
0C608:  XORLW  03
0C60A:  BTFSC  FD8.2
0C60C:  GOTO   CE3C
0C610:  XORLW  33
0C612:  BTFSC  FD8.2
0C614:  GOTO   CE6A
0C618:  XORLW  03
0C61A:  BTFSC  FD8.2
0C61C:  GOTO   CE9E
0C620:  XORLW  01
0C622:  BTFSC  FD8.2
0C624:  GOTO   CED2
0C628:  XORLW  36
0C62A:  BTFSC  FD8.2
0C62C:  GOTO   CF06
0C630:  GOTO   CF44
....................    { 
....................       case 0xC0: 
....................          REPLY_TO_COM(0x66,0); 
0C634:  MOVLW  66
0C636:  MOVLB  3
0C638:  MOVWF  x37
0C63A:  CLRF   x38
0C63C:  MOVLB  0
0C63E:  CALL   9F72
....................          SAVE_SAT_LOG(CMD1, 0, CMD2);                                            //save reset data          
0C642:  MOVFF  32C,354
0C646:  MOVLB  3
0C648:  CLRF   x55
0C64A:  MOVFF  32D,356
0C64E:  MOVLB  0
0C650:  CALL   3A8A
....................          UPLINK_SUCCESS_CAM();                                                   //put uplink succes flag in high and store flags 
0C654:  CALL   A072
....................          ACK_for_COM[14] = 0x00;         
0C658:  MOVLB  2
0C65A:  CLRF   x62
....................          CAM_TEST_OPERATION(CMD2);                                               //send command to CAM, execute mission and transfer data 
0C65C:  MOVFF  32D,337
0C660:  MOVLB  0
0C662:  CALL   80F4
....................          STORE_ADRESS_DATA_TO_FLASH();                                           //store the updated CAM address 
0C666:  CALL   3776
....................          break; 
0C66A:  GOTO   CF44
....................       case 0xA0: 
....................          REPLY_TO_COM(0x66,0); 
0C66E:  MOVLW  66
0C670:  MOVLB  3
0C672:  MOVWF  x37
0C674:  CLRF   x38
0C676:  MOVLB  0
0C678:  CALL   9F72
....................          SAVE_SAT_LOG(CMD1,CMD2,CMD4); 
0C67C:  MOVFF  32C,354
0C680:  MOVFF  32D,355
0C684:  MOVFF  32F,356
0C688:  CALL   3A8A
....................          unsigned int16 op_duration = (unsigned int16)CMD4*60;          
0C68C:  MOVLB  3
0C68E:  CLRF   x38
0C690:  MOVFF  32F,337
0C694:  MOVFF  338,349
0C698:  MOVFF  32F,348
0C69C:  CLRF   x4B
0C69E:  MOVLW  3C
0C6A0:  MOVWF  x4A
0C6A2:  MOVLB  0
0C6A4:  CALL   7E50
0C6A8:  MOVFF  02,334
0C6AC:  MOVFF  01,333
....................          UPLINK_SUCCESS_ADCS(); 
0C6B0:  CALL   A098
....................          ACK_for_COM[14] = 0x00;         
0C6B4:  MOVLB  2
0C6B6:  CLRF   x62
....................          //ADCS_TEST_OPERATION(op_duration,NOMAL_ADCS_MSN); 
....................          ADCS_TEST_OPERATION(op_duration,CMD2); 
0C6B8:  MOVFF  334,33A
0C6BC:  MOVFF  333,339
0C6C0:  MOVFF  32D,33B
0C6C4:  MOVLB  0
0C6C6:  CALL   A2C8
....................          STORE_ADRESS_DATA_TO_FLASH(); 
0C6CA:  CALL   3776
....................          break; 
0C6CE:  GOTO   CF44
....................       case 0xA1:                                                                 //TLE data reception  
....................          REPLY_TO_COM(0x66,0); 
0C6D2:  MOVLW  66
0C6D4:  MOVLB  3
0C6D6:  MOVWF  x37
0C6D8:  CLRF   x38
0C6DA:  MOVLB  0
0C6DC:  CALL   9F72
....................          UPLINK_SUCCESS_ADCS(); 
0C6E0:  CALL   A098
....................          SAVE_SAT_LOG(CMD1, 0, CMD2);                                            //save reset data and command          
0C6E4:  MOVFF  32C,354
0C6E8:  MOVLB  3
0C6EA:  CLRF   x55
0C6EC:  MOVFF  32D,356
0C6F0:  MOVLB  0
0C6F2:  CALL   3A8A
....................          ACK_for_COM[14] = 0x00; 
0C6F6:  MOVLB  2
0C6F8:  CLRF   x62
....................          ADCS_TLE_JOIN(CMD2,CMD3,CMD4,CMD5,CMD6,CMD7);                           //Receive, assemble and save TLE data in flash 
0C6FA:  MOVFF  32D,33C
0C6FE:  MOVFF  32E,33D
0C702:  MOVFF  32F,33E
0C706:  MOVFF  330,33F
0C70A:  MOVFF  331,340
0C70E:  MOVFF  332,341
0C712:  MOVLB  0
0C714:  CALL   A5E6
....................          break; 
0C718:  GOTO   CF44
....................       case 0xA2:                                                                 //TLE data reception  
....................          REPLY_TO_COM(0x66,0); 
0C71C:  MOVLW  66
0C71E:  MOVLB  3
0C720:  MOVWF  x37
0C722:  CLRF   x38
0C724:  MOVLB  0
0C726:  CALL   9F72
....................          UPLINK_SUCCESS_ADCS(); 
0C72A:  CALL   A098
....................          SAVE_SAT_LOG(CMD1, 0, CMD2);                                            //save reset data and command          
0C72E:  MOVFF  32C,354
0C732:  MOVLB  3
0C734:  CLRF   x55
0C736:  MOVFF  32D,356
0C73A:  MOVLB  0
0C73C:  CALL   3A8A
....................          ACK_for_COM[14] = 0x00; 
0C740:  MOVLB  2
0C742:  CLRF   x62
....................          ADCS_TLE_TRANSFER();                                                    //TRANSFER TLE data to ADCS 
0C744:  MOVLB  0
0C746:  CALL   A91C
....................          break;     
0C74A:  GOTO   CF44
....................       case 0xD0:                                                                 //transfer data from Mission BOSS 
....................          REPLY_TO_COM(0x66,0); 
0C74E:  MOVLW  66
0C750:  MOVLB  3
0C752:  MOVWF  x37
0C754:  CLRF   x38
0C756:  MOVLB  0
0C758:  CALL   9F72
....................          SAVE_SAT_LOG(CMD1, 0, CMD2);                                            //save reset data and command 
0C75C:  MOVFF  32C,354
0C760:  MOVLB  3
0C762:  CLRF   x55
0C764:  MOVFF  32D,356
0C768:  MOVLB  0
0C76A:  CALL   3A8A
....................          UPLINK_SUCCESS_MBP();                                                   //put uplink succes flag in high and store flags 
0C76E:  CALL   AA04
....................          ACK_for_COM[14] = 0x00;          
0C772:  MOVLB  2
0C774:  CLRF   x62
....................          DATACOLLECTION_TEST_OPERATION(CMD1,CMD2,CMD3,CMD4,CMD5,CMD6,CMD7);      //Turn ON MBP, get data, store in flash 
0C776:  MOVFF  32C,33D
0C77A:  MOVFF  32D,33E
0C77E:  MOVFF  32E,33F
0C782:  MOVFF  32F,340
0C786:  MOVFF  330,341
0C78A:  MOVFF  331,342
0C78E:  MOVFF  332,343
0C792:  MOVLB  0
0C794:  CALL   AC4C
....................          STORE_ADRESS_DATA_TO_FLASH();                                           //store the updated address 
0C798:  CALL   3776
....................          delay_ms(10); 
0C79C:  MOVLW  0A
0C79E:  MOVLB  3
0C7A0:  MOVWF  x6B
0C7A2:  MOVLB  0
0C7A4:  CALL   1AFC
....................          break;  
0C7A8:  BRA    CF44
....................       case 0xD1:                                                                 //PSC Mission 
....................          REPLY_TO_COM(0x66,0); 
0C7AA:  MOVLW  66
0C7AC:  MOVLB  3
0C7AE:  MOVWF  x37
0C7B0:  CLRF   x38
0C7B2:  MOVLB  0
0C7B4:  CALL   9F72
....................          UPLINK_SUCCESS_MBP(); 
0C7B8:  CALL   AA04
....................          ACK_for_COM[14] = 0x00;       
0C7BC:  MOVLB  2
0C7BE:  CLRF   x62
....................          SAVE_SAT_LOG(CMD1,0,CMD2);                                              //save reset data and command 
0C7C0:  MOVFF  32C,354
0C7C4:  MOVLB  3
0C7C6:  CLRF   x55
0C7C8:  MOVFF  32D,356
0C7CC:  MOVLB  0
0C7CE:  CALL   3A8A
....................          MISSION_TEST_OPERATION(CMD1,CMD2,CMD3,CMD4,CMD5,CMD6,CMD7);             //send array of commnands to MBP 
0C7D2:  MOVFF  32C,33D
0C7D6:  MOVFF  32D,33E
0C7DA:  MOVFF  32E,33F
0C7DE:  MOVFF  32F,340
0C7E2:  MOVFF  330,341
0C7E6:  MOVFF  331,342
0C7EA:  MOVFF  332,343
0C7EE:  CALL   ADF6
....................          delay_ms(10); 
0C7F2:  MOVLW  0A
0C7F4:  MOVLB  3
0C7F6:  MOVWF  x6B
0C7F8:  MOVLB  0
0C7FA:  CALL   1AFC
....................          STORE_ADRESS_DATA_TO_FLASH();                                           //store the updated address 
0C7FE:  CALL   3776
....................          break; 
0C802:  BRA    CF44
....................       case 0xD2:                                                                 //TMCR Mission 
....................          REPLY_TO_COM(0x66,0); 
0C804:  MOVLW  66
0C806:  MOVLB  3
0C808:  MOVWF  x37
0C80A:  CLRF   x38
0C80C:  MOVLB  0
0C80E:  CALL   9F72
....................          UPLINK_SUCCESS_MBP(); 
0C812:  CALL   AA04
....................          ACK_for_COM[14] = 0x00;      
0C816:  MOVLB  2
0C818:  CLRF   x62
....................          SAVE_SAT_LOG(CMD1,0,CMD2);                                              //save reset data and command 
0C81A:  MOVFF  32C,354
0C81E:  MOVLB  3
0C820:  CLRF   x55
0C822:  MOVFF  32D,356
0C826:  MOVLB  0
0C828:  CALL   3A8A
....................          MISSION_TEST_OPERATION(CMD1,CMD2,CMD3,CMD4,CMD5,CMD6,CMD7);             //send array of commnands to MBP 
0C82C:  MOVFF  32C,33D
0C830:  MOVFF  32D,33E
0C834:  MOVFF  32E,33F
0C838:  MOVFF  32F,340
0C83C:  MOVFF  330,341
0C840:  MOVFF  331,342
0C844:  MOVFF  332,343
0C848:  CALL   ADF6
....................          delay_ms(10); 
0C84C:  MOVLW  0A
0C84E:  MOVLB  3
0C850:  MOVWF  x6B
0C852:  MOVLB  0
0C854:  CALL   1AFC
....................          STORE_ADRESS_DATA_TO_FLASH();                                           //store the updated address 
0C858:  CALL   3776
....................          break; 
0C85C:  BRA    CF44
....................       case 0xD3:                                                                 //NTU Mission 
....................          REPLY_TO_COM(0x66,0); 
0C85E:  MOVLW  66
0C860:  MOVLB  3
0C862:  MOVWF  x37
0C864:  CLRF   x38
0C866:  MOVLB  0
0C868:  CALL   9F72
....................          UPLINK_SUCCESS_MBP(); 
0C86C:  CALL   AA04
....................          ACK_for_COM[14] = 0x00;       
0C870:  MOVLB  2
0C872:  CLRF   x62
....................          SAVE_SAT_LOG(CMD1,0,CMD2);                                              //save reset data and command 
0C874:  MOVFF  32C,354
0C878:  MOVLB  3
0C87A:  CLRF   x55
0C87C:  MOVFF  32D,356
0C880:  MOVLB  0
0C882:  CALL   3A8A
....................          MISSION_TEST_OPERATION(CMD1,CMD2,CMD3,CMD4,CMD5,CMD6,CMD7);             //send array of commnands to MBP 
0C886:  MOVFF  32C,33D
0C88A:  MOVFF  32D,33E
0C88E:  MOVFF  32E,33F
0C892:  MOVFF  32F,340
0C896:  MOVFF  330,341
0C89A:  MOVFF  331,342
0C89E:  MOVFF  332,343
0C8A2:  CALL   ADF6
....................          delay_ms(10); 
0C8A6:  MOVLW  0A
0C8A8:  MOVLB  3
0C8AA:  MOVWF  x6B
0C8AC:  MOVLB  0
0C8AE:  CALL   1AFC
....................          STORE_ADRESS_DATA_TO_FLASH();                                           //store the updated address 
0C8B2:  CALL   3776
....................          break; 
0C8B6:  BRA    CF44
....................       case 0xD4:                                                                 //SF_WARD Mission 
....................          REPLY_TO_COM(0x66,0); 
0C8B8:  MOVLW  66
0C8BA:  MOVLB  3
0C8BC:  MOVWF  x37
0C8BE:  CLRF   x38
0C8C0:  MOVLB  0
0C8C2:  CALL   9F72
....................          UPLINK_SUCCESS_MBP(); 
0C8C6:  CALL   AA04
....................          ACK_for_COM[14] = 0x00;      
0C8CA:  MOVLB  2
0C8CC:  CLRF   x62
....................          SAVE_SAT_LOG(CMD1,0,CMD2);                                              //save reset data and command 
0C8CE:  MOVFF  32C,354
0C8D2:  MOVLB  3
0C8D4:  CLRF   x55
0C8D6:  MOVFF  32D,356
0C8DA:  MOVLB  0
0C8DC:  CALL   3A8A
....................          MISSION_TEST_OPERATION(CMD1,CMD2,CMD3,CMD4,CMD5,CMD6,CMD7);             //send array of commnands to MBP 
0C8E0:  MOVFF  32C,33D
0C8E4:  MOVFF  32D,33E
0C8E8:  MOVFF  32E,33F
0C8EC:  MOVFF  32F,340
0C8F0:  MOVFF  330,341
0C8F4:  MOVFF  331,342
0C8F8:  MOVFF  332,343
0C8FC:  CALL   ADF6
....................          delay_ms(10); 
0C900:  MOVLW  0A
0C902:  MOVLB  3
0C904:  MOVWF  x6B
0C906:  MOVLB  0
0C908:  CALL   1AFC
....................          STORE_ADRESS_DATA_TO_FLASH();                                           //store the updated address 
0C90C:  CALL   3776
....................          break; 
0C910:  BRA    CF44
....................       case 0xD5:                                                                 //HNT Mission 
....................          REPLY_TO_COM(0x66,0); 
0C912:  MOVLW  66
0C914:  MOVLB  3
0C916:  MOVWF  x37
0C918:  CLRF   x38
0C91A:  MOVLB  0
0C91C:  CALL   9F72
....................          UPLINK_SUCCESS_MBP(); 
0C920:  CALL   AA04
....................          ACK_for_COM[14] = 0x00;       
0C924:  MOVLB  2
0C926:  CLRF   x62
....................          SAVE_SAT_LOG(CMD1,0,CMD2);                                              //save reset data and command 
0C928:  MOVFF  32C,354
0C92C:  MOVLB  3
0C92E:  CLRF   x55
0C930:  MOVFF  32D,356
0C934:  MOVLB  0
0C936:  CALL   3A8A
....................          MISSION_TEST_OPERATION(CMD1,CMD2,CMD3,CMD4,CMD5,CMD6,CMD7);             //send array of commnands to MBP 
0C93A:  MOVFF  32C,33D
0C93E:  MOVFF  32D,33E
0C942:  MOVFF  32E,33F
0C946:  MOVFF  32F,340
0C94A:  MOVFF  330,341
0C94E:  MOVFF  331,342
0C952:  MOVFF  332,343
0C956:  CALL   ADF6
....................          delay_ms(10); 
0C95A:  MOVLW  0A
0C95C:  MOVLB  3
0C95E:  MOVWF  x6B
0C960:  MOVLB  0
0C962:  CALL   1AFC
....................          STORE_ADRESS_DATA_TO_FLASH();                                           //store the updated address 
0C966:  CALL   3776
....................          break; 
0C96A:  BRA    CF44
....................       case 0xD6:                                                                 //APRS_DP Mission 
....................          REPLY_TO_COM(0x66,0); 
0C96C:  MOVLW  66
0C96E:  MOVLB  3
0C970:  MOVWF  x37
0C972:  CLRF   x38
0C974:  MOVLB  0
0C976:  CALL   9F72
....................          UPLINK_SUCCESS_MBP(); 
0C97A:  CALL   AA04
....................          ACK_for_COM[14] = 0x00;       
0C97E:  MOVLB  2
0C980:  CLRF   x62
....................          SAVE_SAT_LOG(CMD1,0,CMD2);                                              //save reset data and command 
0C982:  MOVFF  32C,354
0C986:  MOVLB  3
0C988:  CLRF   x55
0C98A:  MOVFF  32D,356
0C98E:  MOVLB  0
0C990:  CALL   3A8A
....................          MISSION_TEST_OPERATION(CMD1,CMD2,CMD3,CMD4,CMD5,CMD6,CMD7);             //send array of commnands to MBP 
0C994:  MOVFF  32C,33D
0C998:  MOVFF  32D,33E
0C99C:  MOVFF  32E,33F
0C9A0:  MOVFF  32F,340
0C9A4:  MOVFF  330,341
0C9A8:  MOVFF  331,342
0C9AC:  MOVFF  332,343
0C9B0:  CALL   ADF6
....................          delay_ms(10); 
0C9B4:  MOVLW  0A
0C9B6:  MOVLB  3
0C9B8:  MOVWF  x6B
0C9BA:  MOVLB  0
0C9BC:  CALL   1AFC
....................          STORE_ADRESS_DATA_TO_FLASH();                                           //store the updated address 
0C9C0:  CALL   3776
....................          break; 
0C9C4:  BRA    CF44
....................       case 0xD7:                                                                 //dummy data for MBP 
....................          REPLY_TO_COM(0x66,0); 
0C9C6:  MOVLW  66
0C9C8:  MOVLB  3
0C9CA:  MOVWF  x37
0C9CC:  CLRF   x38
0C9CE:  MOVLB  0
0C9D0:  CALL   9F72
....................          UPLINK_SUCCESS_MBP(); 
0C9D4:  CALL   AA04
....................          ACK_for_COM[14] = 0x00;      
0C9D8:  MOVLB  2
0C9DA:  CLRF   x62
....................          SAVE_SAT_LOG(CMD1,0,CMD2);                                              //save reset data and command 
0C9DC:  MOVFF  32C,354
0C9E0:  MOVLB  3
0C9E2:  CLRF   x55
0C9E4:  MOVFF  32D,356
0C9E8:  MOVLB  0
0C9EA:  CALL   3A8A
....................          MISSION_TEST_OPERATION(CMD1,CMD2,CMD3,CMD4,CMD5,CMD6,CMD7);             //send array of commnands to MBP 
0C9EE:  MOVFF  32C,33D
0C9F2:  MOVFF  32D,33E
0C9F6:  MOVFF  32E,33F
0C9FA:  MOVFF  32F,340
0C9FE:  MOVFF  330,341
0CA02:  MOVFF  331,342
0CA06:  MOVFF  332,343
0CA0A:  CALL   ADF6
....................          delay_ms(10); 
0CA0E:  MOVLW  0A
0CA10:  MOVLB  3
0CA12:  MOVWF  x6B
0CA14:  MOVLB  0
0CA16:  CALL   1AFC
....................          STORE_ADRESS_DATA_TO_FLASH();                                           //store the updated address 
0CA1A:  CALL   3776
....................          break; 
0CA1E:  BRA    CF44
....................       case 0xDF:                                                                 //dummy data for MBP 
....................          REPLY_TO_COM(0x66,0); 
0CA20:  MOVLW  66
0CA22:  MOVLB  3
0CA24:  MOVWF  x37
0CA26:  CLRF   x38
0CA28:  MOVLB  0
0CA2A:  CALL   9F72
....................          UPLINK_SUCCESS_MBP(); 
0CA2E:  CALL   AA04
....................          ACK_for_COM[14] = 0x00;       
0CA32:  MOVLB  2
0CA34:  CLRF   x62
....................          SAVE_SAT_LOG(CMD1,0,CMD2);                                              //save reset data and command 
0CA36:  MOVFF  32C,354
0CA3A:  MOVLB  3
0CA3C:  CLRF   x55
0CA3E:  MOVFF  32D,356
0CA42:  MOVLB  0
0CA44:  CALL   3A8A
....................          MISSION_TEST_OPERATION(CMD1,CMD2,CMD3,CMD4,CMD5,CMD6,CMD7);             //send array of commnands to MBP 
0CA48:  MOVFF  32C,33D
0CA4C:  MOVFF  32D,33E
0CA50:  MOVFF  32E,33F
0CA54:  MOVFF  32F,340
0CA58:  MOVFF  330,341
0CA5C:  MOVFF  331,342
0CA60:  MOVFF  332,343
0CA64:  CALL   ADF6
....................          delay_ms(10); 
0CA68:  MOVLW  0A
0CA6A:  MOVLB  3
0CA6C:  MOVWF  x6B
0CA6E:  MOVLB  0
0CA70:  CALL   1AFC
....................          STORE_ADRESS_DATA_TO_FLASH();                                           //store the updated address 
0CA74:  CALL   3776
....................          break; 
0CA78:  BRA    CF44
....................       case 0xaa: 
....................          REPLY_TO_COM(0x66,0); 
0CA7A:  MOVLW  66
0CA7C:  MOVLB  3
0CA7E:  MOVWF  x37
0CA80:  CLRF   x38
0CA82:  MOVLB  0
0CA84:  CALL   9F72
....................          SAVE_SAT_LOG(CMD1, 0, CMD2);                                            //save reset data and command 
0CA88:  MOVFF  32C,354
0CA8C:  MOVLB  3
0CA8E:  CLRF   x55
0CA90:  MOVFF  32D,356
0CA94:  MOVLB  0
0CA96:  CALL   3A8A
....................          STORE_ADRESS_DATA_TO_FLASH();          
0CA9A:  CALL   3776
....................          UPLINK_SUCCESS_CHECK();                                                 //put in high uplink success flag and store flag info on flash 
0CA9E:  CALL   AF9A
....................          ACK_for_COM[14] = 0x00;          
0CAA2:  MOVLB  2
0CAA4:  CLRF   x62
....................          STORE_FLAG_INFO();                                                      //store flag info on flash 
0CAA6:  MOVLB  0
0CAA8:  CALL   5714
....................          WRITE_FLAG_to_EEPROM();                                                 //store flag info on EEPROM 
0CAAC:  CALL   5924
....................          break; 
0CAB0:  BRA    CF44
....................       case 0x22: 
....................          UPLINK_SUCCESS_CHECK();                                                 //put in high uplink success flag and store flag info on flash 
0CAB2:  CALL   AF9A
....................          ACK_for_COM[14] = 0x00; 
0CAB6:  MOVLB  2
0CAB8:  CLRF   x62
....................          REPLY_TO_COM(0x66,0);                                                   //ACK_for_COM[12] = 0x66 ACK_for_COM[13] = 0          
0CABA:  MOVLW  66
0CABC:  MOVLB  3
0CABE:  MOVWF  x37
0CAC0:  CLRF   x38
0CAC2:  MOVLB  0
0CAC4:  CALL   9F72
....................          SAVE_SAT_LOG(CMD1, 0, CMD2);                                            //save reset data, cmd1 and cmd2 as sat log         
0CAC8:  MOVFF  32C,354
0CACC:  MOVLB  3
0CACE:  CLRF   x55
0CAD0:  MOVFF  32D,356
0CAD4:  MOVLB  0
0CAD6:  CALL   3A8A
....................          SEND_CMD_FOR_RESET_SATELLITE();                                         //save flag data, address data and RSV table in flash, send cmd for sat reset 
0CADA:  CALL   7A76
....................          break; 
0CADE:  BRA    CF44
....................       case 0xb0: 
....................          REPLY_TO_COM(0x66,0); 
0CAE0:  MOVLW  66
0CAE2:  MOVLB  3
0CAE4:  MOVWF  x37
0CAE6:  CLRF   x38
0CAE8:  MOVLB  0
0CAEA:  CALL   9F72
....................          CLEAR_BC_FLAG();                                                        //BC_ATTEMPT_FLAG = 0        
0CAEE:  CALL   AFAC
....................          UPLINK_SUCCESS_CHECK();                                                 //put in high uplink success flag and store flag info on flash 
0CAF2:  CALL   AF9A
....................          ACK_for_COM[14] = 0x00;         
0CAF6:  MOVLB  2
0CAF8:  CLRF   x62
....................          STORE_ADRESS_DATA_TO_FLASH();                                           //save address data to flash memory 
0CAFA:  MOVLB  0
0CAFC:  CALL   3776
....................          STORE_FLAG_INFO();                                                      //save flag data to flash memory 
0CB00:  CALL   5714
....................          WRITE_FLAG_to_EEPROM();                                                 //save flag data to EEPROM 
0CB04:  CALL   5924
....................          break; 
0CB08:  BRA    CF44
....................       case 0xb1: 
....................          REPLY_TO_COM(0x66,0); 
0CB0A:  MOVLW  66
0CB0C:  MOVLB  3
0CB0E:  MOVWF  x37
0CB10:  CLRF   x38
0CB12:  MOVLB  0
0CB14:  CALL   9F72
....................          MAKE_BC_FLAG_1();                                                       //BC_ATTEMPT_FLAG = 1          
0CB18:  CALL   AFC0
....................          UPLINK_SUCCESS_CHECK();                                                 //put in high uplink success flag and store flag info on flash 
0CB1C:  CALL   AF9A
....................          ACK_for_COM[14] = 0x00;         
0CB20:  MOVLB  2
0CB22:  CLRF   x62
....................          STORE_ADRESS_DATA_TO_FLASH();                                           //save address data to flash memory 
0CB24:  MOVLB  0
0CB26:  CALL   3776
....................          STORE_FLAG_INFO();                                                      //save flag data to flash memory 
0CB2A:  CALL   5714
....................          WRITE_FLAG_to_EEPROM();                                                 //save flag data to EEPROM 
0CB2E:  CALL   5924
....................          break; 
0CB32:  BRA    CF44
....................       case 0xb2: 
....................          REPLY_TO_COM(0x66,0); 
0CB34:  MOVLW  66
0CB36:  MOVLB  3
0CB38:  MOVWF  x37
0CB3A:  CLRF   x38
0CB3C:  MOVLB  0
0CB3E:  CALL   9F72
....................          MAKE_BC_FLAG_2();                                                       //BC_ATTEMPT_FLAG = 2          
0CB42:  CALL   AFD6
....................          UPLINK_SUCCESS_CHECK();                                                 //put in high uplink success flag and store flag info on flash 
0CB46:  CALL   AF9A
....................          ACK_for_COM[14] = 0x00;          
0CB4A:  MOVLB  2
0CB4C:  CLRF   x62
....................          STORE_ADRESS_DATA_TO_FLASH();                                           //save address data to flash memory 
0CB4E:  MOVLB  0
0CB50:  CALL   3776
....................          STORE_FLAG_INFO();                                                      //save flag data to flash memory 
0CB54:  CALL   5714
....................          WRITE_FLAG_to_EEPROM();                                                 //save flag data to EEPROM 
0CB58:  CALL   5924
....................          break; 
0CB5C:  BRA    CF44
....................       case 0xb3: 
....................          REPLY_TO_COM(0x66,0); 
0CB5E:  MOVLW  66
0CB60:  MOVLB  3
0CB62:  MOVWF  x37
0CB64:  CLRF   x38
0CB66:  MOVLB  0
0CB68:  CALL   9F72
....................          MAKE_BC_FLAG_3();                                                       //BC_ATTEMPT_FLAG = 3         
0CB6C:  CALL   AFEC
....................          UPLINK_SUCCESS_CHECK();                                                 //put in high uplink success flag and store flag info on flash 
0CB70:  CALL   AF9A
....................          ACK_for_COM[14] = 0x00;          
0CB74:  MOVLB  2
0CB76:  CLRF   x62
....................          STORE_ADRESS_DATA_TO_FLASH();                                           //save address data to flash memory 
0CB78:  MOVLB  0
0CB7A:  CALL   3776
....................          STORE_FLAG_INFO();                                                      //save flag data to flash memory 
0CB7E:  CALL   5714
....................          WRITE_FLAG_to_EEPROM();                                                 //save flag data to EEPROM 
0CB82:  CALL   5924
....................          break; 
0CB86:  BRA    CF44
....................       case 0xb4: 
....................          REPLY_TO_COM(0x66,0); 
0CB88:  MOVLW  66
0CB8A:  MOVLB  3
0CB8C:  MOVWF  x37
0CB8E:  CLRF   x38
0CB90:  MOVLB  0
0CB92:  CALL   9F72
....................          MAKE_BC_FLAG_4();                                                       //BC_ATTEMPT_FLAG = 4          
0CB96:  CALL   B002
....................          UPLINK_SUCCESS_CHECK();                                                 //put in high uplink success flag and store flag info on flash 
0CB9A:  CALL   AF9A
....................          ACK_for_COM[14] = 0x00;         
0CB9E:  MOVLB  2
0CBA0:  CLRF   x62
....................          STORE_ADRESS_DATA_TO_FLASH();                                           //save address data to flash memory 
0CBA2:  MOVLB  0
0CBA4:  CALL   3776
....................          STORE_FLAG_INFO();                                                      //save flag data to flash memory 
0CBA8:  CALL   5714
....................          WRITE_FLAG_to_EEPROM();                                                 //save flag data to EEPROM 
0CBAC:  CALL   5924
....................          break; 
0CBB0:  BRA    CF44
....................       case 0x4b: 
....................          REPLY_TO_COM(0x66,0); 
0CBB2:  MOVLW  66
0CBB4:  MOVLB  3
0CBB6:  MOVWF  x37
0CBB8:  CLRF   x38
0CBBA:  MOVLB  0
0CBBC:  CALL   9F72
....................          UPLINK_SUCCESS_CHECK();                                                 //put in high uplink success flag and store flag info on flash 
0CBC0:  CALL   AF9A
....................          ACK_for_COM[14] = 0x00;          
0CBC4:  MOVLB  2
0CBC6:  CLRF   x62
....................          Count_Kill_Flag();                                                      //Enable if Kill_COUNTER > 4 
0CBC8:  MOVLB  0
0CBCA:  CALL   B018
....................          SAVE_SAT_LOG(CMD1, KILL_COUNTER, CMD2);                                 //save reset data and command 
0CBCE:  MOVFF  32C,354
0CBD2:  MOVFF  31A,355
0CBD6:  MOVFF  32D,356
0CBDA:  CALL   3A8A
....................          break; 
0CBDE:  BRA    CF44
....................       case 0xbb: 
....................          REPLY_TO_COM(0x66,0); 
0CBE0:  MOVLW  66
0CBE2:  MOVLB  3
0CBE4:  MOVWF  x37
0CBE6:  CLRF   x38
0CBE8:  MOVLB  0
0CBEA:  CALL   9F72
....................          UPLINK_SUCCESS_CHECK();                                                 //put in high uplink success flag and store flag info on flash 
0CBEE:  CALL   AF9A
....................          ACK_for_COM[14] = 0x00;       
0CBF2:  MOVLB  2
0CBF4:  CLRF   x62
....................          Disable_Kill();                                                         //Kill Switch OFF 
0CBF6:  MOVLB  0
0CBF8:  CALL   B06C
....................          SAVE_SAT_LOG(CMD1, KILL_COUNTER, CMD2);                                 //save reset data and command 
0CBFC:  MOVFF  32C,354
0CC00:  MOVFF  31A,355
0CC04:  MOVFF  32D,356
0CC08:  CALL   3A8A
....................          break; 
0CC0C:  BRA    CF44
....................       case 0xfa: 
....................          REPLY_TO_COM(0x66,0); 
0CC0E:  MOVLW  66
0CC10:  MOVLB  3
0CC12:  MOVWF  x37
0CC14:  CLRF   x38
0CC16:  MOVLB  0
0CC18:  CALL   9F72
....................          UPLINK_SUCCESS_HSSC();                                                  //High Sampling Sensor Collect mission 
0CC1C:  CALL   B0B8
....................          ACK_for_COM[14] = 0x00;       
0CC20:  MOVLB  2
0CC22:  CLRF   x62
....................          SAVE_SAT_LOG(CMD1, 0, CMD2);          
0CC24:  MOVFF  32C,354
0CC28:  MOVLB  3
0CC2A:  CLRF   x55
0CC2C:  MOVFF  32D,356
0CC30:  MOVLB  0
0CC32:  CALL   3A8A
....................          unsigned int16 duration = (unsigned int16)CMD2*12;                      //CMD2 is operation time(min), maxima cantidad de lecturas en 2 horas = 1440 
0CC36:  MOVLB  3
0CC38:  CLRF   x38
0CC3A:  MOVFF  32D,337
0CC3E:  MOVFF  338,349
0CC42:  MOVFF  32D,348
0CC46:  CLRF   x4B
0CC48:  MOVLW  0C
0CC4A:  MOVWF  x4A
0CC4C:  MOVLB  0
0CC4E:  CALL   7E50
0CC52:  MOVFF  02,336
0CC56:  MOVFF  01,335
....................          if(duration > 1440){duration = 1440;}                                   // 12 readings in 1 min, every 5 seconds 
0CC5A:  MOVLB  3
0CC5C:  MOVF   x36,W
0CC5E:  SUBLW  04
0CC60:  BC    CC74
0CC62:  XORLW  FF
0CC64:  BNZ   CC6C
0CC66:  MOVF   x35,W
0CC68:  SUBLW  A0
0CC6A:  BC    CC74
0CC6C:  MOVLW  05
0CC6E:  MOVWF  x36
0CC70:  MOVLW  A0
0CC72:  MOVWF  x35
....................          HIGHSAMP_SENSOR_COLLECTION(duration);                                   //duration is how many times will be executed 
0CC74:  MOVFF  336,338
0CC78:  MOVFF  335,337
0CC7C:  MOVLB  0
0CC7E:  CALL   7C52
....................          STORE_ADRESS_DATA_TO_FLASH(); 
0CC82:  CALL   3776
....................          break; 
0CC86:  BRA    CF44
....................       case 0x59:       
....................          //UPLINK_SUCCESS_CHECK(); 
....................          //ACK_for_COM[14] = 0x00;       
....................          REPLY_TO_COM(0x66,0);                                                   //send ACK to COM 
0CC88:  MOVLW  66
0CC8A:  MOVLB  3
0CC8C:  MOVWF  x37
0CC8E:  CLRF   x38
0CC90:  MOVLB  0
0CC92:  CALL   9F72
....................          GIVE_ACCESS_SCF_Nsec(CMD2); 
0CC96:  MOVFF  32D,337
0CC9A:  CALL   B0DE
....................          break; 
0CC9E:  BRA    CF44
....................       case 0xee:       
....................          UPLINK_SUCCESS_CHECK(); 
0CCA0:  CALL   AF9A
....................          //ACK_for_COM[14] = 0x00;       
....................          ERASE_EEPROM_INFO();                                                    //erase 512byte(from 0x18000 to 0x181ff) 
0CCA4:  CALL   B192
....................          MEMORY_ERASE();                                                         //erase OF, SCF, SMF flash memories 
0CCA8:  CALL   B1AA
....................          break; 
0CCAC:  BRA    CF44
....................       case 0x88: 
....................        
....................          //UPLINK_SUCCESS_CHECK(); 
....................          //ACK_for_COM[14] = 0x00; 
....................        
....................          CURRENT_FLAG_STATUS();                                                  //Print on PC port current flag status 
0CCAE:  CALL   26FE
....................          break; 
0CCB2:  BRA    CF44
....................       case 0x9f: 
....................        
....................          //UPLINK_SUCCESS_CHECK(); 
....................          //ACK_for_COM[14] = 0x00; 
....................        
....................          Disp_RSV();                                                             //show the reserve status (reserve command and reserve table) 
0CCB4:  CALL   B968
....................          break; 
0CCB8:  BRA    CF44
....................       case 0x50: 
....................          if(UPLINK_SUCCESS == 0){ACK_for_COM[14]=0x77;} 
0CCBA:  MOVF   x7C,F
0CCBC:  BNZ   CCC6
0CCBE:  MOVLW  77
0CCC0:  MOVLB  2
0CCC2:  MOVWF  x62
0CCC4:  MOVLB  0
....................          CW_RESPOND();                                                           //carga el array ACK_for_COM[] con los datos del CW 
0CCC6:  CALL   41B4
....................          break; 
0CCCA:  BRA    CF44
....................       case 0xe0: 
....................          REPLY_TO_COM(0x66,0); 
0CCCC:  MOVLW  66
0CCCE:  MOVLB  3
0CCD0:  MOVWF  x37
0CCD2:  CLRF   x38
0CCD4:  MOVLB  0
0CCD6:  CALL   9F72
....................          UPLINK_SUCCESS_CHECK();                                                 //put uplink success flag in HIGH and store flags 
0CCDA:  CALL   AF9A
....................          ACK_for_COM[14] = 0x00;       
0CCDE:  MOVLB  2
0CCE0:  CLRF   x62
....................          REFRESH_SECTOR_OF(CMD2,CMD3,CMD4,CMD5);                                 //Erase 1 sector of OBC flash, also this function contains saving log 
0CCE2:  MOVFF  32D,348
0CCE6:  MOVFF  32E,349
0CCEA:  MOVFF  32F,34A
0CCEE:  MOVFF  330,34B
0CCF2:  MOVLB  0
0CCF4:  CALL   A47A
....................          break; 
0CCF8:  BRA    CF44
....................       case 0xe1: 
....................          REPLY_TO_COM(0x66,0); 
0CCFA:  MOVLW  66
0CCFC:  MOVLB  3
0CCFE:  MOVWF  x37
0CD00:  CLRF   x38
0CD02:  MOVLB  0
0CD04:  CALL   9F72
....................          UPLINK_SUCCESS_CHECK();                                                 //put uplink success flag in HIGH and store flags 
0CD08:  CALL   AF9A
....................          ACK_for_COM[14] = 0x00;       
0CD0C:  MOVLB  2
0CD0E:  CLRF   x62
....................          REFRESH_SECTOR_SCF(CMD2,CMD3,CMD4,CMD5);                                //Erase 1 sector of COM flash, also this function contains saving log 
0CD10:  MOVFF  32D,348
0CD14:  MOVFF  32E,349
0CD18:  MOVFF  32F,34A
0CD1C:  MOVFF  330,34B
0CD20:  MOVLB  0
0CD22:  CALL   A52C
....................          break; 
0CD26:  BRA    CF44
....................       case 0xe2: 
....................          REPLY_TO_COM(0x66,0); 
0CD28:  MOVLW  66
0CD2A:  MOVLB  3
0CD2C:  MOVWF  x37
0CD2E:  CLRF   x38
0CD30:  MOVLB  0
0CD32:  CALL   9F72
....................          UPLINK_SUCCESS_CHECK();                                                 //put uplink success flag in HIGH and store flags 
0CD36:  CALL   AF9A
....................          ACK_for_COM[14] = 0x00;         
0CD3A:  MOVLB  2
0CD3C:  CLRF   x62
....................          REFRESH_SECTOR_SMF(CMD2,CMD3,CMD4,CMD5);                                //Erase 1 sector of MISION flash, also this function contains saving log 
0CD3E:  MOVFF  32D,348
0CD42:  MOVFF  32E,349
0CD46:  MOVFF  32F,34A
0CD4A:  MOVFF  330,34B
0CD4E:  MOVLB  0
0CD50:  CALL   6752
....................          break; 
0CD54:  BRA    CF44
....................       case 0x12: 
....................          REPLY_TO_COM(0x66,0); 
0CD56:  MOVLW  66
0CD58:  MOVLB  3
0CD5A:  MOVWF  x37
0CD5C:  CLRF   x38
0CD5E:  MOVLB  0
0CD60:  CALL   9F72
....................          UPLINK_SUCCESS_CHECK();                                                 //put uplink success flag in HIGH and store flags 
0CD64:  CALL   AF9A
....................          ACK_for_COM[14] = 0x00;       
0CD68:  MOVLB  2
0CD6A:  CLRF   x62
....................          TRANSFER_SECTOR_OF2SCF(CMD2,CMD3,CMD4,CMD5);                            //transfer 1 sector, also this function contains saving log 
0CD6C:  MOVFF  32D,337
0CD70:  MOVFF  32E,338
0CD74:  MOVFF  32F,339
0CD78:  MOVFF  330,33A
0CD7C:  MOVLB  0
0CD7E:  CALL   BB98
....................          break; 
0CD82:  BRA    CF44
....................       case 0x13: 
....................          REPLY_TO_COM(0x66,0); 
0CD84:  MOVLW  66
0CD86:  MOVLB  3
0CD88:  MOVWF  x37
0CD8A:  CLRF   x38
0CD8C:  MOVLB  0
0CD8E:  CALL   9F72
....................          UPLINK_SUCCESS_CHECK();                                                 //put uplink success flag in HIGH and store flags 
0CD92:  CALL   AF9A
....................          ACK_for_COM[14] = 0x00;       
0CD96:  MOVLB  2
0CD98:  CLRF   x62
....................          TRANSFER_SECTOR_OF2SMF(CMD2,CMD3,CMD4,CMD5);                            //transfer 1 sector, also this function contains saving log 
0CD9A:  MOVFF  32D,337
0CD9E:  MOVFF  32E,338
0CDA2:  MOVFF  32F,339
0CDA6:  MOVFF  330,33A
0CDAA:  MOVLB  0
0CDAC:  GOTO   BD14
....................          break; 
0CDB0:  BRA    CF44
....................       case 0x21: 
....................          REPLY_TO_COM(0x66,0); 
0CDB2:  MOVLW  66
0CDB4:  MOVLB  3
0CDB6:  MOVWF  x37
0CDB8:  CLRF   x38
0CDBA:  MOVLB  0
0CDBC:  CALL   9F72
....................          UPLINK_SUCCESS_CHECK();                                                 //put uplink success flag in HIGH and store flags 
0CDC0:  CALL   AF9A
....................          ACK_for_COM[14] = 0x00;          
0CDC4:  MOVLB  2
0CDC6:  CLRF   x62
....................          TRANSFER_SECTOR_SCF2OF(CMD2,CMD3,CMD4,CMD5);                            //transfer 1 sector, also this function contains saving log 
0CDC8:  MOVFF  32D,337
0CDCC:  MOVFF  32E,338
0CDD0:  MOVFF  32F,339
0CDD4:  MOVFF  330,33A
0CDD8:  MOVLB  0
0CDDA:  CALL   BE8E
....................          break; 
0CDDE:  BRA    CF44
....................       case 0x23: 
....................          REPLY_TO_COM(0x66,0); 
0CDE0:  MOVLW  66
0CDE2:  MOVLB  3
0CDE4:  MOVWF  x37
0CDE6:  CLRF   x38
0CDE8:  MOVLB  0
0CDEA:  CALL   9F72
....................          UPLINK_SUCCESS_CHECK();                                                 //put uplink success flag in HIGH and store flags 
0CDEE:  CALL   AF9A
....................          ACK_for_COM[14] = 0x00;          
0CDF2:  MOVLB  2
0CDF4:  CLRF   x62
....................          TRANSFER_SECTOR_SCF2SMF(CMD2,CMD3,CMD4,CMD5);                           //transfer 1 sector, this function contains saving log 
0CDF6:  MOVFF  32D,337
0CDFA:  MOVFF  32E,338
0CDFE:  MOVFF  32F,339
0CE02:  MOVFF  330,33A
0CE06:  MOVLB  0
0CE08:  GOTO   C00A
....................          break; 
0CE0C:  BRA    CF44
....................       case 0x31: 
....................          REPLY_TO_COM(0x66,0); 
0CE0E:  MOVLW  66
0CE10:  MOVLB  3
0CE12:  MOVWF  x37
0CE14:  CLRF   x38
0CE16:  MOVLB  0
0CE18:  CALL   9F72
....................          UPLINK_SUCCESS_CHECK();                                                 //put uplink success flag in HIGH and store flags 
0CE1C:  CALL   AF9A
....................          ACK_for_COM[14] = 0x00;          
0CE20:  MOVLB  2
0CE22:  CLRF   x62
....................          TRANSFER_SECTOR_SMF2OF(CMD2,CMD3,CMD4,CMD5);                            //transfer 1 sector, also this function contains saving log 
0CE24:  MOVFF  32D,337
0CE28:  MOVFF  32E,338
0CE2C:  MOVFF  32F,339
0CE30:  MOVFF  330,33A
0CE34:  MOVLB  0
0CE36:  GOTO   C18C
....................          break; 
0CE3A:  BRA    CF44
....................     case 0x32: 
....................          REPLY_TO_COM(0x66,0); 
0CE3C:  MOVLW  66
0CE3E:  MOVLB  3
0CE40:  MOVWF  x37
0CE42:  CLRF   x38
0CE44:  MOVLB  0
0CE46:  CALL   9F72
....................          UPLINK_SUCCESS_CHECK();                                                 //put uplink success flag in HIGH and store flags 
0CE4A:  CALL   AF9A
....................          ACK_for_COM[14] = 0x00;       
0CE4E:  MOVLB  2
0CE50:  CLRF   x62
....................          TRANSFER_SECTOR_SMF2SCF(CMD2,CMD3,CMD4,CMD5);                          //transfer 1 sector, also this function contains saving log 
0CE52:  MOVFF  32D,337
0CE56:  MOVFF  32E,338
0CE5A:  MOVFF  32F,339
0CE5E:  MOVFF  330,33A
0CE62:  MOVLB  0
0CE64:  CALL   C306
....................          break; 
0CE68:  BRA    CF44
....................     case 0x01: 
....................          REPLY_TO_COM(0x66,0); 
0CE6A:  MOVLW  66
0CE6C:  MOVLB  3
0CE6E:  MOVWF  x37
0CE70:  CLRF   x38
0CE72:  MOVLB  0
0CE74:  CALL   9F72
....................          UPLINK_SUCCESS_CHECK();                                                 //put uplink success flag in HIGH and store flags 
0CE78:  CALL   AF9A
....................          ACK_for_COM[14] = 0x00;       
0CE7C:  MOVLB  2
0CE7E:  CLRF   x62
....................          Send_Command_to_FAB(0x01);                                              //send cmd to FAB to turn ON battery heater 
0CE80:  MOVLW  01
0CE82:  MOVLB  3
0CE84:  MOVWF  x4F
0CE86:  MOVLB  0
0CE88:  CALL   42D6
....................          fprintf(PC,"Sent CMD Heater ON\r\n"); 
0CE8C:  MOVLW  82
0CE8E:  MOVWF  FF6
0CE90:  MOVLW  10
0CE92:  MOVWF  FF7
0CE94:  MOVLW  00
0CE96:  MOVWF  FF8
0CE98:  CALL   318C
....................          break; 
0CE9C:  BRA    CF44
....................     case 0x02: 
....................          REPLY_TO_COM(0x66,0); 
0CE9E:  MOVLW  66
0CEA0:  MOVLB  3
0CEA2:  MOVWF  x37
0CEA4:  CLRF   x38
0CEA6:  MOVLB  0
0CEA8:  CALL   9F72
....................          UPLINK_SUCCESS_CHECK();                                                 //put uplink success flag in HIGH and store flags 
0CEAC:  CALL   AF9A
....................          ACK_for_COM[14] = 0x00;       
0CEB0:  MOVLB  2
0CEB2:  CLRF   x62
....................          Send_Command_to_FAB(0x02);                                              //send cmd to FAB to turn OFF battery heater 
0CEB4:  MOVLW  02
0CEB6:  MOVLB  3
0CEB8:  MOVWF  x4F
0CEBA:  MOVLB  0
0CEBC:  CALL   42D6
....................          fprintf(PC,"Sent CMD Heater OFF\r\n"); 
0CEC0:  MOVLW  98
0CEC2:  MOVWF  FF6
0CEC4:  MOVLW  10
0CEC6:  MOVWF  FF7
0CEC8:  MOVLW  00
0CECA:  MOVWF  FF8
0CECC:  CALL   318C
....................          break; 
0CED0:  BRA    CF44
....................     case 0x03: 
....................          REPLY_TO_COM(0x66,0); 
0CED2:  MOVLW  66
0CED4:  MOVLB  3
0CED6:  MOVWF  x37
0CED8:  CLRF   x38
0CEDA:  MOVLB  0
0CEDC:  CALL   9F72
....................          UPLINK_SUCCESS_CHECK();                                                 //put uplink success flag in HIGH and store flags 
0CEE0:  CALL   AF9A
....................          ACK_for_COM[14] = 0x00;       
0CEE4:  MOVLB  2
0CEE6:  CLRF   x62
....................          Send_Command_to_FAB(0x03);                                              //send cmd to FAB to operate Heater in AUTO mode 
0CEE8:  MOVLW  03
0CEEA:  MOVLB  3
0CEEC:  MOVWF  x4F
0CEEE:  MOVLB  0
0CEF0:  CALL   42D6
....................          fprintf(PC,"Sent CMD Heater AUTO\r\n"); 
0CEF4:  MOVLW  AE
0CEF6:  MOVWF  FF6
0CEF8:  MOVLW  10
0CEFA:  MOVWF  FF7
0CEFC:  MOVLW  00
0CEFE:  MOVWF  FF8
0CF00:  CALL   318C
....................          break;          
0CF04:  BRA    CF44
....................      case 0x35: 
....................          REPLY_TO_COM(0x66,0); 
0CF06:  MOVLW  66
0CF08:  MOVLB  3
0CF0A:  MOVWF  x37
0CF0C:  CLRF   x38
0CF0E:  MOVLB  0
0CF10:  CALL   9F72
....................          RSV_DATA_DOWNLOAD(CMD1,CMD2,CMD3,CMD4,CMD5,CMD6,CMD7);                  //send array of commnands to COM 
0CF14:  MOVFF  32C,33D
0CF18:  MOVFF  32D,33E
0CF1C:  MOVFF  32E,33F
0CF20:  MOVFF  32F,340
0CF24:  MOVFF  330,341
0CF28:  MOVFF  331,342
0CF2C:  MOVFF  332,343
0CF30:  CALL   C486
....................          fprintf(PC,"Sent CMD to COM for data download\r\n"); 
0CF34:  MOVLW  C6
0CF36:  MOVWF  FF6
0CF38:  MOVLW  10
0CF3A:  MOVWF  FF7
0CF3C:  MOVLW  00
0CF3E:  MOVWF  FF8
0CF40:  CALL   318C
....................          break; 
....................       
....................    } 
....................    return; 
0CF44:  RETURN 0
.................... } 
....................  
....................  
....................  
....................  
....................  
....................  
....................  
....................  
....................  
....................  
....................  
.................... void EXECUTE_MISSION_from_PC(int8 CMD1,int8 CMD2,int8 CMD3,int8 CMD4,int8 CMD5,int8 CMD6,int8 CMD7) 
.................... { 
....................    switch(CMD1) 
*
0D5FE:  MOVLB  3
0D600:  MOVF   x2C,W
0D602:  XORLW  C0
0D604:  MOVLB  0
0D606:  BTFSC  FD8.2
0D608:  BRA    D6F6
0D60A:  XORLW  60
0D60C:  BTFSC  FD8.2
0D60E:  BRA    D722
0D610:  XORLW  01
0D612:  BTFSC  FD8.2
0D614:  BRA    D776
0D616:  XORLW  03
0D618:  BTFSC  FD8.2
0D61A:  BRA    D7B0
0D61C:  XORLW  72
0D61E:  BTFSC  FD8.2
0D620:  BRA    D7D2
0D622:  XORLW  01
0D624:  BTFSC  FD8.2
0D626:  BRA    D82E
0D628:  XORLW  03
0D62A:  BTFSC  FD8.2
0D62C:  BRA    D87A
0D62E:  XORLW  01
0D630:  BTFSC  FD8.2
0D632:  BRA    D8C6
0D634:  XORLW  07
0D636:  BTFSC  FD8.2
0D638:  BRA    D912
0D63A:  XORLW  01
0D63C:  BTFSC  FD8.2
0D63E:  BRA    D95E
0D640:  XORLW  03
0D642:  BTFSC  FD8.2
0D644:  BRA    D9AA
0D646:  XORLW  01
0D648:  BTFSC  FD8.2
0D64A:  BRA    D9F6
0D64C:  XORLW  08
0D64E:  BTFSC  FD8.2
0D650:  BRA    DA42
0D652:  XORLW  46
0D654:  BTFSC  FD8.2
0D656:  BRA    DA9C
0D658:  XORLW  33
0D65A:  BTFSC  FD8.2
0D65C:  BRA    DABC
0D65E:  XORLW  88
0D660:  BTFSC  FD8.2
0D662:  BRA    DAE4
0D664:  XORLW  92
0D666:  BTFSC  FD8.2
0D668:  BRA    DB00
0D66A:  XORLW  01
0D66C:  BTFSC  FD8.2
0D66E:  BRA    DB1C
0D670:  XORLW  03
0D672:  BTFSC  FD8.2
0D674:  BRA    DB38
0D676:  XORLW  01
0D678:  BTFSC  FD8.2
0D67A:  BRA    DB54
0D67C:  XORLW  07
0D67E:  BTFSC  FD8.2
0D680:  BRA    DB70
0D682:  XORLW  FF
0D684:  BTFSC  FD8.2
0D686:  BRA    DB8C
0D688:  XORLW  F0
0D68A:  BTFSC  FD8.2
0D68C:  BRA    DBAC
0D68E:  XORLW  41
0D690:  BTFSC  FD8.2
0D692:  BRA    DBC8
0D694:  XORLW  A3
0D696:  BTFSC  FD8.2
0D698:  BRA    DC34
0D69A:  XORLW  B7
0D69C:  BTFSC  FD8.2
0D69E:  BRA    DC48
0D6A0:  XORLW  66
0D6A2:  BTFSC  FD8.2
0D6A4:  BRA    DC56
0D6A6:  XORLW  17
0D6A8:  BTFSC  FD8.2
0D6AA:  BRA    DC60
0D6AC:  XORLW  50
0D6AE:  BTFSC  FD8.2
0D6B0:  BRA    DC6A
0D6B2:  XORLW  A5
0D6B4:  BTFSC  FD8.2
0D6B6:  BRA    DC72
0D6B8:  XORLW  8A
0D6BA:  BTFSC  FD8.2
0D6BC:  BRA    DC80
0D6BE:  XORLW  01
0D6C0:  BTFSC  FD8.2
0D6C2:  BRA    DCA0
0D6C4:  XORLW  03
0D6C6:  BTFSC  FD8.2
0D6C8:  BRA    DCC0
0D6CA:  XORLW  F0
0D6CC:  BTFSC  FD8.2
0D6CE:  BRA    DCE0
0D6D0:  XORLW  20
0D6D2:  BTFSC  FD8.2
0D6D4:  BRA    DD00
0D6D6:  XORLW  13
0D6D8:  BTFSC  FD8.2
0D6DA:  BRA    DD20
0D6DC:  XORLW  20
0D6DE:  BTFSC  FD8.2
0D6E0:  BRA    DD40
0D6E2:  XORLW  03
0D6E4:  BTFSC  FD8.2
0D6E6:  BRA    DD66
0D6E8:  XORLW  01
0D6EA:  BTFSC  FD8.2
0D6EC:  BRA    DD8C
0D6EE:  XORLW  36
0D6F0:  BTFSC  FD8.2
0D6F2:  BRA    DDB2
0D6F4:  BRA    DDE2
....................    { 
....................       case 0xC0: 
....................        
....................          UPLINK_SUCCESS_CAM();                                                   //put uplink succes flag in high and store flags 
0D6F6:  CALL   A072
....................          ACK_for_COM[14] = 0x00; 
0D6FA:  MOVLB  2
0D6FC:  CLRF   x62
....................        
....................          SAVE_SAT_LOG(CMD1,0,CMD2);                                              //save reset data 
0D6FE:  MOVFF  32C,354
0D702:  MOVLB  3
0D704:  CLRF   x55
0D706:  MOVFF  32D,356
0D70A:  MOVLB  0
0D70C:  CALL   3A8A
....................          CAM_TEST_OPERATION(CMD2);                                               //send command to CAM, execute mission and transfer data 
0D710:  MOVFF  32D,337
0D714:  CALL   80F4
....................          STORE_ADRESS_DATA_TO_FLASH();                                           //store the updated CAM address 
0D718:  CALL   3776
....................          UPLINK_SUCCESS_CHECK();                                                 //put uplink success flag in HIGH and store flags 
0D71C:  CALL   AF9A
....................          break; 
0D720:  BRA    DDE2
....................       case 0xA0: 
....................  
....................          SAVE_SAT_LOG(CMD1,CMD2,CMD4); 
0D722:  MOVFF  32C,354
0D726:  MOVFF  32D,355
0D72A:  MOVFF  32F,356
0D72E:  CALL   3A8A
....................          unsigned int16 op_duration = (unsigned int16)CMD4*60; 
0D732:  MOVLB  3
0D734:  CLRF   x38
0D736:  MOVFF  32F,337
0D73A:  MOVFF  338,349
0D73E:  MOVFF  32F,348
0D742:  CLRF   x4B
0D744:  MOVLW  3C
0D746:  MOVWF  x4A
0D748:  MOVLB  0
0D74A:  CALL   7E50
0D74E:  MOVFF  02,334
0D752:  MOVFF  01,333
....................           
....................          UPLINK_SUCCESS_ADCS(); 
0D756:  CALL   A098
....................          ACK_for_COM[14] = 0x00; 
0D75A:  MOVLB  2
0D75C:  CLRF   x62
....................           
....................          //ADCS_TEST_OPERATION(op_duration,NOMAL_ADCS_MSN); 
....................          ADCS_TEST_OPERATION(op_duration,CMD2); 
0D75E:  MOVFF  334,33A
0D762:  MOVFF  333,339
0D766:  MOVFF  32D,33B
0D76A:  MOVLB  0
0D76C:  CALL   A2C8
....................          STORE_ADRESS_DATA_TO_FLASH(); 
0D770:  CALL   3776
....................          break; 
0D774:  BRA    DDE2
....................       case 0xA1:                                                                 //TLE data reception  
....................          UPLINK_SUCCESS_ADCS(); 
0D776:  CALL   A098
....................          SAVE_SAT_LOG(CMD1, 0, CMD2);                                            //save reset data and command          
0D77A:  MOVFF  32C,354
0D77E:  MOVLB  3
0D780:  CLRF   x55
0D782:  MOVFF  32D,356
0D786:  MOVLB  0
0D788:  CALL   3A8A
....................          ACK_for_COM[14] = 0x00; 
0D78C:  MOVLB  2
0D78E:  CLRF   x62
....................          ADCS_TLE_JOIN(CMD2,CMD3,CMD4,CMD5,CMD6,CMD7);                           //Receive, assemble and save TLE data in flash 
0D790:  MOVFF  32D,33C
0D794:  MOVFF  32E,33D
0D798:  MOVFF  32F,33E
0D79C:  MOVFF  330,33F
0D7A0:  MOVFF  331,340
0D7A4:  MOVFF  332,341
0D7A8:  MOVLB  0
0D7AA:  CALL   A5E6
....................          break; 
0D7AE:  BRA    DDE2
....................       case 0xA2:                                                                 //TLE data reception  
....................  
....................          UPLINK_SUCCESS_ADCS(); 
0D7B0:  CALL   A098
....................          SAVE_SAT_LOG(CMD1, 0, CMD2);                                            //save reset data and command          
0D7B4:  MOVFF  32C,354
0D7B8:  MOVLB  3
0D7BA:  CLRF   x55
0D7BC:  MOVFF  32D,356
0D7C0:  MOVLB  0
0D7C2:  CALL   3A8A
....................          ACK_for_COM[14] = 0x00; 
0D7C6:  MOVLB  2
0D7C8:  CLRF   x62
....................          ADCS_TLE_TRANSFER();                                                    //TRANSFER TLE data to ADCS 
0D7CA:  MOVLB  0
0D7CC:  CALL   A91C
....................          break; 
0D7D0:  BRA    DDE2
....................       case 0xD0:                                                                 //transfer data from Mission BOSS 
....................          REPLY_TO_COM(0x66,0); 
0D7D2:  MOVLW  66
0D7D4:  MOVLB  3
0D7D6:  MOVWF  x37
0D7D8:  CLRF   x38
0D7DA:  MOVLB  0
0D7DC:  CALL   9F72
....................          SAVE_SAT_LOG(CMD1, 0, CMD2);                                            //save reset data and command 
0D7E0:  MOVFF  32C,354
0D7E4:  MOVLB  3
0D7E6:  CLRF   x55
0D7E8:  MOVFF  32D,356
0D7EC:  MOVLB  0
0D7EE:  CALL   3A8A
....................           
....................          UPLINK_SUCCESS_MBP();                                                   //put uplink succes flag in high and store flags 
0D7F2:  CALL   AA04
....................          ACK_for_COM[14] = 0x00; 
0D7F6:  MOVLB  2
0D7F8:  CLRF   x62
....................           
....................          DATACOLLECTION_TEST_OPERATION(CMD1,CMD2,CMD3,CMD4,CMD5,CMD6,CMD7);      //Turn ON MBP, get data, store in flash 
0D7FA:  MOVFF  32C,33D
0D7FE:  MOVFF  32D,33E
0D802:  MOVFF  32E,33F
0D806:  MOVFF  32F,340
0D80A:  MOVFF  330,341
0D80E:  MOVFF  331,342
0D812:  MOVFF  332,343
0D816:  MOVLB  0
0D818:  CALL   AC4C
....................          STORE_ADRESS_DATA_TO_FLASH();                                           //store the updated address 
0D81C:  CALL   3776
....................          delay_ms(10); 
0D820:  MOVLW  0A
0D822:  MOVLB  3
0D824:  MOVWF  x6B
0D826:  MOVLB  0
0D828:  CALL   1AFC
....................          break;  
0D82C:  BRA    DDE2
....................       case 0xD1:                                                                 //PSC Mission 
....................        
....................          UPLINK_SUCCESS_MBP(); 
0D82E:  CALL   AA04
....................          ACK_for_COM[14] = 0x00; 
0D832:  MOVLB  2
0D834:  CLRF   x62
....................        
....................          SAVE_SAT_LOG(CMD1,0,CMD2);                                              //save reset data and command 
0D836:  MOVFF  32C,354
0D83A:  MOVLB  3
0D83C:  CLRF   x55
0D83E:  MOVFF  32D,356
0D842:  MOVLB  0
0D844:  CALL   3A8A
....................          MISSION_TEST_OPERATION(CMD1,CMD2,CMD3,CMD4,CMD5,CMD6,CMD7);             //send array of commnands to MBP 
0D848:  MOVFF  32C,33D
0D84C:  MOVFF  32D,33E
0D850:  MOVFF  32E,33F
0D854:  MOVFF  32F,340
0D858:  MOVFF  330,341
0D85C:  MOVFF  331,342
0D860:  MOVFF  332,343
0D864:  CALL   ADF6
....................          delay_ms(10); 
0D868:  MOVLW  0A
0D86A:  MOVLB  3
0D86C:  MOVWF  x6B
0D86E:  MOVLB  0
0D870:  CALL   1AFC
....................          STORE_ADRESS_DATA_TO_FLASH();                                           //store the updated address 
0D874:  CALL   3776
....................          break; 
0D878:  BRA    DDE2
....................       case 0xD2:                                                                 //TMCR Mission 
....................        
....................          UPLINK_SUCCESS_MBP(); 
0D87A:  CALL   AA04
....................          ACK_for_COM[14] = 0x00; 
0D87E:  MOVLB  2
0D880:  CLRF   x62
....................        
....................          SAVE_SAT_LOG(CMD1,0,CMD2);                                              //save reset data and command 
0D882:  MOVFF  32C,354
0D886:  MOVLB  3
0D888:  CLRF   x55
0D88A:  MOVFF  32D,356
0D88E:  MOVLB  0
0D890:  CALL   3A8A
....................          MISSION_TEST_OPERATION(CMD1,CMD2,CMD3,CMD4,CMD5,CMD6,CMD7);             //send array of commnands to MBP 
0D894:  MOVFF  32C,33D
0D898:  MOVFF  32D,33E
0D89C:  MOVFF  32E,33F
0D8A0:  MOVFF  32F,340
0D8A4:  MOVFF  330,341
0D8A8:  MOVFF  331,342
0D8AC:  MOVFF  332,343
0D8B0:  CALL   ADF6
....................          delay_ms(10); 
0D8B4:  MOVLW  0A
0D8B6:  MOVLB  3
0D8B8:  MOVWF  x6B
0D8BA:  MOVLB  0
0D8BC:  CALL   1AFC
....................          STORE_ADRESS_DATA_TO_FLASH();                                           //store the updated address 
0D8C0:  CALL   3776
....................          break; 
0D8C4:  BRA    DDE2
....................       case 0xD3:                                                                 //NTU Mission 
....................        
....................          UPLINK_SUCCESS_MBP(); 
0D8C6:  CALL   AA04
....................          ACK_for_COM[14] = 0x00; 
0D8CA:  MOVLB  2
0D8CC:  CLRF   x62
....................        
....................          SAVE_SAT_LOG(CMD1,0,CMD2);                                              //save reset data and command 
0D8CE:  MOVFF  32C,354
0D8D2:  MOVLB  3
0D8D4:  CLRF   x55
0D8D6:  MOVFF  32D,356
0D8DA:  MOVLB  0
0D8DC:  CALL   3A8A
....................          MISSION_TEST_OPERATION(CMD1,CMD2,CMD3,CMD4,CMD5,CMD6,CMD7);             //send array of commnands to MBP 
0D8E0:  MOVFF  32C,33D
0D8E4:  MOVFF  32D,33E
0D8E8:  MOVFF  32E,33F
0D8EC:  MOVFF  32F,340
0D8F0:  MOVFF  330,341
0D8F4:  MOVFF  331,342
0D8F8:  MOVFF  332,343
0D8FC:  CALL   ADF6
....................          delay_ms(10); 
0D900:  MOVLW  0A
0D902:  MOVLB  3
0D904:  MOVWF  x6B
0D906:  MOVLB  0
0D908:  CALL   1AFC
....................          STORE_ADRESS_DATA_TO_FLASH();                                           //store the updated address 
0D90C:  CALL   3776
....................          break; 
0D910:  BRA    DDE2
....................       case 0xD4:                                                                 //SF_WARD Mission 
....................        
....................          UPLINK_SUCCESS_MBP(); 
0D912:  CALL   AA04
....................          ACK_for_COM[14] = 0x00; 
0D916:  MOVLB  2
0D918:  CLRF   x62
....................        
....................          SAVE_SAT_LOG(CMD1,0,CMD2);                                              //save reset data and command 
0D91A:  MOVFF  32C,354
0D91E:  MOVLB  3
0D920:  CLRF   x55
0D922:  MOVFF  32D,356
0D926:  MOVLB  0
0D928:  CALL   3A8A
....................          MISSION_TEST_OPERATION(CMD1,CMD2,CMD3,CMD4,CMD5,CMD6,CMD7);             //send array of commnands to MBP 
0D92C:  MOVFF  32C,33D
0D930:  MOVFF  32D,33E
0D934:  MOVFF  32E,33F
0D938:  MOVFF  32F,340
0D93C:  MOVFF  330,341
0D940:  MOVFF  331,342
0D944:  MOVFF  332,343
0D948:  CALL   ADF6
....................          delay_ms(10); 
0D94C:  MOVLW  0A
0D94E:  MOVLB  3
0D950:  MOVWF  x6B
0D952:  MOVLB  0
0D954:  CALL   1AFC
....................          STORE_ADRESS_DATA_TO_FLASH();                                           //store the updated address 
0D958:  CALL   3776
....................          break; 
0D95C:  BRA    DDE2
....................       case 0xD5:                                                                 //HNT Mission 
....................        
....................          UPLINK_SUCCESS_MBP(); 
0D95E:  CALL   AA04
....................          ACK_for_COM[14] = 0x00; 
0D962:  MOVLB  2
0D964:  CLRF   x62
....................        
....................          SAVE_SAT_LOG(CMD1,0,CMD2);                                              //save reset data and command 
0D966:  MOVFF  32C,354
0D96A:  MOVLB  3
0D96C:  CLRF   x55
0D96E:  MOVFF  32D,356
0D972:  MOVLB  0
0D974:  CALL   3A8A
....................          MISSION_TEST_OPERATION(CMD1,CMD2,CMD3,CMD4,CMD5,CMD6,CMD7);             //send array of commnands to MBP 
0D978:  MOVFF  32C,33D
0D97C:  MOVFF  32D,33E
0D980:  MOVFF  32E,33F
0D984:  MOVFF  32F,340
0D988:  MOVFF  330,341
0D98C:  MOVFF  331,342
0D990:  MOVFF  332,343
0D994:  CALL   ADF6
....................          delay_ms(10); 
0D998:  MOVLW  0A
0D99A:  MOVLB  3
0D99C:  MOVWF  x6B
0D99E:  MOVLB  0
0D9A0:  CALL   1AFC
....................          STORE_ADRESS_DATA_TO_FLASH();                                           //store the updated address 
0D9A4:  CALL   3776
....................          break; 
0D9A8:  BRA    DDE2
....................       case 0xD6:                                                                 //APRS_DP Mission 
....................        
....................          UPLINK_SUCCESS_MBP(); 
0D9AA:  CALL   AA04
....................          ACK_for_COM[14] = 0x00; 
0D9AE:  MOVLB  2
0D9B0:  CLRF   x62
....................        
....................          SAVE_SAT_LOG(CMD1,0,CMD2);                                              //save reset data and command 
0D9B2:  MOVFF  32C,354
0D9B6:  MOVLB  3
0D9B8:  CLRF   x55
0D9BA:  MOVFF  32D,356
0D9BE:  MOVLB  0
0D9C0:  CALL   3A8A
....................          MISSION_TEST_OPERATION(CMD1,CMD2,CMD3,CMD4,CMD5,CMD6,CMD7);             //send array of commnands to MBP 
0D9C4:  MOVFF  32C,33D
0D9C8:  MOVFF  32D,33E
0D9CC:  MOVFF  32E,33F
0D9D0:  MOVFF  32F,340
0D9D4:  MOVFF  330,341
0D9D8:  MOVFF  331,342
0D9DC:  MOVFF  332,343
0D9E0:  CALL   ADF6
....................          delay_ms(10); 
0D9E4:  MOVLW  0A
0D9E6:  MOVLB  3
0D9E8:  MOVWF  x6B
0D9EA:  MOVLB  0
0D9EC:  CALL   1AFC
....................          STORE_ADRESS_DATA_TO_FLASH();                                           //store the updated address 
0D9F0:  CALL   3776
....................          break; 
0D9F4:  BRA    DDE2
....................       case 0xD7:                                                                 //dummy data for MBP 
....................        
....................          UPLINK_SUCCESS_MBP(); 
0D9F6:  CALL   AA04
....................          ACK_for_COM[14] = 0x00; 
0D9FA:  MOVLB  2
0D9FC:  CLRF   x62
....................        
....................          SAVE_SAT_LOG(CMD1,0,CMD2);                                              //save reset data and command 
0D9FE:  MOVFF  32C,354
0DA02:  MOVLB  3
0DA04:  CLRF   x55
0DA06:  MOVFF  32D,356
0DA0A:  MOVLB  0
0DA0C:  CALL   3A8A
....................          MISSION_TEST_OPERATION(CMD1,CMD2,CMD3,CMD4,CMD5,CMD6,CMD7);             //send array of commnands to MBP 
0DA10:  MOVFF  32C,33D
0DA14:  MOVFF  32D,33E
0DA18:  MOVFF  32E,33F
0DA1C:  MOVFF  32F,340
0DA20:  MOVFF  330,341
0DA24:  MOVFF  331,342
0DA28:  MOVFF  332,343
0DA2C:  CALL   ADF6
....................          delay_ms(10); 
0DA30:  MOVLW  0A
0DA32:  MOVLB  3
0DA34:  MOVWF  x6B
0DA36:  MOVLB  0
0DA38:  CALL   1AFC
....................          STORE_ADRESS_DATA_TO_FLASH();                                           //store the updated address 
0DA3C:  CALL   3776
....................          break; 
0DA40:  BRA    DDE2
....................       case 0xDF:                                                                 //dummy data for MBP 
....................          REPLY_TO_COM(0x66,0); 
0DA42:  MOVLW  66
0DA44:  MOVLB  3
0DA46:  MOVWF  x37
0DA48:  CLRF   x38
0DA4A:  MOVLB  0
0DA4C:  CALL   9F72
....................          UPLINK_SUCCESS_MBP(); 
0DA50:  CALL   AA04
....................          ACK_for_COM[14] = 0x00; 
0DA54:  MOVLB  2
0DA56:  CLRF   x62
....................        
....................          SAVE_SAT_LOG(CMD1,0,CMD2);                                              //save reset data and command 
0DA58:  MOVFF  32C,354
0DA5C:  MOVLB  3
0DA5E:  CLRF   x55
0DA60:  MOVFF  32D,356
0DA64:  MOVLB  0
0DA66:  CALL   3A8A
....................          MISSION_TEST_OPERATION(CMD1,CMD2,CMD3,CMD4,CMD5,CMD6,CMD7);             //send array of commnands to MBP 
0DA6A:  MOVFF  32C,33D
0DA6E:  MOVFF  32D,33E
0DA72:  MOVFF  32E,33F
0DA76:  MOVFF  32F,340
0DA7A:  MOVFF  330,341
0DA7E:  MOVFF  331,342
0DA82:  MOVFF  332,343
0DA86:  CALL   ADF6
....................          delay_ms(10); 
0DA8A:  MOVLW  0A
0DA8C:  MOVLB  3
0DA8E:  MOVWF  x6B
0DA90:  MOVLB  0
0DA92:  CALL   1AFC
....................          STORE_ADRESS_DATA_TO_FLASH();                                           //store the updated address 
0DA96:  CALL   3776
....................          break; 
0DA9A:  BRA    DDE2
....................       case 0x99: 
....................        
....................          UPLINK_SUCCESS_CHECK(); 
0DA9C:  CALL   AF9A
....................          ACK_for_COM[14] = 0x00; 
0DAA0:  MOVLB  2
0DAA2:  CLRF   x62
....................        
....................          SAVE_SAT_LOG(CMD1,0,CMD2); 
0DAA4:  MOVFF  32C,354
0DAA8:  MOVLB  3
0DAAA:  CLRF   x55
0DAAC:  MOVFF  32D,356
0DAB0:  MOVLB  0
0DAB2:  CALL   3A8A
....................          CURRENT_ADDRESS_OF_FLASH();                                             //show address info address on PC 
0DAB6:  CALL   2970
....................          break; 
0DABA:  BRA    DDE2
....................       case 0xaa: 
....................        
....................          UPLINK_SUCCESS_CHECK(); 
0DABC:  CALL   AF9A
....................          ACK_for_COM[14] = 0x00; 
0DAC0:  MOVLB  2
0DAC2:  CLRF   x62
....................        
....................          SAVE_SAT_LOG(CMD1,0,CMD2);                                              //save reset data 
0DAC4:  MOVFF  32C,354
0DAC8:  MOVLB  3
0DACA:  CLRF   x55
0DACC:  MOVFF  32D,356
0DAD0:  MOVLB  0
0DAD2:  CALL   3A8A
....................          STORE_ADRESS_DATA_TO_FLASH();                                           //save address data to flash memory 
0DAD6:  CALL   3776
....................          STORE_FLAG_INFO();                                                      //store flag info on flash 
0DADA:  CALL   5714
....................          WRITE_FLAG_to_EEPROM();                                                 //store flag info on EEPROM 
0DADE:  CALL   5924
....................          break; 
0DAE2:  BRA    DDE2
....................       case 0x22: 
....................        
....................          UPLINK_SUCCESS_CHECK(); 
0DAE4:  CALL   AF9A
....................          //ACK_for_COM[14] = 0x00; 
....................        
....................          SAVE_SAT_LOG(CMD1,0,CMD2);                                              //save reset data, cmd1 and cmd2 as sat log 
0DAE8:  MOVFF  32C,354
0DAEC:  MOVLB  3
0DAEE:  CLRF   x55
0DAF0:  MOVFF  32D,356
0DAF4:  MOVLB  0
0DAF6:  CALL   3A8A
....................          SEND_CMD_FOR_RESET_SATELLITE();                                         //save flag data, address data and RSV table in flash, send cmd for sat reset 
0DAFA:  CALL   7A76
....................          break;  
0DAFE:  BRA    DDE2
....................       case 0xb0: 
....................        
....................          UPLINK_SUCCESS_CHECK();                                                 //put in high uplink success flag and store flag info on flash 
0DB00:  CALL   AF9A
....................          ACK_for_COM[14] = 0x00; 
0DB04:  MOVLB  2
0DB06:  CLRF   x62
....................        
....................          CLEAR_BC_FLAG();                                                        //BC_ATTEMPT_FLAG = 0 
0DB08:  MOVLB  0
0DB0A:  CALL   AFAC
....................          STORE_ADRESS_DATA_TO_FLASH();                                           //save address data to flash memory 
0DB0E:  CALL   3776
....................          STORE_FLAG_INFO();                                                      //save flag data to flash memory 
0DB12:  CALL   5714
....................          WRITE_FLAG_to_EEPROM();                                                 //save flag data to EEPROM 
0DB16:  CALL   5924
....................          break; 
0DB1A:  BRA    DDE2
....................       case 0xb1: 
....................        
....................          UPLINK_SUCCESS_CHECK();                                                 //put in high uplink success flag and store flag info on flash 
0DB1C:  CALL   AF9A
....................          ACK_for_COM[14] = 0x00; 
0DB20:  MOVLB  2
0DB22:  CLRF   x62
....................        
....................          MAKE_BC_FLAG_1();                                                       //BC_ATTEMPT_FLAG = 1 
0DB24:  MOVLB  0
0DB26:  CALL   AFC0
....................          STORE_ADRESS_DATA_TO_FLASH();                                           //save address data to flash memory 
0DB2A:  CALL   3776
....................          STORE_FLAG_INFO();                                                      //save flag data to flash memory 
0DB2E:  CALL   5714
....................          WRITE_FLAG_to_EEPROM();                                                 //save flag data to EEPROM 
0DB32:  CALL   5924
....................          break; 
0DB36:  BRA    DDE2
....................       case 0xb2: 
....................        
....................          UPLINK_SUCCESS_CHECK();                                                 //put in high uplink success flag and store flag info on flash 
0DB38:  CALL   AF9A
....................          ACK_for_COM[14] = 0x00; 
0DB3C:  MOVLB  2
0DB3E:  CLRF   x62
....................        
....................          MAKE_BC_FLAG_2();                                                       //BC_ATTEMPT_FLAG = 2 
0DB40:  MOVLB  0
0DB42:  CALL   AFD6
....................          STORE_ADRESS_DATA_TO_FLASH();                                           //save address data to flash memory 
0DB46:  CALL   3776
....................          STORE_FLAG_INFO();                                                      //save flag data to flash memory 
0DB4A:  CALL   5714
....................          WRITE_FLAG_to_EEPROM();                                                 //save flag data to EEPROM 
0DB4E:  CALL   5924
....................          break;                
0DB52:  BRA    DDE2
....................       case 0xb3: 
....................        
....................          UPLINK_SUCCESS_CHECK();                                                 //put in high uplink success flag and store flag info on flash 
0DB54:  CALL   AF9A
....................          ACK_for_COM[14] = 0x00; 
0DB58:  MOVLB  2
0DB5A:  CLRF   x62
....................           
....................          MAKE_BC_FLAG_3();                                                       //BC_ATTEMPT_FLAG = 3 
0DB5C:  MOVLB  0
0DB5E:  CALL   AFEC
....................          STORE_ADRESS_DATA_TO_FLASH();                                           //save address data to flash memory 
0DB62:  CALL   3776
....................          STORE_FLAG_INFO();                                                      //save flag data to flash memory 
0DB66:  CALL   5714
....................          WRITE_FLAG_to_EEPROM();                                                 //save flag data to EEPROM 
0DB6A:  CALL   5924
....................          break; 
0DB6E:  BRA    DDE2
....................       case 0xb4: 
....................        
....................          UPLINK_SUCCESS_CHECK();                                                 //put in high uplink success flag and store flag info on flash 
0DB70:  CALL   AF9A
....................          ACK_for_COM[14] = 0x00; 
0DB74:  MOVLB  2
0DB76:  CLRF   x62
....................        
....................          MAKE_BC_FLAG_4();                                                       //BC_ATTEMPT_FLAG = 4 
0DB78:  MOVLB  0
0DB7A:  CALL   B002
....................          STORE_ADRESS_DATA_TO_FLASH();                                           //save address data to flash memory 
0DB7E:  CALL   3776
....................          STORE_FLAG_INFO();                                                      //save flag data to flash memory 
0DB82:  CALL   5714
....................          WRITE_FLAG_to_EEPROM();                                                 //save flag data to EEPROM 
0DB86:  CALL   5924
....................          break;  
0DB8A:  BRA    DDE2
....................       case 0x4b: 
....................        
....................          UPLINK_SUCCESS_CHECK();                                                 //put in high uplink success flag and store flag info on flash 
0DB8C:  CALL   AF9A
....................          ACK_for_COM[14] = 0x00; 
0DB90:  MOVLB  2
0DB92:  CLRF   x62
....................        
....................          SAVE_SAT_LOG(CMD1,0,CMD2);                                              // save reset data and commands 
0DB94:  MOVFF  32C,354
0DB98:  MOVLB  3
0DB9A:  CLRF   x55
0DB9C:  MOVFF  32D,356
0DBA0:  MOVLB  0
0DBA2:  CALL   3A8A
....................          Count_Kill_Flag();                                                      //Enable if Kill_COUNTER > 4 
0DBA6:  CALL   B018
....................          break; 
0DBAA:  BRA    DDE2
....................       case 0xbb: 
....................        
....................          UPLINK_SUCCESS_CHECK();                                                 //put in high uplink success flag and store flag info on flash 
0DBAC:  CALL   AF9A
....................          //ACK_for_COM[14] = 0x00; 
....................        
....................          SAVE_SAT_LOG(CMD1, 0, CMD2);                                            // save reset data and commands 
0DBB0:  MOVFF  32C,354
0DBB4:  MOVLB  3
0DBB6:  CLRF   x55
0DBB8:  MOVFF  32D,356
0DBBC:  MOVLB  0
0DBBE:  CALL   3A8A
....................          Disable_Kill();                                                         //kill switch OFF 
0DBC2:  CALL   B06C
....................          break; 
0DBC6:  BRA    DDE2
....................       case 0xfa: 
....................        
....................          UPLINK_SUCCESS_HSSC();                                                  //High Sampling Sensor Collect mission 
0DBC8:  CALL   B0B8
....................          ACK_for_COM[14] = 0x00; 
0DBCC:  MOVLB  2
0DBCE:  CLRF   x62
....................        
....................          SAVE_SAT_LOG(CMD1,0,CMD2); 
0DBD0:  MOVFF  32C,354
0DBD4:  MOVLB  3
0DBD6:  CLRF   x55
0DBD8:  MOVFF  32D,356
0DBDC:  MOVLB  0
0DBDE:  CALL   3A8A
....................           
....................          unsigned int16 duration = (unsigned int16)CMD2*12;                      //CMD2 is operation time(min), maximum duration = 1440 
0DBE2:  MOVLB  3
0DBE4:  CLRF   x38
0DBE6:  MOVFF  32D,337
0DBEA:  MOVFF  338,349
0DBEE:  MOVFF  32D,348
0DBF2:  CLRF   x4B
0DBF4:  MOVLW  0C
0DBF6:  MOVWF  x4A
0DBF8:  MOVLB  0
0DBFA:  CALL   7E50
0DBFE:  MOVFF  02,336
0DC02:  MOVFF  01,335
....................          if(duration > 1440){duration = 1440;} 
0DC06:  MOVLB  3
0DC08:  MOVF   x36,W
0DC0A:  SUBLW  04
0DC0C:  BC    DC20
0DC0E:  XORLW  FF
0DC10:  BNZ   DC18
0DC12:  MOVF   x35,W
0DC14:  SUBLW  A0
0DC16:  BC    DC20
0DC18:  MOVLW  05
0DC1A:  MOVWF  x36
0DC1C:  MOVLW  A0
0DC1E:  MOVWF  x35
....................          HIGHSAMP_SENSOR_COLLECTION(duration); 
0DC20:  MOVFF  336,338
0DC24:  MOVFF  335,337
0DC28:  MOVLB  0
0DC2A:  CALL   7C52
....................          //Turn_OFF_ADCS(); 
....................          STORE_ADRESS_DATA_TO_FLASH(); 
0DC2E:  CALL   3776
....................          break; 
0DC32:  BRA    DDE2
....................       case 0x59: 
....................        
....................          UPLINK_SUCCESS_CHECK(); 
0DC34:  CALL   AF9A
....................          ACK_for_COM[14] = 0x00;                                                 //send ACK to COM 
0DC38:  MOVLB  2
0DC3A:  CLRF   x62
....................        
....................          GIVE_ACCESS_SCF_Nsec(CMD2); 
0DC3C:  MOVFF  32D,337
0DC40:  MOVLB  0
0DC42:  CALL   B0DE
....................          break;  
0DC46:  BRA    DDE2
....................       case 0xee: 
....................          UPLINK_SUCCESS_CHECK(); 
0DC48:  CALL   AF9A
....................          //ACK_for_COM[14] = 0x00;    
....................          ERASE_EEPROM_INFO();                                                    //erase 512byte(from 0x18000 to 0x181ff) 
0DC4C:  CALL   B192
....................          MEMORY_ERASE();                                                         //erase OF, SCF, SMF flash memories 
0DC50:  CALL   B1AA
....................          break;  
0DC54:  BRA    DDE2
....................       case 0x88: 
....................        
....................          UPLINK_SUCCESS_CHECK(); 
0DC56:  CALL   AF9A
....................          //ACK_for_COM[14] = 0x00; 
....................        
....................          CURRENT_FLAG_STATUS();                                                  //Print on PC port current flag status 
0DC5A:  CALL   26FE
....................          break;    
0DC5E:  BRA    DDE2
....................       case 0x9f: 
....................        
....................          UPLINK_SUCCESS_CHECK(); 
0DC60:  CALL   AF9A
....................          //ACK_for_COM[14] = 0x00; 
....................        
....................          Disp_RSV();                                                             //show the reserve status (reserve command and reserve table) 
0DC64:  CALL   B968
....................          break;  
0DC68:  BRA    DDE2
....................       case 0xcf:                                                                 //only for execution from PC 
....................        
....................          UPLINK_SUCCESS_CHECK(); 
0DC6A:  CALL   AF9A
....................          //ACK_for_COM[14] = 0x00; 
....................        
....................          table_refresh();                                                        //table and flags are come back to default 
0DC6E:  BRA    D59C
....................          break; 
0DC70:  BRA    DDE2
....................       case 0x6a: 
....................        
....................          UPLINK_SUCCESS_CHECK();                                                 //put uplink success flag in HIGH and store flags 
0DC72:  CALL   AF9A
....................          ACK_for_COM[14] = 0x00; 
0DC76:  MOVLB  2
0DC78:  CLRF   x62
....................        
....................          RESET_FLAG_DATA();                                                      //clear all flags and save 
0DC7A:  MOVLB  0
0DC7C:  BRA    D5DE
....................          break; 
0DC7E:  BRA    DDE2
....................       case 0xe0: 
....................        
....................          UPLINK_SUCCESS_CHECK();                                                 //put uplink success flag in HIGH and store flags 
0DC80:  CALL   AF9A
....................          ACK_for_COM[14] = 0x00; 
0DC84:  MOVLB  2
0DC86:  CLRF   x62
....................        
....................          REFRESH_SECTOR_OF(CMD2,CMD3,CMD4,CMD5);                                 //Erase 1 sector of OBC flash, also this function contains saving log 
0DC88:  MOVFF  32D,348
0DC8C:  MOVFF  32E,349
0DC90:  MOVFF  32F,34A
0DC94:  MOVFF  330,34B
0DC98:  MOVLB  0
0DC9A:  CALL   A47A
....................          break; 
0DC9E:  BRA    DDE2
....................       case 0xe1: 
....................        
....................          UPLINK_SUCCESS_CHECK();                                                 //put uplink success flag in HIGH and store flags 
0DCA0:  CALL   AF9A
....................          ACK_for_COM[14] = 0x00; 
0DCA4:  MOVLB  2
0DCA6:  CLRF   x62
....................        
....................          REFRESH_SECTOR_SCF(CMD2,CMD3,CMD4,CMD5);                                //Erase 1 sector of COM flash, also this function contains saving log 
0DCA8:  MOVFF  32D,348
0DCAC:  MOVFF  32E,349
0DCB0:  MOVFF  32F,34A
0DCB4:  MOVFF  330,34B
0DCB8:  MOVLB  0
0DCBA:  CALL   A52C
....................          break; 
0DCBE:  BRA    DDE2
....................       case 0xe2: 
....................        
....................          UPLINK_SUCCESS_CHECK();                                                 //put uplink success flag in HIGH and store flags 
0DCC0:  CALL   AF9A
....................          ACK_for_COM[14] = 0x00; 
0DCC4:  MOVLB  2
0DCC6:  CLRF   x62
....................        
....................          REFRESH_SECTOR_SMF(CMD2,CMD3,CMD4,CMD5);                                //Erase 1 sector of MISION flash, also this function contains saving log 
0DCC8:  MOVFF  32D,348
0DCCC:  MOVFF  32E,349
0DCD0:  MOVFF  32F,34A
0DCD4:  MOVFF  330,34B
0DCD8:  MOVLB  0
0DCDA:  CALL   6752
....................          break; 
0DCDE:  BRA    DDE2
....................       case 0x12: 
....................        
....................          UPLINK_SUCCESS_CHECK();                                                 //put uplink success flag in HIGH and store flags 
0DCE0:  CALL   AF9A
....................          ACK_for_COM[14] = 0x00; 
0DCE4:  MOVLB  2
0DCE6:  CLRF   x62
....................        
....................          TRANSFER_SECTOR_OF2SCF(CMD2,CMD3,CMD4,CMD5);                            //transfer 1 sector, also this function contains saving log 
0DCE8:  MOVFF  32D,337
0DCEC:  MOVFF  32E,338
0DCF0:  MOVFF  32F,339
0DCF4:  MOVFF  330,33A
0DCF8:  MOVLB  0
0DCFA:  CALL   BB98
....................          break; 
0DCFE:  BRA    DDE2
....................       case 0x32: 
....................        
....................          UPLINK_SUCCESS_CHECK();                                                 //put uplink success flag in HIGH and store flags 
0DD00:  CALL   AF9A
....................          ACK_for_COM[14] = 0x00; 
0DD04:  MOVLB  2
0DD06:  CLRF   x62
....................        
....................          TRANSFER_SECTOR_SMF2SCF(CMD2,CMD3,CMD4,CMD5);                           //transfer 1 sector, also this function contains saving log 
0DD08:  MOVFF  32D,337
0DD0C:  MOVFF  32E,338
0DD10:  MOVFF  32F,339
0DD14:  MOVFF  330,33A
0DD18:  MOVLB  0
0DD1A:  CALL   C306
....................          break; 
0DD1E:  BRA    DDE2
....................       case 0x21: 
....................        
....................          UPLINK_SUCCESS_CHECK();                                                 //put uplink success flag in HIGH and store flags 
0DD20:  CALL   AF9A
....................          ACK_for_COM[14] = 0x00; 
0DD24:  MOVLB  2
0DD26:  CLRF   x62
....................        
....................          TRANSFER_SECTOR_SCF2OF(CMD2,CMD3,CMD4,CMD5);                            //transfer 1 sector, also this function contains saving log 
0DD28:  MOVFF  32D,337
0DD2C:  MOVFF  32E,338
0DD30:  MOVFF  32F,339
0DD34:  MOVFF  330,33A
0DD38:  MOVLB  0
0DD3A:  CALL   BE8E
....................          break; 
0DD3E:  BRA    DDE2
....................       case 0x01: 
....................        
....................          UPLINK_SUCCESS_CHECK();                                                 //put uplink success flag in HIGH and store flags 
0DD40:  CALL   AF9A
....................          ACK_for_COM[14] = 0x00; 
0DD44:  MOVLB  2
0DD46:  CLRF   x62
....................        
....................          Send_Command_to_FAB(0x01);                                              //send cmd to FAB to turn ON battery heater 
0DD48:  MOVLW  01
0DD4A:  MOVLB  3
0DD4C:  MOVWF  x4F
0DD4E:  MOVLB  0
0DD50:  CALL   42D6
....................          fprintf(PC,"Sent CMD Heater ON\r\n"); 
0DD54:  MOVLW  EA
0DD56:  MOVWF  FF6
0DD58:  MOVLW  10
0DD5A:  MOVWF  FF7
0DD5C:  MOVLW  00
0DD5E:  MOVWF  FF8
0DD60:  CALL   318C
....................          break; 
0DD64:  BRA    DDE2
....................       case 0x02: 
....................        
....................          UPLINK_SUCCESS_CHECK();                                                 //put uplink success flag in HIGH and store flags 
0DD66:  CALL   AF9A
....................          ACK_for_COM[14] = 0x00; 
0DD6A:  MOVLB  2
0DD6C:  CLRF   x62
....................        
....................          Send_Command_to_FAB(0x02);                                              //send cmd to FAB to turn OFF battery heater 
0DD6E:  MOVLW  02
0DD70:  MOVLB  3
0DD72:  MOVWF  x4F
0DD74:  MOVLB  0
0DD76:  CALL   42D6
....................          fprintf(PC,"Sent CMD Heater OFF\r\n"); 
0DD7A:  MOVLW  00
0DD7C:  MOVWF  FF6
0DD7E:  MOVLW  11
0DD80:  MOVWF  FF7
0DD82:  MOVLW  00
0DD84:  MOVWF  FF8
0DD86:  CALL   318C
....................          break; 
0DD8A:  BRA    DDE2
....................       case 0x03: 
....................  
....................          UPLINK_SUCCESS_CHECK();                                                 //put uplink success flag in HIGH and store flags 
0DD8C:  CALL   AF9A
....................          ACK_for_COM[14] = 0x00; 
0DD90:  MOVLB  2
0DD92:  CLRF   x62
....................        
....................          Send_Command_to_FAB(0x03);                                              //send cmd to FAB to operate Heater in AUTO mode 
0DD94:  MOVLW  03
0DD96:  MOVLB  3
0DD98:  MOVWF  x4F
0DD9A:  MOVLB  0
0DD9C:  CALL   42D6
....................          fprintf(PC,"Sent CMD Heater AUTO\r\n"); 
0DDA0:  MOVLW  16
0DDA2:  MOVWF  FF6
0DDA4:  MOVLW  11
0DDA6:  MOVWF  FF7
0DDA8:  MOVLW  00
0DDAA:  MOVWF  FF8
0DDAC:  CALL   318C
....................          break;          
0DDB0:  BRA    DDE2
....................       case 0x35: 
....................          fprintf(PC,"Sent CMD to COM for data download\r\n"); 
0DDB2:  MOVLW  2E
0DDB4:  MOVWF  FF6
0DDB6:  MOVLW  11
0DDB8:  MOVWF  FF7
0DDBA:  MOVLW  00
0DDBC:  MOVWF  FF8
0DDBE:  CALL   318C
....................          RSV_DATA_DOWNLOAD(CMD1,CMD2,CMD3,CMD4,CMD5,CMD6,CMD7);                  //send array of commnands to COM 
0DDC2:  MOVFF  32C,33D
0DDC6:  MOVFF  32D,33E
0DDCA:  MOVFF  32E,33F
0DDCE:  MOVFF  32F,340
0DDD2:  MOVFF  330,341
0DDD6:  MOVFF  331,342
0DDDA:  MOVFF  332,343
0DDDE:  CALL   C486
....................           
....................          break; 
....................    } 
....................    return; 
0DDE2:  GOTO   E604 (RETURN)
.................... } 
....................  
....................  
....................  
.................... int8 CHECK_MEMORY_FUNCTION(int8 data)                                            //evita operacion de memoria como comandos reservados 
.................... { 
....................    if((data == 0xe0)||(data == 0xe1)||(data == 0xe2)) 
*
09F3E:  MOVLB  3
09F40:  MOVF   x2C,W
09F42:  SUBLW  E0
09F44:  BZ    9F52
09F46:  MOVF   x2C,W
09F48:  SUBLW  E1
09F4A:  BZ    9F52
09F4C:  MOVF   x2C,W
09F4E:  SUBLW  E2
09F50:  BNZ   9F54
....................    { 
....................       data = 0; 
09F52:  CLRF   x2C
....................    } 
....................    if((data == 0x12)||(data == 0x32)||(data == 0x21)) 
09F54:  MOVF   x2C,W
09F56:  SUBLW  12
09F58:  BZ    9F66
09F5A:  MOVF   x2C,W
09F5C:  SUBLW  32
09F5E:  BZ    9F66
09F60:  MOVF   x2C,W
09F62:  SUBLW  21
09F64:  BNZ   9F68
....................    { 
....................       data = 0; 
09F66:  CLRF   x2C
....................    } 
....................    return data; 
09F68:  MOVFF  32C,01
09F6C:  MOVLB  0
09F6E:  GOTO   E4B4 (RETURN)
.................... } 
....................  
....................  
.................... //----------Flash_memory_MT25QL01GBBB_OF.c------------------------------------- 
....................  
.................... void WRITE_ENABLE_OF(); 
.................... void WRITE_ENABLE_SCF(); 
.................... void WRITE_ENABLE_SMF(); 
....................  
.................... void sector_erase_OF(unsigned int32 sector_address); 
.................... void sector_erase_SCF(unsigned int32 sector_address); 
.................... void sector_erase_SMF(unsigned int32 sector_address); 
....................  
.................... void SUBSECTOR_4KB_ERASE_OF(unsigned int32 sector_address); 
.................... void SUBSECTOR_4KB_ERASE_SCF(unsigned int32 sector_address); 
.................... void SUBSECTOR_4KB_ERASE_SMF(unsigned int32 sector_address); 
....................  
.................... void SUBSECTOR_32KB_ERASE_OF(unsigned int32 sector_address); 
.................... void SUBSECTOR_32KB_ERASE_SCF(unsigned int32 sector_address); 
.................... void SUBSECTOR_32KB_ERASE_SMF(unsigned int32 sector_address); 
....................  
.................... void WRITE_DATA_BYTE_OF(unsigned int32 page_address, int8 data); 
.................... void WRITE_DATA_BYTE_SCF(unsigned int32 page_address, int8 data); 
.................... void WRITE_DATA_BYTE_SMF(unsigned int32 page_address, int8 data); 
....................  
.................... int8 READ_CHIP_ID_OF(); 
.................... int8 READ_CHIP_ID_SCF(); 
.................... int8 READ_CHIP_ID_SMF(); 
....................  
.................... int8 READ_STATUS_REGISTER_OF(); 
.................... int8 READ_STATUS_REGISTER_SCF(); 
.................... int8 READ_STATUS_REGISTER_SMF(); 
....................  
.................... int8 READ_DATA_BYTE_OF(unsigned INT32 ADDRESS); 
.................... int8 READ_DATA_BYTE_SCF(unsigned INT32 ADDRESS); 
.................... int8 READ_DATA_BYTE_SMF(unsigned INT32 ADDRESS); 
....................  
.................... void TRANSFER_DATA_256byte_OF(unsigned INT32 ADRESS, int PORT_NUM); 
.................... void TRANSFER_DATA_256byte_SCF(unsigned INT32 ADRESS, int PORT_NUM); 
.................... void TRANSFER_DATA_256byte_SMF(unsigned INT32 ADRESS, int PORT_NUM); 
....................  
.................... void WRITE_DATA_NBYTE_OF(unsigned INT32 ADDRES,int32 data_byte); 
.................... void WRITE_DATA_NBYTE_SCF(unsigned INT32 ADDRES,int32 data_byte); 
.................... void WRITE_DATA_NBYTE_SMF(unsigned INT32 ADDRES,int32 data_byte); 
....................  
.................... void TRANSFER_DATA_NBYTE_TOPC_OF(unsigned INT32 ADRESS,int32 data_byte); //for testing 
.................... void TRANSFER_DATA_NBYTE_TOPC_SCF(unsigned INT32 ADRESS,int32 data_byte); //for testing 
.................... void TRANSFER_DATA_NBYTE_TOPC_SMF(unsigned INT32 ADRESS,int32 data_byte); //for testing 
....................  
.................... void TRANSFER_DATA_NBYTE_OFtoSCF(unsigned INT32 FROM_ADRESS,unsigned INT32 TO_ADRESS,int32 data_byte); //transfer data from MAIN FLASH to COM FLASH 
.................... void TRANSFER_DATA_NBYTE_SCFtoOF(unsigned INT32 FROM_ADRESS,unsigned INT32 TO_ADRESS,int32 data_byte); //transfer data from COM FLASH to MAIN FLASH 
.................... void TRANSFER_DATA_NBYTE_OFtoSMF(unsigned INT32 FROM_ADRESS,unsigned INT32 TO_ADRESS,int32 data_byte); //transfer data from MAIN FLASH to MISSION FLASH 
.................... void TRANSFER_DATA_NBYTE_SMFtoOF(unsigned INT32 FROM_ADRESS,unsigned INT32 TO_ADRESS,int32 data_byte); //transfer data from MISSION FLASH to MAIN FLASH 
.................... void TRANSFER_DATA_NBYTE_SMFtoSCF(unsigned INT32 FROM_ADRESS,unsigned INT32 TO_ADRESS,int32 data_byte); //transfer data from MISSION FLASH to COM FLASH 
.................... void TRANSFER_DATA_NBYTE_SCFtoSMF(unsigned INT32 FROM_ADRESS,unsigned INT32 TO_ADRESS,int32 data_byte); //transfer data from COM FLASH to MISSION FLASH 
....................  
.................... void TRANSFER_DATA_NBYTE_OF(unsigned INT32 FROM_ADRESS,unsigned INT32 TO_ADRESS,int32 data_byte); //for testing 
....................  
.................... //void sector_erase(unsigned int32 sector_address);  //this is for sector erase 
....................  
....................  
.................... //----------------------------------------------------------------------------- 
....................  
....................  
....................  
....................  
....................  
....................  
....................  
.................... #int_timer0                                                                      //Interrupcion del TMR0 
.................... void intval() 
.................... {    
....................    static int32 counter = 0;                                                     //la variable se activa como global, mantiene su valor al entrar y salir de la funcion 
....................    counter++;                                                                    //se incrementa cada 16.384ms 
*
01152:  MOVLW  01
01154:  MOVLB  3
01156:  ADDWF  x25,F
01158:  BTFSC  FD8.0
0115A:  INCF   x26,F
0115C:  BTFSC  FD8.2
0115E:  INCF   x27,F
01160:  BTFSC  FD8.2
01162:  INCF   x28,F
....................    if (counter > 60)                                                             //los contadores dentro del if se incrementan aprox cada 1s 
01164:  MOVF   x28,F
01166:  BNZ   1176
01168:  MOVF   x27,F
0116A:  BNZ   1176
0116C:  MOVF   x26,F
0116E:  BNZ   1176
01170:  MOVF   x25,W
01172:  SUBLW  3C
01174:  BC    11AA
....................    { 
....................       counter = 0; 
01176:  CLRF   x28
01178:  CLRF   x27
0117A:  CLRF   x26
0117C:  CLRF   x25
.................... //!      nowtime++; 
.................... //!       
.................... //!      if(nowtime > 0) 
.................... //!      { 
....................          //fprintf(PC,"%ld",nowtime); 
....................          FAB_FLAG++;                                                             //contador de tiempo en segundos, a los 90 segundos pide datos al FAB 
0117E:  MOVLW  01
01180:  MOVLB  2
01182:  ADDWF  x6F,F
01184:  BTFSC  FD8.0
01186:  INCF   x70,F
01188:  BTFSC  FD8.2
0118A:  INCF   x71,F
0118C:  BTFSC  FD8.2
0118E:  INCF   x72,F
....................          RESERVE_SEC_FLAG++;                                                     //contador de tiempo en segundos (used in Table) 
01190:  MOVLB  0
01192:  INCF   x7D,F
....................          currenttime++;                                                          //contador de tiempo en segundos (Reset Function) 
01194:  MOVLB  1
01196:  INCF   x90,F
01198:  BTFSC  FD8.2
0119A:  INCF   x91,F
....................          //fprintf(PC,"currenttime:%ld \r\n", currenttime);                        //Check TMR0 operation 
....................          //fprintf(PC,"Done\r\n"); 
.................... //!      } 
....................       if(RESERVE_SEC_FLAG > 59)                                                  //los contadores dentro del if se incrementan cada 60s 
0119C:  MOVLB  0
0119E:  MOVF   x7D,W
011A0:  SUBLW  3B
011A2:  BC    11A8
....................       { 
....................          RESERVE_SEC_FLAG = 0; 
011A4:  CLRF   x7D
....................          RESERVE_MIN_FLAG++;                                                     //contador de tiempo en minutos (used in Table) 
011A6:  INCF   x6C,F
011A8:  MOVLB  3
....................       } 
....................    } 
.................... } 
....................  
011AA:  BCF    FF2.2
011AC:  MOVLB  0
011AE:  GOTO   009C
.................... #INT_rda                                                                         //PC Interrupt, RS232 receive data available in buffer 1 
.................... void UART1_RXD(void) 
.................... { 
....................    CMD_FROM_PC[PC_DATA] = fgetc(PC);                                             //carga el array CMD_FROM_PC[] con los datos enviados por PC 
011B2:  CLRF   03
011B4:  MOVF   x99,W
011B6:  ADDLW  7E
011B8:  MOVWF  FE9
011BA:  MOVLW  00
011BC:  ADDWFC 03,W
011BE:  MOVWF  FEA
011C0:  BTFSS  F9E.5
011C2:  BRA    11C0
011C4:  MOVFF  FAE,FEF
....................    PC_DATA = ((PC_DATA + 1) % 8);                                                //cuando se obtenga el dato en la posicion 6, PC_DATA=0 
011C8:  MOVLW  01
011CA:  ADDWF  x99,W
011CC:  ANDLW  07
011CE:  MOVWF  x99
....................    //fputc(fgetc(PC),PC); 
.................... } 
....................  
....................  
011D0:  BCF    F9E.5
011D2:  GOTO   009C
.................... #INT_rda2 HIGH                                                                   //COM Interrupt, RS232 receive data available in buffer 2 
.................... void UART2_RXD(void) 
.................... { 
....................    //SerialDataReceive();  //get 32 byte 
....................    //COM_ONEBYTE_COMMAND = fgetc(COM); 
....................    in_bffr_main[COM_DATA] = fgetc(COM);                                          //carga el array in_bffr_main[] con los datos enviados por COM PIC 
011D6:  CLRF   03
011D8:  MOVF   x96,W
011DA:  ADDLW  86
011DC:  MOVWF  FE9
011DE:  MOVLW  00
011E0:  ADDWFC 03,W
011E2:  MOVWF  FEA
011E4:  BTFSS  FA4.5
011E6:  BRA    11E4
011E8:  MOVLB  F
011EA:  MOVFF  F1E,FEF
....................    COM_DATA = ((COM_DATA + 1) % 16);                                             //cuando se obtenga el dato en la posicion 16, COM_DATA=0 
011EE:  MOVLW  01
011F0:  MOVLB  0
011F2:  ADDWF  x96,W
011F4:  ANDLW  0F
011F6:  MOVWF  x96
.................... }  
....................  
....................  
011F8:  BCF    FA4.5
011FA:  GOTO   0148
.................... #INT_rda3                                                                        //FAB Interrupt, RS232 receive data available in buffer 3 
.................... void UART3_RXD(void) 
.................... { 
....................    //collect_HK_from_FAB(); 
....................    in_HK[FAB_DATA] = fgetc(FAB);                                                 //carga el array in_HK[] con los datos enviados por el FAB PIC 
*
0122A:  CLRF   03
0122C:  MOVLB  2
0122E:  MOVF   x6C,W
01230:  ADDLW  AB
01232:  MOVWF  FE9
01234:  MOVLW  01
01236:  ADDWFC 03,W
01238:  MOVWF  FEA
0123A:  BTFSS  FA6.5
0123C:  BRA    123A
0123E:  MOVLB  F
01240:  MOVFF  F2A,FEF
....................    FAB_DATA = ((FAB_DATA + 1) % FAB_SENSOR_size);                                //cuando se obtenga el dato en la posicion 45 FAB_DATA=0 
01244:  MOVLW  01
01246:  MOVLB  2
01248:  ADDWF  x6C,W
0124A:  MOVLB  3
0124C:  MOVWF  x78
0124E:  MOVWF  x79
01250:  MOVLW  2D
01252:  MOVWF  x7A
01254:  MOVLB  0
01256:  RCALL  11FE
01258:  MOVFF  00,26C
.................... }  
....................  
....................  
0125C:  BCF    FA6.5
0125E:  GOTO   009C
.................... #INT_rda4                                                                        //Reset PIC Interrupt, RS232 receive data available in buffer 4 
.................... void UART4_RXD(void) 
.................... { 
....................    reset_bffr[RESET_DATA] = fgetc(reset);                                        //carga el array reset_bffr con los datos enviados por el Reset PIC 
01262:  CLRF   03
01264:  MOVF   xEB,W
01266:  ADDLW  EC
01268:  MOVWF  FE9
0126A:  MOVLW  00
0126C:  ADDWFC 03,W
0126E:  MOVWF  FEA
01270:  BTFSS  FA6.7
01272:  BRA    1270
01274:  MOVLB  E
01276:  MOVFF  EFA,FEF
....................    RESET_DATA = ((RESET_DATA + 1) % RESET_size);                                 //cuando se obtenga el dato en la posicion 11 RESET_DATA=0 
0127A:  MOVLW  01
0127C:  MOVLB  0
0127E:  ADDWF  xEB,W
01280:  MOVLB  3
01282:  MOVWF  x78
01284:  MOVWF  x79
01286:  MOVLW  0B
01288:  MOVWF  x7A
0128A:  MOVLB  0
0128C:  RCALL  11FE
0128E:  MOVFF  00,EB
....................    //fputc(fgetc(reset),PC); 
....................    if(reset_bffr[0] == 0xaa)                                                     //get ready for reset satellite 
01292:  MOVF   xEC,W
01294:  SUBLW  AA
01296:  BNZ   129E
....................    { 
....................       reset_flag = 1;                                                            //pone a alto bandera para reseteo 
01298:  MOVLW  01
0129A:  MOVWF  xF7
....................       RESET_DATA = 0;                                                            //indicador de posicion dentro del vector reset_data 
0129C:  CLRF   xEB
....................    } 
....................     
0129E:  BCF    FA6.7
012A0:  GOTO   009C
.................... }  
....................  
.................... void settings() 
.................... { 
....................    set_tris_b(0b11010000);                                                       // Configuracion del puerto b 
*
03BC6:  MOVLW  D0
03BC8:  MOVWF  F93
....................    enable_interrupts(global);                                                    // Habilitacion de interrupciones globales       
03BCA:  MOVLW  C0
03BCC:  IORWF  FF2,F
....................    enable_interrupts(INT_rda);                                                   // Main to PC 
03BCE:  BSF    F9D.5
....................    enable_interrupts(INT_rda2);                                                  // Main to COM PIC 
03BD0:  BSF    FA3.5
....................    enable_interrupts(INT_rda3);                                                  // Main to FAB PIC    
03BD2:  BSF    F61.5
....................    enable_interrupts(INT_rda4);                                                  // Main to RESET PIC 
03BD4:  BSF    F61.7
....................  
....................    setup_timer_0(RTCC_INTERNAL | RTCC_DIV_256 | RTCC_8_BIT);                     //Config TMR0, internal clock, prescaler 256, clock/counter 8bit 
03BD6:  MOVLW  D7
03BD8:  MOVWF  FD5
....................    set_timer0(0);                                                                //this sets timer0 register to 0 
03BDA:  CLRF   FD7
03BDC:  CLRF   FD6
....................     
....................    READ_WRTITING_ADDRESS_LOCATION();                                             //save in ADD_INFO_ADDRESS with address info location 
03BDE:  GOTO   1826
....................    RESERVE_CHECK = 0;                                                            //bandera que indica si una tabla esta utilizada 
03BE2:  CLRF   x6B
....................    RESET_DATA = 0;                                                               //indicador de posicion dentro del vector reset_data 
03BE4:  CLRF   xEB
....................   
....................    CHECK_FLAG_INFO();                                                            //imprime el estado de los flags y los separa en cada variable correspondiente 
03BE6:  GOTO   2310
....................    CHECK_ADDRESS_DATA();                                                         //imprime los datos de direcciones y los separa en cada variable correspondiente 
03BEA:  GOTO   2560
....................     
....................    BC_SETUP();                                                                   //configuracion del conversor analogico digital para lectura de sensor de temperatura 
03BEE:  CALL   26CA
....................    
....................    output_low(PIN_A4);                                                           //kill switch off 
03BF2:  BCF    F92.4
03BF4:  BCF    F89.4
....................    Turn_OFF_CAM();                                                               //Camera switch OFF, RD7=0 
03BF6:  CALL   26E6
....................  //Turn_OFF_ADCS();                                                              //ADCS switch OFF, RD6=0   
....................    Turn_ON_ADCS();                                                               //ADCS switch ON, RD6=1 
03BFA:  CALL   26EC
....................    Turn_ON_MBP();                                                                //Mission Boss switch ON, RF5=1 
03BFE:  CALL   26F2
....................    Turn_OFF_BC();                                                                //Burner Circuit switch OFF, RD5=0 
03C02:  CALL   26F8
....................  
....................    fprintf(PC,"\r\n"); 
03C06:  MOVLW  0D
03C08:  BTFSS  F9E.4
03C0A:  BRA    3C08
03C0C:  MOVWF  FAD
03C0E:  MOVLW  0A
03C10:  BTFSS  F9E.4
03C12:  BRA    3C10
03C14:  MOVWF  FAD
....................    CURRENT_FLAG_STATUS();                                                        //Imprime en pantalla el estado de todos los flags 
03C16:  CALL   26FE
....................    fprintf(PC,"\r\n"); 
03C1A:  MOVLW  0D
03C1C:  BTFSS  F9E.4
03C1E:  BRA    3C1C
03C20:  MOVWF  FAD
03C22:  MOVLW  0A
03C24:  BTFSS  F9E.4
03C26:  BRA    3C24
03C28:  MOVWF  FAD
....................    CURRENT_ADDRESS_OF_FLASH();                                                   //Print current address allocation 
03C2A:  CALL   2970
....................    CHANGE_ADDRESS_WRITING_LOCATION();                                            //cambia la direccion de escritura cuando se superan los 95.000 ciclos 
03C2E:  CALL   31B6
....................  
....................    output_high(PIN_C4);                                                          //MUX: COM side (MAIN-COM) 
03C32:  BCF    F94.4
03C34:  BSF    F8B.4
....................    output_low(PIN_A5);                                                           //MUX: Main side (MAIN-MISSION) 
03C36:  BCF    F92.5
03C38:  BCF    F89.5
....................    
....................    Get_RSV();                                                                    //read the reservation table info from flash memory   
03C3A:  RCALL  34DE
....................    SAVE_SAT_LOG(0x25,0x25,0x25);                                                 //carga el RESET_bffr[] con los datos del reset PIC, verifica nro de escrituras flash  
03C3C:  MOVLW  25
03C3E:  MOVLB  3
03C40:  MOVWF  x54
03C42:  MOVWF  x55
03C44:  MOVWF  x56
03C46:  MOVLB  0
03C48:  RCALL  3A8A
....................    return;                                                                       //y guarda en las flash los datos en la direccion indicada por SAT_LOG 
03C4A:  GOTO   E328 (RETURN)
....................    
.................... }                                   
....................  
.................... ///////////TEST PART////////////////////////// 
.................... //#org DEFAULT  
.................... void main() 
*
0E082:  CLRF   FF8
0E084:  BCF    FF1.2
0E086:  BCF    F9F.5
0E088:  BSF    FA5.5
0E08A:  BCF    FA9.5
0E08C:  BCF    FA9.7
0E08E:  BSF    FD0.7
0E090:  BSF    07.7
0E092:  MOVLB  E
0E094:  MOVLW  55
0E096:  MOVWF  F7E
0E098:  MOVLW  AA
0E09A:  MOVWF  F7E
0E09C:  BCF    F66.6
0E09E:  MOVLW  F4
0E0A0:  MOVWF  x2A
0E0A2:  MOVLW  F5
0E0A4:  MOVWF  x2B
0E0A6:  MOVLW  F8
0E0A8:  MOVWF  x2C
0E0AA:  MOVLW  F9
0E0AC:  MOVWF  x2D
0E0AE:  MOVLW  01
0E0B0:  MOVWF  x1B
0E0B2:  MOVLW  20
0E0B4:  MOVWF  x1D
0E0B6:  MOVLW  30
0E0B8:  MOVWF  x22
0E0BA:  MOVLW  20
0E0BC:  MOVWF  x24
0E0BE:  MOVLW  55
0E0C0:  MOVWF  F7E
0E0C2:  MOVLW  AA
0E0C4:  MOVWF  F7E
0E0C6:  BSF    F66.6
0E0C8:  CLRF   F9B
0E0CA:  CLRF   F64
0E0CC:  CLRF   F65
0E0CE:  CLRF   F66
0E0D0:  MOVLW  02
0E0D2:  MOVWF  FD3
0E0D4:  BSF    F67.3
0E0D6:  MOVLW  22
0E0D8:  MOVWF  FAF
0E0DA:  MOVLW  00
0E0DC:  MOVLB  F
0E0DE:  MOVWF  x30
0E0E0:  MOVLW  A6
0E0E2:  MOVWF  FAC
0E0E4:  MOVLW  90
0E0E6:  MOVWF  FAB
0E0E8:  BSF    x31.3
0E0EA:  MOVLW  A0
0E0EC:  MOVWF  x1F
0E0EE:  MOVLW  01
0E0F0:  MOVWF  x20
0E0F2:  MOVLW  A6
0E0F4:  MOVWF  x32
0E0F6:  MOVLW  90
0E0F8:  MOVWF  x33
0E0FA:  BSF    x2D.3
0E0FC:  MOVLW  A0
0E0FE:  MOVWF  x2B
0E100:  MOVLW  01
0E102:  MOVWF  x2C
0E104:  MOVLW  A6
0E106:  MOVWF  x2E
0E108:  MOVLW  90
0E10A:  MOVWF  x2F
0E10C:  MOVLB  E
0E10E:  BSF    xFD.3
0E110:  MOVLW  A0
0E112:  MOVWF  xFB
0E114:  MOVLW  01
0E116:  MOVWF  xFC
0E118:  MOVLW  A6
0E11A:  MOVWF  xFE
0E11C:  MOVLW  90
0E11E:  MOVWF  xFF
0E120:  BCF    F97.7
0E122:  BSF    F8E.7
0E124:  BCF    F98.2
0E126:  BSF    F8F.2
0E128:  BCF    F98.0
0E12A:  BSF    F8F.0
0E12C:  BSF    F96.0
0E12E:  BCF    F96.6
0E130:  BCF    F96.1
0E132:  BCF    F8D.1
0E134:  BSF    F93.5
0E136:  BCF    F93.4
0E138:  BCF    F93.2
0E13A:  BCF    F8A.2
0E13C:  BSF    F92.0
0E13E:  BCF    F92.1
0E140:  BCF    F92.3
0E142:  BCF    F89.3
0E144:  CLRF   33
0E146:  CLRF   32
0E148:  MOVLW  10
0E14A:  MOVWF  31
0E14C:  CLRF   30
0E14E:  CLRF   37
0E150:  CLRF   36
0E152:  CLRF   35
0E154:  CLRF   34
0E156:  CLRF   3B
0E158:  MOVLW  04
0E15A:  MOVWF  3A
0E15C:  CLRF   39
0E15E:  CLRF   38
0E160:  CLRF   3F
0E162:  MOVLW  05
0E164:  MOVWF  3E
0E166:  CLRF   3D
0E168:  CLRF   3C
0E16A:  CLRF   43
0E16C:  MOVLW  06
0E16E:  MOVWF  42
0E170:  CLRF   41
0E172:  CLRF   40
0E174:  CLRF   47
0E176:  MOVLW  08
0E178:  MOVWF  46
0E17A:  CLRF   45
0E17C:  CLRF   44
0E17E:  CLRF   4B
0E180:  MOVLW  62
0E182:  MOVWF  4A
0E184:  CLRF   49
0E186:  CLRF   48
0E188:  MOVLW  04
0E18A:  MOVWF  4F
0E18C:  MOVLW  4A
0E18E:  MOVWF  4E
0E190:  CLRF   4D
0E192:  CLRF   4C
0E194:  MOVLW  04
0E196:  MOVWF  53
0E198:  MOVLW  72
0E19A:  MOVWF  52
0E19C:  CLRF   51
0E19E:  CLRF   50
0E1A0:  MOVLW  06
0E1A2:  MOVWF  57
0E1A4:  MOVLW  65
0E1A6:  MOVWF  56
0E1A8:  CLRF   55
0E1AA:  CLRF   54
0E1AC:  MOVLW  06
0E1AE:  MOVWF  5B
0E1B0:  MOVLW  66
0E1B2:  MOVWF  5A
0E1B4:  CLRF   59
0E1B6:  CLRF   58
0E1B8:  MOVLW  06
0E1BA:  MOVWF  5F
0E1BC:  MOVLW  67
0E1BE:  MOVWF  5E
0E1C0:  CLRF   5D
0E1C2:  CLRF   5C
0E1C4:  MOVLB  0
0E1C6:  CLRF   x63
0E1C8:  MOVLW  01
0E1CA:  MOVWF  x62
0E1CC:  MOVLW  80
0E1CE:  MOVWF  x61
0E1D0:  CLRF   x60
0E1D2:  CLRF   x67
0E1D4:  MOVLW  01
0E1D6:  MOVWF  x66
0E1D8:  MOVLW  80
0E1DA:  MOVWF  x65
0E1DC:  MOVLW  1C
0E1DE:  MOVWF  x64
0E1E0:  CLRF   x68
0E1E2:  CLRF   x6A
0E1E4:  CLRF   x69
0E1E6:  CLRF   x6B
0E1E8:  CLRF   x6C
0E1EA:  CLRF   x6D
0E1EC:  CLRF   x6E
0E1EE:  CLRF   x6F
0E1F0:  CLRF   x70
0E1F2:  CLRF   x71
0E1F4:  CLRF   x72
0E1F6:  CLRF   x73
0E1F8:  CLRF   x74
0E1FA:  CLRF   x75
0E1FC:  CLRF   x76
0E1FE:  CLRF   x77
0E200:  CLRF   x78
0E202:  CLRF   x79
0E204:  CLRF   x7A
0E206:  CLRF   x7B
0E208:  CLRF   x7C
0E20A:  CLRF   x7D
0E20C:  CLRF   x96
0E20E:  CLRF   x97
0E210:  CLRF   x98
0E212:  CLRF   x99
0E214:  CLRF   x9A
0E216:  CLRF   xE9
0E218:  CLRF   xEA
0E21A:  CLRF   xEB
0E21C:  CLRF   xF7
0E21E:  MOVLB  1
0E220:  CLRF   x32
0E222:  CLRF   x31
0E224:  CLRF   x84
0E226:  CLRF   x91
0E228:  CLRF   x90
0E22A:  CLRF   x93
0E22C:  CLRF   x92
0E22E:  CLRF   x95
0E230:  CLRF   x94
0E232:  CLRF   x97
0E234:  CLRF   x96
0E236:  CLRF   x9B
0E238:  CLRF   x9A
0E23A:  CLRF   x99
0E23C:  CLRF   x98
0E23E:  CLRF   x9F
0E240:  CLRF   x9E
0E242:  CLRF   x9D
0E244:  CLRF   x9C
0E246:  CLRF   xA3
0E248:  CLRF   xA2
0E24A:  CLRF   xA1
0E24C:  CLRF   xA0
0E24E:  CLRF   xA5
0E250:  CLRF   xA4
0E252:  MOVLB  2
0E254:  CLRF   x6C
0E256:  CLRF   x6D
0E258:  CLRF   x6E
0E25A:  CLRF   x72
0E25C:  CLRF   x71
0E25E:  CLRF   x70
0E260:  CLRF   x6F
0E262:  CLRF   x73
0E264:  CLRF   xC4
0E266:  CLRF   xC3
0E268:  CLRF   xC2
0E26A:  CLRF   xC1
0E26C:  CLRF   xC5
0E26E:  CLRF   xC6
0E270:  MOVLB  3
0E272:  CLRF   x1A
0E274:  CLRF   x1C
0E276:  CLRF   x1B
0E278:  CLRF   x1E
0E27A:  CLRF   x1D
0E27C:  CLRF   x1F
0E27E:  CLRF   x20
0E280:  CLRF   x24
0E282:  CLRF   x23
0E284:  CLRF   x22
0E286:  CLRF   x21
0E288:  CLRF   x28
0E28A:  CLRF   x27
0E28C:  CLRF   x26
0E28E:  CLRF   x25
0E290:  MOVLB  E
0E292:  CLRF   xD9
0E294:  CLRF   xDA
0E296:  CLRF   x45
0E298:  CLRF   x46
0E29A:  CLRF   x47
0E29C:  BCF    x8D.7
0E29E:  BCF    x8D.6
0E2A0:  BCF    x8D.5
0E2A2:  MOVLB  1
0E2A4:  CLRF   x88
0E2A6:  MOVLB  F
0E2A8:  CLRF   x53
0E2AA:  CLRF   x38
0E2AC:  CLRF   x37
0E2AE:  BRA    E2E4
0E2B0:  DATA 18,40
0E2B2:  DATA 7E,00
0E2B4:  DATA 4E,40
0E2B6:  DATA 9B,00
0E2B8:  DATA 0B,40
0E2BA:  DATA EC,00
0E2BC:  DATA 39,40
0E2BE:  DATA F8,00
0E2C0:  DATA 51,41
0E2C2:  DATA 33,00
0E2C4:  DATA 0B,41
0E2C6:  DATA 85,00
0E2C8:  DATA AE,41
0E2CA:  DATA A6,00
0E2CC:  DATA 01,80
0E2CE:  DATA AA,16
0E2D0:  DATA C0,00
0E2D2:  DATA 01,80
0E2D4:  DATA BB,01
0E2D6:  DATA 02,74
0E2D8:  DATA AA,4B
0E2DA:  DATA C0,00
0E2DC:  DATA 01,80
0E2DE:  DATA BB,53
0E2E0:  DATA 42,C7
0E2E2:  DATA 00,00
0E2E4:  MOVLW  00
0E2E6:  MOVWF  FF8
0E2E8:  MOVLW  E2
0E2EA:  MOVWF  FF7
0E2EC:  MOVLW  B0
0E2EE:  MOVWF  FF6
0E2F0:  TBLRD*+
0E2F2:  MOVF   FF5,W
0E2F4:  MOVWF  00
0E2F6:  XORLW  00
0E2F8:  BZ    E320
0E2FA:  TBLRD*+
0E2FC:  MOVF   FF5,W
0E2FE:  MOVWF  01
0E300:  BTFSC  FE8.7
0E302:  BRA    E30E
0E304:  ANDLW  0F
0E306:  MOVWF  FEA
0E308:  TBLRD*+
0E30A:  MOVFF  FF5,FE9
0E30E:  BTFSC  01.6
0E310:  TBLRD*+
0E312:  BTFSS  01.6
0E314:  TBLRD*+
0E316:  MOVFF  FF5,FEE
0E31A:  DCFSNZ 00,F
0E31C:  BRA    E2F0
0E31E:  BRA    E312
0E320:  CLRF   FF8
.................... { 
....................  
....................    settings(); 
0E322:  MOVLB  0
0E324:  GOTO   3BC6
....................    enable_interrupts(INT_TIMER0); 
0E328:  BSF    FF2.5
....................    fprintf(PC,"Start Operating\r\n"); 
0E32A:  MOVLW  A4
0E32C:  MOVWF  FF6
0E32E:  MOVLW  12
0E330:  MOVWF  FF7
0E332:  MOVLW  00
0E334:  MOVWF  FF8
0E336:  CALL   318C
....................     
....................    FAB_TEST_OPERATION();                                                         //carga el array FABDATA[], crea el CW format y los guarda en la Flash 
0E33A:  CALL   542A
....................     
....................    STORE_ADRESS_DATA_TO_FLASH();                                                 //guarda los datos de direcciones en flash, y en un nuevo sector si se cumple el ciclo 95000 
0E33E:  CALL   3776
....................    CURRENT_ADDRESS_OF_FLASH();                                                   //imprime la asignacion de direcciones de la Flash memory 
0E342:  CALL   2970
....................    STORE_FLAG_INFO();                                                            //save flag data to flash memory (in OF, SCF and SMF) 
0E346:  CALL   5714
....................    WRITE_FLAG_to_EEPROM();                                                       //guarda los flags en la EEPROM a partir de la direccion 0x18000 (75%) 
0E34A:  CALL   5924
....................  
....................    
....................    fprintf(PC,"\r\nCW:"); 
0E34E:  MOVLW  B6
0E350:  MOVWF  FF6
0E352:  MOVLW  12
0E354:  MOVWF  FF7
0E356:  MOVLW  00
0E358:  MOVWF  FF8
0E35A:  CALL   318C
....................    for(int i = 0; i < 4; i++)                                                    //imprime el contenido del array CW_FORMAT[] 
0E35E:  MOVLB  3
0E360:  CLRF   x29
0E362:  MOVF   x29,W
0E364:  SUBLW  03
0E366:  BNC   E392
....................    { 
....................       fprintf(PC,"%x,",CW_FORMAT[i]); 
0E368:  CLRF   03
0E36A:  MOVF   x29,W
0E36C:  ADDLW  A6
0E36E:  MOVWF  FE9
0E370:  MOVLW  01
0E372:  ADDWFC 03,W
0E374:  MOVWF  FEA
0E376:  MOVFF  FEF,363
0E37A:  MOVLW  57
0E37C:  MOVWF  x64
0E37E:  MOVLB  0
0E380:  CALL   17E0
0E384:  MOVLW  2C
0E386:  BTFSS  F9E.4
0E388:  BRA    E386
0E38A:  MOVWF  FAD
0E38C:  MOVLB  3
0E38E:  INCF   x29,F
0E390:  BRA    E362
....................    } 
....................    fprintf(PC,"%x\r\n",CW_FORMAT[4]); 
0E392:  MOVFF  1AA,363
0E396:  MOVLW  57
0E398:  MOVWF  x64
0E39A:  MOVLB  0
0E39C:  CALL   17E0
0E3A0:  MOVLW  0D
0E3A2:  BTFSS  F9E.4
0E3A4:  BRA    E3A2
0E3A6:  MOVWF  FAD
0E3A8:  MOVLW  0A
0E3AA:  BTFSS  F9E.4
0E3AC:  BRA    E3AA
0E3AE:  MOVWF  FAD
....................    Antenna_Deploy();                                                             //after each restart check BC_ATTEMPT_FLAG to deploy antenna 
0E3B0:  GOTO   6668
....................    //CAM deployment 
....................    if(PASSED_DAYS == 0 && UPLINK_SUCCESS == 0)                                  //automated CAM DEPLOYMENT mission condition 
0E3B4:  MOVF   x69,F
0E3B6:  BNZ   E3CC
0E3B8:  MOVF   x6A,F
0E3BA:  BNZ   E3CC
0E3BC:  MOVF   x7C,F
0E3BE:  BNZ   E3CC
....................    {   
....................       CAM_DEPLOYMENT_OPERATION(0xAD);                                           //CMD for CAM deployment mode 
0E3C0:  MOVLW  AD
0E3C2:  MOVLB  3
0E3C4:  MOVWF  x2C
0E3C6:  MOVLB  0
0E3C8:  GOTO   6B08
....................    } 
....................    //try 5 times for reliability 
....................    AUTOMATICAL_MISSION_CHECK(); 
0E3CC:  CALL   9E46
....................    AUTOMATICAL_MISSION_CHECK(); 
0E3D0:  CALL   9E46
....................    AUTOMATICAL_MISSION_CHECK(); 
0E3D4:  CALL   9E46
....................    AUTOMATICAL_MISSION_CHECK(); 
0E3D8:  CALL   9E46
....................    AUTOMATICAL_MISSION_CHECK(); 
0E3DC:  CALL   9E46
....................  
....................    RESET_DATA = 0;                                                               //bandera a cero 
0E3E0:  CLRF   xEB
....................  
....................  
....................    while(true) 
....................    { 
....................  
....................       BC_ON_30min();                                                             //if satellite shut down during automatical MSN, this function will be used after start again       
0E3E2:  CALL   7764
....................       RESET_SATELLITE();                                                         //check reset command from RESET PIC 
0E3E6:  CALL   7C44
....................        
....................       if(FAB_FLAG > 89)                                                          //every 90 sec, OBC gather sensor data and update CW format  
0E3EA:  MOVLB  2
0E3EC:  MOVF   x72,F
0E3EE:  BNZ   E3FE
0E3F0:  MOVF   x71,F
0E3F2:  BNZ   E3FE
0E3F4:  MOVF   x70,F
0E3F6:  BNZ   E3FE
0E3F8:  MOVF   x6F,W
0E3FA:  SUBLW  59
0E3FC:  BC    E490
....................       { 
....................          FAB_FLAG = 0; 
0E3FE:  CLRF   x72
0E400:  CLRF   x71
0E402:  CLRF   x70
0E404:  CLRF   x6F
....................          fprintf(PC,"\r\n***90sec passed***\r\n"); 
0E406:  MOVLW  BC
0E408:  MOVWF  FF6
0E40A:  MOVLW  12
0E40C:  MOVWF  FF7
0E40E:  MOVLW  00
0E410:  MOVWF  FF8
0E412:  MOVLB  0
0E414:  CALL   318C
....................          FAB_TEST_OPERATION();                                                   //carga el array FABDATA[], crea el CW format y los guarda en la Flash 
0E418:  CALL   542A
....................          COM_DATA = 0; 
0E41C:  CLRF   x96
....................          STORE_ADRESS_DATA_TO_FLASH();                                           //for store the address info 
0E41E:  CALL   3776
....................          fprintf(PC,"CW:"); 
0E422:  MOVLW  D4
0E424:  MOVWF  FF6
0E426:  MOVLW  12
0E428:  MOVWF  FF7
0E42A:  MOVLW  00
0E42C:  MOVWF  FF8
0E42E:  CALL   318C
....................          for(int i = 0; i < 4; i++)                                              //show CW format 
0E432:  MOVLB  3
0E434:  CLRF   x2A
0E436:  MOVF   x2A,W
0E438:  SUBLW  03
0E43A:  BNC   E466
....................          { 
....................             fprintf(PC,"%x,",CW_FORMAT[i]); 
0E43C:  CLRF   03
0E43E:  MOVF   x2A,W
0E440:  ADDLW  A6
0E442:  MOVWF  FE9
0E444:  MOVLW  01
0E446:  ADDWFC 03,W
0E448:  MOVWF  FEA
0E44A:  MOVFF  FEF,363
0E44E:  MOVLW  57
0E450:  MOVWF  x64
0E452:  MOVLB  0
0E454:  CALL   17E0
0E458:  MOVLW  2C
0E45A:  BTFSS  F9E.4
0E45C:  BRA    E45A
0E45E:  MOVWF  FAD
0E460:  MOVLB  3
0E462:  INCF   x2A,F
0E464:  BRA    E436
....................          } 
....................          fprintf(PC,"%x\r\n",CW_FORMAT[4]); 
0E466:  MOVFF  1AA,363
0E46A:  MOVLW  57
0E46C:  MOVWF  x64
0E46E:  MOVLB  0
0E470:  CALL   17E0
0E474:  MOVLW  0D
0E476:  BTFSS  F9E.4
0E478:  BRA    E476
0E47A:  MOVWF  FAD
0E47C:  MOVLW  0A
0E47E:  BTFSS  F9E.4
0E480:  BRA    E47E
0E482:  MOVWF  FAD
....................          DELETE_CMD_FROM_PC();                                                   //delete PC command 
0E484:  CALL   9F1C
....................          PC_DATA = 0;                                                            //reset interrupt data for safety 
0E488:  CLRF   x99
....................          COM_DATA = 0;                                                           //reset interrupt data for safety 
0E48A:  CLRF   x96
....................          RESET_DATA = 0;                                                         //reset interrupt data for safety 
0E48C:  CLRF   xEB
0E48E:  MOVLB  2
....................       }    
....................        
....................       if((RESERVE_MIN_FLAG >= RESERVE_TARGET_FLAG) && RESERVE_CHECK == 1)        //check the reservation command, if time came, execute 
0E490:  MOVLB  0
0E492:  MOVF   x6D,W
0E494:  SUBWF  x6C,W
0E496:  BNC   E4F6
0E498:  DECFSZ x6B,W
0E49A:  BRA    E4F6
....................       { 
....................          fprintf(PC,"Execute reserved command\r\n"); 
0E49C:  MOVLW  D8
0E49E:  MOVWF  FF6
0E4A0:  MOVLW  12
0E4A2:  MOVWF  FF7
0E4A4:  MOVLW  00
0E4A6:  MOVWF  FF8
0E4A8:  CALL   318C
....................          MISSION_CONTENTS = CHECK_MEMORY_FUNCTION(MISSION_CONTENTS);             //avoid erase or transfer sectors from memory as reserved commands 
0E4AC:  MOVFF  6E,32C
0E4B0:  GOTO   9F3E
0E4B4:  MOVFF  01,6E
....................          EXECUTE_MISSION_from_COM(MISSION_CONTENTS,MISSION_DETAIL,RESERVE_ADDRESS_1,RESERVE_ADDRESS_2,RESERVE_ADDRESS_3,RESERVE_ADDRESS_4,RESERVE_PACKET_NUM);    //execute command 
0E4B8:  MOVFF  6E,32C
0E4BC:  MOVFF  6F,32D
0E4C0:  MOVFF  70,32E
0E4C4:  MOVFF  71,32F
0E4C8:  MOVFF  72,330
0E4CC:  MOVFF  73,331
0E4D0:  MOVFF  74,332
0E4D4:  CALL   C524
....................          Remove_1_Reservation();                                                 //remove the finished command and sort again and save updated command table 
0E4D8:  GOTO   D266
....................          if(reserve_table[80] != 0x00)                                           //if next reservation is registered, wait until time will be come 
0E4DC:  MOVLB  1
0E4DE:  MOVF   x83,F
0E4E0:  BZ    E4EC
....................          { 
....................             Reserve_next();                                                      //take the next CMD from the table 
0E4E2:  MOVLB  0
0E4E4:  GOTO   D304
....................          }else{                                                                  //if all reservation finished, reset flag about reservation 
0E4E8:  BRA    E4F6
0E4EA:  MOVLB  1
....................             RESERVE_TARGET_FLAG = 0;                                             //reset flag 
0E4EC:  MOVLB  0
0E4EE:  CLRF   x6D
....................             RESERVE_CHECK = 0; 
0E4F0:  CLRF   x6B
....................             MISSION_CONTENTS = 0; 
0E4F2:  CLRF   x6E
....................             MISSION_DETAIL = 0; 
0E4F4:  CLRF   x6F
....................          } 
....................       } 
....................        
....................       if(buffer_from_com)                                                        //If TRU -> (in_bffr_main[0]==0xAA) && (in_bffr_main[15]==0xBB) 
0E4F6:  MOVF   x86,W
0E4F8:  SUBLW  AA
0E4FA:  BNZ   E58E
0E4FC:  MOVF   x95,W
0E4FE:  SUBLW  BB
0E500:  BNZ   E58E
....................       { 
....................          fprintf(PC,"COM COMMAND:\r\n"); 
0E502:  MOVLW  F4
0E504:  MOVWF  FF6
0E506:  MOVLW  12
0E508:  MOVWF  FF7
0E50A:  MOVLW  00
0E50C:  MOVWF  FF8
0E50E:  CALL   318C
....................          for(COM_DATA = 0; COM_DATA < 16; COM_DATA++)                            //display command in PC 
0E512:  CLRF   x96
0E514:  MOVF   x96,W
0E516:  SUBLW  0F
0E518:  BNC   E544
....................          { 
....................             //fputc(in_bffr_main[COM_DATA],PC); 
....................             fprintf(PC,"%x,",in_bffr_main[COM_DATA]);                            //para visualizar en la PC 
0E51A:  CLRF   03
0E51C:  MOVF   x96,W
0E51E:  ADDLW  86
0E520:  MOVWF  FE9
0E522:  MOVLW  00
0E524:  ADDWFC 03,W
0E526:  MOVWF  FEA
0E528:  MOVFF  FEF,363
0E52C:  MOVLW  57
0E52E:  MOVLB  3
0E530:  MOVWF  x64
0E532:  MOVLB  0
0E534:  CALL   17E0
0E538:  MOVLW  2C
0E53A:  BTFSS  F9E.4
0E53C:  BRA    E53A
0E53E:  MOVWF  FAD
0E540:  INCF   x96,F
0E542:  BRA    E514
....................          } 
....................          COM_DATA = 0;                                                           //position indicator for the vector in_bffr_main[] 
0E544:  CLRF   x96
....................          //fprintf(PC,"COM COMMAND\r\n"); 
....................          if(in_bffr_main[5] == 0)                                                //if time data is not placed 
0E546:  MOVF   x8B,F
0E548:  BNZ   E56C
....................          { 
....................             EXECUTE_MISSION_from_COM(in_bffr_main[4],in_bffr_main[6],in_bffr_main[7],in_bffr_main[8],in_bffr_main[9],in_bffr_main[10],in_bffr_main[11]); 
0E54A:  MOVFF  8A,32C
0E54E:  MOVFF  8C,32D
0E552:  MOVFF  8D,32E
0E556:  MOVFF  8E,32F
0E55A:  MOVFF  8F,330
0E55E:  MOVFF  90,331
0E562:  MOVFF  91,332
0E566:  CALL   C524
....................          }else{                                                                  //if time data is placed (that means reservation command) 
0E56A:  BRA    E580
....................             SAVE_SAT_LOG(in_bffr_main[4],in_bffr_main[5],in_bffr_main[6]);       //reservation command log 
0E56C:  MOVFF  8A,354
0E570:  MOVFF  8B,355
0E574:  MOVFF  8C,356
0E578:  CALL   3A8A
....................             Reserve_command_COM();                                               //used when in_bffr_main[5] has a Time value 
0E57C:  GOTO   D54C
....................          } 
....................          DELETE_CMD_FROM_PC();                                                   //set to zero the array CMD_FROM_PC[] 
0E580:  CALL   9F1C
....................          Delete_Buffer();                                                        //set to zero the array in_bffr_main[] 
0E584:  CALL   4296
....................          CMD_FROM_PC[1] = 0; 
0E588:  CLRF   x7F
....................          COM_DATA = 0;                                                           //position indicator for the vector in_bffr_main[] 
0E58A:  CLRF   x96
....................          PC_DATA = 0;                                                            //position indicator for the vector CMD_FROM_PC[] 
0E58C:  CLRF   x99
....................       } 
....................        
.................... //COMMANDS EXECUTION FROM PC//        
....................        
....................       if(CMD_FROM_PC[0]) 
0E58E:  MOVF   x7E,F
0E590:  BZ    E626
....................       { 
....................          fprintf(PC,"COMMAND RECEIVED FROM PC: "); 
0E592:  MOVLW  04
0E594:  MOVWF  FF6
0E596:  MOVLW  13
0E598:  MOVWF  FF7
0E59A:  MOVLW  00
0E59C:  MOVWF  FF8
0E59E:  CALL   318C
....................          for(int m = 0; m < 8; m++) 
0E5A2:  MOVLB  3
0E5A4:  CLRF   x2B
0E5A6:  MOVF   x2B,W
0E5A8:  SUBLW  07
0E5AA:  BNC   E5CE
....................          { 
....................             fprintf(PC,"%x",CMD_FROM_PC[m]); 
0E5AC:  CLRF   03
0E5AE:  MOVF   x2B,W
0E5B0:  ADDLW  7E
0E5B2:  MOVWF  FE9
0E5B4:  MOVLW  00
0E5B6:  ADDWFC 03,W
0E5B8:  MOVWF  FEA
0E5BA:  MOVFF  FEF,363
0E5BE:  MOVLW  57
0E5C0:  MOVWF  x64
0E5C2:  MOVLB  0
0E5C4:  CALL   17E0
0E5C8:  MOVLB  3
0E5CA:  INCF   x2B,F
0E5CC:  BRA    E5A6
....................          } 
....................          fprintf(PC,"\r\n"); 
0E5CE:  MOVLW  0D
0E5D0:  BTFSS  F9E.4
0E5D2:  BRA    E5D0
0E5D4:  MOVWF  FAD
0E5D6:  MOVLW  0A
0E5D8:  BTFSS  F9E.4
0E5DA:  BRA    E5D8
0E5DC:  MOVWF  FAD
....................           
....................          if(CMD_FROM_PC[1] == 0)                                                 //if time data is not placed 
0E5DE:  MOVLB  0
0E5E0:  MOVF   x7F,F
0E5E2:  BNZ   E606
....................          { 
....................             EXECUTE_MISSION_from_PC(CMD_FROM_PC[0],CMD_FROM_PC[2],CMD_FROM_PC[3],CMD_FROM_PC[4],CMD_FROM_PC[5],CMD_FROM_PC[6],CMD_FROM_PC[7]);//execute mission 
0E5E4:  MOVFF  7E,32C
0E5E8:  MOVFF  80,32D
0E5EC:  MOVFF  81,32E
0E5F0:  MOVFF  82,32F
0E5F4:  MOVFF  83,330
0E5F8:  MOVFF  84,331
0E5FC:  MOVFF  85,332
0E600:  GOTO   D5FE
....................          }else{                                                                  //if time data is placed (that means reservation command) 
0E604:  BRA    E618
....................             SAVE_SAT_LOG(CMD_FROM_PC[0],CMD_FROM_PC[1],CMD_FROM_PC[2]);          //reservation command log 
0E606:  MOVFF  7E,354
0E60A:  MOVFF  7F,355
0E60E:  MOVFF  80,356
0E612:  CALL   3A8A
....................             Reserve_command_PC();                                                //mission command reservation from PC comand 
0E616:  BRA    E032
....................          } 
....................          DELETE_CMD_FROM_PC();                                                   //clear CMD_FROM_PC[] array 
0E618:  CALL   9F1C
....................          Delete_Buffer();                                                        //clear in_bffr_main[] array 
0E61C:  CALL   4296
....................          CMD_FROM_PC[1] = 0; 
0E620:  CLRF   x7F
....................          COM_DATA = 0;                                                           //clear COM correct receiving data flag 
0E622:  CLRF   x96
....................          PC_DATA = 0;                                                            //clear PC correct receiving data flag 
0E624:  CLRF   x99
....................       } 
....................        
....................       if(COM_DATA != 0 || PC_DATA != 0)                                          //COM_DATA Y PC_DATA SERAN CERO SI SE RECIBEN LA CANTIDAD CORRECTA DE CARACTERES 
0E626:  MOVF   x96,F
0E628:  BNZ   E62E
0E62A:  MOVF   x99,F
0E62C:  BZ    E65E
....................       { 
....................          delay_ms(500); 
0E62E:  MOVLW  02
0E630:  MOVLB  3
0E632:  MOVWF  x2C
0E634:  MOVLW  FA
0E636:  MOVWF  x6B
0E638:  MOVLB  0
0E63A:  CALL   1AFC
0E63E:  MOVLB  3
0E640:  DECFSZ x2C,F
0E642:  BRA    E634
....................          if(PC_DATA != 0)                                                        //Si no se recibio la cantidad correcta de caracteres pone a cero el array CMD_FROM_PC 
0E644:  MOVLB  0
0E646:  MOVF   x99,F
0E648:  BZ    E65E
....................          { 
....................             CMD_FROM_PC[0] = 0; 
0E64A:  CLRF   x7E
....................             CMD_FROM_PC[1] = 0; 
0E64C:  CLRF   x7F
....................             CMD_FROM_PC[2] = 0; 
0E64E:  CLRF   x80
....................             CMD_FROM_PC[3] = 0; 
0E650:  CLRF   x81
....................             CMD_FROM_PC[4] = 0; 
0E652:  CLRF   x82
....................             CMD_FROM_PC[5] = 0; 
0E654:  CLRF   x83
....................             CMD_FROM_PC[6] = 0; 
0E656:  CLRF   x84
....................             CMD_FROM_PC[7] = 0; 
0E658:  CLRF   x85
....................             COM_DATA = 0; 
0E65A:  CLRF   x96
....................             PC_DATA = 0; 
0E65C:  CLRF   x99
....................          } 
....................       } 
....................       delay_ms(400);  
0E65E:  MOVLW  02
0E660:  MOVLB  3
0E662:  MOVWF  x2C
0E664:  MOVLW  C8
0E666:  MOVWF  x6B
0E668:  MOVLB  0
0E66A:  CALL   1AFC
0E66E:  MOVLB  3
0E670:  DECFSZ x2C,F
0E672:  BRA    E664
0E674:  MOVLB  0
0E676:  BRA    E3E2
....................     
....................    } 
....................  
.................... } 
....................  
0E678:  SLEEP 
....................  

Configuration Fuses:
   Word  1: F6A0   STVREN NOXINST NODEBUG NOBROWNOUT BORV18 NOPROTECT
   Word  2: FFA2   PR SOSC_DIG CLOCKOUT IESO NOPLL
   Word  3: F032   HS
   Word  4: F7FF   WPFP WPDIS WPEND NOWPCFG
   Word  5: FF03   T5G_IS_T5G CINA_DEFAULT IOL1WAY LS48MHZ MSSP2MSK7 MSSPMSK7
   Word  6: FCFF   WDTWIN_25% WDTCLK_FRC WDT32768 NOWDT WINDIS WPRES128
   Word  7: F01D   NOVREGSLEEP VBATBOR DSBOR DS_SW
   Word  8: F3F8   DSWDT_25DAYS DSWDT DSWDTOSC_INT
